ARM GAS  /tmp/cclYivFL.s 			page 1


   1              		.syntax unified
   2              		.cpu cortex-m3
   3              		.fpu softvfp
   4              		.eabi_attribute 20, 1
   5              		.eabi_attribute 21, 1
   6              		.eabi_attribute 23, 3
   7              		.eabi_attribute 24, 1
   8              		.eabi_attribute 25, 1
   9              		.eabi_attribute 26, 1
  10              		.eabi_attribute 30, 2
  11              		.eabi_attribute 34, 1
  12              		.eabi_attribute 18, 4
  13              		.thumb
  14              		.file	"camera_iface.c"
  15              		.text
  16              	.Ltext0:
  17              		.cfi_sections	.debug_frame
  18              		.section	.text.startCondition,"ax",%progbits
  19              		.align	2
  20              		.p2align 4,,15
  21              		.thumb
  22              		.thumb_func
  23              		.type	startCondition, %function
  24              	startCondition:
  25              	.LFB65:
  26              		.file 1 "./camera_iface/camera_iface.c"
  27              		.loc 1 207 0
  28              		.cfi_startproc
  29              		@ args = 0, pretend = 0, frame = 0
  30              		@ frame_needed = 0, uses_anonymous_args = 0
  31 0000 38B5     		push	{r3, r4, r5, lr}
  32              	.LCFI0:
  33              		.cfi_def_cfa_offset 16
  34              		.cfi_offset 3, -16
  35              		.cfi_offset 4, -12
  36              		.cfi_offset 5, -8
  37              		.cfi_offset 14, -4
  38              	.LBB11:
  39              		.loc 1 208 0
  40 0002 2023     		movs	r3, #32
  41              	.LVL0:
  42              	@ 208 "./camera_iface/camera_iface.c" 1
  43 0004 83F31188 		msr     BASEPRI, r3
  44              	@ 0 "" 2
  45              	.LVL1:
  46              		.thumb
  47              	.LBE11:
  48              		.loc 1 211 0
  49 0008 4FF48065 		mov	r5, #1024
  50 000c C4F20205 		movt	r5, 16386
  51 0010 4FF40073 		mov	r3, #512
  52              	.LVL2:
  53              		.loc 1 214 0
  54 0014 40F20004 		movw	r4, #:lower16:GPTD3
  55 0018 C0F20004 		movt	r4, #:upper16:GPTD3
  56              		.loc 1 211 0
  57 001c AB61     		str	r3, [r5, #24]
ARM GAS  /tmp/cclYivFL.s 			page 2


  58              		.loc 1 212 0
  59 001e 4FF48073 		mov	r3, #256
  60              		.loc 1 214 0
  61 0022 2046     		mov	r0, r4
  62              		.loc 1 212 0
  63 0024 AB61     		str	r3, [r5, #24]
  64              		.loc 1 214 0
  65 0026 4FF42071 		mov	r1, #640
  66 002a FFF7FEFF 		bl	gptPolledDelay
  67              	.LVL3:
  68              		.loc 1 216 0
  69 002e 4FF00073 		mov	r3, #33554432
  70              		.loc 1 217 0
  71 0032 2046     		mov	r0, r4
  72              		.loc 1 216 0
  73 0034 AB61     		str	r3, [r5, #24]
  74              		.loc 1 217 0
  75 0036 4FF42071 		mov	r1, #640
  76 003a FFF7FEFF 		bl	gptPolledDelay
  77              	.LVL4:
  78              		.loc 1 219 0
  79 003e 4FF08073 		mov	r3, #16777216
  80 0042 AB61     		str	r3, [r5, #24]
  81              		.loc 1 220 0
  82 0044 2046     		mov	r0, r4
  83 0046 4FF42071 		mov	r1, #640
  84 004a FFF7FEFF 		bl	gptPolledDelay
  85              	.LVL5:
  86              	.LBB12:
  87              		.loc 1 222 0
  88 004e 0023     		movs	r3, #0
  89              	.LVL6:
  90              	@ 222 "./camera_iface/camera_iface.c" 1
  91 0050 83F31188 		msr     BASEPRI, r3
  92              	@ 0 "" 2
  93              	.LVL7:
  94              		.thumb
  95 0054 38BD     		pop	{r3, r4, r5, pc}
  96              	.LBE12:
  97              		.cfi_endproc
  98              	.LFE65:
  99              		.size	startCondition, .-startCondition
 100 0056 00BFAFF3 		.section	.text.writeByte,"ax",%progbits
 100      0080AFF3 
 100      0080
 101              		.align	2
 102              		.p2align 4,,15
 103              		.thumb
 104              		.thumb_func
 105              		.type	writeByte, %function
 106              	writeByte:
 107              	.LFB68:
 108              		.loc 1 254 0
 109              		.cfi_startproc
 110              		@ args = 0, pretend = 0, frame = 0
 111              		@ frame_needed = 0, uses_anonymous_args = 0
 112              	.LVL8:
ARM GAS  /tmp/cclYivFL.s 			page 3


 113 0000 F8B5     		push	{r3, r4, r5, r6, r7, lr}
 114              	.LCFI1:
 115              		.cfi_def_cfa_offset 24
 116              		.cfi_offset 3, -24
 117              		.cfi_offset 4, -20
 118              		.cfi_offset 5, -16
 119              		.cfi_offset 6, -12
 120              		.cfi_offset 7, -8
 121              		.cfi_offset 14, -4
 122              		.loc 1 254 0
 123 0002 0546     		mov	r5, r0
 124              	.LBB13:
 125              		.loc 1 256 0
 126 0004 2023     		movs	r3, #32
 127              	.LVL9:
 128              	@ 256 "./camera_iface/camera_iface.c" 1
 129 0006 83F31188 		msr     BASEPRI, r3
 130              	@ 0 "" 2
 131              	.LVL10:
 132              		.thumb
 133              	.LBE13:
 134              		.loc 1 258 0
 135 000a 6848     		ldr	r0, .L19
 136              	.LVL11:
 137 000c 4FF42071 		mov	r1, #640
 138 0010 FFF7FEFF 		bl	gptPolledDelay
 139              	.LVL12:
 140              		.loc 1 260 0
 141 0014 EA09     		lsrs	r2, r5, #7
 142 0016 14BF     		ite	ne
 143 0018 0023     		movne	r3, #0
 144 001a 4FF00073 		moveq	r3, #33554432
 145              		.loc 1 259 0
 146 001e 4FF48064 		mov	r4, #1024
 147 0022 C4F20204 		movt	r4, 16386
 148              		.loc 1 260 0
 149 0026 43EA4223 		orr	r3, r3, r2, lsl #9
 150              		.loc 1 259 0
 151 002a 4FF08077 		mov	r7, #16777216
 152              		.loc 1 262 0
 153 002e 4FF48076 		mov	r6, #256
 154              		.loc 1 259 0
 155 0032 A761     		str	r7, [r4, #24]
 156              		.loc 1 261 0
 157 0034 5D48     		ldr	r0, .L19
 158              		.loc 1 260 0
 159 0036 A361     		str	r3, [r4, #24]
 160              		.loc 1 261 0
 161 0038 4FF42071 		mov	r1, #640
 162 003c FFF7FEFF 		bl	gptPolledDelay
 163              	.LVL13:
 164              		.loc 1 262 0
 165 0040 A661     		str	r6, [r4, #24]
 166              		.loc 1 265 0
 167 0042 5A48     		ldr	r0, .L19
 168 0044 4FF42071 		mov	r1, #640
 169 0048 FFF7FEFF 		bl	gptPolledDelay
ARM GAS  /tmp/cclYivFL.s 			page 4


 170              	.LVL14:
 171              		.loc 1 267 0
 172 004c 05F04003 		and	r3, r5, #64
 173 0050 002B     		cmp	r3, #0
 174 0052 14BF     		ite	ne
 175 0054 4FF40073 		movne	r3, #512
 176 0058 4FF00073 		moveq	r3, #33554432
 177              		.loc 1 266 0
 178 005c A761     		str	r7, [r4, #24]
 179              		.loc 1 268 0
 180 005e 5348     		ldr	r0, .L19
 181              		.loc 1 267 0
 182 0060 A361     		str	r3, [r4, #24]
 183              		.loc 1 268 0
 184 0062 4FF42071 		mov	r1, #640
 185 0066 FFF7FEFF 		bl	gptPolledDelay
 186              	.LVL15:
 187              		.loc 1 269 0
 188 006a A661     		str	r6, [r4, #24]
 189              		.loc 1 272 0
 190 006c 4F48     		ldr	r0, .L19
 191 006e 4FF42071 		mov	r1, #640
 192 0072 FFF7FEFF 		bl	gptPolledDelay
 193              	.LVL16:
 194              		.loc 1 274 0
 195 0076 05F02003 		and	r3, r5, #32
 196 007a 002B     		cmp	r3, #0
 197 007c 14BF     		ite	ne
 198 007e 4FF40073 		movne	r3, #512
 199 0082 4FF00073 		moveq	r3, #33554432
 200              		.loc 1 273 0
 201 0086 A761     		str	r7, [r4, #24]
 202              		.loc 1 275 0
 203 0088 4848     		ldr	r0, .L19
 204              		.loc 1 274 0
 205 008a A361     		str	r3, [r4, #24]
 206              		.loc 1 275 0
 207 008c 4FF42071 		mov	r1, #640
 208 0090 FFF7FEFF 		bl	gptPolledDelay
 209              	.LVL17:
 210              		.loc 1 276 0
 211 0094 A661     		str	r6, [r4, #24]
 212              		.loc 1 279 0
 213 0096 4548     		ldr	r0, .L19
 214 0098 4FF42071 		mov	r1, #640
 215 009c FFF7FEFF 		bl	gptPolledDelay
 216              	.LVL18:
 217              		.loc 1 281 0
 218 00a0 05F01003 		and	r3, r5, #16
 219 00a4 002B     		cmp	r3, #0
 220 00a6 14BF     		ite	ne
 221 00a8 4FF40073 		movne	r3, #512
 222 00ac 4FF00073 		moveq	r3, #33554432
 223              		.loc 1 280 0
 224 00b0 A761     		str	r7, [r4, #24]
 225              		.loc 1 282 0
 226 00b2 3E48     		ldr	r0, .L19
ARM GAS  /tmp/cclYivFL.s 			page 5


 227              		.loc 1 281 0
 228 00b4 A361     		str	r3, [r4, #24]
 229              		.loc 1 282 0
 230 00b6 4FF42071 		mov	r1, #640
 231 00ba FFF7FEFF 		bl	gptPolledDelay
 232              	.LVL19:
 233              		.loc 1 283 0
 234 00be A661     		str	r6, [r4, #24]
 235              		.loc 1 286 0
 236 00c0 3A48     		ldr	r0, .L19
 237 00c2 4FF42071 		mov	r1, #640
 238 00c6 FFF7FEFF 		bl	gptPolledDelay
 239              	.LVL20:
 240              		.loc 1 288 0
 241 00ca 05F00803 		and	r3, r5, #8
 242 00ce 002B     		cmp	r3, #0
 243 00d0 14BF     		ite	ne
 244 00d2 4FF40073 		movne	r3, #512
 245 00d6 4FF00073 		moveq	r3, #33554432
 246              		.loc 1 287 0
 247 00da A761     		str	r7, [r4, #24]
 248              		.loc 1 289 0
 249 00dc 3348     		ldr	r0, .L19
 250              		.loc 1 288 0
 251 00de A361     		str	r3, [r4, #24]
 252              		.loc 1 289 0
 253 00e0 4FF42071 		mov	r1, #640
 254 00e4 FFF7FEFF 		bl	gptPolledDelay
 255              	.LVL21:
 256              		.loc 1 290 0
 257 00e8 A661     		str	r6, [r4, #24]
 258              		.loc 1 293 0
 259 00ea 3048     		ldr	r0, .L19
 260 00ec 4FF42071 		mov	r1, #640
 261 00f0 FFF7FEFF 		bl	gptPolledDelay
 262              	.LVL22:
 263              		.loc 1 295 0
 264 00f4 05F00403 		and	r3, r5, #4
 265 00f8 002B     		cmp	r3, #0
 266 00fa 14BF     		ite	ne
 267 00fc 4FF40073 		movne	r3, #512
 268 0100 4FF00073 		moveq	r3, #33554432
 269              		.loc 1 294 0
 270 0104 A761     		str	r7, [r4, #24]
 271              		.loc 1 296 0
 272 0106 2948     		ldr	r0, .L19
 273              		.loc 1 295 0
 274 0108 A361     		str	r3, [r4, #24]
 275              		.loc 1 296 0
 276 010a 4FF42071 		mov	r1, #640
 277 010e FFF7FEFF 		bl	gptPolledDelay
 278              	.LVL23:
 279              		.loc 1 297 0
 280 0112 A661     		str	r6, [r4, #24]
 281              		.loc 1 300 0
 282 0114 2548     		ldr	r0, .L19
 283 0116 4FF42071 		mov	r1, #640
ARM GAS  /tmp/cclYivFL.s 			page 6


 284 011a FFF7FEFF 		bl	gptPolledDelay
 285              	.LVL24:
 286              		.loc 1 302 0
 287 011e 05F00203 		and	r3, r5, #2
 288 0122 002B     		cmp	r3, #0
 289 0124 14BF     		ite	ne
 290 0126 4FF40073 		movne	r3, #512
 291 012a 4FF00073 		moveq	r3, #33554432
 292              		.loc 1 301 0
 293 012e A761     		str	r7, [r4, #24]
 294              		.loc 1 303 0
 295 0130 1E48     		ldr	r0, .L19
 296              		.loc 1 302 0
 297 0132 A361     		str	r3, [r4, #24]
 298              		.loc 1 303 0
 299 0134 4FF42071 		mov	r1, #640
 300 0138 FFF7FEFF 		bl	gptPolledDelay
 301              	.LVL25:
 302              		.loc 1 304 0
 303 013c A661     		str	r6, [r4, #24]
 304              		.loc 1 307 0
 305 013e 1B48     		ldr	r0, .L19
 306 0140 4FF42071 		mov	r1, #640
 307 0144 FFF7FEFF 		bl	gptPolledDelay
 308              	.LVL26:
 309              		.loc 1 309 0
 310 0148 15F00105 		ands	r5, r5, #1
 311 014c 14BF     		ite	ne
 312 014e 0023     		movne	r3, #0
 313 0150 4FF00073 		moveq	r3, #33554432
 314 0154 43EA4525 		orr	r5, r3, r5, lsl #9
 315              		.loc 1 308 0
 316 0158 A761     		str	r7, [r4, #24]
 317              		.loc 1 310 0
 318 015a 1448     		ldr	r0, .L19
 319              		.loc 1 309 0
 320 015c A561     		str	r5, [r4, #24]
 321              		.loc 1 310 0
 322 015e 4FF42071 		mov	r1, #640
 323 0162 FFF7FEFF 		bl	gptPolledDelay
 324              	.LVL27:
 325              		.loc 1 311 0
 326 0166 A661     		str	r6, [r4, #24]
 327              		.loc 1 315 0
 328 0168 1048     		ldr	r0, .L19
 329 016a 4FF42071 		mov	r1, #640
 330 016e FFF7FEFF 		bl	gptPolledDelay
 331              	.LVL28:
 332              		.loc 1 316 0
 333 0172 A761     		str	r7, [r4, #24]
 334              		.loc 1 317 0
 335 0174 4FF42071 		mov	r1, #640
 336 0178 0C48     		ldr	r0, .L19
 337 017a FFF7FEFF 		bl	gptPolledDelay
 338              	.LVL29:
 339              		.loc 1 319 0
 340 017e 2046     		mov	r0, r4
ARM GAS  /tmp/cclYivFL.s 			page 7


 341 0180 0022     		movs	r2, #0
 342 0182 4FF40071 		mov	r1, #512
 343 0186 FFF7FEFF 		bl	_pal_lld_setgroupmode
 344              	.LVL30:
 345              		.loc 1 320 0
 346 018a A661     		str	r6, [r4, #24]
 347              		.loc 1 321 0
 348 018c 0748     		ldr	r0, .L19
 349 018e 4FF42071 		mov	r1, #640
 350 0192 FFF7FEFF 		bl	gptPolledDelay
 351              	.LVL31:
 352              	.LBB14:
 353              		.loc 1 323 0
 354 0196 0023     		movs	r3, #0
 355              	.LVL32:
 356              	@ 323 "./camera_iface/camera_iface.c" 1
 357 0198 83F31188 		msr     BASEPRI, r3
 358              	@ 0 "" 2
 359              	.LVL33:
 360              		.thumb
 361              	.LBE14:
 362              		.loc 1 325 0
 363 019c 4FF40071 		mov	r1, #512
 364 01a0 2046     		mov	r0, r4
 365 01a2 0122     		movs	r2, #1
 366              		.loc 1 329 0
 367 01a4 BDE8F840 		pop	{r3, r4, r5, r6, r7, lr}
 368              		.loc 1 325 0
 369 01a8 FFF7FEBF 		b	_pal_lld_setgroupmode
 370              	.LVL34:
 371              	.L20:
 372              		.align	2
 373              	.L19:
 374 01ac 00000000 		.word	GPTD3
 375              		.cfi_endproc
 376              	.LFE68:
 377              		.size	writeByte, .-writeByte
 378              		.section	.text.stopCondition,"ax",%progbits
 379              		.align	2
 380              		.p2align 4,,15
 381              		.thumb
 382              		.thumb_func
 383              		.type	stopCondition, %function
 384              	stopCondition:
 385              	.LFB66:
 386              		.loc 1 227 0
 387              		.cfi_startproc
 388              		@ args = 0, pretend = 0, frame = 0
 389              		@ frame_needed = 0, uses_anonymous_args = 0
 390 0000 38B5     		push	{r3, r4, r5, lr}
 391              	.LCFI2:
 392              		.cfi_def_cfa_offset 16
 393              		.cfi_offset 3, -16
 394              		.cfi_offset 4, -12
 395              		.cfi_offset 5, -8
 396              		.cfi_offset 14, -4
 397              	.LBB15:
ARM GAS  /tmp/cclYivFL.s 			page 8


 398              		.loc 1 228 0
 399 0002 2023     		movs	r3, #32
 400              	.LVL35:
 401              	@ 228 "./camera_iface/camera_iface.c" 1
 402 0004 83F31188 		msr     BASEPRI, r3
 403              	@ 0 "" 2
 404              	.LVL36:
 405              		.thumb
 406              	.LBE15:
 407              		.loc 1 231 0
 408 0008 4FF48064 		mov	r4, #1024
 409 000c C4F20204 		movt	r4, 16386
 410 0010 4FF00073 		mov	r3, #33554432
 411              	.LVL37:
 412              		.loc 1 235 0
 413 0014 40F20005 		movw	r5, #:lower16:GPTD3
 414              		.loc 1 231 0
 415 0018 A361     		str	r3, [r4, #24]
 416              		.loc 1 235 0
 417 001a C0F20005 		movt	r5, #:upper16:GPTD3
 418              		.loc 1 233 0
 419 001e 4FF08073 		mov	r3, #16777216
 420              		.loc 1 235 0
 421 0022 2846     		mov	r0, r5
 422              		.loc 1 233 0
 423 0024 A361     		str	r3, [r4, #24]
 424              		.loc 1 235 0
 425 0026 4FF42071 		mov	r1, #640
 426 002a FFF7FEFF 		bl	gptPolledDelay
 427              	.LVL38:
 428              		.loc 1 237 0
 429 002e 4FF48073 		mov	r3, #256
 430 0032 A361     		str	r3, [r4, #24]
 431              		.loc 1 238 0
 432 0034 2846     		mov	r0, r5
 433 0036 4FF42071 		mov	r1, #640
 434 003a FFF7FEFF 		bl	gptPolledDelay
 435              	.LVL39:
 436              		.loc 1 240 0
 437 003e 4FF40073 		mov	r3, #512
 438 0042 A361     		str	r3, [r4, #24]
 439              	.LBB16:
 440              		.loc 1 242 0
 441 0044 2023     		movs	r3, #32
 442              	.LVL40:
 443              	@ 242 "./camera_iface/camera_iface.c" 1
 444 0046 83F31188 		msr     BASEPRI, r3
 445              	@ 0 "" 2
 446              	.LVL41:
 447              		.thumb
 448 004a 38BD     		pop	{r3, r4, r5, pc}
 449              	.LBE16:
 450              		.cfi_endproc
 451              	.LFE66:
 452              		.size	stopCondition, .-stopCondition
 453 004c AFF30080 		.section	.text.cameraWriteCycle,"ax",%progbits
 454              		.align	2
ARM GAS  /tmp/cclYivFL.s 			page 9


 455              		.p2align 4,,15
 456              		.thumb
 457              		.thumb_func
 458              		.type	cameraWriteCycle, %function
 459              	cameraWriteCycle:
 460              	.LFB71:
 461              		.loc 1 436 0
 462              		.cfi_startproc
 463              		@ args = 0, pretend = 0, frame = 0
 464              		@ frame_needed = 0, uses_anonymous_args = 0
 465              	.LVL42:
 466 0000 38B5     		push	{r3, r4, r5, lr}
 467              	.LCFI3:
 468              		.cfi_def_cfa_offset 16
 469              		.cfi_offset 3, -16
 470              		.cfi_offset 4, -12
 471              		.cfi_offset 5, -8
 472              		.cfi_offset 14, -4
 473              		.loc 1 436 0
 474 0002 0D46     		mov	r5, r1
 475 0004 0446     		mov	r4, r0
 476              		.loc 1 439 0
 477 0006 FFF7FEFF 		bl	startCondition
 478              	.LVL43:
 479              		.loc 1 440 0
 480 000a 4220     		movs	r0, #66
 481 000c FFF7FEFF 		bl	writeByte
 482              	.LVL44:
 483              		.loc 1 441 0
 484 0010 2046     		mov	r0, r4
 485 0012 FFF7FEFF 		bl	writeByte
 486              	.LVL45:
 487              		.loc 1 442 0
 488 0016 2846     		mov	r0, r5
 489 0018 FFF7FEFF 		bl	writeByte
 490              	.LVL46:
 491              		.loc 1 445 0
 492 001c BDE83840 		pop	{r3, r4, r5, lr}
 493              		.loc 1 443 0
 494 0020 FFF7FEBF 		b	stopCondition
 495              	.LVL47:
 496              		.cfi_endproc
 497              	.LFE71:
 498              		.size	cameraWriteCycle, .-cameraWriteCycle
 499 0024 AFF30080 		.section	.text.cameraReadCycle,"ax",%progbits
 499      AFF30080 
 499      AFF30080 
 500              		.align	2
 501              		.p2align 4,,15
 502              		.thumb
 503              		.thumb_func
 504              		.type	cameraReadCycle, %function
 505              	cameraReadCycle:
 506              	.LFB70:
 507              		.loc 1 413 0
 508              		.cfi_startproc
 509              		@ args = 0, pretend = 0, frame = 16
ARM GAS  /tmp/cclYivFL.s 			page 10


 510              		@ frame_needed = 0, uses_anonymous_args = 0
 511              	.LVL48:
 512 0000 2DE9F04F 		push	{r4, r5, r6, r7, r8, r9, sl, fp, lr}
 513              	.LCFI4:
 514              		.cfi_def_cfa_offset 36
 515              		.cfi_offset 4, -36
 516              		.cfi_offset 5, -32
 517              		.cfi_offset 6, -28
 518              		.cfi_offset 7, -24
 519              		.cfi_offset 8, -20
 520              		.cfi_offset 9, -16
 521              		.cfi_offset 10, -12
 522              		.cfi_offset 11, -8
 523              		.cfi_offset 14, -4
 524 0004 85B0     		sub	sp, sp, #20
 525              	.LCFI5:
 526              		.cfi_def_cfa_offset 56
 527              		.loc 1 413 0
 528 0006 0546     		mov	r5, r0
 529              	.LBB23:
 530              	.LBB24:
 531              		.loc 1 248 0
 532 0008 4FF48064 		mov	r4, #1024
 533              	.LBE24:
 534              	.LBE23:
 535              		.loc 1 418 0
 536 000c FFF7FEFF 		bl	startCondition
 537              	.LVL49:
 538              		.loc 1 419 0
 539 0010 4220     		movs	r0, #66
 540 0012 FFF7FEFF 		bl	writeByte
 541              	.LVL50:
 542              	.LBB28:
 543              	.LBB25:
 544              		.loc 1 248 0
 545 0016 C4F20204 		movt	r4, 16386
 546              	.LBE25:
 547              	.LBE28:
 548              		.loc 1 420 0
 549 001a 2846     		mov	r0, r5
 550              	.LBB29:
 551              	.LBB26:
 552              		.loc 1 248 0
 553 001c 4FF48076 		mov	r6, #256
 554              		.loc 1 249 0
 555 0020 4FF40078 		mov	r8, #512
 556              	.LBE26:
 557              	.LBE29:
 558              		.loc 1 420 0
 559 0024 FFF7FEFF 		bl	writeByte
 560              	.LVL51:
 561              		.loc 1 421 0
 562 0028 FFF7FEFF 		bl	stopCondition
 563              	.LVL52:
 564              	.LBB30:
 565              	.LBB27:
 566              		.loc 1 248 0
ARM GAS  /tmp/cclYivFL.s 			page 11


 567 002c A661     		str	r6, [r4, #24]
 568              		.loc 1 249 0
 569 002e C4F81880 		str	r8, [r4, #24]
 570              	.LBE27:
 571              	.LBE30:
 572              		.loc 1 426 0
 573 0032 FFF7FEFF 		bl	startCondition
 574              	.LVL53:
 575              		.loc 1 427 0
 576 0036 4320     		movs	r0, #67
 577 0038 FFF7FEFF 		bl	writeByte
 578              	.LVL54:
 579              	.LBB31:
 580              	.LBB32:
 581              	.LBB33:
 582              		.loc 1 332 0
 583 003c 2023     		movs	r3, #32
 584              	.LVL55:
 585              	@ 332 "./camera_iface/camera_iface.c" 1
 586 003e 83F31188 		msr     BASEPRI, r3
 587              	@ 0 "" 2
 588              	.LVL56:
 589              		.thumb
 590              	.LBE33:
 591              		.loc 1 338 0
 592 0042 40F20005 		movw	r5, #:lower16:GPTD3
 593 0046 C0F20005 		movt	r5, #:upper16:GPTD3
 594              		.loc 1 336 0
 595 004a 0022     		movs	r2, #0
 596 004c 2046     		mov	r0, r4
 597 004e 4146     		mov	r1, r8
 598              		.loc 1 341 0
 599 0050 4FF08077 		mov	r7, #16777216
 600              		.loc 1 336 0
 601 0054 FFF7FEFF 		bl	_pal_lld_setgroupmode
 602              	.LVL57:
 603              		.loc 1 338 0
 604 0058 2846     		mov	r0, r5
 605 005a 4FF42071 		mov	r1, #640
 606 005e FFF7FEFF 		bl	gptPolledDelay
 607              	.LVL58:
 608              		.loc 1 342 0
 609 0062 2846     		mov	r0, r5
 610              		.loc 1 341 0
 611 0064 A761     		str	r7, [r4, #24]
 612              		.loc 1 342 0
 613 0066 4FF42071 		mov	r1, #640
 614 006a FFF7FEFF 		bl	gptPolledDelay
 615              	.LVL59:
 616              		.loc 1 344 0
 617 006e 2846     		mov	r0, r5
 618              		.loc 1 343 0
 619 0070 A661     		str	r6, [r4, #24]
 620              		.loc 1 344 0
 621 0072 4FF42071 		mov	r1, #640
 622 0076 FFF7FEFF 		bl	gptPolledDelay
 623              	.LVL60:
ARM GAS  /tmp/cclYivFL.s 			page 12


 624              		.loc 1 345 0
 625 007a 2269     		ldr	r2, [r4, #16]
 626              	.LVL61:
 627              		.loc 1 349 0
 628 007c 2846     		mov	r0, r5
 629              		.loc 1 348 0
 630 007e A761     		str	r7, [r4, #24]
 631              		.loc 1 349 0
 632 0080 4FF42071 		mov	r1, #640
 633 0084 0092     		str	r2, [sp, #0]
 634 0086 FFF7FEFF 		bl	gptPolledDelay
 635              	.LVL62:
 636              		.loc 1 351 0
 637 008a 2846     		mov	r0, r5
 638              		.loc 1 350 0
 639 008c A661     		str	r6, [r4, #24]
 640              		.loc 1 351 0
 641 008e 4FF42071 		mov	r1, #640
 642 0092 FFF7FEFF 		bl	gptPolledDelay
 643              	.LVL63:
 644              		.loc 1 352 0
 645 0096 2369     		ldr	r3, [r4, #16]
 646              	.LVL64:
 647              		.loc 1 356 0
 648 0098 2846     		mov	r0, r5
 649              		.loc 1 355 0
 650 009a A761     		str	r7, [r4, #24]
 651              		.loc 1 356 0
 652 009c 4FF42071 		mov	r1, #640
 653 00a0 0193     		str	r3, [sp, #4]
 654 00a2 FFF7FEFF 		bl	gptPolledDelay
 655              	.LVL65:
 656              		.loc 1 358 0
 657 00a6 2846     		mov	r0, r5
 658              		.loc 1 357 0
 659 00a8 A661     		str	r6, [r4, #24]
 660              		.loc 1 358 0
 661 00aa 4FF42071 		mov	r1, #640
 662 00ae FFF7FEFF 		bl	gptPolledDelay
 663              	.LVL66:
 664              		.loc 1 359 0
 665 00b2 D4F810B0 		ldr	fp, [r4, #16]
 666              		.loc 1 363 0
 667 00b6 2846     		mov	r0, r5
 668              		.loc 1 362 0
 669 00b8 A761     		str	r7, [r4, #24]
 670              		.loc 1 363 0
 671 00ba 4FF42071 		mov	r1, #640
 672 00be FFF7FEFF 		bl	gptPolledDelay
 673              	.LVL67:
 674              		.loc 1 365 0
 675 00c2 2846     		mov	r0, r5
 676              		.loc 1 364 0
 677 00c4 A661     		str	r6, [r4, #24]
 678              		.loc 1 365 0
 679 00c6 4FF42071 		mov	r1, #640
 680 00ca FFF7FEFF 		bl	gptPolledDelay
ARM GAS  /tmp/cclYivFL.s 			page 13


 681              	.LVL68:
 682              		.loc 1 366 0
 683 00ce D4F810A0 		ldr	sl, [r4, #16]
 684              		.loc 1 370 0
 685 00d2 2846     		mov	r0, r5
 686              		.loc 1 369 0
 687 00d4 A761     		str	r7, [r4, #24]
 688              		.loc 1 370 0
 689 00d6 4FF42071 		mov	r1, #640
 690 00da FFF7FEFF 		bl	gptPolledDelay
 691              	.LVL69:
 692              		.loc 1 372 0
 693 00de 2846     		mov	r0, r5
 694              		.loc 1 371 0
 695 00e0 A661     		str	r6, [r4, #24]
 696              		.loc 1 372 0
 697 00e2 4FF42071 		mov	r1, #640
 698 00e6 FFF7FEFF 		bl	gptPolledDelay
 699              	.LVL70:
 700              		.loc 1 373 0
 701 00ea D4F81090 		ldr	r9, [r4, #16]
 702              		.loc 1 377 0
 703 00ee 2846     		mov	r0, r5
 704              		.loc 1 376 0
 705 00f0 A761     		str	r7, [r4, #24]
 706              		.loc 1 377 0
 707 00f2 4FF42071 		mov	r1, #640
 708 00f6 FFF7FEFF 		bl	gptPolledDelay
 709              	.LVL71:
 710              		.loc 1 379 0
 711 00fa 2846     		mov	r0, r5
 712              		.loc 1 378 0
 713 00fc A661     		str	r6, [r4, #24]
 714              		.loc 1 379 0
 715 00fe 4FF42071 		mov	r1, #640
 716 0102 FFF7FEFF 		bl	gptPolledDelay
 717              	.LVL72:
 718              		.loc 1 380 0
 719 0106 2169     		ldr	r1, [r4, #16]
 720              		.loc 1 384 0
 721 0108 2846     		mov	r0, r5
 722              		.loc 1 380 0
 723 010a 0291     		str	r1, [sp, #8]
 724              		.loc 1 383 0
 725 010c A761     		str	r7, [r4, #24]
 726              		.loc 1 384 0
 727 010e 4FF42071 		mov	r1, #640
 728 0112 FFF7FEFF 		bl	gptPolledDelay
 729              	.LVL73:
 730              		.loc 1 386 0
 731 0116 2846     		mov	r0, r5
 732              		.loc 1 385 0
 733 0118 A661     		str	r6, [r4, #24]
 734              		.loc 1 386 0
 735 011a 4FF42071 		mov	r1, #640
 736 011e FFF7FEFF 		bl	gptPolledDelay
 737              	.LVL74:
ARM GAS  /tmp/cclYivFL.s 			page 14


 738              		.loc 1 387 0
 739 0122 2169     		ldr	r1, [r4, #16]
 740              		.loc 1 391 0
 741 0124 2846     		mov	r0, r5
 742              		.loc 1 387 0
 743 0126 0391     		str	r1, [sp, #12]
 744              		.loc 1 390 0
 745 0128 A761     		str	r7, [r4, #24]
 746              		.loc 1 391 0
 747 012a 4FF42071 		mov	r1, #640
 748 012e FFF7FEFF 		bl	gptPolledDelay
 749              	.LVL75:
 750              		.loc 1 393 0
 751 0132 2846     		mov	r0, r5
 752              		.loc 1 392 0
 753 0134 A661     		str	r6, [r4, #24]
 754              		.loc 1 393 0
 755 0136 4FF42071 		mov	r1, #640
 756 013a FFF7FEFF 		bl	gptPolledDelay
 757              	.LVL76:
 758              		.loc 1 394 0
 759 013e 2169     		ldr	r1, [r4, #16]
 760              		.loc 1 345 0
 761 0140 009A     		ldr	r2, [sp, #0]
 762              	.LBE32:
 763              		.loc 1 352 0
 764 0142 019B     		ldr	r3, [sp, #4]
 765              	.LBB35:
 766              		.loc 1 345 0
 767 0144 520A     		lsrs	r2, r2, #9
 768              	.LBE35:
 769              		.loc 1 394 0
 770 0146 C1F34021 		ubfx	r1, r1, #9, #1
 771              	.LBB36:
 772              		.loc 1 352 0
 773 014a 41EAC212 		orr	r2, r1, r2, lsl #7
 774 014e D2B2     		uxtb	r2, r2
 775              	.LBE36:
 776 0150 C3F34023 		ubfx	r3, r3, #9, #1
 777              	.LBB37:
 778              		.loc 1 359 0
 779 0154 42EA8313 		orr	r3, r2, r3, lsl #6
 780              	.LBE37:
 781 0158 CBF3402B 		ubfx	fp, fp, #9, #1
 782              		.loc 1 380 0
 783 015c 029A     		ldr	r2, [sp, #8]
 784              	.LBB38:
 785              		.loc 1 366 0
 786 015e 43EA4B1B 		orr	fp, r3, fp, lsl #5
 787              	.LBE38:
 788 0162 CAF3402A 		ubfx	sl, sl, #9, #1
 789              	.LBB39:
 790              		.loc 1 373 0
 791 0166 4BEA0A1A 		orr	sl, fp, sl, lsl #4
 792              	.LBE39:
 793 016a C9F34029 		ubfx	r9, r9, #9, #1
 794              		.loc 1 380 0
ARM GAS  /tmp/cclYivFL.s 			page 15


 795 016e C2F34023 		ubfx	r3, r2, #9, #1
 796              	.LBB40:
 797 0172 4AEAC909 		orr	r9, sl, r9, lsl #3
 798              		.loc 1 387 0
 799 0176 49EA8309 		orr	r9, r9, r3, lsl #2
 800              	.LBE40:
 801 017a 039B     		ldr	r3, [sp, #12]
 802              	.LBB41:
 803              		.loc 1 399 0
 804 017c 0122     		movs	r2, #1
 805              	.LBE41:
 806              		.loc 1 387 0
 807 017e C3F3402E 		ubfx	lr, r3, #9, #1
 808              	.LBB42:
 809              		.loc 1 399 0
 810 0182 2046     		mov	r0, r4
 811 0184 4146     		mov	r1, r8
 812              		.loc 1 397 0
 813 0186 A761     		str	r7, [r4, #24]
 814              		.loc 1 394 0
 815 0188 49EA4E09 		orr	r9, r9, lr, lsl #1
 816              	.LVL77:
 817              		.loc 1 399 0
 818 018c FFF7FEFF 		bl	_pal_lld_setgroupmode
 819              	.LVL78:
 820              		.loc 1 402 0
 821 0190 2846     		mov	r0, r5
 822              		.loc 1 401 0
 823 0192 C4F81880 		str	r8, [r4, #24]
 824              		.loc 1 402 0
 825 0196 4FF42071 		mov	r1, #640
 826 019a FFF7FEFF 		bl	gptPolledDelay
 827              	.LVL79:
 828              		.loc 1 403 0
 829 019e A661     		str	r6, [r4, #24]
 830              		.loc 1 404 0
 831 01a0 2846     		mov	r0, r5
 832 01a2 4FF42071 		mov	r1, #640
 833 01a6 FFF7FEFF 		bl	gptPolledDelay
 834              	.LVL80:
 835              	.LBB34:
 836              		.loc 1 405 0
 837 01aa 0023     		movs	r3, #0
 838              	.LVL81:
 839              	@ 405 "./camera_iface/camera_iface.c" 1
 840 01ac 83F31188 		msr     BASEPRI, r3
 841              	@ 0 "" 2
 842              	.LVL82:
 843              		.thumb
 844              	.LBE34:
 845              		.loc 1 407 0
 846 01b0 0522     		movs	r2, #5
 847 01b2 2046     		mov	r0, r4
 848 01b4 4146     		mov	r1, r8
 849 01b6 FFF7FEFF 		bl	_pal_lld_setgroupmode
 850              	.LVL83:
 851              	.LBE42:
ARM GAS  /tmp/cclYivFL.s 			page 16


 852              	.LBE31:
 853              		.loc 1 429 0
 854 01ba FFF7FEFF 		bl	stopCondition
 855              	.LVL84:
 856              		.loc 1 432 0
 857 01be 4846     		mov	r0, r9
 858 01c0 05B0     		add	sp, sp, #20
 859 01c2 BDE8F08F 		pop	{r4, r5, r6, r7, r8, r9, sl, fp, pc}
 860              		.cfi_endproc
 861              	.LFE70:
 862              		.size	cameraReadCycle, .-cameraReadCycle
 863 01c6 00BFAFF3 		.section	.text.setupSCCB,"ax",%progbits
 863      0080AFF3 
 863      0080
 864              		.align	2
 865              		.p2align 4,,15
 866              		.global	setupSCCB
 867              		.thumb
 868              		.thumb_func
 869              		.type	setupSCCB, %function
 870              	setupSCCB:
 871              	.LFB62:
 872              		.loc 1 185 0
 873              		.cfi_startproc
 874              		@ args = 0, pretend = 0, frame = 0
 875              		@ frame_needed = 0, uses_anonymous_args = 0
 876 0000 10B5     		push	{r4, lr}
 877              	.LCFI6:
 878              		.cfi_def_cfa_offset 8
 879              		.cfi_offset 4, -8
 880              		.cfi_offset 14, -4
 881              		.loc 1 187 0
 882 0002 4FF48064 		mov	r4, #1024
 883 0006 C4F20204 		movt	r4, 16386
 884 000a 0122     		movs	r2, #1
 885 000c 2046     		mov	r0, r4
 886 000e 4FF48071 		mov	r1, #256
 887 0012 FFF7FEFF 		bl	_pal_lld_setgroupmode
 888              	.LVL85:
 889              		.loc 1 190 0
 890 0016 2046     		mov	r0, r4
 891 0018 4FF40071 		mov	r1, #512
 892 001c 0122     		movs	r2, #1
 893              		.loc 1 192 0
 894 001e BDE81040 		pop	{r4, lr}
 895              		.loc 1 190 0
 896 0022 FFF7FEBF 		b	_pal_lld_setgroupmode
 897              	.LVL86:
 898              		.cfi_endproc
 899              	.LFE62:
 900              		.size	setupSCCB, .-setupSCCB
 901              		.section	.text.setupCamPort,"ax",%progbits
 902              		.align	2
 903              		.p2align 4,,15
 904              		.global	setupCamPort
 905              		.thumb
 906              		.thumb_func
ARM GAS  /tmp/cclYivFL.s 			page 17


 907              		.type	setupCamPort, %function
 908              	setupCamPort:
 909              	.LFB72:
 910              		.loc 1 449 0
 911              		.cfi_startproc
 912              		@ args = 0, pretend = 0, frame = 0
 913              		@ frame_needed = 0, uses_anonymous_args = 0
 914 0000 38B5     		push	{r3, r4, r5, lr}
 915              	.LCFI7:
 916              		.cfi_def_cfa_offset 16
 917              		.cfi_offset 3, -16
 918              		.cfi_offset 4, -12
 919              		.cfi_offset 5, -8
 920              		.cfi_offset 14, -4
 921              		.loc 1 450 0
 922 0002 0025     		movs	r5, #0
 923 0004 C4F20205 		movt	r5, 16386
 924 0008 1A22     		movs	r2, #26
 925 000a 4FF48071 		mov	r1, #256
 926 000e 2846     		mov	r0, r5
 927 0010 FFF7FEFF 		bl	_pal_lld_setgroupmode
 928              	.LVL87:
 929              		.loc 1 452 0
 930 0014 0221     		movs	r1, #2
 931 0016 0122     		movs	r2, #1
 932 0018 2846     		mov	r0, r5
 933 001a FFF7FEFF 		bl	_pal_lld_setgroupmode
 934              	.LVL88:
 935              		.loc 1 453 0
 936 001e 0421     		movs	r1, #4
 937 0020 0122     		movs	r2, #1
 938 0022 2846     		mov	r0, r5
 939 0024 FFF7FEFF 		bl	_pal_lld_setgroupmode
 940              	.LVL89:
 941              		.loc 1 456 0
 942 0028 4FF40064 		mov	r4, #2048
 943              		.loc 1 454 0
 944 002c 1021     		movs	r1, #16
 945 002e 0022     		movs	r2, #0
 946 0030 2846     		mov	r0, r5
 947              		.loc 1 456 0
 948 0032 C4F20204 		movt	r4, 16386
 949              		.loc 1 454 0
 950 0036 FFF7FEFF 		bl	_pal_lld_setgroupmode
 951              	.LVL90:
 952              		.loc 1 455 0
 953 003a 0821     		movs	r1, #8
 954 003c 0022     		movs	r2, #0
 955 003e 2846     		mov	r0, r5
 956 0040 FFF7FEFF 		bl	_pal_lld_setgroupmode
 957              	.LVL91:
 958              		.loc 1 456 0
 959 0044 0121     		movs	r1, #1
 960 0046 0022     		movs	r2, #0
 961 0048 2046     		mov	r0, r4
 962 004a FFF7FEFF 		bl	_pal_lld_setgroupmode
 963              	.LVL92:
ARM GAS  /tmp/cclYivFL.s 			page 18


 964              		.loc 1 457 0
 965 004e 0221     		movs	r1, #2
 966 0050 0022     		movs	r2, #0
 967 0052 2046     		mov	r0, r4
 968 0054 FFF7FEFF 		bl	_pal_lld_setgroupmode
 969              	.LVL93:
 970              		.loc 1 458 0
 971 0058 0421     		movs	r1, #4
 972 005a 0022     		movs	r2, #0
 973 005c 2046     		mov	r0, r4
 974 005e FFF7FEFF 		bl	_pal_lld_setgroupmode
 975              	.LVL94:
 976              		.loc 1 459 0
 977 0062 0821     		movs	r1, #8
 978 0064 0022     		movs	r2, #0
 979 0066 2046     		mov	r0, r4
 980 0068 FFF7FEFF 		bl	_pal_lld_setgroupmode
 981              	.LVL95:
 982              		.loc 1 460 0
 983 006c 4021     		movs	r1, #64
 984 006e 0022     		movs	r2, #0
 985 0070 2046     		mov	r0, r4
 986 0072 FFF7FEFF 		bl	_pal_lld_setgroupmode
 987              	.LVL96:
 988              		.loc 1 461 0
 989 0076 8021     		movs	r1, #128
 990 0078 2046     		mov	r0, r4
 991 007a 0022     		movs	r2, #0
 992 007c FFF7FEFF 		bl	_pal_lld_setgroupmode
 993              	.LVL97:
 994              		.loc 1 462 0
 995 0080 0022     		movs	r2, #0
 996 0082 2046     		mov	r0, r4
 997 0084 4FF48071 		mov	r1, #256
 998 0088 FFF7FEFF 		bl	_pal_lld_setgroupmode
 999              	.LVL98:
 1000              		.loc 1 463 0
 1001 008c 2046     		mov	r0, r4
 1002 008e 4FF40071 		mov	r1, #512
 1003 0092 0022     		movs	r2, #0
 1004 0094 FFF7FEFF 		bl	_pal_lld_setgroupmode
 1005              	.LVL99:
 1006              		.loc 1 464 0
 1007 0098 2046     		mov	r0, r4
 1008 009a 4FF48061 		mov	r1, #1024
 1009 009e 0122     		movs	r2, #1
 1010 00a0 FFF7FEFF 		bl	_pal_lld_setgroupmode
 1011              	.LVL100:
 1012              		.loc 1 465 0
 1013 00a4 4FF48063 		mov	r3, #1024
 1014              		.loc 1 466 0
 1015 00a8 2046     		mov	r0, r4
 1016 00aa 4FF40061 		mov	r1, #2048
 1017 00ae 0122     		movs	r2, #1
 1018              		.loc 1 465 0
 1019 00b0 6383     		strh	r3, [r4, #26]	@ movhi
 1020              		.loc 1 466 0
ARM GAS  /tmp/cclYivFL.s 			page 19


 1021 00b2 FFF7FEFF 		bl	_pal_lld_setgroupmode
 1022              	.LVL101:
 1023              		.loc 1 467 0
 1024 00b6 4FF40063 		mov	r3, #2048
 1025              		.loc 1 468 0
 1026 00ba 2046     		mov	r0, r4
 1027 00bc 4FF48041 		mov	r1, #16384
 1028 00c0 0122     		movs	r2, #1
 1029              		.loc 1 467 0
 1030 00c2 2383     		strh	r3, [r4, #24]	@ movhi
 1031              		.loc 1 468 0
 1032 00c4 FFF7FEFF 		bl	_pal_lld_setgroupmode
 1033              	.LVL102:
 1034              		.loc 1 469 0
 1035 00c8 4FF48043 		mov	r3, #16384
 1036 00cc 6383     		strh	r3, [r4, #26]	@ movhi
 1037              		.loc 1 470 0
 1038 00ce 2046     		mov	r0, r4
 1039 00d0 4FF48051 		mov	r1, #4096
 1040 00d4 0122     		movs	r2, #1
 1041 00d6 FFF7FEFF 		bl	_pal_lld_setgroupmode
 1042              	.LVL103:
 1043              		.loc 1 471 0
 1044 00da 4FF48053 		mov	r3, #4096
 1045 00de 2383     		strh	r3, [r4, #24]	@ movhi
 1046 00e0 38BD     		pop	{r3, r4, r5, pc}
 1047              		.cfi_endproc
 1048              	.LFE72:
 1049              		.size	setupCamPort, .-setupCamPort
 1050 00e2 00BFAFF3 		.section	.text.checkCameraSanity,"ax",%progbits
 1050      0080AFF3 
 1050      0080AFF3 
 1050      0080
 1051              		.align	2
 1052              		.p2align 4,,15
 1053              		.global	checkCameraSanity
 1054              		.thumb
 1055              		.thumb_func
 1056              		.type	checkCameraSanity, %function
 1057              	checkCameraSanity:
 1058              	.LFB73:
 1059              		.loc 1 476 0
 1060              		.cfi_startproc
 1061              		@ args = 0, pretend = 0, frame = 0
 1062              		@ frame_needed = 0, uses_anonymous_args = 0
 1063              	.LVL104:
 1064 0000 70B5     		push	{r4, r5, r6, lr}
 1065              	.LCFI8:
 1066              		.cfi_def_cfa_offset 16
 1067              		.cfi_offset 4, -16
 1068              		.cfi_offset 5, -12
 1069              		.cfi_offset 6, -8
 1070              		.cfi_offset 14, -4
 1071 0002 0D4C     		ldr	r4, .L33
 1072 0004 82B0     		sub	sp, sp, #8
 1073              	.LCFI9:
 1074              		.cfi_def_cfa_offset 24
ARM GAS  /tmp/cclYivFL.s 			page 20


 1075              		.loc 1 476 0
 1076 0006 04F11E06 		add	r6, r4, #30
 1077              	.LVL105:
 1078              	.L29:
 1079              		.loc 1 481 0
 1080 000a 2578     		ldrb	r5, [r4, #0]	@ zero_extendqisi2
 1081 000c 2846     		mov	r0, r5
 1082 000e FFF7FEFF 		bl	cameraReadCycle
 1083              	.LVL106:
 1084              		.loc 1 483 0
 1085 0012 6378     		ldrb	r3, [r4, #1]	@ zero_extendqisi2
 1086 0014 0234     		adds	r4, r4, #2
 1087 0016 8342     		cmp	r3, r0
 1088 0018 04D1     		bne	.L32
 1089              		.loc 1 480 0
 1090 001a B442     		cmp	r4, r6
 1091 001c F5D1     		bne	.L29
 1092              		.loc 1 489 0
 1093 001e 0020     		movs	r0, #0
 1094              	.LVL107:
 1095              	.L28:
 1096              		.loc 1 490 0
 1097 0020 02B0     		add	sp, sp, #8
 1098 0022 70BD     		pop	{r4, r5, r6, pc}
 1099              	.LVL108:
 1100              	.L32:
 1101              		.loc 1 484 0
 1102 0024 0090     		str	r0, [sp, #0]
 1103 0026 0549     		ldr	r1, .L33+4
 1104 0028 0548     		ldr	r0, .L33+8
 1105              	.LVL109:
 1106 002a 2A46     		mov	r2, r5
 1107 002c FFF7FEFF 		bl	chprintf
 1108              	.LVL110:
 1109              		.loc 1 485 0
 1110 0030 4FF0FF30 		mov	r0, #-1
 1111 0034 F4E7     		b	.L28
 1112              	.L34:
 1113 0036 00BF     		.align	2
 1114              	.L33:
 1115 0038 00000000 		.word	.LANCHOR0
 1116 003c 00000000 		.word	.LC0
 1117 0040 00000000 		.word	SD1
 1118              		.cfi_endproc
 1119              	.LFE73:
 1120              		.size	checkCameraSanity, .-checkCameraSanity
 1121 0044 AFF30080 		.section	.text.configureCam,"ax",%progbits
 1121      AFF30080 
 1121      AFF30080 
 1122              		.align	2
 1123              		.p2align 4,,15
 1124              		.global	configureCam
 1125              		.thumb
 1126              		.thumb_func
 1127              		.type	configureCam, %function
 1128              	configureCam:
 1129              	.LFB74:
ARM GAS  /tmp/cclYivFL.s 			page 21


 1130              		.loc 1 494 0
 1131              		.cfi_startproc
 1132              		@ args = 0, pretend = 0, frame = 0
 1133              		@ frame_needed = 0, uses_anonymous_args = 0
 1134 0000 38B5     		push	{r3, r4, r5, lr}
 1135              	.LCFI10:
 1136              		.cfi_def_cfa_offset 16
 1137              		.cfi_offset 3, -16
 1138              		.cfi_offset 4, -12
 1139              		.cfi_offset 5, -8
 1140              		.cfi_offset 14, -4
 1141              	.LBB43:
 1142              	.LBB44:
 1143              		.loc 1 248 0
 1144 0002 4FF48063 		mov	r3, #1024
 1145 0006 C4F20203 		movt	r3, 16386
 1146 000a 4FF48072 		mov	r2, #256
 1147 000e 9A61     		str	r2, [r3, #24]
 1148              		.loc 1 249 0
 1149 0010 4FF40072 		mov	r2, #512
 1150              	.LBE44:
 1151              	.LBE43:
 1152              		.loc 1 500 0
 1153 0014 1220     		movs	r0, #18
 1154 0016 8021     		movs	r1, #128
 1155              	.LBB46:
 1156              	.LBB45:
 1157              		.loc 1 249 0
 1158 0018 9A61     		str	r2, [r3, #24]
 1159              	.LBE45:
 1160              	.LBE46:
 1161              		.loc 1 500 0
 1162 001a FFF7FEFF 		bl	cameraWriteCycle
 1163              	.LVL111:
 1164              		.loc 1 501 0
 1165 001e 1120     		movs	r0, #17
 1166 0020 8021     		movs	r1, #128
 1167 0022 FFF7FEFF 		bl	cameraWriteCycle
 1168              	.LVL112:
 1169 0026 334C     		ldr	r4, .L38
 1170              		.loc 1 494 0
 1171 0028 04F11E05 		add	r5, r4, #30
 1172              	.LVL113:
 1173              	.L36:
 1174              		.loc 1 504 0 discriminator 2
 1175 002c 2078     		ldrb	r0, [r4, #0]	@ zero_extendqisi2
 1176 002e 6178     		ldrb	r1, [r4, #1]	@ zero_extendqisi2
 1177 0030 0234     		adds	r4, r4, #2
 1178 0032 FFF7FEFF 		bl	cameraWriteCycle
 1179              	.LVL114:
 1180              		.loc 1 503 0 discriminator 2
 1181 0036 AC42     		cmp	r4, r5
 1182 0038 F8D1     		bne	.L36
 1183              		.loc 1 506 0
 1184 003a FFF7FEFF 		bl	checkCameraSanity
 1185              	.LVL115:
 1186              		.loc 1 507 0
ARM GAS  /tmp/cclYivFL.s 			page 22


 1187 003e 8021     		movs	r1, #128
 1188              		.loc 1 506 0
 1189 0040 0446     		mov	r4, r0
 1190              	.LVL116:
 1191              		.loc 1 507 0
 1192 0042 4F20     		movs	r0, #79
 1193              	.LVL117:
 1194 0044 FFF7FEFF 		bl	cameraWriteCycle
 1195              	.LVL118:
 1196              		.loc 1 508 0
 1197 0048 5020     		movs	r0, #80
 1198 004a 8021     		movs	r1, #128
 1199 004c FFF7FEFF 		bl	cameraWriteCycle
 1200              	.LVL119:
 1201              		.loc 1 509 0
 1202 0050 5120     		movs	r0, #81
 1203 0052 0021     		movs	r1, #0
 1204 0054 FFF7FEFF 		bl	cameraWriteCycle
 1205              	.LVL120:
 1206              		.loc 1 510 0
 1207 0058 5220     		movs	r0, #82
 1208 005a 2221     		movs	r1, #34
 1209 005c FFF7FEFF 		bl	cameraWriteCycle
 1210              	.LVL121:
 1211              		.loc 1 511 0
 1212 0060 5320     		movs	r0, #83
 1213 0062 5E21     		movs	r1, #94
 1214 0064 FFF7FEFF 		bl	cameraWriteCycle
 1215              	.LVL122:
 1216              		.loc 1 512 0
 1217 0068 5420     		movs	r0, #84
 1218 006a 8021     		movs	r1, #128
 1219 006c FFF7FEFF 		bl	cameraWriteCycle
 1220              	.LVL123:
 1221              		.loc 1 513 0
 1222 0070 5620     		movs	r0, #86
 1223 0072 4021     		movs	r1, #64
 1224 0074 FFF7FEFF 		bl	cameraWriteCycle
 1225              	.LVL124:
 1226              		.loc 1 514 0
 1227 0078 5820     		movs	r0, #88
 1228 007a 9E21     		movs	r1, #158
 1229 007c FFF7FEFF 		bl	cameraWriteCycle
 1230              	.LVL125:
 1231              		.loc 1 515 0
 1232 0080 5920     		movs	r0, #89
 1233 0082 8821     		movs	r1, #136
 1234 0084 FFF7FEFF 		bl	cameraWriteCycle
 1235              	.LVL126:
 1236              		.loc 1 516 0
 1237 0088 5A20     		movs	r0, #90
 1238 008a 8821     		movs	r1, #136
 1239 008c FFF7FEFF 		bl	cameraWriteCycle
 1240              	.LVL127:
 1241              		.loc 1 517 0
 1242 0090 5B20     		movs	r0, #91
 1243 0092 4421     		movs	r1, #68
ARM GAS  /tmp/cclYivFL.s 			page 23


 1244 0094 FFF7FEFF 		bl	cameraWriteCycle
 1245              	.LVL128:
 1246              		.loc 1 518 0
 1247 0098 5C20     		movs	r0, #92
 1248 009a 6721     		movs	r1, #103
 1249 009c FFF7FEFF 		bl	cameraWriteCycle
 1250              	.LVL129:
 1251              		.loc 1 519 0
 1252 00a0 5D20     		movs	r0, #93
 1253 00a2 4921     		movs	r1, #73
 1254 00a4 FFF7FEFF 		bl	cameraWriteCycle
 1255              	.LVL130:
 1256              		.loc 1 520 0
 1257 00a8 5E20     		movs	r0, #94
 1258 00aa 0E21     		movs	r1, #14
 1259 00ac FFF7FEFF 		bl	cameraWriteCycle
 1260              	.LVL131:
 1261              		.loc 1 521 0
 1262 00b0 6920     		movs	r0, #105
 1263 00b2 0021     		movs	r1, #0
 1264 00b4 FFF7FEFF 		bl	cameraWriteCycle
 1265              	.LVL132:
 1266              		.loc 1 522 0
 1267 00b8 6A20     		movs	r0, #106
 1268 00ba 4021     		movs	r1, #64
 1269 00bc FFF7FEFF 		bl	cameraWriteCycle
 1270              	.LVL133:
 1271              		.loc 1 523 0
 1272 00c0 6B20     		movs	r0, #107
 1273 00c2 0A21     		movs	r1, #10
 1274 00c4 FFF7FEFF 		bl	cameraWriteCycle
 1275              	.LVL134:
 1276              		.loc 1 524 0
 1277 00c8 6C20     		movs	r0, #108
 1278 00ca 0A21     		movs	r1, #10
 1279 00cc FFF7FEFF 		bl	cameraWriteCycle
 1280              	.LVL135:
 1281              		.loc 1 525 0
 1282 00d0 6D20     		movs	r0, #109
 1283 00d2 5521     		movs	r1, #85
 1284 00d4 FFF7FEFF 		bl	cameraWriteCycle
 1285              	.LVL136:
 1286              		.loc 1 526 0
 1287 00d8 6E20     		movs	r0, #110
 1288 00da 1121     		movs	r1, #17
 1289 00dc FFF7FEFF 		bl	cameraWriteCycle
 1290              	.LVL137:
 1291              		.loc 1 527 0
 1292 00e0 6F20     		movs	r0, #111
 1293 00e2 9F21     		movs	r1, #159
 1294 00e4 FFF7FEFF 		bl	cameraWriteCycle
 1295              	.LVL138:
 1296              		.loc 1 529 0
 1297 00e8 B020     		movs	r0, #176
 1298 00ea 8421     		movs	r1, #132
 1299 00ec FFF7FEFF 		bl	cameraWriteCycle
 1300              	.LVL139:
ARM GAS  /tmp/cclYivFL.s 			page 24


 1301              		.loc 1 533 0
 1302 00f0 E0B2     		uxtb	r0, r4
 1303 00f2 38BD     		pop	{r3, r4, r5, pc}
 1304              	.L39:
 1305              		.align	2
 1306              	.L38:
 1307 00f4 00000000 		.word	.LANCHOR0
 1308              		.cfi_endproc
 1309              	.LFE74:
 1310              		.size	configureCam, .-configureCam
 1311 00f8 AFF30080 		.section	.text.wakeupCam,"ax",%progbits
 1311      AFF30080 
 1312              		.align	2
 1313              		.p2align 4,,15
 1314              		.global	wakeupCam
 1315              		.thumb
 1316              		.thumb_func
 1317              		.type	wakeupCam, %function
 1318              	wakeupCam:
 1319              	.LFB75:
 1320              		.loc 1 535 0
 1321              		.cfi_startproc
 1322              		@ args = 0, pretend = 0, frame = 0
 1323              		@ frame_needed = 0, uses_anonymous_args = 0
 1324              		@ link register save eliminated.
 1325              		.loc 1 536 0
 1326 0000 0023     		movs	r3, #0
 1327 0002 C4F20203 		movt	r3, 16386
 1328 0006 0422     		movs	r2, #4
 1329 0008 5A83     		strh	r2, [r3, #26]	@ movhi
 1330 000a 7047     		bx	lr
 1331              		.cfi_endproc
 1332              	.LFE75:
 1333              		.size	wakeupCam, .-wakeupCam
 1334 000c AFF30080 		.section	.text.powerdownCam,"ax",%progbits
 1335              		.align	2
 1336              		.p2align 4,,15
 1337              		.global	powerdownCam
 1338              		.thumb
 1339              		.thumb_func
 1340              		.type	powerdownCam, %function
 1341              	powerdownCam:
 1342              	.LFB76:
 1343              		.loc 1 539 0
 1344              		.cfi_startproc
 1345              		@ args = 0, pretend = 0, frame = 0
 1346              		@ frame_needed = 0, uses_anonymous_args = 0
 1347              		@ link register save eliminated.
 1348              		.loc 1 540 0
 1349 0000 0023     		movs	r3, #0
 1350 0002 C4F20203 		movt	r3, 16386
 1351 0006 0422     		movs	r2, #4
 1352 0008 1A83     		strh	r2, [r3, #24]	@ movhi
 1353 000a 7047     		bx	lr
 1354              		.cfi_endproc
 1355              	.LFE76:
 1356              		.size	powerdownCam, .-powerdownCam
ARM GAS  /tmp/cclYivFL.s 			page 25


 1357 000c AFF30080 		.section	.text.setupSegment,"ax",%progbits
 1358              		.align	2
 1359              		.p2align 4,,15
 1360              		.global	setupSegment
 1361              		.thumb
 1362              		.thumb_func
 1363              		.type	setupSegment, %function
 1364              	setupSegment:
 1365              	.LFB77:
 1366              		.loc 1 544 0
 1367              		.cfi_startproc
 1368              		@ args = 0, pretend = 0, frame = 0
 1369              		@ frame_needed = 0, uses_anonymous_args = 0
 1370              	.LVL140:
 1371              		.loc 1 546 0
 1372 0000 0028     		cmp	r0, #0
 1373              		.loc 1 544 0
 1374 0002 38B5     		push	{r3, r4, r5, lr}
 1375              	.LCFI11:
 1376              		.cfi_def_cfa_offset 16
 1377              		.cfi_offset 3, -16
 1378              		.cfi_offset 4, -12
 1379              		.cfi_offset 5, -8
 1380              		.cfi_offset 14, -4
 1381              		.loc 1 557 0
 1382 0004 4FF00300 		mov	r0, #3
 1383              	.LVL141:
 1384              		.loc 1 548 0
 1385 0008 14BF     		ite	ne
 1386 000a 3C24     		movne	r4, #60
 1387 000c 0024     		moveq	r4, #0
 1388              	.LVL142:
 1389              		.loc 1 557 0
 1390 000e 4FF00C01 		mov	r1, #12
 1391              		.loc 1 548 0
 1392 0012 14BF     		ite	ne
 1393 0014 7725     		movne	r5, #119
 1394 0016 3B25     		moveq	r5, #59
 1395              	.LVL143:
 1396              		.loc 1 557 0
 1397 0018 FFF7FEFF 		bl	cameraWriteCycle
 1398              	.LVL144:
 1399              		.loc 1 558 0
 1400 001c 1920     		movs	r0, #25
 1401 001e 2146     		mov	r1, r4
 1402 0020 FFF7FEFF 		bl	cameraWriteCycle
 1403              	.LVL145:
 1404              		.loc 1 559 0
 1405 0024 1A20     		movs	r0, #26
 1406 0026 2946     		mov	r1, r5
 1407 0028 FFF7FEFF 		bl	cameraWriteCycle
 1408              	.LVL146:
 1409              		.loc 1 563 0
 1410 002c 0320     		movs	r0, #3
 1411 002e FFF7FEFF 		bl	cameraReadCycle
 1412              	.LVL147:
 1413              		.loc 1 564 0
ARM GAS  /tmp/cclYivFL.s 			page 26


 1414 0032 0C28     		cmp	r0, #12
 1415 0034 0BD1     		bne	.L46
 1416              		.loc 1 567 0
 1417 0036 1920     		movs	r0, #25
 1418              	.LVL148:
 1419 0038 FFF7FEFF 		bl	cameraReadCycle
 1420              	.LVL149:
 1421              		.loc 1 568 0
 1422 003c A042     		cmp	r0, r4
 1423 003e 06D1     		bne	.L46
 1424              		.loc 1 571 0
 1425 0040 1A20     		movs	r0, #26
 1426              	.LVL150:
 1427 0042 FFF7FEFF 		bl	cameraReadCycle
 1428              	.LVL151:
 1429              		.loc 1 572 0
 1430 0046 A842     		cmp	r0, r5
 1431 0048 01D1     		bne	.L46
 1432              		.loc 1 575 0
 1433 004a 0020     		movs	r0, #0
 1434              	.LVL152:
 1435              		.loc 1 576 0
 1436 004c 38BD     		pop	{r3, r4, r5, pc}
 1437              	.LVL153:
 1438              	.L46:
 1439              		.loc 1 565 0
 1440 004e 4FF0FF30 		mov	r0, #-1
 1441              	.LVL154:
 1442 0052 38BD     		pop	{r3, r4, r5, pc}
 1443              		.cfi_endproc
 1444              	.LFE77:
 1445              		.size	setupSegment, .-setupSegment
 1446 0054 AFF30080 		.section	.text.fifoGrabBytes,"ax",%progbits
 1446      AFF30080 
 1446      AFF30080 
 1447              		.align	2
 1448              		.p2align 4,,15
 1449              		.global	fifoGrabBytes
 1450              		.thumb
 1451              		.thumb_func
 1452              		.type	fifoGrabBytes, %function
 1453              	fifoGrabBytes:
 1454              	.LFB78:
 1455              		.loc 1 579 0
 1456              		.cfi_startproc
 1457              		@ args = 0, pretend = 0, frame = 0
 1458              		@ frame_needed = 0, uses_anonymous_args = 0
 1459              		@ link register save eliminated.
 1460              	.LVL155:
 1461 0000 30B4     		push	{r4, r5}
 1462              	.LCFI12:
 1463              		.cfi_def_cfa_offset 8
 1464              		.cfi_offset 4, -8
 1465              		.cfi_offset 5, -4
 1466              		.loc 1 583 0
 1467 0002 A1B1     		cbz	r1, .L48
 1468              		.loc 1 584 0
ARM GAS  /tmp/cclYivFL.s 			page 27


 1469 0004 4FF40063 		mov	r3, #2048
 1470              		.loc 1 579 0
 1471 0008 4118     		adds	r1, r0, r1
 1472              	.LVL156:
 1473              		.loc 1 584 0
 1474 000a C4F20203 		movt	r3, 16386
 1475 000e 4FF48052 		mov	r2, #4096	@ movhi
 1476              	.LVL157:
 1477              	.L50:
 1478              		.loc 1 584 0 is_stmt 0 discriminator 2
 1479 0012 5A83     		strh	r2, [r3, #26]	@ movhi
 1480              		.loc 1 586 0 is_stmt 1 discriminator 2
 1481 0014 1A83     		strh	r2, [r3, #24]	@ movhi
 1482              		.loc 1 588 0 discriminator 2
 1483 0016 1D69     		ldr	r5, [r3, #16]
 1484              		.loc 1 589 0 discriminator 2
 1485 0018 1C69     		ldr	r4, [r3, #16]
 1486              		.loc 1 588 0 discriminator 2
 1487 001a 05F00F05 		and	r5, r5, #15
 1488              	.LVL158:
 1489              		.loc 1 589 0 discriminator 2
 1490 001e 04F47074 		and	r4, r4, #960
 1491              	.LVL159:
 1492 0022 45EA9404 		orr	r4, r5, r4, lsr #2
 1493              		.loc 1 590 0 discriminator 2
 1494 0026 00F8014B 		strb	r4, [r0], #1
 1495              		.loc 1 583 0 discriminator 2
 1496 002a 8842     		cmp	r0, r1
 1497 002c F1D1     		bne	.L50
 1498              	.L48:
 1499              		.loc 1 593 0
 1500 002e 30BC     		pop	{r4, r5}
 1501 0030 7047     		bx	lr
 1502              		.cfi_endproc
 1503              	.LFE78:
 1504              		.size	fifoGrabBytes, .-fifoGrabBytes
 1505              		.section	.text.cameraControlThread,"ax",%progbits
 1506              		.align	2
 1507              		.p2align 4,,15
 1508              		.global	cameraControlThread
 1509              		.thumb
 1510              		.thumb_func
 1511              		.type	cameraControlThread, %function
 1512              	cameraControlThread:
 1513              	.LFB80:
 1514              		.loc 1 613 0
 1515              		.cfi_startproc
 1516              		@ args = 0, pretend = 0, frame = 10248
 1517              		@ frame_needed = 0, uses_anonymous_args = 0
 1518              	.LVL160:
 1519 0000 2DE9F04F 		push	{r4, r5, r6, r7, r8, r9, sl, fp, lr}
 1520              	.LCFI13:
 1521              		.cfi_def_cfa_offset 36
 1522              		.cfi_offset 4, -36
 1523              		.cfi_offset 5, -32
 1524              		.cfi_offset 6, -28
 1525              		.cfi_offset 7, -24
ARM GAS  /tmp/cclYivFL.s 			page 28


 1526              		.cfi_offset 8, -20
 1527              		.cfi_offset 9, -16
 1528              		.cfi_offset 10, -12
 1529              		.cfi_offset 11, -8
 1530              		.cfi_offset 14, -4
 1531              		.loc 1 616 0
 1532 0004 4FF48065 		mov	r5, #1024
 1533              		.loc 1 613 0
 1534 0008 ADF5205D 		sub	sp, sp, #10240
 1535              	.LCFI14:
 1536              		.cfi_def_cfa_offset 10276
 1537 000c 83B0     		sub	sp, sp, #12
 1538              	.LCFI15:
 1539              		.cfi_def_cfa_offset 10288
 1540              		.loc 1 616 0
 1541 000e C4F20205 		movt	r5, 16386
 1542              	.LBB54:
 1543              	.LBB55:
 1544              		.loc 1 196 0
 1545 0012 4648     		ldr	r0, .L75
 1546              	.LVL161:
 1547 0014 4649     		ldr	r1, .L75+4
 1548 0016 FFF7FEFF 		bl	gptStart
 1549              	.LVL162:
 1550              	.LBE55:
 1551              	.LBE54:
 1552              		.loc 1 615 0
 1553 001a FFF7FEFF 		bl	setupCamPort
 1554              	.LVL163:
 1555              		.loc 1 616 0
 1556 001e 8021     		movs	r1, #128
 1557 0020 0122     		movs	r2, #1
 1558 0022 2846     		mov	r0, r5
 1559 0024 FFF7FEFF 		bl	_pal_lld_setgroupmode
 1560              	.LVL164:
 1561              		.loc 1 617 0
 1562 0028 2846     		mov	r0, r5
 1563 002a 4021     		movs	r1, #64
 1564 002c 0122     		movs	r2, #1
 1565 002e FFF7FEFF 		bl	_pal_lld_setgroupmode
 1566              	.LVL165:
 1567              		.loc 1 618 0
 1568 0032 8023     		movs	r3, #128
 1569 0034 6B83     		strh	r3, [r5, #26]	@ movhi
 1570              		.loc 1 619 0
 1571 0036 4023     		movs	r3, #64
 1572 0038 6B83     		strh	r3, [r5, #26]	@ movhi
 1573              		.loc 1 622 0
 1574 003a FFF7FEFF 		bl	setupSCCB
 1575              	.LVL166:
 1576              		.loc 1 625 0
 1577 003e FFF7FEFF 		bl	configureCam
 1578              	.LVL167:
 1579              		.loc 1 626 0
 1580 0042 8146     		mov	r9, r0
 1581 0044 0028     		cmp	r0, #0
 1582 0046 6CD1     		bne	.L54
ARM GAS  /tmp/cclYivFL.s 			page 29


 1583              		.loc 1 628 0
 1584 0048 4FF40064 		mov	r4, #2048
 1585 004c C4F20204 		movt	r4, 16386
 1586 0050 4FF48066 		mov	r6, #1024
 1587 0054 6683     		strh	r6, [r4, #26]	@ movhi
 1588              	.LBB56:
 1589              		.loc 1 637 0
 1590 0056 0027     		movs	r7, #0
 1591 0058 0DF5205B 		add	fp, sp, #10240
 1592              	.LBE56:
 1593              		.loc 1 629 0
 1594 005c FFF7FEFF 		bl	jpeg_init
 1595              	.LVL168:
 1596 0060 0BF1070B 		add	fp, fp, #7
 1597              		.loc 1 630 0
 1598 0064 CDF80490 		str	r9, [sp, #4]
 1599              	.LBB63:
 1600              		.loc 1 637 0
 1601 0068 C4F20207 		movt	r7, 16386
 1602              	.LVL169:
 1603              	.L62:
 1604              	.LBE63:
 1605              		.loc 1 631 0
 1606 006c 0198     		ldr	r0, [sp, #4]
 1607 006e FFF7FEFF 		bl	setupSegment
 1608              	.LVL170:
 1609 0072 C8B1     		cbz	r0, .L55
 1610              		.loc 1 632 0
 1611 0074 019A     		ldr	r2, [sp, #4]
 1612 0076 02F1FF39 		add	r9, r2, #-1
 1613 007a 5FFA89F9 		uxtb	r9, r9
 1614 007e CDF80490 		str	r9, [sp, #4]
 1615              	.LVL171:
 1616              	.L56:
 1617              		.loc 1 630 0
 1618 0082 019B     		ldr	r3, [sp, #4]
 1619 0084 03F10109 		add	r9, r3, #1
 1620 0088 5FFA89F9 		uxtb	r9, r9
 1621 008c 4A46     		mov	r2, r9
 1622 008e 012A     		cmp	r2, #1
 1623 0090 CDF80490 		str	r9, [sp, #4]
 1624 0094 EAD9     		bls	.L62
 1625              		.loc 1 655 0
 1626 0096 FFF7FEFF 		bl	jpeg_close
 1627              	.LVL172:
 1628              	.L63:
 1629              		.loc 1 659 0
 1630 009a 4FF48063 		mov	r3, #1024
 1631 009e C4F20203 		movt	r3, 16386
 1632 00a2 8022     		movs	r2, #128
 1633 00a4 1A83     		strh	r2, [r3, #24]	@ movhi
 1634              	.L64:
 1635 00a6 FEE7     		b	.L64
 1636              	.LVL173:
 1637              	.L55:
 1638              	.LBB64:
 1639              	.LBB57:
ARM GAS  /tmp/cclYivFL.s 			page 30


 1640              	.LBB58:
 1641              		.loc 1 599 0
 1642 00a8 4FF48052 		mov	r2, #4096	@ movhi
 1643              		.loc 1 597 0
 1644 00ac 4FF40063 		mov	r3, #2048	@ movhi
 1645 00b0 6383     		strh	r3, [r4, #26]	@ movhi
 1646              		.loc 1 599 0
 1647 00b2 6283     		strh	r2, [r4, #26]	@ movhi
 1648              		.loc 1 601 0
 1649 00b4 2283     		strh	r2, [r4, #24]	@ movhi
 1650              		.loc 1 604 0
 1651 00b6 2383     		strh	r3, [r4, #24]	@ movhi
 1652              		.loc 1 606 0
 1653 00b8 6283     		strh	r2, [r4, #26]	@ movhi
 1654              		.loc 1 608 0
 1655 00ba 2283     		strh	r2, [r4, #24]	@ movhi
 1656              	.L57:
 1657              	.LBE58:
 1658              	.LBE57:
 1659              		.loc 1 637 0 discriminator 1
 1660 00bc 3B69     		ldr	r3, [r7, #16]
 1661 00be D906     		lsls	r1, r3, #27
 1662 00c0 FCD4     		bmi	.L57
 1663              		.loc 1 639 0
 1664 00c2 4FF48063 		mov	r3, #1024	@ movhi
 1665 00c6 2383     		strh	r3, [r4, #24]	@ movhi
 1666              	.L58:
 1667              		.loc 1 641 0 discriminator 1
 1668 00c8 3B69     		ldr	r3, [r7, #16]
 1669 00ca DA06     		lsls	r2, r3, #27
 1670 00cc FCD5     		bpl	.L58
 1671              	.L67:
 1672              		.loc 1 643 0
 1673 00ce 3B69     		ldr	r3, [r7, #16]
 1674 00d0 DB06     		lsls	r3, r3, #27
 1675 00d2 FCD4     		bmi	.L67
 1676              		.loc 1 648 0
 1677 00d4 4026     		movs	r6, #64
 1678              		.loc 1 645 0
 1679 00d6 4FF48062 		mov	r2, #1024	@ movhi
 1680 00da 6283     		strh	r2, [r4, #26]	@ movhi
 1681              	.LVL174:
 1682 00dc 4FF01E09 		mov	r9, #30
 1683              		.loc 1 648 0
 1684 00e0 B046     		mov	r8, r6	@ movhi
 1685              	.LBB59:
 1686              	.LBB60:
 1687              		.loc 1 584 0
 1688 00e2 4FF4805A 		mov	sl, #4096	@ movhi
 1689              	.LVL175:
 1690              	.L61:
 1691              	.LBE60:
 1692              	.LBE59:
 1693              		.loc 1 648 0 discriminator 2
 1694 00e6 A5F81880 		strh	r8, [r5, #24]	@ movhi
 1695              	.LVL176:
 1696              		.loc 1 613 0 discriminator 2
ARM GAS  /tmp/cclYivFL.s 			page 31


 1697 00ea 0DF10703 		add	r3, sp, #7
 1698              	.LVL177:
 1699              	.L60:
 1700              	.LBB62:
 1701              	.LBB61:
 1702              		.loc 1 584 0
 1703 00ee A4F81AA0 		strh	sl, [r4, #26]	@ movhi
 1704              		.loc 1 586 0
 1705 00f2 A4F818A0 		strh	sl, [r4, #24]	@ movhi
 1706              		.loc 1 588 0
 1707 00f6 2169     		ldr	r1, [r4, #16]
 1708              		.loc 1 589 0
 1709 00f8 2269     		ldr	r2, [r4, #16]
 1710              		.loc 1 588 0
 1711 00fa 01F00F01 		and	r1, r1, #15
 1712              	.LVL178:
 1713              		.loc 1 589 0
 1714 00fe 02F47072 		and	r2, r2, #960
 1715              	.LVL179:
 1716 0102 41EA9202 		orr	r2, r1, r2, lsr #2
 1717              		.loc 1 590 0
 1718 0106 03F8012F 		strb	r2, [r3, #1]!
 1719              		.loc 1 583 0
 1720 010a 5B45     		cmp	r3, fp
 1721 010c EFD1     		bne	.L60
 1722              	.LBE61:
 1723              	.LBE62:
 1724              		.loc 1 650 0 discriminator 2
 1725 010e 02A8     		add	r0, sp, #8
 1726              	.LVL180:
 1727 0110 09F1FF39 		add	r9, r9, #-1
 1728 0114 FFF7FEFF 		bl	convert_rows
 1729              	.LVL181:
 1730              		.loc 1 647 0 discriminator 2
 1731 0118 19F0FF09 		ands	r9, r9, #255
 1732              		.loc 1 651 0 discriminator 2
 1733 011c 6E83     		strh	r6, [r5, #26]	@ movhi
 1734              		.loc 1 647 0 discriminator 2
 1735 011e E2D1     		bne	.L61
 1736 0120 AFE7     		b	.L56
 1737              	.LVL182:
 1738              	.L54:
 1739              	.LBE64:
 1740              		.loc 1 657 0
 1741 0122 0448     		ldr	r0, .L75+8
 1742              	.LVL183:
 1743 0124 0449     		ldr	r1, .L75+12
 1744 0126 FFF7FEFF 		bl	chprintf
 1745              	.LVL184:
 1746 012a B6E7     		b	.L63
 1747              	.L76:
 1748              		.align	2
 1749              	.L75:
 1750 012c 00000000 		.word	GPTD3
 1751 0130 00000000 		.word	.LANCHOR1
 1752 0134 00000000 		.word	SD1
 1753 0138 24000000 		.word	.LC1
ARM GAS  /tmp/cclYivFL.s 			page 32


 1754              		.cfi_endproc
 1755              	.LFE80:
 1756              		.size	cameraControlThread, .-cameraControlThread
 1757 013c AFF30080 		.section	.rodata.gpt3cfg,"a",%progbits
 1758              		.align	2
 1759              		.set	.LANCHOR1,. + 0
 1760              		.type	gpt3cfg, %object
 1761              		.size	gpt3cfg, 8
 1762              	gpt3cfg:
 1763 0000 0048E801 		.word	32000000
 1764 0004 00000000 		.word	0
 1765              		.section	.rodata.str1.4,"aMS",%progbits,1
 1766              		.align	2
 1767              	.LC0:
 1768 0000 41444452 		.ascii	"ADDR: %x ASSIGNED: %x ACTUAL: %x\015\012\000"
 1768      3A202578 
 1768      20415353 
 1768      49474E45 
 1768      443A2025 
 1769 0023 00       		.space	1
 1770              	.LC1:
 1771 0024 53455455 		.ascii	"SETUP FAILED\015\012\000"
 1771      50204641 
 1771      494C4544 
 1771      0D0A00
 1772 0033 00       		.section	.rodata.cam_config,"a",%progbits
 1773              		.align	2
 1774              		.set	.LANCHOR0,. + 0
 1775              		.type	cam_config, %object
 1776              		.size	cam_config, 30
 1777              	cam_config:
 1778 0000 11       		.byte	17
 1779 0001 80       		.byte	-128
 1780 0002 0C       		.byte	12
 1781 0003 00       		.byte	0
 1782 0004 12       		.byte	18
 1783 0005 04       		.byte	4
 1784 0006 15       		.byte	21
 1785 0007 02       		.byte	2
 1786 0008 8C       		.byte	-116
 1787 0009 00       		.byte	0
 1788 000a 3B       		.byte	59
 1789 000b 0A       		.byte	10
 1790 000c 40       		.byte	64
 1791 000d D0       		.byte	-48
 1792 000e 72       		.byte	114
 1793 000f 00       		.byte	0
 1794 0010 73       		.byte	115
 1795 0011 F0       		.byte	-16
 1796 0012 A2       		.byte	-94
 1797 0013 00       		.byte	0
 1798 0014 70       		.byte	112
 1799 0015 20       		.byte	32
 1800 0016 71       		.byte	113
 1801 0017 20       		.byte	32
 1802 0018 18       		.byte	24
 1803 0019 4F       		.byte	79
ARM GAS  /tmp/cclYivFL.s 			page 33


 1804 001a 17       		.byte	23
 1805 001b 00       		.byte	0
 1806 001c 32       		.byte	50
 1807 001d B8       		.byte	-72
 1808 001e 0000     		.text
 1809              	.Letext0:
 1810              		.file 2 "/home/mitchd/Documents/FOX-1/amsat-fox/x86_64-toolchain/arm/bin/../lib/gcc/arm-none-eabi/
 1811              		.file 3 "/home/mitchd/Documents/FOX-1/amsat-fox/x86_64-toolchain/arm/bin/../lib/gcc/arm-none-eabi/
 1812              		.file 4 "./os/ports/GCC/ARMCMx/chtypes.h"
 1813              		.file 5 "./os/kernel/include/chlists.h"
 1814              		.file 6 "./os/kernel/include/chthreads.h"
 1815              		.file 7 "./os/ports/GCC/ARMCMx/chcore_v7m.h"
 1816              		.file 8 "./os/kernel/include/chmtx.h"
 1817              		.file 9 "./os/kernel/include/chevents.h"
 1818              		.file 10 "./os/kernel/include/chqueues.h"
 1819              		.file 11 "./os/kernel/include/chioch.h"
 1820              		.file 12 "./os/hal/platforms/STM32L1xx/stm32l1xx.h"
 1821              		.file 13 "./os/hal/platforms/STM32/stm32.h"
 1822              		.file 14 "./os/hal/platforms/STM32/GPIOv2/pal_lld.h"
 1823              		.file 15 "./os/hal/include/gpt.h"
 1824              		.file 16 "./os/hal/platforms/STM32/gpt_lld.h"
 1825              		.file 17 "./os/hal/include/serial.h"
 1826              		.file 18 "./os/ports/common/ARMCMx/CMSIS/include/core_cm3.h"
 1827              		.file 19 "./os/various/chprintf.h"
 1828              		.file 20 "./encoder/encoder.h"
 1829              		.file 21 "./os/hal/platforms/STM32/serial_lld.h"