ARM GAS  /tmp/ccmbn2ty.s 			page 1


   1              		.syntax unified
   2              		.cpu cortex-m3
   3              		.fpu softvfp
   4              		.eabi_attribute 20, 1
   5              		.eabi_attribute 21, 1
   6              		.eabi_attribute 23, 3
   7              		.eabi_attribute 24, 1
   8              		.eabi_attribute 25, 1
   9              		.eabi_attribute 26, 1
  10              		.eabi_attribute 30, 2
  11              		.eabi_attribute 34, 1
  12              		.eabi_attribute 18, 4
  13              		.thumb
  14              		.file	"dct.c"
  15              		.text
  16              	.Ltext0:
  17              		.cfi_sections	.debug_frame
  18              		.section	.text.dct,"ax",%progbits
  19              		.align	2
  20              		.p2align 4,,15
  21              		.global	dct
  22              		.thumb
  23              		.thumb_func
  24              		.type	dct, %function
  25              	dct:
  26              	.LFB0:
  27              		.file 1 "./encoder/dct.c"
  28              		.loc 1 20 0
  29              		.cfi_startproc
  30              		@ args = 0, pretend = 0, frame = 200
  31              		@ frame_needed = 0, uses_anonymous_args = 0
  32              		@ link register save eliminated.
  33              	.LVL0:
  34 0000 2DE9F00F 		push	{r4, r5, r6, r7, r8, r9, sl, fp}
  35              	.LCFI0:
  36              		.cfi_def_cfa_offset 32
  37              		.cfi_offset 4, -32
  38              		.cfi_offset 5, -28
  39              		.cfi_offset 6, -24
  40              		.cfi_offset 7, -20
  41              		.cfi_offset 8, -16
  42              		.cfi_offset 9, -12
  43              		.cfi_offset 10, -8
  44              		.cfi_offset 11, -4
  45              	.LBB2:
  46              		.loc 1 51 0
  47 0004 4FF28332 		movw	r2, #62339
  48              	.LBE2:
  49              		.loc 1 20 0
  50 0008 B2B0     		sub	sp, sp, #200
  51              	.LCFI1:
  52              		.cfi_def_cfa_offset 232
  53              	.LBB3:
  54              		.loc 1 51 0
  55 000a 4CF23A13 		movw	r3, #49466
  56 000e 4DF67144 		movw	r4, #56433
  57              		.loc 1 64 0
ARM GAS  /tmp/ccmbn2ty.s 			page 2


  58 0012 4CF2DF46 		movw	r6, #50399
  59              	.LBE3:
  60              		.loc 1 19 0
  61 0016 0DF14808 		add	r8, sp, #72
  62 001a 0DF1CA09 		add	r9, sp, #202
  63              	.LBB4:
  64              		.loc 1 51 0
  65 001e CFF6FF72 		movt	r2, 65535
  66 0022 CFF6FF73 		movt	r3, 65535
  67 0026 CFF6FF74 		movt	r4, 65535
  68              		.loc 1 64 0
  69 002a CFF6FF76 		movt	r6, 65535
  70              	.LBE4:
  71              		.loc 1 20 0
  72 002e 0991     		str	r1, [sp, #36]
  73 0030 0DF14A05 		add	r5, sp, #74
  74              		.loc 1 19 0
  75 0034 CDF84480 		str	r8, [sp, #68]
  76 0038 CDF82890 		str	r9, [sp, #40]
  77              	.LBB5:
  78              		.loc 1 51 0
  79 003c 0792     		str	r2, [sp, #28]
  80 003e 0493     		str	r3, [sp, #16]
  81 0040 0694     		str	r4, [sp, #24]
  82              		.loc 1 64 0
  83 0042 0896     		str	r6, [sp, #32]
  84              	.LVL1:
  85              	.L2:
  86              		.loc 1 43 0 discriminator 2
  87 0044 B0F80CC0 		ldrh	ip, [r0, #12]
  88 0048 4788     		ldrh	r7, [r0, #2]
  89              		.loc 1 41 0 discriminator 2
  90 004a B0F800A0 		ldrh	sl, [r0, #0]
  91              		.loc 1 44 0 discriminator 2
  92 004e CCEB0706 		rsb	r6, ip, r7
  93              		.loc 1 51 0 discriminator 2
  94 0052 079B     		ldr	r3, [sp, #28]
  95              		.loc 1 52 0 discriminator 2
  96 0054 049C     		ldr	r4, [sp, #16]
  97              		.loc 1 53 0 discriminator 2
  98 0056 DDF81880 		ldr	r8, [sp, #24]
  99              		.loc 1 41 0 discriminator 2
 100 005a CDF80CA0 		str	sl, [sp, #12]
 101              		.loc 1 50 0 discriminator 2
 102 005e 36B2     		sxth	r6, r6
 103 0060 43F23752 		movw	r2, #13623
 104              		.loc 1 41 0 discriminator 2
 105 0064 C189     		ldrh	r1, [r0, #14]
 106              		.loc 1 50 0 discriminator 2
 107 0066 02FB06FB 		mul	fp, r2, r6
 108              		.loc 1 51 0 discriminator 2
 109 006a 03FB06FA 		mul	sl, r3, r6
 110              		.loc 1 52 0 discriminator 2
 111 006e 04FB06F9 		mul	r9, r4, r6
 112              		.loc 1 53 0 discriminator 2
 113 0072 08FB06F6 		mul	r6, r8, r6
 114              		.loc 1 42 0 discriminator 2
ARM GAS  /tmp/ccmbn2ty.s 			page 3


 115 0076 DDF80C80 		ldr	r8, [sp, #12]
 116              		.loc 1 45 0 discriminator 2
 117 007a 4289     		ldrh	r2, [r0, #10]
 118              		.loc 1 42 0 discriminator 2
 119 007c C1EB0804 		rsb	r4, r1, r8
 120              		.loc 1 50 0 discriminator 2
 121 0080 24B2     		sxth	r4, r4
 122 0082 43F6C668 		movw	r8, #16070
 123 0086 08FB04BB 		mla	fp, r8, r4, fp
 124              		.loc 1 51 0 discriminator 2
 125 008a 43F23758 		movw	r8, #13623
 126 008e 08FB04AA 		mla	sl, r8, r4, sl
 127 0092 CDF830A0 		str	sl, [sp, #48]
 128              		.loc 1 52 0 discriminator 2
 129 0096 42F28F3A 		movw	sl, #9103
 130 009a 0AFB0499 		mla	r9, sl, r4, r9
 131              		.loc 1 45 0 discriminator 2
 132 009e 8388     		ldrh	r3, [r0, #4]
 133              		.loc 1 52 0 discriminator 2
 134 00a0 CDF83490 		str	r9, [sp, #52]
 135              		.loc 1 43 0 discriminator 2
 136 00a4 6744     		add	r7, ip, r7
 137              		.loc 1 41 0 discriminator 2
 138 00a6 DDF80C90 		ldr	r9, [sp, #12]
 139              		.loc 1 45 0 discriminator 2
 140 00aa 02EB030C 		add	ip, r2, r3
 141              		.loc 1 46 0 discriminator 2
 142 00ae 9B1A     		subs	r3, r3, r2
 143              		.loc 1 50 0 discriminator 2
 144 00b0 1BB2     		sxth	r3, r3
 145 00b2 0AFB03BB 		mla	fp, sl, r3, fp
 146              		.loc 1 41 0 discriminator 2
 147 00b6 4944     		add	r1, r1, r9
 148              		.loc 1 51 0 discriminator 2
 149 00b8 DDF810A0 		ldr	sl, [sp, #16]
 150 00bc DDF83090 		ldr	r9, [sp, #48]
 151              		.loc 1 53 0 discriminator 2
 152 00c0 40F67D48 		movw	r8, #3197
 153              		.loc 1 51 0 discriminator 2
 154 00c4 0AFB039A 		mla	sl, sl, r3, r9
 155              		.loc 1 53 0 discriminator 2
 156 00c8 08FB0466 		mla	r6, r8, r4, r6
 157              		.loc 1 52 0 discriminator 2
 158 00cc DDF83490 		ldr	r9, [sp, #52]
 159              		.loc 1 51 0 discriminator 2
 160 00d0 CDF830A0 		str	sl, [sp, #48]
 161              		.loc 1 52 0 discriminator 2
 162 00d4 40F67D4A 		movw	sl, #3197
 163 00d8 0AFB039A 		mla	sl, sl, r3, r9
 164              		.loc 1 53 0 discriminator 2
 165 00dc 0596     		str	r6, [sp, #20]
 166 00de DDF81490 		ldr	r9, [sp, #20]
 167              		.loc 1 52 0 discriminator 2
 168 00e2 CDF834A0 		str	sl, [sp, #52]
 169              		.loc 1 53 0 discriminator 2
 170 00e6 43F2375A 		movw	sl, #13623
 171 00ea 0AFB039A 		mla	sl, sl, r3, r9
ARM GAS  /tmp/ccmbn2ty.s 			page 4


 172              		.loc 1 45 0 discriminator 2
 173 00ee 1FFA8CFC 		uxth	ip, ip
 174              		.loc 1 43 0 discriminator 2
 175 00f2 BFB2     		uxth	r7, r7
 176              		.loc 1 58 0 discriminator 2
 177 00f4 CCEB0708 		rsb	r8, ip, r7
 178              		.loc 1 64 0 discriminator 2
 179 00f8 089B     		ldr	r3, [sp, #32]
 180              		.loc 1 53 0 discriminator 2
 181 00fa CDF82CA0 		str	sl, [sp, #44]
 182              		.loc 1 63 0 discriminator 2
 183 00fe 0FFA88F8 		sxth	r8, r8
 184 0102 41F67E0A 		movw	sl, #6270
 185              		.loc 1 47 0 discriminator 2
 186 0106 C688     		ldrh	r6, [r0, #6]
 187 0108 0489     		ldrh	r4, [r0, #8]
 188              		.loc 1 63 0 discriminator 2
 189 010a 0AFB08FA 		mul	sl, sl, r8
 190              		.loc 1 64 0 discriminator 2
 191 010e 03FB08F8 		mul	r8, r3, r8
 192              		.loc 1 47 0 discriminator 2
 193 0112 A219     		adds	r2, r4, r6
 194              		.loc 1 41 0 discriminator 2
 195 0114 89B2     		uxth	r1, r1
 196              	.LVL2:
 197              		.loc 1 47 0 discriminator 2
 198 0116 92B2     		uxth	r2, r2
 199              	.LVL3:
 200              		.loc 1 64 0 discriminator 2
 201 0118 CDF81480 		str	r8, [sp, #20]
 202              		.loc 1 57 0 discriminator 2
 203 011c 6744     		add	r7, ip, r7
 204              	.LVL4:
 205              		.loc 1 55 0 discriminator 2
 206 011e 02EB0108 		add	r8, r2, r1
 207              		.loc 1 60 0 discriminator 2
 208 0122 0FFA88F8 		sxth	r8, r8
 209 0126 3FB2     		sxth	r7, r7
 210              		.loc 1 51 0 discriminator 2
 211 0128 DDF83090 		ldr	r9, [sp, #48]
 212              		.loc 1 48 0 discriminator 2
 213 012c 341B     		subs	r4, r6, r4
 214              	.LVL5:
 215              		.loc 1 56 0 discriminator 2
 216 012e 8A1A     		subs	r2, r1, r2
 217              	.LVL6:
 218              		.loc 1 60 0 discriminator 2
 219 0130 08EB0701 		add	r1, r8, r7
 220              	.LVL7:
 221              		.loc 1 61 0 discriminator 2
 222 0134 C7EB0807 		rsb	r7, r7, r8
 223              		.loc 1 51 0 discriminator 2
 224 0138 DDF81880 		ldr	r8, [sp, #24]
 225              		.loc 1 50 0 discriminator 2
 226 013c 24B2     		sxth	r4, r4
 227 013e 40F67D46 		movw	r6, #3197
 228              	.LVL8:
ARM GAS  /tmp/ccmbn2ty.s 			page 5


 229              		.loc 1 63 0 discriminator 2
 230 0142 CDF80CA0 		str	sl, [sp, #12]
 231              		.loc 1 50 0 discriminator 2
 232 0146 06FB04BB 		mla	fp, r6, r4, fp
 233              		.loc 1 51 0 discriminator 2
 234 014a 08FB049A 		mla	sl, r8, r4, r9
 235              		.loc 1 52 0 discriminator 2
 236 014e 0D9B     		ldr	r3, [sp, #52]
 237              		.loc 1 53 0 discriminator 2
 238 0150 049E     		ldr	r6, [sp, #16]
 239 0152 DDF82C80 		ldr	r8, [sp, #44]
 240              		.loc 1 52 0 discriminator 2
 241 0156 43F2375C 		movw	ip, #13623
 242              	.LVL9:
 243 015a 0CFB0439 		mla	r9, ip, r4, r3
 244              		.loc 1 53 0 discriminator 2
 245 015e 06FB0483 		mla	r3, r6, r4, r8
 246              		.loc 1 63 0 discriminator 2
 247 0162 039E     		ldr	r6, [sp, #12]
 248              		.loc 1 60 0 discriminator 2
 249 0164 42F6425C 		movw	ip, #11586
 250              		.loc 1 63 0 discriminator 2
 251 0168 12B2     		sxth	r2, r2
 252 016a 43F62134 		movw	r4, #15137
 253              		.loc 1 60 0 discriminator 2
 254 016e 0CFB01F1 		mul	r1, ip, r1
 255              		.loc 1 61 0 discriminator 2
 256 0172 0CFB07F7 		mul	r7, ip, r7
 257              		.loc 1 63 0 discriminator 2
 258 0176 04FB026C 		mla	ip, r4, r2, r6
 259              		.loc 1 64 0 discriminator 2
 260 017a 059C     		ldr	r4, [sp, #20]
 261 017c 41F67E08 		movw	r8, #6270
 262 0180 08FB0242 		mla	r2, r8, r2, r4
 263              		.loc 1 50 0 discriminator 2
 264 0184 4FEAAB3B 		asr	fp, fp, #14
 265 0188 A5F800B0 		strh	fp, [r5, #0]	@ movhi
 266              		.loc 1 53 0 discriminator 2
 267 018c 9B13     		asrs	r3, r3, #14
 268              		.loc 1 60 0 discriminator 2
 269 018e 8913     		asrs	r1, r1, #14
 270              		.loc 1 61 0 discriminator 2
 271 0190 BF13     		asrs	r7, r7, #14
 272              		.loc 1 64 0 discriminator 2
 273 0192 9213     		asrs	r2, r2, #14
 274              		.loc 1 51 0 discriminator 2
 275 0194 4FEAAA3A 		asr	sl, sl, #14
 276              		.loc 1 52 0 discriminator 2
 277 0198 4FEAA939 		asr	r9, r9, #14
 278              		.loc 1 63 0 discriminator 2
 279 019c 4FEAAC3C 		asr	ip, ip, #14
 280              	.LBE5:
 281              		.loc 1 36 0 discriminator 2
 282 01a0 0A9E     		ldr	r6, [sp, #40]
 283              	.LBB6:
 284              		.loc 1 51 0 discriminator 2
 285 01a2 A5F804A0 		strh	sl, [r5, #4]	@ movhi
ARM GAS  /tmp/ccmbn2ty.s 			page 6


 286              		.loc 1 52 0 discriminator 2
 287 01a6 A5F80890 		strh	r9, [r5, #8]	@ movhi
 288              		.loc 1 53 0 discriminator 2
 289 01aa AB81     		strh	r3, [r5, #12]	@ movhi
 290              	.LVL10:
 291              		.loc 1 60 0 discriminator 2
 292 01ac 25F8021C 		strh	r1, [r5, #-2]	@ movhi
 293              		.loc 1 61 0 discriminator 2
 294 01b0 EF80     		strh	r7, [r5, #6]	@ movhi
 295              		.loc 1 63 0 discriminator 2
 296 01b2 A5F802C0 		strh	ip, [r5, #2]	@ movhi
 297              		.loc 1 64 0 discriminator 2
 298 01b6 6A81     		strh	r2, [r5, #10]	@ movhi
 299 01b8 1035     		adds	r5, r5, #16
 300 01ba 1030     		adds	r0, r0, #16
 301              	.LVL11:
 302              	.LBE6:
 303              		.loc 1 36 0 discriminator 2
 304 01bc B542     		cmp	r5, r6
 305 01be 7FF441AF 		bne	.L2
 306 01c2 0998     		ldr	r0, [sp, #36]
 307              	.LVL12:
 308 01c4 099A     		ldr	r2, [sp, #36]
 309 01c6 1030     		adds	r0, r0, #16
 310 01c8 3032     		adds	r2, r2, #48
 311 01ca 099B     		ldr	r3, [sp, #36]
 312 01cc 099C     		ldr	r4, [sp, #36]
 313 01ce 099E     		ldr	r6, [sp, #36]
 314 01d0 DDF82480 		ldr	r8, [sp, #36]
 315 01d4 DDF82490 		ldr	r9, [sp, #36]
 316 01d8 0B90     		str	r0, [sp, #44]
 317 01da 0E92     		str	r2, [sp, #56]
 318              	.LBB7:
 319              		.loc 1 83 0
 320 01dc 4FF2833A 		movw	sl, #62339
 321 01e0 4CF23A1C 		movw	ip, #49466
 322 01e4 4DF67140 		movw	r0, #56433
 323              		.loc 1 96 0
 324 01e8 4CF2DF42 		movw	r2, #50399
 325 01ec 5033     		adds	r3, r3, #80
 326 01ee 7034     		adds	r4, r4, #112
 327 01f0 4036     		adds	r6, r6, #64
 328 01f2 08F12008 		add	r8, r8, #32
 329 01f6 09F16009 		add	r9, r9, #96
 330              		.loc 1 83 0
 331 01fa CFF6FF7A 		movt	sl, 65535
 332 01fe CFF6FF7C 		movt	ip, 65535
 333 0202 CFF6FF70 		movt	r0, 65535
 334              		.loc 1 96 0
 335 0206 CFF6FF72 		movt	r2, 65535
 336 020a 119F     		ldr	r7, [sp, #68]
 337              	.LBE7:
 338              		.loc 1 36 0
 339 020c 0025     		movs	r5, #0
 340 020e 1093     		str	r3, [sp, #64]
 341 0210 0C94     		str	r4, [sp, #48]
 342 0212 0F96     		str	r6, [sp, #60]
ARM GAS  /tmp/ccmbn2ty.s 			page 7


 343 0214 CDF83480 		str	r8, [sp, #52]
 344 0218 CDF82890 		str	r9, [sp, #40]
 345              	.LBB8:
 346              		.loc 1 83 0
 347 021c CDF81CA0 		str	sl, [sp, #28]
 348 0220 CDF810C0 		str	ip, [sp, #16]
 349 0224 0690     		str	r0, [sp, #24]
 350              		.loc 1 96 0
 351 0226 0892     		str	r2, [sp, #32]
 352              	.L3:
 353              		.loc 1 75 0 discriminator 2
 354 0228 3C8A     		ldrh	r4, [r7, #16]
 355 022a B7F86060 		ldrh	r6, [r7, #96]
 356              		.loc 1 73 0 discriminator 2
 357 022e 12AB     		add	r3, sp, #72
 358 0230 5A5B     		ldrh	r2, [r3, r5]
 359              		.loc 1 76 0 discriminator 2
 360 0232 C6EB0408 		rsb	r8, r6, r4
 361              		.loc 1 83 0 discriminator 2
 362 0236 DDF81CC0 		ldr	ip, [sp, #28]
 363              		.loc 1 84 0 discriminator 2
 364 023a 0498     		ldr	r0, [sp, #16]
 365              		.loc 1 85 0 discriminator 2
 366 023c 069B     		ldr	r3, [sp, #24]
 367              		.loc 1 82 0 discriminator 2
 368 023e 0FFA88F8 		sxth	r8, r8
 369 0242 43F23759 		movw	r9, #13623
 370              		.loc 1 73 0 discriminator 2
 371 0246 B7F87010 		ldrh	r1, [r7, #112]
 372              		.loc 1 82 0 discriminator 2
 373 024a 09FB08FB 		mul	fp, r9, r8
 374              		.loc 1 83 0 discriminator 2
 375 024e 0CFB08FA 		mul	sl, ip, r8
 376              		.loc 1 84 0 discriminator 2
 377 0252 00FB08F9 		mul	r9, r0, r8
 378              		.loc 1 77 0 discriminator 2
 379 0256 B7F850C0 		ldrh	ip, [r7, #80]
 380              		.loc 1 85 0 discriminator 2
 381 025a 03FB08F8 		mul	r8, r3, r8
 382              		.loc 1 77 0 discriminator 2
 383 025e 3B8C     		ldrh	r3, [r7, #32]
 384              		.loc 1 74 0 discriminator 2
 385 0260 501A     		subs	r0, r2, r1
 386              		.loc 1 75 0 discriminator 2
 387 0262 3619     		adds	r6, r6, r4
 388              		.loc 1 77 0 discriminator 2
 389 0264 0CEB0304 		add	r4, ip, r3
 390              		.loc 1 82 0 discriminator 2
 391 0268 00B2     		sxth	r0, r0
 392              		.loc 1 77 0 discriminator 2
 393 026a 0394     		str	r4, [sp, #12]
 394              		.loc 1 82 0 discriminator 2
 395 026c 43F6C664 		movw	r4, #16070
 396 0270 04FB00BB 		mla	fp, r4, r0, fp
 397              		.loc 1 83 0 discriminator 2
 398 0274 43F23754 		movw	r4, #13623
 399 0278 04FB00AA 		mla	sl, r4, r0, sl
ARM GAS  /tmp/ccmbn2ty.s 			page 8


 400              		.loc 1 84 0 discriminator 2
 401 027c 42F28F34 		movw	r4, #9103
 402 0280 04FB0099 		mla	r9, r4, r0, r9
 403              		.loc 1 85 0 discriminator 2
 404 0284 40F67D44 		movw	r4, #3197
 405 0288 04FB0088 		mla	r8, r4, r0, r8
 406 028c CDF81480 		str	r8, [sp, #20]
 407              		.loc 1 77 0 discriminator 2
 408 0290 DDF80C80 		ldr	r8, [sp, #12]
 409              		.loc 1 75 0 discriminator 2
 410 0294 B6B2     		uxth	r6, r6
 411              		.loc 1 77 0 discriminator 2
 412 0296 1FFA88F8 		uxth	r8, r8
 413              		.loc 1 78 0 discriminator 2
 414 029a CCEB0303 		rsb	r3, ip, r3
 415              		.loc 1 82 0 discriminator 2
 416 029e 1BB2     		sxth	r3, r3
 417              		.loc 1 77 0 discriminator 2
 418 02a0 CDF80C80 		str	r8, [sp, #12]
 419              		.loc 1 90 0 discriminator 2
 420 02a4 C8EB060C 		rsb	ip, r8, r6
 421              		.loc 1 82 0 discriminator 2
 422 02a8 42F28F38 		movw	r8, #9103
 423 02ac 08FB03BB 		mla	fp, r8, r3, fp
 424              		.loc 1 83 0 discriminator 2
 425 02b0 DDF81080 		ldr	r8, [sp, #16]
 426              		.loc 1 95 0 discriminator 2
 427 02b4 0FFA8CFC 		sxth	ip, ip
 428              		.loc 1 83 0 discriminator 2
 429 02b8 08FB03AA 		mla	sl, r8, r3, sl
 430 02bc CDF804A0 		str	sl, [sp, #4]
 431              		.loc 1 84 0 discriminator 2
 432 02c0 40F67D4A 		movw	sl, #3197
 433 02c4 0AFB0399 		mla	r9, sl, r3, r9
 434              		.loc 1 85 0 discriminator 2
 435 02c8 DDF814A0 		ldr	sl, [sp, #20]
 436 02cc 43F23758 		movw	r8, #13623
 437 02d0 08FB03A3 		mla	r3, r8, r3, sl
 438              		.loc 1 96 0 discriminator 2
 439 02d4 DDF82080 		ldr	r8, [sp, #32]
 440              		.loc 1 85 0 discriminator 2
 441 02d8 0293     		str	r3, [sp, #8]
 442              		.loc 1 95 0 discriminator 2
 443 02da 41F67E03 		movw	r3, #6270
 444              		.loc 1 79 0 discriminator 2
 445 02de 3C8E     		ldrh	r4, [r7, #48]
 446 02e0 B7F84000 		ldrh	r0, [r7, #64]
 447              		.loc 1 95 0 discriminator 2
 448 02e4 03FB0CF3 		mul	r3, r3, ip
 449              		.loc 1 96 0 discriminator 2
 450 02e8 08FB0CFC 		mul	ip, r8, ip
 451              		.loc 1 89 0 discriminator 2
 452 02ec DDF80CA0 		ldr	sl, [sp, #12]
 453              		.loc 1 73 0 discriminator 2
 454 02f0 8918     		adds	r1, r1, r2
 455              		.loc 1 79 0 discriminator 2
 456 02f2 0219     		adds	r2, r0, r4
ARM GAS  /tmp/ccmbn2ty.s 			page 9


 457              		.loc 1 73 0 discriminator 2
 458 02f4 89B2     		uxth	r1, r1
 459              	.LVL13:
 460              		.loc 1 79 0 discriminator 2
 461 02f6 92B2     		uxth	r2, r2
 462              	.LVL14:
 463              		.loc 1 96 0 discriminator 2
 464 02f8 CDF814C0 		str	ip, [sp, #20]
 465              		.loc 1 89 0 discriminator 2
 466 02fc 5644     		add	r6, sl, r6
 467              	.LVL15:
 468              		.loc 1 87 0 discriminator 2
 469 02fe 02EB010C 		add	ip, r2, r1
 470              		.loc 1 95 0 discriminator 2
 471 0302 1193     		str	r3, [sp, #68]
 472              		.loc 1 92 0 discriminator 2
 473 0304 0FFA8CFC 		sxth	ip, ip
 474              		.loc 1 83 0 discriminator 2
 475 0308 069B     		ldr	r3, [sp, #24]
 476              		.loc 1 92 0 discriminator 2
 477 030a 36B2     		sxth	r6, r6
 478              		.loc 1 80 0 discriminator 2
 479 030c 201A     		subs	r0, r4, r0
 480              	.LVL16:
 481              		.loc 1 83 0 discriminator 2
 482 030e 019C     		ldr	r4, [sp, #4]
 483              	.LVL17:
 484              		.loc 1 82 0 discriminator 2
 485 0310 00B2     		sxth	r0, r0
 486              		.loc 1 88 0 discriminator 2
 487 0312 8A1A     		subs	r2, r1, r2
 488              	.LVL18:
 489              		.loc 1 92 0 discriminator 2
 490 0314 0CEB0601 		add	r1, ip, r6
 491              	.LVL19:
 492              		.loc 1 93 0 discriminator 2
 493 0318 C6EB0C06 		rsb	r6, r6, ip
 494              		.loc 1 82 0 discriminator 2
 495 031c 40F67D4C 		movw	ip, #3197
 496              		.loc 1 83 0 discriminator 2
 497 0320 03FB004A 		mla	sl, r3, r0, r4
 498              		.loc 1 82 0 discriminator 2
 499 0324 0CFB00BB 		mla	fp, ip, r0, fp
 500              		.loc 1 85 0 discriminator 2
 501 0328 029C     		ldr	r4, [sp, #8]
 502 032a DDF810C0 		ldr	ip, [sp, #16]
 503              		.loc 1 84 0 discriminator 2
 504 032e 43F23758 		movw	r8, #13623
 505              		.loc 1 85 0 discriminator 2
 506 0332 0CFB0043 		mla	r3, ip, r0, r4
 507              		.loc 1 84 0 discriminator 2
 508 0336 08FB0099 		mla	r9, r8, r0, r9
 509              		.loc 1 95 0 discriminator 2
 510 033a 1198     		ldr	r0, [sp, #68]
 511              		.loc 1 92 0 discriminator 2
 512 033c 42F64258 		movw	r8, #11586
 513              		.loc 1 95 0 discriminator 2
ARM GAS  /tmp/ccmbn2ty.s 			page 10


 514 0340 12B2     		sxth	r2, r2
 515 0342 43F6213C 		movw	ip, #15137
 516              		.loc 1 92 0 discriminator 2
 517 0346 08FB01F1 		mul	r1, r8, r1
 518              		.loc 1 93 0 discriminator 2
 519 034a 08FB06F6 		mul	r6, r8, r6
 520              		.loc 1 95 0 discriminator 2
 521 034e 0CFB0208 		mla	r8, ip, r2, r0
 522              		.loc 1 96 0 discriminator 2
 523 0352 DDF814C0 		ldr	ip, [sp, #20]
 524 0356 41F67E04 		movw	r4, #6270
 525 035a 04FB02C2 		mla	r2, r4, r2, ip
 526              		.loc 1 82 0 discriminator 2
 527 035e 0B98     		ldr	r0, [sp, #44]
 528              		.loc 1 83 0 discriminator 2
 529 0360 0E9C     		ldr	r4, [sp, #56]
 530 0362 4FEA2A4A 		asr	sl, sl, #16
 531              		.loc 1 82 0 discriminator 2
 532 0366 4FEA2B4B 		asr	fp, fp, #16
 533 036a 20F805B0 		strh	fp, [r0, r5]	@ movhi
 534              		.loc 1 83 0 discriminator 2
 535 036e 24F805A0 		strh	sl, [r4, r5]	@ movhi
 536              		.loc 1 84 0 discriminator 2
 537 0372 DDF840A0 		ldr	sl, [sp, #64]
 538 0376 4FEA2949 		asr	r9, r9, #16
 539 037a 2AF80590 		strh	r9, [sl, r5]	@ movhi
 540              		.loc 1 85 0 discriminator 2
 541 037e DDF830C0 		ldr	ip, [sp, #48]
 542 0382 1B14     		asrs	r3, r3, #16
 543 0384 2CF80530 		strh	r3, [ip, r5]	@ movhi
 544              	.LVL20:
 545              		.loc 1 93 0 discriminator 2
 546 0388 0F9C     		ldr	r4, [sp, #60]
 547              		.loc 1 92 0 discriminator 2
 548 038a 099B     		ldr	r3, [sp, #36]
 549              		.loc 1 93 0 discriminator 2
 550 038c 3614     		asrs	r6, r6, #16
 551              		.loc 1 92 0 discriminator 2
 552 038e 0914     		asrs	r1, r1, #16
 553 0390 5953     		strh	r1, [r3, r5]	@ movhi
 554              		.loc 1 93 0 discriminator 2
 555 0392 6653     		strh	r6, [r4, r5]	@ movhi
 556              		.loc 1 95 0 discriminator 2
 557 0394 0D9E     		ldr	r6, [sp, #52]
 558 0396 4FEA2848 		asr	r8, r8, #16
 559 039a 26F80580 		strh	r8, [r6, r5]	@ movhi
 560              		.loc 1 96 0 discriminator 2
 561 039e DDF82880 		ldr	r8, [sp, #40]
 562 03a2 1214     		asrs	r2, r2, #16
 563 03a4 28F80520 		strh	r2, [r8, r5]	@ movhi
 564 03a8 0235     		adds	r5, r5, #2
 565              	.LVL21:
 566 03aa 0237     		adds	r7, r7, #2
 567              	.LVL22:
 568              	.LBE8:
 569              		.loc 1 68 0 discriminator 2
 570 03ac 102D     		cmp	r5, #16
ARM GAS  /tmp/ccmbn2ty.s 			page 11


 571 03ae 7FF43BAF 		bne	.L3
 572              		.loc 1 98 0
 573 03b2 32B0     		add	sp, sp, #200
 574 03b4 BDE8F00F 		pop	{r4, r5, r6, r7, r8, r9, sl, fp}
 575 03b8 7047     		bx	lr
 576              		.cfi_endproc
 577              	.LFE0:
 578              		.size	dct, .-dct
 579 03ba 00BFAFF3 		.text
 579      0080
 580              	.Letext0: