ARM GAS  /tmp/ccUmV1P3.s 			page 1


   1              		.syntax unified
   2              		.cpu cortex-m3
   3              		.fpu softvfp
   4              		.eabi_attribute 20, 1
   5              		.eabi_attribute 21, 1
   6              		.eabi_attribute 23, 3
   7              		.eabi_attribute 24, 1
   8              		.eabi_attribute 25, 1
   9              		.eabi_attribute 26, 1
  10              		.eabi_attribute 30, 2
  11              		.eabi_attribute 34, 1
  12              		.eabi_attribute 18, 4
  13              		.thumb
  14              		.file	"encoder.c"
  15              		.text
  16              	.Ltext0:
  17              		.cfi_sections	.debug_frame
  18              		.section	.text.write_jpeg,"ax",%progbits
  19              		.align	2
  20              		.p2align 4,,15
  21              		.global	write_jpeg
  22              		.thumb
  23              		.thumb_func
  24              		.type	write_jpeg, %function
  25              	write_jpeg:
  26              	.LFB62:
  27              		.file 1 "./encoder/encoder.c"
  28              		.loc 1 7 0
  29              		.cfi_startproc
  30              		@ args = 0, pretend = 0, frame = 0
  31              		@ frame_needed = 0, uses_anonymous_args = 0
  32              	.LVL0:
  33 0000 10B5     		push	{r4, lr}
  34              	.LCFI0:
  35              		.cfi_def_cfa_offset 8
  36              		.cfi_offset 4, -8
  37              		.cfi_offset 14, -4
  38              		.loc 1 7 0
  39 0002 0C46     		mov	r4, r1
  40              		.loc 1 8 0
  41 0004 2246     		mov	r2, r4
  42              		.loc 1 7 0
  43 0006 0146     		mov	r1, r0
  44              	.LVL1:
  45              		.loc 1 8 0
  46 0008 4FF0FF33 		mov	r3, #-1
  47 000c 0548     		ldr	r0, .L2
  48              	.LVL2:
  49 000e FFF7FEFF 		bl	chOQWriteTimeout
  50              	.LVL3:
  51              		.loc 1 10 0
  52 0012 40F20003 		movw	r3, #:lower16:.LANCHOR0
  53 0016 C0F20003 		movt	r3, #:upper16:.LANCHOR0
  54 001a 1A68     		ldr	r2, [r3, #0]
  55 001c A418     		adds	r4, r4, r2
  56              	.LVL4:
  57 001e 1C60     		str	r4, [r3, #0]
ARM GAS  /tmp/ccUmV1P3.s 			page 2


  58 0020 10BD     		pop	{r4, pc}
  59              	.L3:
  60 0022 00BF     		.align	2
  61              	.L2:
  62 0024 30000000 		.word	SD1+48
  63              		.cfi_endproc
  64              	.LFE62:
  65              		.size	write_jpeg, .-write_jpeg
  66 0028 AFF30080 		.section	.text.getRed,"ax",%progbits
  66      AFF30080 
  67              		.align	2
  68              		.p2align 4,,15
  69              		.global	getRed
  70              		.thumb
  71              		.thumb_func
  72              		.type	getRed, %function
  73              	getRed:
  74              	.LFB63:
  75              		.loc 1 12 0
  76              		.cfi_startproc
  77              		@ args = 0, pretend = 0, frame = 8
  78              		@ frame_needed = 0, uses_anonymous_args = 0
  79              		@ link register save eliminated.
  80 0000 82B0     		sub	sp, sp, #8
  81              	.LCFI1:
  82              		.cfi_def_cfa_offset 8
  83              	.LVL5:
  84              		.loc 1 15 0
  85 0002 00F0F800 		and	r0, r0, #248
  86 0006 02B0     		add	sp, sp, #8
  87 0008 7047     		bx	lr
  88              		.cfi_endproc
  89              	.LFE63:
  90              		.size	getRed, .-getRed
  91 000a 00BFAFF3 		.section	.text.getBlue,"ax",%progbits
  91      0080
  92              		.align	2
  93              		.p2align 4,,15
  94              		.global	getBlue
  95              		.thumb
  96              		.thumb_func
  97              		.type	getBlue, %function
  98              	getBlue:
  99              	.LFB64:
 100              		.loc 1 17 0
 101              		.cfi_startproc
 102              		@ args = 0, pretend = 0, frame = 8
 103              		@ frame_needed = 0, uses_anonymous_args = 0
 104              		@ link register save eliminated.
 105              		.loc 1 18 0
 106 0000 4009     		lsrs	r0, r0, #5
 107              		.loc 1 17 0
 108 0002 82B0     		sub	sp, sp, #8
 109              	.LCFI2:
 110              		.cfi_def_cfa_offset 8
 111              	.LVL6:
 112              		.loc 1 20 0
ARM GAS  /tmp/ccUmV1P3.s 			page 3


 113 0004 00F0F800 		and	r0, r0, #248
 114 0008 02B0     		add	sp, sp, #8
 115 000a 7047     		bx	lr
 116              		.cfi_endproc
 117              	.LFE64:
 118              		.size	getBlue, .-getBlue
 119 000c AFF30080 		.section	.text.getGreen,"ax",%progbits
 120              		.align	2
 121              		.p2align 4,,15
 122              		.global	getGreen
 123              		.thumb
 124              		.thumb_func
 125              		.type	getGreen, %function
 126              	getGreen:
 127              	.LFB65:
 128              		.loc 1 22 0
 129              		.cfi_startproc
 130              		@ args = 0, pretend = 0, frame = 8
 131              		@ frame_needed = 0, uses_anonymous_args = 0
 132              		@ link register save eliminated.
 133              		.loc 1 23 0
 134 0000 4301     		lsls	r3, r0, #5
 135 0002 03F0E003 		and	r3, r3, #224
 136              		.loc 1 24 0
 137 0006 C0F34230 		ubfx	r0, r0, #13, #3
 138              		.loc 1 22 0
 139 000a 82B0     		sub	sp, sp, #8
 140              	.LCFI3:
 141              		.cfi_def_cfa_offset 8
 142              	.LVL7:
 143              		.loc 1 26 0
 144 000c 1843     		orrs	r0, r0, r3
 145 000e 02B0     		add	sp, sp, #8
 146 0010 7047     		bx	lr
 147              		.cfi_endproc
 148              	.LFE65:
 149              		.size	getGreen, .-getGreen
 150 0012 00BFAFF3 		.section	.text.RGB2Y,"ax",%progbits
 150      0080AFF3 
 150      0080AFF3 
 150      0080
 151              		.align	2
 152              		.p2align 4,,15
 153              		.global	RGB2Y
 154              		.thumb
 155              		.thumb_func
 156              		.type	RGB2Y, %function
 157              	RGB2Y:
 158              	.LFB66:
 159              		.loc 1 28 0
 160              		.cfi_startproc
 161              		@ args = 0, pretend = 0, frame = 0
 162              		@ frame_needed = 0, uses_anonymous_args = 0
 163              		@ link register save eliminated.
 164              	.LVL8:
 165              		.loc 1 29 0
 166 0000 44F68B43 		movw	r3, #19595
ARM GAS  /tmp/ccUmV1P3.s 			page 4


 167 0004 03FB00F0 		mul	r0, r3, r0
 168              	.LVL9:
 169 0008 00F50043 		add	r3, r0, #32768
 170 000c 49F24660 		movw	r0, #38470
 171 0010 00FB0131 		mla	r1, r0, r1, r3
 172              	.LVL10:
 173 0014 41F62F50 		movw	r0, #7471
 174 0018 00FB0210 		mla	r0, r0, r2, r1
 175              		.loc 1 30 0
 176 001c C0F30740 		ubfx	r0, r0, #16, #8
 177 0020 7047     		bx	lr
 178              		.cfi_endproc
 179              	.LFE66:
 180              		.size	RGB2Y, .-RGB2Y
 181 0022 00BFAFF3 		.section	.text.RGB2Cb,"ax",%progbits
 181      0080AFF3 
 181      0080AFF3 
 181      0080
 182              		.align	2
 183              		.p2align 4,,15
 184              		.global	RGB2Cb
 185              		.thumb
 186              		.thumb_func
 187              		.type	RGB2Cb, %function
 188              	RGB2Cb:
 189              	.LFB67:
 190              		.loc 1 31 0
 191              		.cfi_startproc
 192              		@ args = 0, pretend = 0, frame = 0
 193              		@ frame_needed = 0, uses_anonymous_args = 0
 194              		@ link register save eliminated.
 195              	.LVL11:
 196              		.loc 1 32 0
 197 0000 4DF2CE43 		movw	r3, #54478
 198 0004 CFF6FF73 		movt	r3, 65535
 199 0008 03FB00F0 		mul	r0, r3, r0
 200              	.LVL12:
 201              		.loc 1 31 0
 202 000c 10B4     		push	{r4}
 203              	.LCFI4:
 204              		.cfi_def_cfa_offset 4
 205              		.cfi_offset 4, -4
 206              		.loc 1 32 0
 207 000e 00F50003 		add	r3, r0, #8388608
 208 0012 4AF63334 		movw	r4, #43827
 209 0016 03F50043 		add	r3, r3, #32768
 210 001a CFF6FF74 		movt	r4, 65535
 211 001e 04FB0131 		mla	r1, r4, r1, r3
 212              	.LVL13:
 213 0022 C2EBC232 		rsb	r2, r2, r2, lsl #15
 214              	.LVL14:
 215 0026 8818     		adds	r0, r1, r2
 216              		.loc 1 33 0
 217 0028 C0F30740 		ubfx	r0, r0, #16, #8
 218 002c 10BC     		pop	{r4}
 219 002e 7047     		bx	lr
 220              		.cfi_endproc
ARM GAS  /tmp/ccUmV1P3.s 			page 5


 221              	.LFE67:
 222              		.size	RGB2Cb, .-RGB2Cb
 223              		.section	.text.RGB2Cr,"ax",%progbits
 224              		.align	2
 225              		.p2align 4,,15
 226              		.global	RGB2Cr
 227              		.thumb
 228              		.thumb_func
 229              		.type	RGB2Cr, %function
 230              	RGB2Cr:
 231              	.LFB68:
 232              		.loc 1 34 0
 233              		.cfi_startproc
 234              		@ args = 0, pretend = 0, frame = 0
 235              		@ frame_needed = 0, uses_anonymous_args = 0
 236              		@ link register save eliminated.
 237              	.LVL15:
 238              		.loc 1 35 0
 239 0000 C0EBC030 		rsb	r0, r0, r0, lsl #15
 240              	.LVL16:
 241 0004 00F50000 		add	r0, r0, #8388608
 242 0008 49F2D243 		movw	r3, #38098
 243 000c 00F50040 		add	r0, r0, #32768
 244 0010 CFF6FF73 		movt	r3, 65535
 245 0014 03FB0101 		mla	r1, r3, r1, r0
 246              	.LVL17:
 247 0018 4EF62F30 		movw	r0, #60207
 248 001c CFF6FF70 		movt	r0, 65535
 249 0020 00FB0210 		mla	r0, r0, r2, r1
 250              		.loc 1 36 0
 251 0024 C0F30740 		ubfx	r0, r0, #16, #8
 252 0028 7047     		bx	lr
 253              		.cfi_endproc
 254              	.LFE68:
 255              		.size	RGB2Cr, .-RGB2Cr
 256 002a 00BFAFF3 		.section	.text.convert,"ax",%progbits
 256      0080
 257              		.align	2
 258              		.p2align 4,,15
 259              		.global	convert
 260              		.thumb
 261              		.thumb_func
 262              		.type	convert, %function
 263              	convert:
 264              	.LFB69:
 265              		.loc 1 40 0
 266              		.cfi_startproc
 267              		@ args = 0, pretend = 0, frame = 32
 268              		@ frame_needed = 0, uses_anonymous_args = 0
 269              		@ link register save eliminated.
 270              	.LVL18:
 271 0000 2DE9F00F 		push	{r4, r5, r6, r7, r8, r9, sl, fp}
 272              	.LCFI5:
 273              		.cfi_def_cfa_offset 32
 274              		.cfi_offset 4, -32
 275              		.cfi_offset 5, -28
 276              		.cfi_offset 6, -24
ARM GAS  /tmp/ccUmV1P3.s 			page 6


 277              		.cfi_offset 7, -20
 278              		.cfi_offset 8, -16
 279              		.cfi_offset 9, -12
 280              		.cfi_offset 10, -8
 281              		.cfi_offset 11, -4
 282              	.LBB26:
 283              	.LBB27:
 284              		.loc 1 35 0
 285 0004 49F2D244 		movw	r4, #38098
 286 0008 4EF62F38 		movw	r8, #60207
 287              	.LBE27:
 288              	.LBE26:
 289              		.loc 1 40 0
 290 000c 88B0     		sub	sp, sp, #32
 291              	.LCFI6:
 292              		.cfi_def_cfa_offset 64
 293              	.LBB36:
 294              	.LBB37:
 295              		.loc 1 32 0
 296 000e 4DF2CE4C 		movw	ip, #54478
 297 0012 4AF63337 		movw	r7, #43827
 298              	.LBE37:
 299              	.LBE36:
 300              		.loc 1 40 0
 301 0016 4FF0000A 		mov	sl, #0
 302              	.LBB46:
 303              	.LBB28:
 304              		.loc 1 35 0
 305 001a CFF6FF74 		movt	r4, 65535
 306 001e CFF6FF78 		movt	r8, 65535
 307              	.LBE28:
 308              	.LBE46:
 309              		.loc 1 40 0
 310 0022 0490     		str	r0, [sp, #16]
 311 0024 0591     		str	r1, [sp, #20]
 312 0026 0692     		str	r2, [sp, #24]
 313 0028 0793     		str	r3, [sp, #28]
 314 002a CDF80CA0 		str	sl, [sp, #12]
 315              	.LBB47:
 316              	.LBB38:
 317              		.loc 1 32 0
 318 002e CFF6FF7C 		movt	ip, 65535
 319 0032 CFF6FF77 		movt	r7, 65535
 320              	.LBE38:
 321              	.LBE47:
 322              	.LBB48:
 323              	.LBB29:
 324              		.loc 1 35 0
 325 0036 0194     		str	r4, [sp, #4]
 326 0038 CDF80880 		str	r8, [sp, #8]
 327              	.LVL19:
 328              	.L11:
 329              	.LBE29:
 330              	.LBE48:
 331              		.loc 1 40 0 discriminator 1
 332 003c DDF80CA0 		ldr	sl, [sp, #12]
 333 0040 DDF81080 		ldr	r8, [sp, #16]
ARM GAS  /tmp/ccUmV1P3.s 			page 7


 334 0044 0699     		ldr	r1, [sp, #24]
 335 0046 079A     		ldr	r2, [sp, #28]
 336 0048 08EB0A04 		add	r4, r8, sl
 337 004c 01EB0A0B 		add	fp, r1, sl
 338 0050 DDF81480 		ldr	r8, [sp, #20]
 339 0054 0399     		ldr	r1, [sp, #12]
 340 0056 9244     		add	sl, r2, sl
 341 0058 0023     		movs	r3, #0
 342 005a 08EB0109 		add	r9, r8, r1
 343 005e 1A46     		mov	r2, r3
 344 0060 CDF800A0 		str	sl, [sp, #0]
 345              	.LVL20:
 346              	.L12:
 347              		.loc 1 45 0 discriminator 2
 348 0064 14F81200 		ldrb	r0, [r4, r2, lsl #1]	@ zero_extendqisi2
 349              	.LVL21:
 350              	.LBB49:
 351              	.LBB50:
 352              		.loc 1 29 0 discriminator 2
 353 0068 44F68B48 		movw	r8, #19595
 354              	.LBE50:
 355              	.LBE49:
 356              	.LBB57:
 357              	.LBB39:
 358              		.loc 1 32 0 discriminator 2
 359 006c 00F0F806 		and	r6, r0, #248
 360              	.LBE39:
 361              	.LBE57:
 362              	.LBB58:
 363              	.LBB51:
 364              		.loc 1 29 0 discriminator 2
 365 0070 08FB06F5 		mul	r5, r8, r6
 366              	.LBE51:
 367              	.LBE58:
 368              		.loc 1 45 0 discriminator 2
 369 0074 04EB4201 		add	r1, r4, r2, lsl #1
 370              	.LVL22:
 371              	.LBB59:
 372              	.LBB40:
 373              		.loc 1 32 0 discriminator 2
 374 0078 0CFB06F8 		mul	r8, ip, r6
 375              	.LBE40:
 376              	.LBE59:
 377              		.loc 1 45 0 discriminator 2
 378 007c 4978     		ldrb	r1, [r1, #1]	@ zero_extendqisi2
 379              	.LVL23:
 380              	.LBB60:
 381              	.LBB61:
 382              		.loc 1 23 0 discriminator 2
 383 007e 4001     		lsls	r0, r0, #5
 384              	.LVL24:
 385              	.LBE61:
 386              	.LBE60:
 387              	.LBB63:
 388              	.LBB30:
 389              		.loc 1 35 0 discriminator 2
 390 0080 C6EBC636 		rsb	r6, r6, r6, lsl #15
ARM GAS  /tmp/ccUmV1P3.s 			page 8


 391 0084 DDF804A0 		ldr	sl, [sp, #4]
 392              	.LBE30:
 393              	.LBE63:
 394              	.LBB64:
 395              	.LBB62:
 396              		.loc 1 23 0 discriminator 2
 397 0088 C0B2     		uxtb	r0, r0
 398              	.LVL25:
 399              	.LBE62:
 400              	.LBE64:
 401              	.LBB65:
 402              	.LBB31:
 403              		.loc 1 35 0 discriminator 2
 404 008a 06F50006 		add	r6, r6, #8388608
 405              	.LBE31:
 406              	.LBE65:
 407              	.LBB66:
 408              	.LBB41:
 409              		.loc 1 32 0 discriminator 2
 410 008e 40EA5110 		orr	r0, r0, r1, lsr #5
 411              	.LVL26:
 412              	.LBE41:
 413              	.LBE66:
 414              	.LBB67:
 415              	.LBB32:
 416              		.loc 1 35 0 discriminator 2
 417 0092 06F50046 		add	r6, r6, #32768
 418 0096 0AFB0066 		mla	r6, sl, r0, r6
 419              	.LBE32:
 420              	.LBE67:
 421              	.LBB68:
 422              	.LBB52:
 423              		.loc 1 29 0 discriminator 2
 424 009a 05F50045 		add	r5, r5, #32768
 425 009e 49F2466A 		movw	sl, #38470
 426              	.LBE52:
 427              	.LBE68:
 428              	.LBB69:
 429              	.LBB42:
 430              		.loc 1 32 0 discriminator 2
 431 00a2 08F50008 		add	r8, r8, #8388608
 432              	.LBE42:
 433              	.LBE69:
 434              	.LBB70:
 435              	.LBB53:
 436              		.loc 1 29 0 discriminator 2
 437 00a6 0AFB0055 		mla	r5, sl, r0, r5
 438              	.LBE53:
 439              	.LBE70:
 440              	.LBB71:
 441              	.LBB43:
 442              		.loc 1 32 0 discriminator 2
 443 00aa 08F50048 		add	r8, r8, #32768
 444 00ae 07FB0080 		mla	r0, r7, r0, r8
 445              	.LBE43:
 446              	.LBE71:
 447              	.LBB72:
ARM GAS  /tmp/ccUmV1P3.s 			page 9


 448              	.LBB73:
 449              		.loc 1 18 0 discriminator 2
 450 00b2 C900     		lsls	r1, r1, #3
 451              	.LVL27:
 452              	.LBE73:
 453              	.LBE72:
 454              	.LBB74:
 455              	.LBB33:
 456              		.loc 1 35 0 discriminator 2
 457 00b4 DDF80880 		ldr	r8, [sp, #8]
 458              	.LBE33:
 459              	.LBE74:
 460              	.LBB75:
 461              	.LBB44:
 462              		.loc 1 32 0 discriminator 2
 463 00b8 C9B2     		uxtb	r1, r1
 464              	.LBE44:
 465              	.LBE75:
 466              	.LBB76:
 467              	.LBB54:
 468              		.loc 1 29 0 discriminator 2
 469 00ba 41F62F5A 		movw	sl, #7471
 470              	.LBE54:
 471              	.LBE76:
 472              	.LBB77:
 473              	.LBB34:
 474              		.loc 1 35 0 discriminator 2
 475 00be 08FB0166 		mla	r6, r8, r1, r6
 476              	.LBE34:
 477              	.LBE77:
 478              	.LBB78:
 479              	.LBB55:
 480              		.loc 1 29 0 discriminator 2
 481 00c2 0AFB0155 		mla	r5, sl, r1, r5
 482              	.LBE55:
 483              	.LBE78:
 484              	.LBB79:
 485              	.LBB45:
 486              		.loc 1 32 0 discriminator 2
 487 00c6 C1EBC131 		rsb	r1, r1, r1, lsl #15
 488 00ca 4118     		adds	r1, r0, r1
 489 00cc 0914     		asrs	r1, r1, #16
 490              	.LBE45:
 491              	.LBE79:
 492              		.loc 1 46 0 discriminator 2
 493 00ce 8039     		subs	r1, r1, #128
 494 00d0 2BF80310 		strh	r1, [fp, r3]	@ movhi
 495              	.LVL28:
 496              	.LBB80:
 497              	.LBB35:
 498              		.loc 1 35 0 discriminator 2
 499 00d4 3614     		asrs	r6, r6, #16
 500              	.LBE35:
 501              	.LBE80:
 502              	.LBB81:
 503              	.LBB56:
 504              		.loc 1 29 0 discriminator 2
ARM GAS  /tmp/ccUmV1P3.s 			page 10


 505 00d6 2D14     		asrs	r5, r5, #16
 506              	.LBE56:
 507              	.LBE81:
 508              		.loc 1 47 0 discriminator 2
 509 00d8 0099     		ldr	r1, [sp, #0]
 510 00da 803E     		subs	r6, r6, #128
 511              		.loc 1 48 0 discriminator 2
 512 00dc 803D     		subs	r5, r5, #128
 513 00de 0132     		adds	r2, r2, #1
 514              	.LVL29:
 515              		.loc 1 47 0 discriminator 2
 516 00e0 CE52     		strh	r6, [r1, r3]	@ movhi
 517              	.LVL30:
 518              		.loc 1 48 0 discriminator 2
 519 00e2 29F80350 		strh	r5, [r9, r3]	@ movhi
 520 00e6 0233     		adds	r3, r3, #2
 521              		.loc 1 44 0 discriminator 2
 522 00e8 082A     		cmp	r2, #8
 523 00ea BBD1     		bne	.L12
 524 00ec 039A     		ldr	r2, [sp, #12]
 525              	.LVL31:
 526 00ee 1032     		adds	r2, r2, #16
 527              		.loc 1 43 0
 528 00f0 802A     		cmp	r2, #128
 529 00f2 0392     		str	r2, [sp, #12]
 530 00f4 A2D1     		bne	.L11
 531              		.loc 1 50 0
 532 00f6 08B0     		add	sp, sp, #32
 533 00f8 BDE8F00F 		pop	{r4, r5, r6, r7, r8, r9, sl, fp}
 534 00fc 7047     		bx	lr
 535              		.cfi_endproc
 536              	.LFE69:
 537              		.size	convert, .-convert
 538 00fe 00BF     		.section	.text.jpeg_init,"ax",%progbits
 539              		.align	2
 540              		.p2align 4,,15
 541              		.global	jpeg_init
 542              		.thumb
 543              		.thumb_func
 544              		.type	jpeg_init, %function
 545              	jpeg_init:
 546              	.LFB70:
 547              		.loc 1 52 0
 548              		.cfi_startproc
 549              		@ args = 0, pretend = 0, frame = 0
 550              		@ frame_needed = 0, uses_anonymous_args = 0
 551              		@ link register save eliminated.
 552              		.loc 1 53 0
 553 0000 4FF4F070 		mov	r0, #480
 554 0004 4FF42071 		mov	r1, #640
 555              		.loc 1 54 0
 556              		.loc 1 53 0
 557 0008 FFF7FEBF 		b	huffman_start
 558              	.LVL32:
 559              		.cfi_endproc
 560              	.LFE70:
 561              		.size	jpeg_init, .-jpeg_init
ARM GAS  /tmp/ccUmV1P3.s 			page 11


 562 000c AFF30080 		.section	.text.jpeg_close,"ax",%progbits
 563              		.align	2
 564              		.p2align 4,,15
 565              		.global	jpeg_close
 566              		.thumb
 567              		.thumb_func
 568              		.type	jpeg_close, %function
 569              	jpeg_close:
 570              	.LFB71:
 571              		.loc 1 56 0
 572              		.cfi_startproc
 573              		@ args = 0, pretend = 0, frame = 0
 574              		@ frame_needed = 0, uses_anonymous_args = 0
 575              		@ link register save eliminated.
 576              		.loc 1 58 0
 577              		.loc 1 57 0
 578 0000 FFF7FEBF 		b	huffman_stop
 579              	.LVL33:
 580              		.cfi_endproc
 581              	.LFE71:
 582              		.size	jpeg_close, .-jpeg_close
 583 0004 AFF30080 		.section	.text.rgb_get_block,"ax",%progbits
 583      AFF30080 
 583      AFF30080 
 584              		.align	2
 585              		.p2align 4,,15
 586              		.global	rgb_get_block
 587              		.thumb
 588              		.thumb_func
 589              		.type	rgb_get_block, %function
 590              	rgb_get_block:
 591              	.LFB72:
 592              		.loc 1 60 0
 593              		.cfi_startproc
 594              		@ args = 0, pretend = 0, frame = 0
 595              		@ frame_needed = 0, uses_anonymous_args = 0
 596              		@ link register save eliminated.
 597              	.LVL34:
 598 0000 F0B4     		push	{r4, r5, r6, r7}
 599              	.LCFI7:
 600              		.cfi_def_cfa_offset 16
 601              		.cfi_offset 4, -16
 602              		.cfi_offset 5, -12
 603              		.cfi_offset 6, -8
 604              		.cfi_offset 7, -4
 605              		.loc 1 60 0
 606 0002 0027     		movs	r7, #0
 607              	.LVL35:
 608              	.L21:
 609              		.loc 1 64 0
 610 0004 3C18     		adds	r4, r7, r0
 611 0006 A4B2     		uxth	r4, r4
 612              	.LVL36:
 613 0008 0023     		movs	r3, #0
 614              	.LVL37:
 615              	.L20:
 616              		.loc 1 67 0 discriminator 2
ARM GAS  /tmp/ccUmV1P3.s 			page 12


 617 000a 12F81460 		ldrb	r6, [r2, r4, lsl #1]	@ zero_extendqisi2
 618              		.loc 1 68 0 discriminator 2
 619 000e 02EB4405 		add	r5, r2, r4, lsl #1
 620              		.loc 1 67 0 discriminator 2
 621 0012 CE54     		strb	r6, [r1, r3]
 622              		.loc 1 68 0 discriminator 2
 623 0014 6E78     		ldrb	r6, [r5, #1]	@ zero_extendqisi2
 624              		.loc 1 60 0 discriminator 2
 625 0016 CD18     		adds	r5, r1, r3
 626 0018 0233     		adds	r3, r3, #2
 627 001a 0134     		adds	r4, r4, #1
 628              	.LVL38:
 629              		.loc 1 65 0 discriminator 2
 630 001c 102B     		cmp	r3, #16
 631              		.loc 1 68 0 discriminator 2
 632 001e 6E70     		strb	r6, [r5, #1]
 633 0020 A4B2     		uxth	r4, r4
 634              	.LVL39:
 635              		.loc 1 65 0 discriminator 2
 636 0022 F2D1     		bne	.L20
 637 0024 07F52077 		add	r7, r7, #640
 638              	.LVL40:
 639 0028 BFB2     		uxth	r7, r7
 640              	.LVL41:
 641 002a 1031     		adds	r1, r1, #16
 642              		.loc 1 63 0
 643 002c B7F5A05F 		cmp	r7, #5120
 644 0030 E8D1     		bne	.L21
 645              		.loc 1 72 0
 646 0032 F0BC     		pop	{r4, r5, r6, r7}
 647 0034 7047     		bx	lr
 648              		.cfi_endproc
 649              	.LFE72:
 650              		.size	rgb_get_block, .-rgb_get_block
 651 0036 00BFAFF3 		.section	.text.convert_rows,"ax",%progbits
 651      0080AFF3 
 651      0080
 652              		.align	2
 653              		.p2align 4,,15
 654              		.global	convert_rows
 655              		.thumb
 656              		.thumb_func
 657              		.type	convert_rows, %function
 658              	convert_rows:
 659              	.LFB73:
 660              		.loc 1 74 0
 661              		.cfi_startproc
 662              		@ args = 0, pretend = 0, frame = 512
 663              		@ frame_needed = 0, uses_anonymous_args = 0
 664              	.LVL42:
 665 0000 30B5     		push	{r4, r5, lr}
 666              	.LCFI8:
 667              		.cfi_def_cfa_offset 12
 668              		.cfi_offset 4, -12
 669              		.cfi_offset 5, -8
 670              		.cfi_offset 14, -4
 671 0002 0546     		mov	r5, r0
ARM GAS  /tmp/ccUmV1P3.s 			page 13


 672 0004 ADF5017D 		sub	sp, sp, #516
 673              	.LCFI9:
 674              		.cfi_def_cfa_offset 528
 675              		.loc 1 84 0
 676 0008 0024     		movs	r4, #0
 677              	.LVL43:
 678              	.L25:
 679              		.loc 1 85 0 discriminator 2
 680 000a 2046     		mov	r0, r4
 681 000c 60A9     		add	r1, sp, #384
 682 000e 2A46     		mov	r2, r5
 683 0010 FFF7FEFF 		bl	rgb_get_block
 684              	.LVL44:
 685              		.loc 1 87 0 discriminator 2
 686 0014 20AA     		add	r2, sp, #128
 687 0016 40AB     		add	r3, sp, #256
 688 0018 60A8     		add	r0, sp, #384
 689 001a 6946     		mov	r1, sp
 690 001c FFF7FEFF 		bl	convert
 691              	.LVL45:
 692              		.loc 1 89 0 discriminator 2
 693 0020 6846     		mov	r0, sp
 694 0022 6946     		mov	r1, sp
 695 0024 FFF7FEFF 		bl	dct
 696              	.LVL46:
 697              		.loc 1 90 0 discriminator 2
 698 0028 0D48     		ldr	r0, .L27
 699 002a 6946     		mov	r1, sp
 700 002c FFF7FEFF 		bl	huffman_encode
 701              	.LVL47:
 702              		.loc 1 92 0 discriminator 2
 703 0030 20A8     		add	r0, sp, #128
 704 0032 0146     		mov	r1, r0
 705 0034 FFF7FEFF 		bl	dct
 706              	.LVL48:
 707              		.loc 1 93 0 discriminator 2
 708 0038 0A48     		ldr	r0, .L27+4
 709 003a 20A9     		add	r1, sp, #128
 710 003c FFF7FEFF 		bl	huffman_encode
 711              	.LVL49:
 712              		.loc 1 95 0 discriminator 2
 713 0040 40A8     		add	r0, sp, #256
 714 0042 0146     		mov	r1, r0
 715              		.loc 1 84 0 discriminator 2
 716 0044 0834     		adds	r4, r4, #8
 717              		.loc 1 95 0 discriminator 2
 718 0046 FFF7FEFF 		bl	dct
 719              	.LVL50:
 720              		.loc 1 84 0 discriminator 2
 721 004a A4B2     		uxth	r4, r4
 722              		.loc 1 96 0 discriminator 2
 723 004c 0648     		ldr	r0, .L27+8
 724 004e 40A9     		add	r1, sp, #256
 725 0050 FFF7FEFF 		bl	huffman_encode
 726              	.LVL51:
 727              		.loc 1 84 0 discriminator 2
 728 0054 B4F5207F 		cmp	r4, #640
ARM GAS  /tmp/ccUmV1P3.s 			page 14


 729 0058 D7D1     		bne	.L25
 730              		.loc 1 100 0
 731 005a 0DF5017D 		add	sp, sp, #516
 732 005e 30BD     		pop	{r4, r5, pc}
 733              	.L28:
 734              		.align	2
 735              	.L27:
 736 0060 00000000 		.word	huffman_ctx
 737 0064 18000000 		.word	huffman_ctx+24
 738 0068 30000000 		.word	huffman_ctx+48
 739              		.cfi_endproc
 740              	.LFE73:
 741              		.size	convert_rows, .-convert_rows
 742              		.global	file_addr_ptr
 743 006c AFF30080 		.section	.bss.file_addr_ptr,"aw",%nobits
 744              		.align	2
 745              		.set	.LANCHOR0,. + 0
 746              		.type	file_addr_ptr, %object
 747              		.size	file_addr_ptr, 4
 748              	file_addr_ptr:
 749 0000 00000000 		.space	4
 750              		.text
 751              	.Letext0:
 752              		.file 2 "/home/mitchd/Documents/FOX-1/amsat-fox/x86_64-toolchain/arm/bin/../lib/gcc/arm-none-eabi/
 753              		.file 3 "./encoder/rgbdata.h"
 754              		.file 4 "./encoder/jpegenc.h"
 755              		.file 5 "/home/mitchd/Documents/FOX-1/amsat-fox/x86_64-toolchain/arm/bin/../lib/gcc/arm-none-eabi/
 756              		.file 6 "./os/ports/GCC/ARMCMx/chtypes.h"
 757              		.file 7 "./os/kernel/include/chlists.h"
 758              		.file 8 "./os/kernel/include/chthreads.h"
 759              		.file 9 "./os/ports/GCC/ARMCMx/chcore_v7m.h"
 760              		.file 10 "./os/kernel/include/chmtx.h"
 761              		.file 11 "./os/kernel/include/chevents.h"
 762              		.file 12 "./os/kernel/include/chqueues.h"
 763              		.file 13 "./os/kernel/include/chioch.h"
 764              		.file 14 "./os/hal/platforms/STM32L1xx/stm32l1xx.h"
 765              		.file 15 "./os/hal/include/serial.h"
 766              		.file 16 "./os/ports/common/ARMCMx/CMSIS/include/core_cm3.h"
 767              		.file 17 "./os/hal/platforms/STM32/serial_lld.h"
 768              		.file 18 "./encoder/dct.h"
 769              		.section	.debug_info,"",%progbits
 770              	.Ldebug_info0:
 771 0000 70100000 		.4byte	0x1070
 772 0004 0200     		.2byte	0x2
 773 0006 00000000 		.4byte	.Ldebug_abbrev0
 774 000a 04       		.byte	0x4
 775 000b 01       		.uleb128 0x1
 776 000c D7020000 		.4byte	.LASF141
 777 0010 01       		.byte	0x1
 778 0011 27010000 		.4byte	.LASF142
 779 0015 48040000 		.4byte	.LASF143
 780 0019 10010000 		.4byte	.Ldebug_ranges0+0x110
 781 001d 00000000 		.4byte	0
 782 0021 00000000 		.4byte	0
 783 0025 00000000 		.4byte	.Ldebug_line0
 784 0029 02       		.uleb128 0x2
 785 002a 01       		.byte	0x1
ARM GAS  /tmp/ccUmV1P3.s 			page 15


 786 002b 06       		.byte	0x6
 787 002c B7000000 		.4byte	.LASF0
 788 0030 03       		.uleb128 0x3
 789 0031 09050000 		.4byte	.LASF3
 790 0035 02       		.byte	0x2
 791 0036 2A       		.byte	0x2a
 792 0037 3B000000 		.4byte	0x3b
 793 003b 02       		.uleb128 0x2
 794 003c 01       		.byte	0x1
 795 003d 08       		.byte	0x8
 796 003e 5D030000 		.4byte	.LASF1
 797 0042 02       		.uleb128 0x2
 798 0043 02       		.byte	0x2
 799 0044 05       		.byte	0x5
 800 0045 9D030000 		.4byte	.LASF2
 801 0049 03       		.uleb128 0x3
 802 004a A3010000 		.4byte	.LASF4
 803 004e 02       		.byte	0x2
 804 004f 36       		.byte	0x36
 805 0050 54000000 		.4byte	0x54
 806 0054 02       		.uleb128 0x2
 807 0055 02       		.byte	0x2
 808 0056 07       		.byte	0x7
 809 0057 EE010000 		.4byte	.LASF5
 810 005b 03       		.uleb128 0x3
 811 005c 55030000 		.4byte	.LASF6
 812 0060 02       		.byte	0x2
 813 0061 4F       		.byte	0x4f
 814 0062 66000000 		.4byte	0x66
 815 0066 02       		.uleb128 0x2
 816 0067 04       		.byte	0x4
 817 0068 05       		.byte	0x5
 818 0069 05010000 		.4byte	.LASF7
 819 006d 03       		.uleb128 0x3
 820 006e 19040000 		.4byte	.LASF8
 821 0072 02       		.byte	0x2
 822 0073 50       		.byte	0x50
 823 0074 78000000 		.4byte	0x78
 824 0078 02       		.uleb128 0x2
 825 0079 04       		.byte	0x4
 826 007a 07       		.byte	0x7
 827 007b C8000000 		.4byte	.LASF9
 828 007f 02       		.uleb128 0x2
 829 0080 08       		.byte	0x8
 830 0081 05       		.byte	0x5
 831 0082 A9000000 		.4byte	.LASF10
 832 0086 02       		.uleb128 0x2
 833 0087 08       		.byte	0x8
 834 0088 07       		.byte	0x7
 835 0089 43000000 		.4byte	.LASF11
 836 008d 04       		.uleb128 0x4
 837 008e 04       		.byte	0x4
 838 008f 05       		.byte	0x5
 839 0090 696E7400 		.ascii	"int\000"
 840 0094 02       		.uleb128 0x2
 841 0095 04       		.byte	0x4
 842 0096 07       		.byte	0x7
ARM GAS  /tmp/ccUmV1P3.s 			page 16


 843 0097 96010000 		.4byte	.LASF12
 844 009b 03       		.uleb128 0x3
 845 009c 35000000 		.4byte	.LASF13
 846 00a0 02       		.byte	0x2
 847 00a1 A6       		.byte	0xa6
 848 00a2 94000000 		.4byte	0x94
 849 00a6 03       		.uleb128 0x3
 850 00a7 CE040000 		.4byte	.LASF14
 851 00ab 03       		.byte	0x3
 852 00ac 1B       		.byte	0x1b
 853 00ad 30000000 		.4byte	0x30
 854 00b1 05       		.uleb128 0x5
 855 00b2 02       		.byte	0x2
 856 00b3 03       		.byte	0x3
 857 00b4 1E       		.byte	0x1e
 858 00b5 D2000000 		.4byte	0xd2
 859 00b9 06       		.uleb128 0x6
 860 00ba 4100     		.ascii	"A\000"
 861 00bc 03       		.byte	0x3
 862 00bd 1F       		.byte	0x1f
 863 00be A6000000 		.4byte	0xa6
 864 00c2 02       		.byte	0x2
 865 00c3 23       		.byte	0x23
 866 00c4 00       		.uleb128 0
 867 00c5 06       		.uleb128 0x6
 868 00c6 4200     		.ascii	"B\000"
 869 00c8 03       		.byte	0x3
 870 00c9 20       		.byte	0x20
 871 00ca A6000000 		.4byte	0xa6
 872 00ce 02       		.byte	0x2
 873 00cf 23       		.byte	0x23
 874 00d0 01       		.uleb128 0x1
 875 00d1 00       		.byte	0
 876 00d2 07       		.uleb128 0x7
 877 00d3 52474200 		.ascii	"RGB\000"
 878 00d7 03       		.byte	0x3
 879 00d8 21       		.byte	0x21
 880 00d9 B1000000 		.4byte	0xb1
 881 00dd 08       		.uleb128 0x8
 882 00de 77030000 		.4byte	.LASF32
 883 00e2 18       		.byte	0x18
 884 00e3 04       		.byte	0x4
 885 00e4 0D       		.byte	0xd
 886 00e5 3D010000 		.4byte	0x13d
 887 00e9 09       		.uleb128 0x9
 888 00ea 9F040000 		.4byte	.LASF15
 889 00ee 04       		.byte	0x4
 890 00ef 0F       		.byte	0xf
 891 00f0 54010000 		.4byte	0x154
 892 00f4 02       		.byte	0x2
 893 00f5 23       		.byte	0x23
 894 00f6 00       		.uleb128 0
 895 00f7 09       		.uleb128 0x9
 896 00f8 A2000000 		.4byte	.LASF16
 897 00fc 04       		.byte	0x4
 898 00fd 10       		.byte	0x10
 899 00fe 6A010000 		.4byte	0x16a
ARM GAS  /tmp/ccUmV1P3.s 			page 17


 900 0102 02       		.byte	0x2
 901 0103 23       		.byte	0x23
 902 0104 04       		.uleb128 0x4
 903 0105 09       		.uleb128 0x9
 904 0106 BF030000 		.4byte	.LASF17
 905 010a 04       		.byte	0x4
 906 010b 11       		.byte	0x11
 907 010c 70010000 		.4byte	0x170
 908 0110 02       		.byte	0x2
 909 0111 23       		.byte	0x23
 910 0112 08       		.uleb128 0x8
 911 0113 09       		.uleb128 0x9
 912 0114 00000000 		.4byte	.LASF18
 913 0118 04       		.byte	0x4
 914 0119 12       		.byte	0x12
 915 011a 7B010000 		.4byte	0x17b
 916 011e 02       		.byte	0x2
 917 011f 23       		.byte	0x23
 918 0120 0C       		.uleb128 0xc
 919 0121 09       		.uleb128 0x9
 920 0122 B8030000 		.4byte	.LASF19
 921 0126 04       		.byte	0x4
 922 0127 13       		.byte	0x13
 923 0128 70010000 		.4byte	0x170
 924 012c 02       		.byte	0x2
 925 012d 23       		.byte	0x23
 926 012e 10       		.uleb128 0x10
 927 012f 06       		.uleb128 0x6
 928 0130 646300   		.ascii	"dc\000"
 929 0133 04       		.byte	0x4
 930 0134 14       		.byte	0x14
 931 0135 42000000 		.4byte	0x42
 932 0139 02       		.byte	0x2
 933 013a 23       		.byte	0x23
 934 013b 14       		.uleb128 0x14
 935 013c 00       		.byte	0
 936 013d 0A       		.uleb128 0xa
 937 013e 30000000 		.4byte	0x30
 938 0142 4D010000 		.4byte	0x14d
 939 0146 0B       		.uleb128 0xb
 940 0147 4D010000 		.4byte	0x14d
 941 014b 0B       		.byte	0xb
 942 014c 00       		.byte	0
 943 014d 02       		.uleb128 0x2
 944 014e 04       		.byte	0x4
 945 014f 07       		.byte	0x7
 946 0150 8F020000 		.4byte	.LASF20
 947 0154 0C       		.uleb128 0xc
 948 0155 04       		.byte	0x4
 949 0156 3D010000 		.4byte	0x13d
 950 015a 0A       		.uleb128 0xa
 951 015b 54000000 		.4byte	0x54
 952 015f 6A010000 		.4byte	0x16a
 953 0163 0B       		.uleb128 0xb
 954 0164 4D010000 		.4byte	0x14d
 955 0168 0B       		.byte	0xb
 956 0169 00       		.byte	0
ARM GAS  /tmp/ccUmV1P3.s 			page 18


 957 016a 0C       		.uleb128 0xc
 958 016b 04       		.byte	0x4
 959 016c 5A010000 		.4byte	0x15a
 960 0170 0C       		.uleb128 0xc
 961 0171 04       		.byte	0x4
 962 0172 76010000 		.4byte	0x176
 963 0176 0D       		.uleb128 0xd
 964 0177 30000000 		.4byte	0x30
 965 017b 0C       		.uleb128 0xc
 966 017c 04       		.byte	0x4
 967 017d 81010000 		.4byte	0x181
 968 0181 0D       		.uleb128 0xd
 969 0182 54000000 		.4byte	0x54
 970 0186 03       		.uleb128 0x3
 971 0187 81030000 		.4byte	.LASF21
 972 018b 04       		.byte	0x4
 973 018c 16       		.byte	0x16
 974 018d DD000000 		.4byte	0xdd
 975 0191 03       		.uleb128 0x3
 976 0192 76010000 		.4byte	.LASF22
 977 0196 05       		.byte	0x5
 978 0197 D5       		.byte	0xd5
 979 0198 94000000 		.4byte	0x94
 980 019c 03       		.uleb128 0x3
 981 019d E2000000 		.4byte	.LASF23
 982 01a1 06       		.byte	0x6
 983 01a2 2E       		.byte	0x2e
 984 01a3 5B000000 		.4byte	0x5b
 985 01a7 03       		.uleb128 0x3
 986 01a8 23020000 		.4byte	.LASF24
 987 01ac 06       		.byte	0x6
 988 01ad 2F       		.byte	0x2f
 989 01ae 30000000 		.4byte	0x30
 990 01b2 03       		.uleb128 0x3
 991 01b3 0E010000 		.4byte	.LASF25
 992 01b7 06       		.byte	0x6
 993 01b8 30       		.byte	0x30
 994 01b9 30000000 		.4byte	0x30
 995 01bd 03       		.uleb128 0x3
 996 01be FA020000 		.4byte	.LASF26
 997 01c2 06       		.byte	0x6
 998 01c3 31       		.byte	0x31
 999 01c4 30000000 		.4byte	0x30
 1000 01c8 03       		.uleb128 0x3
 1001 01c9 45030000 		.4byte	.LASF27
 1002 01cd 06       		.byte	0x6
 1003 01ce 32       		.byte	0x32
 1004 01cf 6D000000 		.4byte	0x6d
 1005 01d3 03       		.uleb128 0x3
 1006 01d4 01020000 		.4byte	.LASF28
 1007 01d8 06       		.byte	0x6
 1008 01d9 33       		.byte	0x33
 1009 01da 5B000000 		.4byte	0x5b
 1010 01de 03       		.uleb128 0x3
 1011 01df 37020000 		.4byte	.LASF29
 1012 01e3 06       		.byte	0x6
 1013 01e4 35       		.byte	0x35
ARM GAS  /tmp/ccUmV1P3.s 			page 19


 1014 01e5 6D000000 		.4byte	0x6d
 1015 01e9 03       		.uleb128 0x3
 1016 01ea 8A040000 		.4byte	.LASF30
 1017 01ee 06       		.byte	0x6
 1018 01ef 36       		.byte	0x36
 1019 01f0 6D000000 		.4byte	0x6d
 1020 01f4 03       		.uleb128 0x3
 1021 01f5 F3030000 		.4byte	.LASF31
 1022 01f9 07       		.byte	0x7
 1023 01fa 2A       		.byte	0x2a
 1024 01fb FF010000 		.4byte	0x1ff
 1025 01ff 08       		.uleb128 0x8
 1026 0200 F3030000 		.4byte	.LASF31
 1027 0204 48       		.byte	0x48
 1028 0205 08       		.byte	0x8
 1029 0206 5E       		.byte	0x5e
 1030 0207 16030000 		.4byte	0x316
 1031 020b 09       		.uleb128 0x9
 1032 020c CD030000 		.4byte	.LASF33
 1033 0210 08       		.byte	0x8
 1034 0211 5F       		.byte	0x5f
 1035 0212 3B030000 		.4byte	0x33b
 1036 0216 02       		.byte	0x2
 1037 0217 23       		.byte	0x23
 1038 0218 00       		.uleb128 0
 1039 0219 09       		.uleb128 0x9
 1040 021a 34030000 		.4byte	.LASF34
 1041 021e 08       		.byte	0x8
 1042 021f 61       		.byte	0x61
 1043 0220 3B030000 		.4byte	0x33b
 1044 0224 02       		.byte	0x2
 1045 0225 23       		.byte	0x23
 1046 0226 04       		.uleb128 0x4
 1047 0227 09       		.uleb128 0x9
 1048 0228 8B000000 		.4byte	.LASF35
 1049 022c 08       		.byte	0x8
 1050 022d 63       		.byte	0x63
 1051 022e C8010000 		.4byte	0x1c8
 1052 0232 02       		.byte	0x2
 1053 0233 23       		.byte	0x23
 1054 0234 08       		.uleb128 0x8
 1055 0235 09       		.uleb128 0x9
 1056 0236 5D050000 		.4byte	.LASF36
 1057 023a 08       		.byte	0x8
 1058 023b 64       		.byte	0x64
 1059 023c 08040000 		.4byte	0x408
 1060 0240 02       		.byte	0x2
 1061 0241 23       		.byte	0x23
 1062 0242 0C       		.uleb128 0xc
 1063 0243 09       		.uleb128 0x9
 1064 0244 4A010000 		.4byte	.LASF37
 1065 0248 08       		.byte	0x8
 1066 0249 66       		.byte	0x66
 1067 024a 3B030000 		.4byte	0x33b
 1068 024e 02       		.byte	0x2
 1069 024f 23       		.byte	0x23
 1070 0250 10       		.uleb128 0x10
ARM GAS  /tmp/ccUmV1P3.s 			page 20


 1071 0251 09       		.uleb128 0x9
 1072 0252 B8020000 		.4byte	.LASF38
 1073 0256 08       		.byte	0x8
 1074 0257 67       		.byte	0x67
 1075 0258 3B030000 		.4byte	0x33b
 1076 025c 02       		.byte	0x2
 1077 025d 23       		.byte	0x23
 1078 025e 14       		.uleb128 0x14
 1079 025f 09       		.uleb128 0x9
 1080 0260 DA040000 		.4byte	.LASF39
 1081 0264 08       		.byte	0x8
 1082 0265 6E       		.byte	0x6e
 1083 0266 1B050000 		.4byte	0x51b
 1084 026a 02       		.byte	0x2
 1085 026b 23       		.byte	0x23
 1086 026c 18       		.uleb128 0x18
 1087 026d 09       		.uleb128 0x9
 1088 026e 8B030000 		.4byte	.LASF40
 1089 0272 08       		.byte	0x8
 1090 0273 79       		.byte	0x79
 1091 0274 B2010000 		.4byte	0x1b2
 1092 0278 02       		.byte	0x2
 1093 0279 23       		.byte	0x23
 1094 027a 1C       		.uleb128 0x1c
 1095 027b 09       		.uleb128 0x9
 1096 027c D4030000 		.4byte	.LASF41
 1097 0280 08       		.byte	0x8
 1098 0281 7D       		.byte	0x7d
 1099 0282 A7010000 		.4byte	0x1a7
 1100 0286 02       		.byte	0x2
 1101 0287 23       		.byte	0x23
 1102 0288 1D       		.uleb128 0x1d
 1103 0289 09       		.uleb128 0x9
 1104 028a 17010000 		.4byte	.LASF42
 1105 028e 08       		.byte	0x8
 1106 028f 82       		.byte	0x82
 1107 0290 BD010000 		.4byte	0x1bd
 1108 0294 02       		.byte	0x2
 1109 0295 23       		.byte	0x23
 1110 0296 1E       		.uleb128 0x1e
 1111 0297 09       		.uleb128 0x9
 1112 0298 43010000 		.4byte	.LASF43
 1113 029c 08       		.byte	0x8
 1114 029d 89       		.byte	0x89
 1115 029e 2B040000 		.4byte	0x42b
 1116 02a2 02       		.byte	0x2
 1117 02a3 23       		.byte	0x23
 1118 02a4 20       		.uleb128 0x20
 1119 02a5 06       		.uleb128 0x6
 1120 02a6 705F7500 		.ascii	"p_u\000"
 1121 02aa 08       		.byte	0x8
 1122 02ab AE       		.byte	0xae
 1123 02ac E6040000 		.4byte	0x4e6
 1124 02b0 02       		.byte	0x2
 1125 02b1 23       		.byte	0x23
 1126 02b2 24       		.uleb128 0x24
 1127 02b3 09       		.uleb128 0x9
ARM GAS  /tmp/ccUmV1P3.s 			page 21


 1128 02b4 63050000 		.4byte	.LASF44
 1129 02b8 08       		.byte	0x8
 1130 02b9 B3       		.byte	0xb3
 1131 02ba 63030000 		.4byte	0x363
 1132 02be 02       		.byte	0x2
 1133 02bf 23       		.byte	0x23
 1134 02c0 28       		.uleb128 0x28
 1135 02c1 09       		.uleb128 0x9
 1136 02c2 CB010000 		.4byte	.LASF45
 1137 02c6 08       		.byte	0x8
 1138 02c7 B9       		.byte	0xb9
 1139 02c8 41030000 		.4byte	0x341
 1140 02cc 02       		.byte	0x2
 1141 02cd 23       		.byte	0x23
 1142 02ce 2C       		.uleb128 0x2c
 1143 02cf 09       		.uleb128 0x9
 1144 02d0 F8040000 		.4byte	.LASF46
 1145 02d4 08       		.byte	0x8
 1146 02d5 BD       		.byte	0xbd
 1147 02d6 D3010000 		.4byte	0x1d3
 1148 02da 02       		.byte	0x2
 1149 02db 23       		.byte	0x23
 1150 02dc 34       		.uleb128 0x34
 1151 02dd 09       		.uleb128 0x9
 1152 02de FA030000 		.4byte	.LASF47
 1153 02e2 08       		.byte	0x8
 1154 02e3 C3       		.byte	0xc3
 1155 02e4 DE010000 		.4byte	0x1de
 1156 02e8 02       		.byte	0x2
 1157 02e9 23       		.byte	0x23
 1158 02ea 38       		.uleb128 0x38
 1159 02eb 09       		.uleb128 0x9
 1160 02ec 93030000 		.4byte	.LASF48
 1161 02f0 08       		.byte	0x8
 1162 02f1 CA       		.byte	0xca
 1163 02f2 2D050000 		.4byte	0x52d
 1164 02f6 02       		.byte	0x2
 1165 02f7 23       		.byte	0x23
 1166 02f8 3C       		.uleb128 0x3c
 1167 02f9 09       		.uleb128 0x9
 1168 02fa 94040000 		.4byte	.LASF49
 1169 02fe 08       		.byte	0x8
 1170 02ff CE       		.byte	0xce
 1171 0300 C8010000 		.4byte	0x1c8
 1172 0304 02       		.byte	0x2
 1173 0305 23       		.byte	0x23
 1174 0306 40       		.uleb128 0x40
 1175 0307 09       		.uleb128 0x9
 1176 0308 DA000000 		.4byte	.LASF50
 1177 030c 08       		.byte	0x8
 1178 030d D4       		.byte	0xd4
 1179 030e 79030000 		.4byte	0x379
 1180 0312 02       		.byte	0x2
 1181 0313 23       		.byte	0x23
 1182 0314 44       		.uleb128 0x44
 1183 0315 00       		.byte	0
 1184 0316 05       		.uleb128 0x5
ARM GAS  /tmp/ccUmV1P3.s 			page 22


 1185 0317 08       		.byte	0x8
 1186 0318 07       		.byte	0x7
 1187 0319 61       		.byte	0x61
 1188 031a 3B030000 		.4byte	0x33b
 1189 031e 09       		.uleb128 0x9
 1190 031f CD030000 		.4byte	.LASF33
 1191 0323 07       		.byte	0x7
 1192 0324 62       		.byte	0x62
 1193 0325 3B030000 		.4byte	0x33b
 1194 0329 02       		.byte	0x2
 1195 032a 23       		.byte	0x23
 1196 032b 00       		.uleb128 0
 1197 032c 09       		.uleb128 0x9
 1198 032d 34030000 		.4byte	.LASF34
 1199 0331 07       		.byte	0x7
 1200 0332 64       		.byte	0x64
 1201 0333 3B030000 		.4byte	0x33b
 1202 0337 02       		.byte	0x2
 1203 0338 23       		.byte	0x23
 1204 0339 04       		.uleb128 0x4
 1205 033a 00       		.byte	0
 1206 033b 0C       		.uleb128 0xc
 1207 033c 04       		.byte	0x4
 1208 033d F4010000 		.4byte	0x1f4
 1209 0341 03       		.uleb128 0x3
 1210 0342 CA020000 		.4byte	.LASF51
 1211 0346 07       		.byte	0x7
 1212 0347 66       		.byte	0x66
 1213 0348 16030000 		.4byte	0x316
 1214 034c 05       		.uleb128 0x5
 1215 034d 04       		.byte	0x4
 1216 034e 07       		.byte	0x7
 1217 034f 6B       		.byte	0x6b
 1218 0350 63030000 		.4byte	0x363
 1219 0354 09       		.uleb128 0x9
 1220 0355 CD030000 		.4byte	.LASF33
 1221 0359 07       		.byte	0x7
 1222 035a 6D       		.byte	0x6d
 1223 035b 3B030000 		.4byte	0x33b
 1224 035f 02       		.byte	0x2
 1225 0360 23       		.byte	0x23
 1226 0361 00       		.uleb128 0
 1227 0362 00       		.byte	0
 1228 0363 03       		.uleb128 0x3
 1229 0364 2B020000 		.4byte	.LASF52
 1230 0368 07       		.byte	0x7
 1231 0369 70       		.byte	0x70
 1232 036a 4C030000 		.4byte	0x34c
 1233 036e 03       		.uleb128 0x3
 1234 036f 6D010000 		.4byte	.LASF53
 1235 0373 09       		.byte	0x9
 1236 0374 D7       		.byte	0xd7
 1237 0375 79030000 		.4byte	0x379
 1238 0379 0E       		.uleb128 0xe
 1239 037a 04       		.byte	0x4
 1240 037b 08       		.uleb128 0x8
 1241 037c BE040000 		.4byte	.LASF54
ARM GAS  /tmp/ccUmV1P3.s 			page 23


 1242 0380 24       		.byte	0x24
 1243 0381 09       		.byte	0x9
 1244 0382 FE       		.byte	0xfe
 1245 0383 08040000 		.4byte	0x408
 1246 0387 0F       		.uleb128 0xf
 1247 0388 723400   		.ascii	"r4\000"
 1248 038b 09       		.byte	0x9
 1249 038c 1101     		.2byte	0x111
 1250 038e 6E030000 		.4byte	0x36e
 1251 0392 02       		.byte	0x2
 1252 0393 23       		.byte	0x23
 1253 0394 00       		.uleb128 0
 1254 0395 0F       		.uleb128 0xf
 1255 0396 723500   		.ascii	"r5\000"
 1256 0399 09       		.byte	0x9
 1257 039a 1201     		.2byte	0x112
 1258 039c 6E030000 		.4byte	0x36e
 1259 03a0 02       		.byte	0x2
 1260 03a1 23       		.byte	0x23
 1261 03a2 04       		.uleb128 0x4
 1262 03a3 0F       		.uleb128 0xf
 1263 03a4 723600   		.ascii	"r6\000"
 1264 03a7 09       		.byte	0x9
 1265 03a8 1301     		.2byte	0x113
 1266 03aa 6E030000 		.4byte	0x36e
 1267 03ae 02       		.byte	0x2
 1268 03af 23       		.byte	0x23
 1269 03b0 08       		.uleb128 0x8
 1270 03b1 0F       		.uleb128 0xf
 1271 03b2 723700   		.ascii	"r7\000"
 1272 03b5 09       		.byte	0x9
 1273 03b6 1401     		.2byte	0x114
 1274 03b8 6E030000 		.4byte	0x36e
 1275 03bc 02       		.byte	0x2
 1276 03bd 23       		.byte	0x23
 1277 03be 0C       		.uleb128 0xc
 1278 03bf 0F       		.uleb128 0xf
 1279 03c0 723800   		.ascii	"r8\000"
 1280 03c3 09       		.byte	0x9
 1281 03c4 1501     		.2byte	0x115
 1282 03c6 6E030000 		.4byte	0x36e
 1283 03ca 02       		.byte	0x2
 1284 03cb 23       		.byte	0x23
 1285 03cc 10       		.uleb128 0x10
 1286 03cd 0F       		.uleb128 0xf
 1287 03ce 723900   		.ascii	"r9\000"
 1288 03d1 09       		.byte	0x9
 1289 03d2 1601     		.2byte	0x116
 1290 03d4 6E030000 		.4byte	0x36e
 1291 03d8 02       		.byte	0x2
 1292 03d9 23       		.byte	0x23
 1293 03da 14       		.uleb128 0x14
 1294 03db 0F       		.uleb128 0xf
 1295 03dc 72313000 		.ascii	"r10\000"
 1296 03e0 09       		.byte	0x9
 1297 03e1 1701     		.2byte	0x117
 1298 03e3 6E030000 		.4byte	0x36e
ARM GAS  /tmp/ccUmV1P3.s 			page 24


 1299 03e7 02       		.byte	0x2
 1300 03e8 23       		.byte	0x23
 1301 03e9 18       		.uleb128 0x18
 1302 03ea 0F       		.uleb128 0xf
 1303 03eb 72313100 		.ascii	"r11\000"
 1304 03ef 09       		.byte	0x9
 1305 03f0 1801     		.2byte	0x118
 1306 03f2 6E030000 		.4byte	0x36e
 1307 03f6 02       		.byte	0x2
 1308 03f7 23       		.byte	0x23
 1309 03f8 1C       		.uleb128 0x1c
 1310 03f9 0F       		.uleb128 0xf
 1311 03fa 6C7200   		.ascii	"lr\000"
 1312 03fd 09       		.byte	0x9
 1313 03fe 1901     		.2byte	0x119
 1314 0400 6E030000 		.4byte	0x36e
 1315 0404 02       		.byte	0x2
 1316 0405 23       		.byte	0x23
 1317 0406 20       		.uleb128 0x20
 1318 0407 00       		.byte	0
 1319 0408 10       		.uleb128 0x10
 1320 0409 2C050000 		.4byte	.LASF55
 1321 040d 04       		.byte	0x4
 1322 040e 09       		.byte	0x9
 1323 040f 2301     		.2byte	0x123
 1324 0411 25040000 		.4byte	0x425
 1325 0415 0F       		.uleb128 0xf
 1326 0416 72313300 		.ascii	"r13\000"
 1327 041a 09       		.byte	0x9
 1328 041b 2401     		.2byte	0x124
 1329 041d 25040000 		.4byte	0x425
 1330 0421 02       		.byte	0x2
 1331 0422 23       		.byte	0x23
 1332 0423 00       		.uleb128 0
 1333 0424 00       		.byte	0
 1334 0425 0C       		.uleb128 0xc
 1335 0426 04       		.byte	0x4
 1336 0427 7B030000 		.4byte	0x37b
 1337 042b 11       		.uleb128 0x11
 1338 042c E9010000 		.4byte	0x1e9
 1339 0430 08       		.uleb128 0x8
 1340 0431 A2020000 		.4byte	.LASF56
 1341 0435 10       		.byte	0x10
 1342 0436 0A       		.byte	0xa
 1343 0437 2C       		.byte	0x2c
 1344 0438 67040000 		.4byte	0x467
 1345 043c 09       		.uleb128 0x9
 1346 043d E9000000 		.4byte	.LASF57
 1347 0441 0A       		.byte	0xa
 1348 0442 2D       		.byte	0x2d
 1349 0443 41030000 		.4byte	0x341
 1350 0447 02       		.byte	0x2
 1351 0448 23       		.byte	0x23
 1352 0449 00       		.uleb128 0
 1353 044a 09       		.uleb128 0x9
 1354 044b 4F050000 		.4byte	.LASF58
 1355 044f 0A       		.byte	0xa
ARM GAS  /tmp/ccUmV1P3.s 			page 25


 1356 0450 2F       		.byte	0x2f
 1357 0451 3B030000 		.4byte	0x33b
 1358 0455 02       		.byte	0x2
 1359 0456 23       		.byte	0x23
 1360 0457 08       		.uleb128 0x8
 1361 0458 09       		.uleb128 0x9
 1362 0459 83040000 		.4byte	.LASF59
 1363 045d 0A       		.byte	0xa
 1364 045e 31       		.byte	0x31
 1365 045f 67040000 		.4byte	0x467
 1366 0463 02       		.byte	0x2
 1367 0464 23       		.byte	0x23
 1368 0465 0C       		.uleb128 0xc
 1369 0466 00       		.byte	0
 1370 0467 0C       		.uleb128 0xc
 1371 0468 04       		.byte	0x4
 1372 0469 30040000 		.4byte	0x430
 1373 046d 03       		.uleb128 0x3
 1374 046e A2020000 		.4byte	.LASF56
 1375 0472 0A       		.byte	0xa
 1376 0473 33       		.byte	0x33
 1377 0474 30040000 		.4byte	0x430
 1378 0478 03       		.uleb128 0x3
 1379 0479 17050000 		.4byte	.LASF60
 1380 047d 0B       		.byte	0xb
 1381 047e 29       		.byte	0x29
 1382 047f 83040000 		.4byte	0x483
 1383 0483 08       		.uleb128 0x8
 1384 0484 17050000 		.4byte	.LASF60
 1385 0488 0C       		.byte	0xc
 1386 0489 0B       		.byte	0xb
 1387 048a 2E       		.byte	0x2e
 1388 048b BA040000 		.4byte	0x4ba
 1389 048f 09       		.uleb128 0x9
 1390 0490 DC030000 		.4byte	.LASF61
 1391 0494 0B       		.byte	0xb
 1392 0495 2F       		.byte	0x2f
 1393 0496 BA040000 		.4byte	0x4ba
 1394 049a 02       		.byte	0x2
 1395 049b 23       		.byte	0x23
 1396 049c 00       		.uleb128 0
 1397 049d 09       		.uleb128 0x9
 1398 049e 6B030000 		.4byte	.LASF62
 1399 04a2 0B       		.byte	0xb
 1400 04a3 32       		.byte	0x32
 1401 04a4 3B030000 		.4byte	0x33b
 1402 04a8 02       		.byte	0x2
 1403 04a9 23       		.byte	0x23
 1404 04aa 04       		.uleb128 0x4
 1405 04ab 09       		.uleb128 0x9
 1406 04ac F2020000 		.4byte	.LASF63
 1407 04b0 0B       		.byte	0xb
 1408 04b1 34       		.byte	0x34
 1409 04b2 DE010000 		.4byte	0x1de
 1410 04b6 02       		.byte	0x2
 1411 04b7 23       		.byte	0x23
 1412 04b8 08       		.uleb128 0x8
ARM GAS  /tmp/ccUmV1P3.s 			page 26


 1413 04b9 00       		.byte	0
 1414 04ba 0C       		.uleb128 0xc
 1415 04bb 04       		.byte	0x4
 1416 04bc 78040000 		.4byte	0x478
 1417 04c0 08       		.uleb128 0x8
 1418 04c1 84010000 		.4byte	.LASF64
 1419 04c5 04       		.byte	0x4
 1420 04c6 0B       		.byte	0xb
 1421 04c7 3C       		.byte	0x3c
 1422 04c8 DB040000 		.4byte	0x4db
 1423 04cc 09       		.uleb128 0x9
 1424 04cd E1040000 		.4byte	.LASF65
 1425 04d1 0B       		.byte	0xb
 1426 04d2 3D       		.byte	0x3d
 1427 04d3 BA040000 		.4byte	0x4ba
 1428 04d7 02       		.byte	0x2
 1429 04d8 23       		.byte	0x23
 1430 04d9 00       		.uleb128 0
 1431 04da 00       		.byte	0
 1432 04db 03       		.uleb128 0x3
 1433 04dc 84010000 		.4byte	.LASF64
 1434 04e0 0B       		.byte	0xb
 1435 04e1 40       		.byte	0x40
 1436 04e2 C0040000 		.4byte	0x4c0
 1437 04e6 12       		.uleb128 0x12
 1438 04e7 04       		.byte	0x4
 1439 04e8 08       		.byte	0x8
 1440 04e9 90       		.byte	0x90
 1441 04ea 1B050000 		.4byte	0x51b
 1442 04ee 13       		.uleb128 0x13
 1443 04ef 07000000 		.4byte	.LASF66
 1444 04f3 08       		.byte	0x8
 1445 04f4 97       		.byte	0x97
 1446 04f5 D3010000 		.4byte	0x1d3
 1447 04f9 13       		.uleb128 0x13
 1448 04fa 60000000 		.4byte	.LASF67
 1449 04fe 08       		.byte	0x8
 1450 04ff 9E       		.byte	0x9e
 1451 0500 D3010000 		.4byte	0x1d3
 1452 0504 13       		.uleb128 0x13
 1453 0505 25050000 		.4byte	.LASF68
 1454 0509 08       		.byte	0x8
 1455 050a A5       		.byte	0xa5
 1456 050b 79030000 		.4byte	0x379
 1457 050f 13       		.uleb128 0x13
 1458 0510 C6030000 		.4byte	.LASF69
 1459 0514 08       		.byte	0x8
 1460 0515 AC       		.byte	0xac
 1461 0516 DE010000 		.4byte	0x1de
 1462 051a 00       		.byte	0
 1463 051b 0C       		.uleb128 0xc
 1464 051c 04       		.byte	0x4
 1465 051d 21050000 		.4byte	0x521
 1466 0521 0D       		.uleb128 0xd
 1467 0522 26050000 		.4byte	0x526
 1468 0526 02       		.uleb128 0x2
 1469 0527 01       		.byte	0x1
ARM GAS  /tmp/ccUmV1P3.s 			page 27


 1470 0528 08       		.byte	0x8
 1471 0529 43040000 		.4byte	.LASF70
 1472 052d 0C       		.uleb128 0xc
 1473 052e 04       		.byte	0x4
 1474 052f 6D040000 		.4byte	0x46d
 1475 0533 03       		.uleb128 0x3
 1476 0534 5D020000 		.4byte	.LASF71
 1477 0538 0C       		.byte	0xc
 1478 0539 37       		.byte	0x37
 1479 053a 3E050000 		.4byte	0x53e
 1480 053e 08       		.uleb128 0x8
 1481 053f 5D020000 		.4byte	.LASF71
 1482 0543 20       		.byte	0x20
 1483 0544 0C       		.byte	0xc
 1484 0545 45       		.byte	0x45
 1485 0546 AD050000 		.4byte	0x5ad
 1486 054a 09       		.uleb128 0x9
 1487 054b 98000000 		.4byte	.LASF72
 1488 054f 0C       		.byte	0xc
 1489 0550 46       		.byte	0x46
 1490 0551 41030000 		.4byte	0x341
 1491 0555 02       		.byte	0x2
 1492 0556 23       		.byte	0x23
 1493 0557 00       		.uleb128 0
 1494 0558 09       		.uleb128 0x9
 1495 0559 98020000 		.4byte	.LASF73
 1496 055d 0C       		.byte	0xc
 1497 055e 47       		.byte	0x47
 1498 055f 91010000 		.4byte	0x191
 1499 0563 02       		.byte	0x2
 1500 0564 23       		.byte	0x23
 1501 0565 08       		.uleb128 0x8
 1502 0566 09       		.uleb128 0x9
 1503 0567 1E010000 		.4byte	.LASF74
 1504 056b 0C       		.byte	0xc
 1505 056c 48       		.byte	0x48
 1506 056d D0050000 		.4byte	0x5d0
 1507 0571 02       		.byte	0x2
 1508 0572 23       		.byte	0x23
 1509 0573 0C       		.uleb128 0xc
 1510 0574 09       		.uleb128 0x9
 1511 0575 D4040000 		.4byte	.LASF75
 1512 0579 0C       		.byte	0xc
 1513 057a 49       		.byte	0x49
 1514 057b D0050000 		.4byte	0x5d0
 1515 057f 02       		.byte	0x2
 1516 0580 23       		.byte	0x23
 1517 0581 10       		.uleb128 0x10
 1518 0582 09       		.uleb128 0x9
 1519 0583 3B010000 		.4byte	.LASF76
 1520 0587 0C       		.byte	0xc
 1521 0588 4B       		.byte	0x4b
 1522 0589 D0050000 		.4byte	0x5d0
 1523 058d 02       		.byte	0x2
 1524 058e 23       		.byte	0x23
 1525 058f 14       		.uleb128 0x14
 1526 0590 09       		.uleb128 0x9
ARM GAS  /tmp/ccUmV1P3.s 			page 28


 1527 0591 4D030000 		.4byte	.LASF77
 1528 0595 0C       		.byte	0xc
 1529 0596 4C       		.byte	0x4c
 1530 0597 D0050000 		.4byte	0x5d0
 1531 059b 02       		.byte	0x2
 1532 059c 23       		.byte	0x23
 1533 059d 18       		.uleb128 0x18
 1534 059e 09       		.uleb128 0x9
 1535 059f EF040000 		.4byte	.LASF78
 1536 05a3 0C       		.byte	0xc
 1537 05a4 4D       		.byte	0x4d
 1538 05a5 AD050000 		.4byte	0x5ad
 1539 05a9 02       		.byte	0x2
 1540 05aa 23       		.byte	0x23
 1541 05ab 1C       		.uleb128 0x1c
 1542 05ac 00       		.byte	0
 1543 05ad 03       		.uleb128 0x3
 1544 05ae 53020000 		.4byte	.LASF79
 1545 05b2 0C       		.byte	0xc
 1546 05b3 3A       		.byte	0x3a
 1547 05b4 B8050000 		.4byte	0x5b8
 1548 05b8 0C       		.uleb128 0xc
 1549 05b9 04       		.byte	0x4
 1550 05ba BE050000 		.4byte	0x5be
 1551 05be 14       		.uleb128 0x14
 1552 05bf 01       		.byte	0x1
 1553 05c0 CA050000 		.4byte	0x5ca
 1554 05c4 15       		.uleb128 0x15
 1555 05c5 CA050000 		.4byte	0x5ca
 1556 05c9 00       		.byte	0
 1557 05ca 0C       		.uleb128 0xc
 1558 05cb 04       		.byte	0x4
 1559 05cc 33050000 		.4byte	0x533
 1560 05d0 0C       		.uleb128 0xc
 1561 05d1 04       		.byte	0x4
 1562 05d2 30000000 		.4byte	0x30
 1563 05d6 03       		.uleb128 0x3
 1564 05d7 43020000 		.4byte	.LASF80
 1565 05db 0C       		.byte	0xc
 1566 05dc 76       		.byte	0x76
 1567 05dd 33050000 		.4byte	0x533
 1568 05e1 03       		.uleb128 0x3
 1569 05e2 22000000 		.4byte	.LASF81
 1570 05e6 0C       		.byte	0xc
 1571 05e7 E6       		.byte	0xe6
 1572 05e8 33050000 		.4byte	0x533
 1573 05ec 16       		.uleb128 0x16
 1574 05ed 01       		.byte	0x1
 1575 05ee 91010000 		.4byte	0x191
 1576 05f2 06060000 		.4byte	0x606
 1577 05f6 15       		.uleb128 0x15
 1578 05f7 79030000 		.4byte	0x379
 1579 05fb 15       		.uleb128 0x15
 1580 05fc 70010000 		.4byte	0x170
 1581 0600 15       		.uleb128 0x15
 1582 0601 91010000 		.4byte	0x191
 1583 0605 00       		.byte	0
ARM GAS  /tmp/ccUmV1P3.s 			page 29


 1584 0606 0C       		.uleb128 0xc
 1585 0607 04       		.byte	0x4
 1586 0608 EC050000 		.4byte	0x5ec
 1587 060c 16       		.uleb128 0x16
 1588 060d 01       		.byte	0x1
 1589 060e 91010000 		.4byte	0x191
 1590 0612 26060000 		.4byte	0x626
 1591 0616 15       		.uleb128 0x15
 1592 0617 79030000 		.4byte	0x379
 1593 061b 15       		.uleb128 0x15
 1594 061c D0050000 		.4byte	0x5d0
 1595 0620 15       		.uleb128 0x15
 1596 0621 91010000 		.4byte	0x191
 1597 0625 00       		.byte	0
 1598 0626 0C       		.uleb128 0xc
 1599 0627 04       		.byte	0x4
 1600 0628 0C060000 		.4byte	0x60c
 1601 062c 16       		.uleb128 0x16
 1602 062d 01       		.byte	0x1
 1603 062e 9C010000 		.4byte	0x19c
 1604 0632 3C060000 		.4byte	0x63c
 1605 0636 15       		.uleb128 0x15
 1606 0637 79030000 		.4byte	0x379
 1607 063b 00       		.byte	0
 1608 063c 0C       		.uleb128 0xc
 1609 063d 04       		.byte	0x4
 1610 063e 2C060000 		.4byte	0x62c
 1611 0642 16       		.uleb128 0x16
 1612 0643 01       		.byte	0x1
 1613 0644 D3010000 		.4byte	0x1d3
 1614 0648 5C060000 		.4byte	0x65c
 1615 064c 15       		.uleb128 0x15
 1616 064d 79030000 		.4byte	0x379
 1617 0651 15       		.uleb128 0x15
 1618 0652 30000000 		.4byte	0x30
 1619 0656 15       		.uleb128 0x15
 1620 0657 E9010000 		.4byte	0x1e9
 1621 065b 00       		.byte	0
 1622 065c 0C       		.uleb128 0xc
 1623 065d 04       		.byte	0x4
 1624 065e 42060000 		.4byte	0x642
 1625 0662 16       		.uleb128 0x16
 1626 0663 01       		.byte	0x1
 1627 0664 D3010000 		.4byte	0x1d3
 1628 0668 77060000 		.4byte	0x677
 1629 066c 15       		.uleb128 0x15
 1630 066d 79030000 		.4byte	0x379
 1631 0671 15       		.uleb128 0x15
 1632 0672 E9010000 		.4byte	0x1e9
 1633 0676 00       		.byte	0
 1634 0677 0C       		.uleb128 0xc
 1635 0678 04       		.byte	0x4
 1636 0679 62060000 		.4byte	0x662
 1637 067d 16       		.uleb128 0x16
 1638 067e 01       		.byte	0x1
 1639 067f 91010000 		.4byte	0x191
 1640 0683 9C060000 		.4byte	0x69c
ARM GAS  /tmp/ccUmV1P3.s 			page 30


 1641 0687 15       		.uleb128 0x15
 1642 0688 79030000 		.4byte	0x379
 1643 068c 15       		.uleb128 0x15
 1644 068d 70010000 		.4byte	0x170
 1645 0691 15       		.uleb128 0x15
 1646 0692 91010000 		.4byte	0x191
 1647 0696 15       		.uleb128 0x15
 1648 0697 E9010000 		.4byte	0x1e9
 1649 069b 00       		.byte	0
 1650 069c 0C       		.uleb128 0xc
 1651 069d 04       		.byte	0x4
 1652 069e 7D060000 		.4byte	0x67d
 1653 06a2 16       		.uleb128 0x16
 1654 06a3 01       		.byte	0x1
 1655 06a4 91010000 		.4byte	0x191
 1656 06a8 C1060000 		.4byte	0x6c1
 1657 06ac 15       		.uleb128 0x15
 1658 06ad 79030000 		.4byte	0x379
 1659 06b1 15       		.uleb128 0x15
 1660 06b2 D0050000 		.4byte	0x5d0
 1661 06b6 15       		.uleb128 0x15
 1662 06b7 91010000 		.4byte	0x191
 1663 06bb 15       		.uleb128 0x15
 1664 06bc E9010000 		.4byte	0x1e9
 1665 06c0 00       		.byte	0
 1666 06c1 0C       		.uleb128 0xc
 1667 06c2 04       		.byte	0x4
 1668 06c3 A2060000 		.4byte	0x6a2
 1669 06c7 17       		.uleb128 0x17
 1670 06c8 C0020000 		.4byte	.LASF82
 1671 06cc 0D       		.byte	0xd
 1672 06cd 0B01     		.2byte	0x10b
 1673 06cf 9B000000 		.4byte	0x9b
 1674 06d3 16       		.uleb128 0x16
 1675 06d4 01       		.byte	0x1
 1676 06d5 C7060000 		.4byte	0x6c7
 1677 06d9 E3060000 		.4byte	0x6e3
 1678 06dd 15       		.uleb128 0x15
 1679 06de 79030000 		.4byte	0x379
 1680 06e2 00       		.byte	0
 1681 06e3 0C       		.uleb128 0xc
 1682 06e4 04       		.byte	0x4
 1683 06e5 D3060000 		.4byte	0x6d3
 1684 06e9 11       		.uleb128 0x11
 1685 06ea 49000000 		.4byte	0x49
 1686 06ee 18       		.uleb128 0x18
 1687 06ef 1C       		.byte	0x1c
 1688 06f0 0E       		.byte	0xe
 1689 06f1 9B02     		.2byte	0x29b
 1690 06f3 C8070000 		.4byte	0x7c8
 1691 06f7 0F       		.uleb128 0xf
 1692 06f8 535200   		.ascii	"SR\000"
 1693 06fb 0E       		.byte	0xe
 1694 06fc 9D02     		.2byte	0x29d
 1695 06fe E9060000 		.4byte	0x6e9
 1696 0702 02       		.byte	0x2
 1697 0703 23       		.byte	0x23
ARM GAS  /tmp/ccUmV1P3.s 			page 31


 1698 0704 00       		.uleb128 0
 1699 0705 19       		.uleb128 0x19
 1700 0706 02030000 		.4byte	.LASF83
 1701 070a 0E       		.byte	0xe
 1702 070b 9E02     		.2byte	0x29e
 1703 070d 49000000 		.4byte	0x49
 1704 0711 02       		.byte	0x2
 1705 0712 23       		.byte	0x23
 1706 0713 02       		.uleb128 0x2
 1707 0714 0F       		.uleb128 0xf
 1708 0715 445200   		.ascii	"DR\000"
 1709 0718 0E       		.byte	0xe
 1710 0719 9F02     		.2byte	0x29f
 1711 071b E9060000 		.4byte	0x6e9
 1712 071f 02       		.byte	0x2
 1713 0720 23       		.byte	0x23
 1714 0721 04       		.uleb128 0x4
 1715 0722 19       		.uleb128 0x19
 1716 0723 0C030000 		.4byte	.LASF84
 1717 0727 0E       		.byte	0xe
 1718 0728 A002     		.2byte	0x2a0
 1719 072a 49000000 		.4byte	0x49
 1720 072e 02       		.byte	0x2
 1721 072f 23       		.byte	0x23
 1722 0730 06       		.uleb128 0x6
 1723 0731 0F       		.uleb128 0xf
 1724 0732 42525200 		.ascii	"BRR\000"
 1725 0736 0E       		.byte	0xe
 1726 0737 A102     		.2byte	0x2a1
 1727 0739 E9060000 		.4byte	0x6e9
 1728 073d 02       		.byte	0x2
 1729 073e 23       		.byte	0x23
 1730 073f 08       		.uleb128 0x8
 1731 0740 19       		.uleb128 0x19
 1732 0741 16030000 		.4byte	.LASF85
 1733 0745 0E       		.byte	0xe
 1734 0746 A202     		.2byte	0x2a2
 1735 0748 49000000 		.4byte	0x49
 1736 074c 02       		.byte	0x2
 1737 074d 23       		.byte	0x23
 1738 074e 0A       		.uleb128 0xa
 1739 074f 0F       		.uleb128 0xf
 1740 0750 43523100 		.ascii	"CR1\000"
 1741 0754 0E       		.byte	0xe
 1742 0755 A302     		.2byte	0x2a3
 1743 0757 E9060000 		.4byte	0x6e9
 1744 075b 02       		.byte	0x2
 1745 075c 23       		.byte	0x23
 1746 075d 0C       		.uleb128 0xc
 1747 075e 19       		.uleb128 0x19
 1748 075f 20030000 		.4byte	.LASF86
 1749 0763 0E       		.byte	0xe
 1750 0764 A402     		.2byte	0x2a4
 1751 0766 49000000 		.4byte	0x49
 1752 076a 02       		.byte	0x2
 1753 076b 23       		.byte	0x23
 1754 076c 0E       		.uleb128 0xe
ARM GAS  /tmp/ccUmV1P3.s 			page 32


 1755 076d 0F       		.uleb128 0xf
 1756 076e 43523200 		.ascii	"CR2\000"
 1757 0772 0E       		.byte	0xe
 1758 0773 A502     		.2byte	0x2a5
 1759 0775 E9060000 		.4byte	0x6e9
 1760 0779 02       		.byte	0x2
 1761 077a 23       		.byte	0x23
 1762 077b 10       		.uleb128 0x10
 1763 077c 19       		.uleb128 0x19
 1764 077d 2A030000 		.4byte	.LASF87
 1765 0781 0E       		.byte	0xe
 1766 0782 A602     		.2byte	0x2a6
 1767 0784 49000000 		.4byte	0x49
 1768 0788 02       		.byte	0x2
 1769 0789 23       		.byte	0x23
 1770 078a 12       		.uleb128 0x12
 1771 078b 0F       		.uleb128 0xf
 1772 078c 43523300 		.ascii	"CR3\000"
 1773 0790 0E       		.byte	0xe
 1774 0791 A702     		.2byte	0x2a7
 1775 0793 E9060000 		.4byte	0x6e9
 1776 0797 02       		.byte	0x2
 1777 0798 23       		.byte	0x23
 1778 0799 14       		.uleb128 0x14
 1779 079a 19       		.uleb128 0x19
 1780 079b 0F040000 		.4byte	.LASF88
 1781 079f 0E       		.byte	0xe
 1782 07a0 A802     		.2byte	0x2a8
 1783 07a2 49000000 		.4byte	0x49
 1784 07a6 02       		.byte	0x2
 1785 07a7 23       		.byte	0x23
 1786 07a8 16       		.uleb128 0x16
 1787 07a9 19       		.uleb128 0x19
 1788 07aa C3000000 		.4byte	.LASF89
 1789 07ae 0E       		.byte	0xe
 1790 07af A902     		.2byte	0x2a9
 1791 07b1 E9060000 		.4byte	0x6e9
 1792 07b5 02       		.byte	0x2
 1793 07b6 23       		.byte	0x23
 1794 07b7 18       		.uleb128 0x18
 1795 07b8 19       		.uleb128 0x19
 1796 07b9 3B030000 		.4byte	.LASF90
 1797 07bd 0E       		.byte	0xe
 1798 07be AA02     		.2byte	0x2aa
 1799 07c0 49000000 		.4byte	0x49
 1800 07c4 02       		.byte	0x2
 1801 07c5 23       		.byte	0x23
 1802 07c6 1A       		.uleb128 0x1a
 1803 07c7 00       		.byte	0
 1804 07c8 17       		.uleb128 0x17
 1805 07c9 0E020000 		.4byte	.LASF91
 1806 07cd 0E       		.byte	0xe
 1807 07ce AB02     		.2byte	0x2ab
 1808 07d0 EE060000 		.4byte	0x6ee
 1809 07d4 1A       		.uleb128 0x1a
 1810 07d5 01       		.byte	0x1
 1811 07d6 0F       		.byte	0xf
ARM GAS  /tmp/ccUmV1P3.s 			page 33


 1812 07d7 64       		.byte	0x64
 1813 07d8 EF070000 		.4byte	0x7ef
 1814 07dc 1B       		.uleb128 0x1b
 1815 07dd 05040000 		.4byte	.LASF92
 1816 07e1 00       		.sleb128 0
 1817 07e2 1B       		.uleb128 0x1b
 1818 07e3 EB030000 		.4byte	.LASF93
 1819 07e7 01       		.sleb128 1
 1820 07e8 1B       		.uleb128 0x1b
 1821 07e9 C5040000 		.4byte	.LASF94
 1822 07ed 02       		.sleb128 2
 1823 07ee 00       		.byte	0
 1824 07ef 03       		.uleb128 0x3
 1825 07f0 22040000 		.4byte	.LASF95
 1826 07f4 0F       		.byte	0xf
 1827 07f5 68       		.byte	0x68
 1828 07f6 D4070000 		.4byte	0x7d4
 1829 07fa 03       		.uleb128 0x3
 1830 07fb 2C040000 		.4byte	.LASF96
 1831 07ff 0F       		.byte	0xf
 1832 0800 6D       		.byte	0x6d
 1833 0801 05080000 		.4byte	0x805
 1834 0805 08       		.uleb128 0x8
 1835 0806 2C040000 		.4byte	.LASF96
 1836 080a D4       		.byte	0xd4
 1837 080b 0F       		.byte	0xf
 1838 080c 87       		.byte	0x87
 1839 080d 90080000 		.4byte	0x890
 1840 0811 06       		.uleb128 0x6
 1841 0812 766D7400 		.ascii	"vmt\000"
 1842 0816 0F       		.byte	0xf
 1843 0817 89       		.byte	0x89
 1844 0818 1B090000 		.4byte	0x91b
 1845 081c 02       		.byte	0x2
 1846 081d 23       		.byte	0x23
 1847 081e 00       		.uleb128 0
 1848 081f 09       		.uleb128 0x9
 1849 0820 D6010000 		.4byte	.LASF97
 1850 0824 0F       		.byte	0xf
 1851 0825 8A       		.byte	0x8a
 1852 0826 DB040000 		.4byte	0x4db
 1853 082a 02       		.byte	0x2
 1854 082b 23       		.byte	0x23
 1855 082c 04       		.uleb128 0x4
 1856 082d 09       		.uleb128 0x9
 1857 082e 11050000 		.4byte	.LASF98
 1858 0832 0F       		.byte	0xf
 1859 0833 8A       		.byte	0x8a
 1860 0834 C7060000 		.4byte	0x6c7
 1861 0838 02       		.byte	0x2
 1862 0839 23       		.byte	0x23
 1863 083a 08       		.uleb128 0x8
 1864 083b 09       		.uleb128 0x9
 1865 083c FF000000 		.4byte	.LASF99
 1866 0840 0F       		.byte	0xf
 1867 0841 8A       		.byte	0x8a
 1868 0842 EF070000 		.4byte	0x7ef
ARM GAS  /tmp/ccUmV1P3.s 			page 34


 1869 0846 02       		.byte	0x2
 1870 0847 23       		.byte	0x23
 1871 0848 0C       		.uleb128 0xc
 1872 0849 09       		.uleb128 0x9
 1873 084a C4010000 		.4byte	.LASF100
 1874 084e 0F       		.byte	0xf
 1875 084f 8A       		.byte	0x8a
 1876 0850 D6050000 		.4byte	0x5d6
 1877 0854 02       		.byte	0x2
 1878 0855 23       		.byte	0x23
 1879 0856 10       		.uleb128 0x10
 1880 0857 09       		.uleb128 0x9
 1881 0858 07020000 		.4byte	.LASF101
 1882 085c 0F       		.byte	0xf
 1883 085d 8A       		.byte	0x8a
 1884 085e E1050000 		.4byte	0x5e1
 1885 0862 02       		.byte	0x2
 1886 0863 23       		.byte	0x23
 1887 0864 30       		.uleb128 0x30
 1888 0865 06       		.uleb128 0x6
 1889 0866 696200   		.ascii	"ib\000"
 1890 0869 0F       		.byte	0xf
 1891 086a 8A       		.byte	0x8a
 1892 086b 26090000 		.4byte	0x926
 1893 086f 02       		.byte	0x2
 1894 0870 23       		.byte	0x23
 1895 0871 50       		.uleb128 0x50
 1896 0872 06       		.uleb128 0x6
 1897 0873 6F6200   		.ascii	"ob\000"
 1898 0876 0F       		.byte	0xf
 1899 0877 8A       		.byte	0x8a
 1900 0878 26090000 		.4byte	0x926
 1901 087c 03       		.byte	0x3
 1902 087d 23       		.byte	0x23
 1903 087e 9001     		.uleb128 0x90
 1904 0880 09       		.uleb128 0x9
 1905 0881 90010000 		.4byte	.LASF102
 1906 0885 0F       		.byte	0xf
 1907 0886 8A       		.byte	0x8a
 1908 0887 36090000 		.4byte	0x936
 1909 088b 03       		.byte	0x3
 1910 088c 23       		.byte	0x23
 1911 088d D001     		.uleb128 0xd0
 1912 088f 00       		.byte	0
 1913 0890 08       		.uleb128 0x8
 1914 0891 AC010000 		.4byte	.LASF103
 1915 0895 24       		.byte	0x24
 1916 0896 0F       		.byte	0xf
 1917 0897 7C       		.byte	0x7c
 1918 0898 1B090000 		.4byte	0x91b
 1919 089c 09       		.uleb128 0x9
 1920 089d 7B020000 		.4byte	.LASF104
 1921 08a1 0F       		.byte	0xf
 1922 08a2 7D       		.byte	0x7d
 1923 08a3 06060000 		.4byte	0x606
 1924 08a7 02       		.byte	0x2
 1925 08a8 23       		.byte	0x23
ARM GAS  /tmp/ccUmV1P3.s 			page 35


 1926 08a9 00       		.uleb128 0
 1927 08aa 09       		.uleb128 0x9
 1928 08ab 3E040000 		.4byte	.LASF105
 1929 08af 0F       		.byte	0xf
 1930 08b0 7D       		.byte	0x7d
 1931 08b1 26060000 		.4byte	0x626
 1932 08b5 02       		.byte	0x2
 1933 08b6 23       		.byte	0x23
 1934 08b7 04       		.uleb128 0x4
 1935 08b8 09       		.uleb128 0x9
 1936 08b9 52010000 		.4byte	.LASF106
 1937 08bd 0F       		.byte	0xf
 1938 08be 7D       		.byte	0x7d
 1939 08bf 3C060000 		.4byte	0x63c
 1940 08c3 02       		.byte	0x2
 1941 08c4 23       		.byte	0x23
 1942 08c5 08       		.uleb128 0x8
 1943 08c6 09       		.uleb128 0x9
 1944 08c7 41050000 		.4byte	.LASF107
 1945 08cb 0F       		.byte	0xf
 1946 08cc 7D       		.byte	0x7d
 1947 08cd 3C060000 		.4byte	0x63c
 1948 08d1 02       		.byte	0x2
 1949 08d2 23       		.byte	0x23
 1950 08d3 0C       		.uleb128 0xc
 1951 08d4 06       		.uleb128 0x6
 1952 08d5 70757400 		.ascii	"put\000"
 1953 08d9 0F       		.byte	0xf
 1954 08da 7D       		.byte	0x7d
 1955 08db 5C060000 		.4byte	0x65c
 1956 08df 02       		.byte	0x2
 1957 08e0 23       		.byte	0x23
 1958 08e1 10       		.uleb128 0x10
 1959 08e2 06       		.uleb128 0x6
 1960 08e3 67657400 		.ascii	"get\000"
 1961 08e7 0F       		.byte	0xf
 1962 08e8 7D       		.byte	0x7d
 1963 08e9 77060000 		.4byte	0x677
 1964 08ed 02       		.byte	0x2
 1965 08ee 23       		.byte	0x23
 1966 08ef 14       		.uleb128 0x14
 1967 08f0 09       		.uleb128 0x9
 1968 08f1 1C020000 		.4byte	.LASF108
 1969 08f5 0F       		.byte	0xf
 1970 08f6 7D       		.byte	0x7d
 1971 08f7 9C060000 		.4byte	0x69c
 1972 08fb 02       		.byte	0x2
 1973 08fc 23       		.byte	0x23
 1974 08fd 18       		.uleb128 0x18
 1975 08fe 09       		.uleb128 0x9
 1976 08ff 92000000 		.4byte	.LASF109
 1977 0903 0F       		.byte	0xf
 1978 0904 7D       		.byte	0x7d
 1979 0905 C1060000 		.4byte	0x6c1
 1980 0909 02       		.byte	0x2
 1981 090a 23       		.byte	0x23
 1982 090b 1C       		.uleb128 0x1c
ARM GAS  /tmp/ccUmV1P3.s 			page 36


 1983 090c 09       		.uleb128 0x9
 1984 090d B5040000 		.4byte	.LASF110
 1985 0911 0F       		.byte	0xf
 1986 0912 7D       		.byte	0x7d
 1987 0913 E3060000 		.4byte	0x6e3
 1988 0917 02       		.byte	0x2
 1989 0918 23       		.byte	0x23
 1990 0919 20       		.uleb128 0x20
 1991 091a 00       		.byte	0
 1992 091b 0C       		.uleb128 0xc
 1993 091c 04       		.byte	0x4
 1994 091d 21090000 		.4byte	0x921
 1995 0921 0D       		.uleb128 0xd
 1996 0922 90080000 		.4byte	0x890
 1997 0926 0A       		.uleb128 0xa
 1998 0927 30000000 		.4byte	0x30
 1999 092b 36090000 		.4byte	0x936
 2000 092f 0B       		.uleb128 0xb
 2001 0930 4D010000 		.4byte	0x14d
 2002 0934 3F       		.byte	0x3f
 2003 0935 00       		.byte	0
 2004 0936 0C       		.uleb128 0xc
 2005 0937 04       		.byte	0x4
 2006 0938 C8070000 		.4byte	0x7c8
 2007 093c 1C       		.uleb128 0x1c
 2008 093d 01       		.byte	0x1
 2009 093e E4030000 		.4byte	.LASF111
 2010 0942 01       		.byte	0x1
 2011 0943 0C       		.byte	0xc
 2012 0944 01       		.byte	0x1
 2013 0945 A6000000 		.4byte	0xa6
 2014 0949 01       		.byte	0x1
 2015 094a 65090000 		.4byte	0x965
 2016 094e 1D       		.uleb128 0x1d
 2017 094f 69000000 		.4byte	.LASF113
 2018 0953 01       		.byte	0x1
 2019 0954 0C       		.byte	0xc
 2020 0955 D2000000 		.4byte	0xd2
 2021 0959 1E       		.uleb128 0x1e
 2022 095a 72656400 		.ascii	"red\000"
 2023 095e 01       		.byte	0x1
 2024 095f 0D       		.byte	0xd
 2025 0960 A6000000 		.4byte	0xa6
 2026 0964 00       		.byte	0
 2027 0965 1C       		.uleb128 0x1c
 2028 0966 01       		.byte	0x1
 2029 0967 19000000 		.4byte	.LASF112
 2030 096b 01       		.byte	0x1
 2031 096c 16       		.byte	0x16
 2032 096d 01       		.byte	0x1
 2033 096e A6000000 		.4byte	0xa6
 2034 0972 01       		.byte	0x1
 2035 0973 8E090000 		.4byte	0x98e
 2036 0977 1D       		.uleb128 0x1d
 2037 0978 69000000 		.4byte	.LASF113
 2038 097c 01       		.byte	0x1
 2039 097d 16       		.byte	0x16
ARM GAS  /tmp/ccUmV1P3.s 			page 37


 2040 097e D2000000 		.4byte	0xd2
 2041 0982 1F       		.uleb128 0x1f
 2042 0983 E9040000 		.4byte	.LASF114
 2043 0987 01       		.byte	0x1
 2044 0988 17       		.byte	0x17
 2045 0989 A6000000 		.4byte	0xa6
 2046 098d 00       		.byte	0
 2047 098e 1C       		.uleb128 0x1c
 2048 098f 01       		.byte	0x1
 2049 0990 BC010000 		.4byte	.LASF115
 2050 0994 01       		.byte	0x1
 2051 0995 11       		.byte	0x11
 2052 0996 01       		.byte	0x1
 2053 0997 A6000000 		.4byte	0xa6
 2054 099b 01       		.byte	0x1
 2055 099c B7090000 		.4byte	0x9b7
 2056 09a0 1D       		.uleb128 0x1d
 2057 09a1 69000000 		.4byte	.LASF113
 2058 09a5 01       		.byte	0x1
 2059 09a6 11       		.byte	0x11
 2060 09a7 D2000000 		.4byte	0xd2
 2061 09ab 1F       		.uleb128 0x1f
 2062 09ac 39040000 		.4byte	.LASF116
 2063 09b0 01       		.byte	0x1
 2064 09b1 12       		.byte	0x12
 2065 09b2 A6000000 		.4byte	0xa6
 2066 09b6 00       		.byte	0
 2067 09b7 1C       		.uleb128 0x1c
 2068 09b8 01       		.byte	0x1
 2069 09b9 6D050000 		.4byte	.LASF117
 2070 09bd 01       		.byte	0x1
 2071 09be 1F       		.byte	0x1f
 2072 09bf 01       		.byte	0x1
 2073 09c0 A6000000 		.4byte	0xa6
 2074 09c4 03       		.byte	0x3
 2075 09c5 E5090000 		.4byte	0x9e5
 2076 09c9 20       		.uleb128 0x20
 2077 09ca 7200     		.ascii	"r\000"
 2078 09cc 01       		.byte	0x1
 2079 09cd 1F       		.byte	0x1f
 2080 09ce E5090000 		.4byte	0x9e5
 2081 09d2 20       		.uleb128 0x20
 2082 09d3 6700     		.ascii	"g\000"
 2083 09d5 01       		.byte	0x1
 2084 09d6 1F       		.byte	0x1f
 2085 09d7 E5090000 		.4byte	0x9e5
 2086 09db 20       		.uleb128 0x20
 2087 09dc 6200     		.ascii	"b\000"
 2088 09de 01       		.byte	0x1
 2089 09df 1F       		.byte	0x1f
 2090 09e0 E5090000 		.4byte	0x9e5
 2091 09e4 00       		.byte	0
 2092 09e5 0D       		.uleb128 0xd
 2093 09e6 A6000000 		.4byte	0xa6
 2094 09ea 1C       		.uleb128 0x1c
 2095 09eb 01       		.byte	0x1
 2096 09ec 7D010000 		.4byte	.LASF118
ARM GAS  /tmp/ccUmV1P3.s 			page 38


 2097 09f0 01       		.byte	0x1
 2098 09f1 22       		.byte	0x22
 2099 09f2 01       		.byte	0x1
 2100 09f3 A6000000 		.4byte	0xa6
 2101 09f7 03       		.byte	0x3
 2102 09f8 180A0000 		.4byte	0xa18
 2103 09fc 20       		.uleb128 0x20
 2104 09fd 7200     		.ascii	"r\000"
 2105 09ff 01       		.byte	0x1
 2106 0a00 22       		.byte	0x22
 2107 0a01 E5090000 		.4byte	0x9e5
 2108 0a05 20       		.uleb128 0x20
 2109 0a06 6700     		.ascii	"g\000"
 2110 0a08 01       		.byte	0x1
 2111 0a09 22       		.byte	0x22
 2112 0a0a E5090000 		.4byte	0x9e5
 2113 0a0e 20       		.uleb128 0x20
 2114 0a0f 6200     		.ascii	"b\000"
 2115 0a11 01       		.byte	0x1
 2116 0a12 22       		.byte	0x22
 2117 0a13 E5090000 		.4byte	0x9e5
 2118 0a17 00       		.byte	0
 2119 0a18 1C       		.uleb128 0x1c
 2120 0a19 01       		.byte	0x1
 2121 0a1a 57050000 		.4byte	.LASF119
 2122 0a1e 01       		.byte	0x1
 2123 0a1f 1C       		.byte	0x1c
 2124 0a20 01       		.byte	0x1
 2125 0a21 A6000000 		.4byte	0xa6
 2126 0a25 03       		.byte	0x3
 2127 0a26 460A0000 		.4byte	0xa46
 2128 0a2a 20       		.uleb128 0x20
 2129 0a2b 7200     		.ascii	"r\000"
 2130 0a2d 01       		.byte	0x1
 2131 0a2e 1C       		.byte	0x1c
 2132 0a2f E5090000 		.4byte	0x9e5
 2133 0a33 20       		.uleb128 0x20
 2134 0a34 6700     		.ascii	"g\000"
 2135 0a36 01       		.byte	0x1
 2136 0a37 1C       		.byte	0x1c
 2137 0a38 E5090000 		.4byte	0x9e5
 2138 0a3c 20       		.uleb128 0x20
 2139 0a3d 6200     		.ascii	"b\000"
 2140 0a3f 01       		.byte	0x1
 2141 0a40 1C       		.byte	0x1c
 2142 0a41 E5090000 		.4byte	0x9e5
 2143 0a45 00       		.byte	0
 2144 0a46 21       		.uleb128 0x21
 2145 0a47 01       		.byte	0x1
 2146 0a48 FE040000 		.4byte	.LASF122
 2147 0a4c 01       		.byte	0x1
 2148 0a4d 07       		.byte	0x7
 2149 0a4e 01       		.byte	0x1
 2150 0a4f 00000000 		.4byte	.LFB62
 2151 0a53 28000000 		.4byte	.LFE62
 2152 0a57 00000000 		.4byte	.LLST0
 2153 0a5b 01       		.byte	0x1
ARM GAS  /tmp/ccUmV1P3.s 			page 39


 2154 0a5c 9C0A0000 		.4byte	0xa9c
 2155 0a60 22       		.uleb128 0x22
 2156 0a61 B3030000 		.4byte	.LASF120
 2157 0a65 01       		.byte	0x1
 2158 0a66 07       		.byte	0x7
 2159 0a67 D0050000 		.4byte	0x5d0
 2160 0a6b 20000000 		.4byte	.LLST1
 2161 0a6f 22       		.uleb128 0x22
 2162 0a70 E9010000 		.4byte	.LASF121
 2163 0a74 01       		.byte	0x1
 2164 0a75 07       		.byte	0x7
 2165 0a76 94000000 		.4byte	0x94
 2166 0a7a 4C000000 		.4byte	.LLST2
 2167 0a7e 23       		.uleb128 0x23
 2168 0a7f 12000000 		.4byte	.LVL3
 2169 0a83 DA0F0000 		.4byte	0xfda
 2170 0a87 24       		.uleb128 0x24
 2171 0a88 01       		.byte	0x1
 2172 0a89 53       		.byte	0x53
 2173 0a8a 02       		.byte	0x2
 2174 0a8b 09       		.byte	0x9
 2175 0a8c FF       		.byte	0xff
 2176 0a8d 24       		.uleb128 0x24
 2177 0a8e 01       		.byte	0x1
 2178 0a8f 52       		.byte	0x52
 2179 0a90 02       		.byte	0x2
 2180 0a91 74       		.byte	0x74
 2181 0a92 00       		.sleb128 0
 2182 0a93 24       		.uleb128 0x24
 2183 0a94 01       		.byte	0x1
 2184 0a95 51       		.byte	0x51
 2185 0a96 03       		.byte	0x3
 2186 0a97 F3       		.byte	0xf3
 2187 0a98 01       		.uleb128 0x1
 2188 0a99 50       		.byte	0x50
 2189 0a9a 00       		.byte	0
 2190 0a9b 00       		.byte	0
 2191 0a9c 25       		.uleb128 0x25
 2192 0a9d 3C090000 		.4byte	0x93c
 2193 0aa1 00000000 		.4byte	.LFB63
 2194 0aa5 0A000000 		.4byte	.LFE63
 2195 0aa9 83000000 		.4byte	.LLST3
 2196 0aad 01       		.byte	0x1
 2197 0aae C90A0000 		.4byte	0xac9
 2198 0ab2 26       		.uleb128 0x26
 2199 0ab3 4E090000 		.4byte	0x94e
 2200 0ab7 02       		.byte	0x2
 2201 0ab8 91       		.byte	0x91
 2202 0ab9 7C       		.sleb128 -4
 2203 0aba 27       		.uleb128 0x27
 2204 0abb 59090000 		.4byte	0x959
 2205 0abf 08       		.byte	0x8
 2206 0ac0 91       		.byte	0x91
 2207 0ac1 7C       		.sleb128 -4
 2208 0ac2 94       		.byte	0x94
 2209 0ac3 01       		.byte	0x1
 2210 0ac4 09       		.byte	0x9
ARM GAS  /tmp/ccUmV1P3.s 			page 40


 2211 0ac5 F8       		.byte	0xf8
 2212 0ac6 1A       		.byte	0x1a
 2213 0ac7 9F       		.byte	0x9f
 2214 0ac8 00       		.byte	0
 2215 0ac9 25       		.uleb128 0x25
 2216 0aca 8E090000 		.4byte	0x98e
 2217 0ace 00000000 		.4byte	.LFB64
 2218 0ad2 0C000000 		.4byte	.LFE64
 2219 0ad6 A3000000 		.4byte	.LLST4
 2220 0ada 01       		.byte	0x1
 2221 0adb F50A0000 		.4byte	0xaf5
 2222 0adf 26       		.uleb128 0x26
 2223 0ae0 A0090000 		.4byte	0x9a0
 2224 0ae4 02       		.byte	0x2
 2225 0ae5 91       		.byte	0x91
 2226 0ae6 7C       		.sleb128 -4
 2227 0ae7 27       		.uleb128 0x27
 2228 0ae8 AB090000 		.4byte	0x9ab
 2229 0aec 07       		.byte	0x7
 2230 0aed 91       		.byte	0x91
 2231 0aee 7D       		.sleb128 -3
 2232 0aef 94       		.byte	0x94
 2233 0af0 01       		.byte	0x1
 2234 0af1 33       		.byte	0x33
 2235 0af2 24       		.byte	0x24
 2236 0af3 9F       		.byte	0x9f
 2237 0af4 00       		.byte	0
 2238 0af5 25       		.uleb128 0x25
 2239 0af6 65090000 		.4byte	0x965
 2240 0afa 00000000 		.4byte	.LFB65
 2241 0afe 12000000 		.4byte	.LFE65
 2242 0b02 C3000000 		.4byte	.LLST5
 2243 0b06 01       		.byte	0x1
 2244 0b07 240B0000 		.4byte	0xb24
 2245 0b0b 26       		.uleb128 0x26
 2246 0b0c 77090000 		.4byte	0x977
 2247 0b10 02       		.byte	0x2
 2248 0b11 91       		.byte	0x91
 2249 0b12 7C       		.sleb128 -4
 2250 0b13 27       		.uleb128 0x27
 2251 0b14 82090000 		.4byte	0x982
 2252 0b18 0A       		.byte	0xa
 2253 0b19 91       		.byte	0x91
 2254 0b1a 7D       		.sleb128 -3
 2255 0b1b 94       		.byte	0x94
 2256 0b1c 01       		.byte	0x1
 2257 0b1d 35       		.byte	0x35
 2258 0b1e 25       		.byte	0x25
 2259 0b1f 73       		.byte	0x73
 2260 0b20 00       		.sleb128 0
 2261 0b21 21       		.byte	0x21
 2262 0b22 9F       		.byte	0x9f
 2263 0b23 00       		.byte	0
 2264 0b24 28       		.uleb128 0x28
 2265 0b25 180A0000 		.4byte	0xa18
 2266 0b29 00000000 		.4byte	.LFB66
 2267 0b2d 22000000 		.4byte	.LFE66
ARM GAS  /tmp/ccUmV1P3.s 			page 41


 2268 0b31 02       		.byte	0x2
 2269 0b32 7D       		.byte	0x7d
 2270 0b33 00       		.sleb128 0
 2271 0b34 01       		.byte	0x1
 2272 0b35 530B0000 		.4byte	0xb53
 2273 0b39 29       		.uleb128 0x29
 2274 0b3a 2A0A0000 		.4byte	0xa2a
 2275 0b3e E3000000 		.4byte	.LLST6
 2276 0b42 29       		.uleb128 0x29
 2277 0b43 330A0000 		.4byte	0xa33
 2278 0b47 04010000 		.4byte	.LLST7
 2279 0b4b 26       		.uleb128 0x26
 2280 0b4c 3C0A0000 		.4byte	0xa3c
 2281 0b50 01       		.byte	0x1
 2282 0b51 52       		.byte	0x52
 2283 0b52 00       		.byte	0
 2284 0b53 25       		.uleb128 0x25
 2285 0b54 B7090000 		.4byte	0x9b7
 2286 0b58 00000000 		.4byte	.LFB67
 2287 0b5c 30000000 		.4byte	.LFE67
 2288 0b60 25010000 		.4byte	.LLST8
 2289 0b64 01       		.byte	0x1
 2290 0b65 850B0000 		.4byte	0xb85
 2291 0b69 29       		.uleb128 0x29
 2292 0b6a C9090000 		.4byte	0x9c9
 2293 0b6e 45010000 		.4byte	.LLST9
 2294 0b72 29       		.uleb128 0x29
 2295 0b73 D2090000 		.4byte	0x9d2
 2296 0b77 66010000 		.4byte	.LLST10
 2297 0b7b 29       		.uleb128 0x29
 2298 0b7c DB090000 		.4byte	0x9db
 2299 0b80 87010000 		.4byte	.LLST11
 2300 0b84 00       		.byte	0
 2301 0b85 28       		.uleb128 0x28
 2302 0b86 EA090000 		.4byte	0x9ea
 2303 0b8a 00000000 		.4byte	.LFB68
 2304 0b8e 2A000000 		.4byte	.LFE68
 2305 0b92 02       		.byte	0x2
 2306 0b93 7D       		.byte	0x7d
 2307 0b94 00       		.sleb128 0
 2308 0b95 01       		.byte	0x1
 2309 0b96 B40B0000 		.4byte	0xbb4
 2310 0b9a 29       		.uleb128 0x29
 2311 0b9b FC090000 		.4byte	0x9fc
 2312 0b9f A8010000 		.4byte	.LLST12
 2313 0ba3 29       		.uleb128 0x29
 2314 0ba4 050A0000 		.4byte	0xa05
 2315 0ba8 C9010000 		.4byte	.LLST13
 2316 0bac 26       		.uleb128 0x26
 2317 0bad 0E0A0000 		.4byte	0xa0e
 2318 0bb1 01       		.byte	0x1
 2319 0bb2 52       		.byte	0x52
 2320 0bb3 00       		.byte	0
 2321 0bb4 21       		.uleb128 0x21
 2322 0bb5 01       		.byte	0x1
 2323 0bb6 AD040000 		.4byte	.LASF123
 2324 0bba 01       		.byte	0x1
ARM GAS  /tmp/ccUmV1P3.s 			page 42


 2325 0bbb 28       		.byte	0x28
 2326 0bbc 01       		.byte	0x1
 2327 0bbd 00000000 		.4byte	.LFB69
 2328 0bc1 FE000000 		.4byte	.LFE69
 2329 0bc5 EA010000 		.4byte	.LLST14
 2330 0bc9 01       		.byte	0x1
 2331 0bca 150D0000 		.4byte	0xd15
 2332 0bce 2A       		.uleb128 0x2a
 2333 0bcf 72676200 		.ascii	"rgb\000"
 2334 0bd3 01       		.byte	0x1
 2335 0bd4 28       		.byte	0x28
 2336 0bd5 250D0000 		.4byte	0xd25
 2337 0bd9 17020000 		.4byte	.LLST15
 2338 0bdd 2A       		.uleb128 0x2a
 2339 0bde 7900     		.ascii	"y\000"
 2340 0be0 01       		.byte	0x1
 2341 0be1 28       		.byte	0x28
 2342 0be2 3B0D0000 		.4byte	0xd3b
 2343 0be6 36020000 		.4byte	.LLST16
 2344 0bea 2A       		.uleb128 0x2a
 2345 0beb 636200   		.ascii	"cb\000"
 2346 0bee 01       		.byte	0x1
 2347 0bef 28       		.byte	0x28
 2348 0bf0 3B0D0000 		.4byte	0xd3b
 2349 0bf4 55020000 		.4byte	.LLST17
 2350 0bf8 2A       		.uleb128 0x2a
 2351 0bf9 637200   		.ascii	"cr\000"
 2352 0bfc 01       		.byte	0x1
 2353 0bfd 28       		.byte	0x28
 2354 0bfe 3B0D0000 		.4byte	0xd3b
 2355 0c02 74020000 		.4byte	.LLST18
 2356 0c06 2B       		.uleb128 0x2b
 2357 0c07 5A000000 		.4byte	.LASF124
 2358 0c0b 01       		.byte	0x1
 2359 0c0c 29       		.byte	0x29
 2360 0c0d D2000000 		.4byte	0xd2
 2361 0c11 93020000 		.4byte	.LLST19
 2362 0c15 2C       		.uleb128 0x2c
 2363 0c16 7200     		.ascii	"r\000"
 2364 0c18 01       		.byte	0x1
 2365 0c19 2A       		.byte	0x2a
 2366 0c1a 30000000 		.4byte	0x30
 2367 0c1e FC020000 		.4byte	.LLST20
 2368 0c22 2C       		.uleb128 0x2c
 2369 0c23 6300     		.ascii	"c\000"
 2370 0c25 01       		.byte	0x1
 2371 0c26 2A       		.byte	0x2a
 2372 0c27 30000000 		.4byte	0x30
 2373 0c2b 10030000 		.4byte	.LLST21
 2374 0c2f 2D       		.uleb128 0x2d
 2375 0c30 EA090000 		.4byte	0x9ea
 2376 0c34 04000000 		.4byte	.LBB26
 2377 0c38 00000000 		.4byte	.Ldebug_ranges0+0
 2378 0c3c 01       		.byte	0x1
 2379 0c3d 2F       		.byte	0x2f
 2380 0c3e 5E0C0000 		.4byte	0xc5e
 2381 0c42 29       		.uleb128 0x29
ARM GAS  /tmp/ccUmV1P3.s 			page 43


 2382 0c43 0E0A0000 		.4byte	0xa0e
 2383 0c47 24030000 		.4byte	.LLST22
 2384 0c4b 29       		.uleb128 0x29
 2385 0c4c 050A0000 		.4byte	0xa05
 2386 0c50 5C030000 		.4byte	.LLST23
 2387 0c54 29       		.uleb128 0x29
 2388 0c55 FC090000 		.4byte	0x9fc
 2389 0c59 AC030000 		.4byte	.LLST24
 2390 0c5d 00       		.byte	0
 2391 0c5e 2D       		.uleb128 0x2d
 2392 0c5f B7090000 		.4byte	0x9b7
 2393 0c63 0E000000 		.4byte	.LBB36
 2394 0c67 50000000 		.4byte	.Ldebug_ranges0+0x50
 2395 0c6b 01       		.byte	0x1
 2396 0c6c 2E       		.byte	0x2e
 2397 0c6d 8D0C0000 		.4byte	0xc8d
 2398 0c71 29       		.uleb128 0x29
 2399 0c72 DB090000 		.4byte	0x9db
 2400 0c76 E2030000 		.4byte	.LLST25
 2401 0c7a 29       		.uleb128 0x29
 2402 0c7b D2090000 		.4byte	0x9d2
 2403 0c7f 29040000 		.4byte	.LLST26
 2404 0c83 29       		.uleb128 0x29
 2405 0c84 C9090000 		.4byte	0x9c9
 2406 0c88 A6040000 		.4byte	.LLST27
 2407 0c8c 00       		.byte	0
 2408 0c8d 2D       		.uleb128 0x2d
 2409 0c8e 180A0000 		.4byte	0xa18
 2410 0c92 68000000 		.4byte	.LBB49
 2411 0c96 A0000000 		.4byte	.Ldebug_ranges0+0xa0
 2412 0c9a 01       		.byte	0x1
 2413 0c9b 30       		.byte	0x30
 2414 0c9c BC0C0000 		.4byte	0xcbc
 2415 0ca0 29       		.uleb128 0x29
 2416 0ca1 3C0A0000 		.4byte	0xa3c
 2417 0ca5 DC040000 		.4byte	.LLST28
 2418 0ca9 29       		.uleb128 0x29
 2419 0caa 330A0000 		.4byte	0xa33
 2420 0cae FC040000 		.4byte	.LLST29
 2421 0cb2 29       		.uleb128 0x29
 2422 0cb3 2A0A0000 		.4byte	0xa2a
 2423 0cb7 28050000 		.4byte	.LLST30
 2424 0cbb 00       		.byte	0
 2425 0cbc 2D       		.uleb128 0x2d
 2426 0cbd 65090000 		.4byte	0x965
 2427 0cc1 7E000000 		.4byte	.LBB60
 2428 0cc5 E0000000 		.4byte	.Ldebug_ranges0+0xe0
 2429 0cc9 01       		.byte	0x1
 2430 0cca 2E       		.byte	0x2e
 2431 0ccb E80C0000 		.4byte	0xce8
 2432 0ccf 29       		.uleb128 0x29
 2433 0cd0 77090000 		.4byte	0x977
 2434 0cd4 47050000 		.4byte	.LLST31
 2435 0cd8 2E       		.uleb128 0x2e
 2436 0cd9 F8000000 		.4byte	.Ldebug_ranges0+0xf8
 2437 0cdd 2F       		.uleb128 0x2f
 2438 0cde 82090000 		.4byte	0x982
ARM GAS  /tmp/ccUmV1P3.s 			page 44


 2439 0ce2 29040000 		.4byte	.LLST26
 2440 0ce6 00       		.byte	0
 2441 0ce7 00       		.byte	0
 2442 0ce8 30       		.uleb128 0x30
 2443 0ce9 8E090000 		.4byte	0x98e
 2444 0ced B2000000 		.4byte	.LBB72
 2445 0cf1 B4000000 		.4byte	.LBE72
 2446 0cf5 01       		.byte	0x1
 2447 0cf6 2E       		.byte	0x2e
 2448 0cf7 29       		.uleb128 0x29
 2449 0cf8 A0090000 		.4byte	0x9a0
 2450 0cfc 8B050000 		.4byte	.LLST33
 2451 0d00 31       		.uleb128 0x31
 2452 0d01 B2000000 		.4byte	.LBB73
 2453 0d05 B4000000 		.4byte	.LBE73
 2454 0d09 2F       		.uleb128 0x2f
 2455 0d0a AB090000 		.4byte	0x9ab
 2456 0d0e E2030000 		.4byte	.LLST25
 2457 0d12 00       		.byte	0
 2458 0d13 00       		.byte	0
 2459 0d14 00       		.byte	0
 2460 0d15 0A       		.uleb128 0xa
 2461 0d16 D2000000 		.4byte	0xd2
 2462 0d1a 250D0000 		.4byte	0xd25
 2463 0d1e 0B       		.uleb128 0xb
 2464 0d1f 4D010000 		.4byte	0x14d
 2465 0d23 07       		.byte	0x7
 2466 0d24 00       		.byte	0
 2467 0d25 0C       		.uleb128 0xc
 2468 0d26 04       		.byte	0x4
 2469 0d27 150D0000 		.4byte	0xd15
 2470 0d2b 0A       		.uleb128 0xa
 2471 0d2c 42000000 		.4byte	0x42
 2472 0d30 3B0D0000 		.4byte	0xd3b
 2473 0d34 0B       		.uleb128 0xb
 2474 0d35 4D010000 		.4byte	0x14d
 2475 0d39 07       		.byte	0x7
 2476 0d3a 00       		.byte	0
 2477 0d3b 0C       		.uleb128 0xc
 2478 0d3c 04       		.byte	0x4
 2479 0d3d 2B0D0000 		.4byte	0xd2b
 2480 0d41 32       		.uleb128 0x32
 2481 0d42 01       		.byte	0x1
 2482 0d43 A8020000 		.4byte	.LASF125
 2483 0d47 01       		.byte	0x1
 2484 0d48 34       		.byte	0x34
 2485 0d49 01       		.byte	0x1
 2486 0d4a 00000000 		.4byte	.LFB70
 2487 0d4e 0C000000 		.4byte	.LFE70
 2488 0d52 02       		.byte	0x2
 2489 0d53 7D       		.byte	0x7d
 2490 0d54 00       		.sleb128 0
 2491 0d55 01       		.byte	0x1
 2492 0d56 740D0000 		.4byte	0xd74
 2493 0d5a 33       		.uleb128 0x33
 2494 0d5b 0C000000 		.4byte	.LVL32
 2495 0d5f 01       		.byte	0x1
ARM GAS  /tmp/ccUmV1P3.s 			page 45


 2496 0d60 08100000 		.4byte	0x1008
 2497 0d64 24       		.uleb128 0x24
 2498 0d65 01       		.byte	0x1
 2499 0d66 51       		.byte	0x51
 2500 0d67 03       		.byte	0x3
 2501 0d68 0A       		.byte	0xa
 2502 0d69 8002     		.2byte	0x280
 2503 0d6b 24       		.uleb128 0x24
 2504 0d6c 01       		.byte	0x1
 2505 0d6d 50       		.byte	0x50
 2506 0d6e 03       		.byte	0x3
 2507 0d6f 0A       		.byte	0xa
 2508 0d70 E001     		.2byte	0x1e0
 2509 0d72 00       		.byte	0
 2510 0d73 00       		.byte	0
 2511 0d74 32       		.uleb128 0x32
 2512 0d75 01       		.byte	0x1
 2513 0d76 0E000000 		.4byte	.LASF126
 2514 0d7a 01       		.byte	0x1
 2515 0d7b 38       		.byte	0x38
 2516 0d7c 01       		.byte	0x1
 2517 0d7d 00000000 		.4byte	.LFB71
 2518 0d81 04000000 		.4byte	.LFE71
 2519 0d85 02       		.byte	0x2
 2520 0d86 7D       		.byte	0x7d
 2521 0d87 00       		.sleb128 0
 2522 0d88 01       		.byte	0x1
 2523 0d89 980D0000 		.4byte	0xd98
 2524 0d8d 34       		.uleb128 0x34
 2525 0d8e 04000000 		.4byte	.LVL33
 2526 0d92 01       		.byte	0x1
 2527 0d93 21100000 		.4byte	0x1021
 2528 0d97 00       		.byte	0
 2529 0d98 21       		.uleb128 0x21
 2530 0d99 01       		.byte	0x1
 2531 0d9a 81020000 		.4byte	.LASF127
 2532 0d9e 01       		.byte	0x1
 2533 0d9f 3C       		.byte	0x3c
 2534 0da0 01       		.byte	0x1
 2535 0da1 00000000 		.4byte	.LFB72
 2536 0da5 36000000 		.4byte	.LFE72
 2537 0da9 C1050000 		.4byte	.LLST35
 2538 0dad 01       		.byte	0x1
 2539 0dae 100E0000 		.4byte	0xe10
 2540 0db2 35       		.uleb128 0x35
 2541 0db3 7800     		.ascii	"x\000"
 2542 0db5 01       		.byte	0x1
 2543 0db6 3C       		.byte	0x3c
 2544 0db7 49000000 		.4byte	0x49
 2545 0dbb 01       		.byte	0x1
 2546 0dbc 50       		.byte	0x50
 2547 0dbd 2A       		.uleb128 0x2a
 2548 0dbe 62756600 		.ascii	"buf\000"
 2549 0dc2 01       		.byte	0x1
 2550 0dc3 3C       		.byte	0x3c
 2551 0dc4 100E0000 		.4byte	0xe10
 2552 0dc8 E1050000 		.4byte	.LLST36
ARM GAS  /tmp/ccUmV1P3.s 			page 46


 2553 0dcc 36       		.uleb128 0x36
 2554 0dcd 34050000 		.4byte	.LASF128
 2555 0dd1 01       		.byte	0x1
 2556 0dd2 3C       		.byte	0x3c
 2557 0dd3 D0050000 		.4byte	0x5d0
 2558 0dd7 01       		.byte	0x1
 2559 0dd8 52       		.byte	0x52
 2560 0dd9 2C       		.uleb128 0x2c
 2561 0dda 7200     		.ascii	"r\000"
 2562 0ddc 01       		.byte	0x1
 2563 0ddd 3D       		.byte	0x3d
 2564 0dde 30000000 		.4byte	0x30
 2565 0de2 02060000 		.4byte	.LLST37
 2566 0de6 2C       		.uleb128 0x2c
 2567 0de7 6300     		.ascii	"c\000"
 2568 0de9 01       		.byte	0x1
 2569 0dea 3E       		.byte	0x3e
 2570 0deb 49000000 		.4byte	0x49
 2571 0def 16060000 		.4byte	.LLST38
 2572 0df3 2C       		.uleb128 0x2c
 2573 0df4 6900     		.ascii	"i\000"
 2574 0df6 01       		.byte	0x1
 2575 0df7 3E       		.byte	0x3e
 2576 0df8 49000000 		.4byte	0x49
 2577 0dfc 2A060000 		.4byte	.LLST39
 2578 0e00 2B       		.uleb128 0x2b
 2579 0e01 A6040000 		.4byte	.LASF129
 2580 0e05 01       		.byte	0x1
 2581 0e06 3E       		.byte	0x3e
 2582 0e07 49000000 		.4byte	0x49
 2583 0e0b 4A060000 		.4byte	.LLST40
 2584 0e0f 00       		.byte	0
 2585 0e10 0C       		.uleb128 0xc
 2586 0e11 04       		.byte	0x4
 2587 0e12 D2000000 		.4byte	0xd2
 2588 0e16 21       		.uleb128 0x21
 2589 0e17 01       		.byte	0x1
 2590 0e18 60010000 		.4byte	.LASF130
 2591 0e1c 01       		.byte	0x1
 2592 0e1d 4A       		.byte	0x4a
 2593 0e1e 01       		.byte	0x1
 2594 0e1f 00000000 		.4byte	.LFB73
 2595 0e23 6C000000 		.4byte	.LFE73
 2596 0e27 81060000 		.4byte	.LLST41
 2597 0e2b 01       		.byte	0x1
 2598 0e2c 5F0F0000 		.4byte	0xf5f
 2599 0e30 22       		.uleb128 0x22
 2600 0e31 34050000 		.4byte	.LASF128
 2601 0e35 01       		.byte	0x1
 2602 0e36 4A       		.byte	0x4a
 2603 0e37 D0050000 		.4byte	0x5d0
 2604 0e3b AE060000 		.4byte	.LLST42
 2605 0e3f 37       		.uleb128 0x37
 2606 0e40 4E020000 		.4byte	.LASF131
 2607 0e44 01       		.byte	0x1
 2608 0e45 4B       		.byte	0x4b
 2609 0e46 5F0F0000 		.4byte	0xf5f
ARM GAS  /tmp/ccUmV1P3.s 			page 47


 2610 0e4a 03       		.byte	0x3
 2611 0e4b 91       		.byte	0x91
 2612 0e4c F07B     		.sleb128 -528
 2613 0e4e 37       		.uleb128 0x37
 2614 0e4f B2020000 		.4byte	.LASF132
 2615 0e53 01       		.byte	0x1
 2616 0e54 4C       		.byte	0x4c
 2617 0e55 5F0F0000 		.4byte	0xf5f
 2618 0e59 03       		.byte	0x3
 2619 0e5a 91       		.byte	0x91
 2620 0e5b F07C     		.sleb128 -400
 2621 0e5d 37       		.uleb128 0x37
 2622 0e5e 7D040000 		.4byte	.LASF133
 2623 0e62 01       		.byte	0x1
 2624 0e63 4D       		.byte	0x4d
 2625 0e64 5F0F0000 		.4byte	0xf5f
 2626 0e68 03       		.byte	0x3
 2627 0e69 91       		.byte	0x91
 2628 0e6a F07D     		.sleb128 -272
 2629 0e6c 37       		.uleb128 0x37
 2630 0e6d 2E000000 		.4byte	.LASF134
 2631 0e71 01       		.byte	0x1
 2632 0e72 4E       		.byte	0x4e
 2633 0e73 750F0000 		.4byte	0xf75
 2634 0e77 03       		.byte	0x3
 2635 0e78 91       		.byte	0x91
 2636 0e79 F07E     		.sleb128 -144
 2637 0e7b 2C       		.uleb128 0x2c
 2638 0e7c 7800     		.ascii	"x\000"
 2639 0e7e 01       		.byte	0x1
 2640 0e7f 53       		.byte	0x53
 2641 0e80 49000000 		.4byte	0x49
 2642 0e84 CC060000 		.4byte	.LLST43
 2643 0e88 38       		.uleb128 0x38
 2644 0e89 14000000 		.4byte	.LVL44
 2645 0e8d 980D0000 		.4byte	0xd98
 2646 0e91 A90E0000 		.4byte	0xea9
 2647 0e95 24       		.uleb128 0x24
 2648 0e96 01       		.byte	0x1
 2649 0e97 52       		.byte	0x52
 2650 0e98 02       		.byte	0x2
 2651 0e99 75       		.byte	0x75
 2652 0e9a 00       		.sleb128 0
 2653 0e9b 24       		.uleb128 0x24
 2654 0e9c 01       		.byte	0x1
 2655 0e9d 51       		.byte	0x51
 2656 0e9e 03       		.byte	0x3
 2657 0e9f 91       		.byte	0x91
 2658 0ea0 F07E     		.sleb128 -144
 2659 0ea2 24       		.uleb128 0x24
 2660 0ea3 01       		.byte	0x1
 2661 0ea4 50       		.byte	0x50
 2662 0ea5 02       		.byte	0x2
 2663 0ea6 74       		.byte	0x74
 2664 0ea7 00       		.sleb128 0
 2665 0ea8 00       		.byte	0
 2666 0ea9 38       		.uleb128 0x38
ARM GAS  /tmp/ccUmV1P3.s 			page 48


 2667 0eaa 20000000 		.4byte	.LVL45
 2668 0eae B40B0000 		.4byte	0xbb4
 2669 0eb2 D20E0000 		.4byte	0xed2
 2670 0eb6 24       		.uleb128 0x24
 2671 0eb7 01       		.byte	0x1
 2672 0eb8 53       		.byte	0x53
 2673 0eb9 03       		.byte	0x3
 2674 0eba 91       		.byte	0x91
 2675 0ebb F07D     		.sleb128 -272
 2676 0ebd 24       		.uleb128 0x24
 2677 0ebe 01       		.byte	0x1
 2678 0ebf 52       		.byte	0x52
 2679 0ec0 03       		.byte	0x3
 2680 0ec1 91       		.byte	0x91
 2681 0ec2 F07C     		.sleb128 -400
 2682 0ec4 24       		.uleb128 0x24
 2683 0ec5 01       		.byte	0x1
 2684 0ec6 51       		.byte	0x51
 2685 0ec7 02       		.byte	0x2
 2686 0ec8 7D       		.byte	0x7d
 2687 0ec9 00       		.sleb128 0
 2688 0eca 24       		.uleb128 0x24
 2689 0ecb 01       		.byte	0x1
 2690 0ecc 50       		.byte	0x50
 2691 0ecd 03       		.byte	0x3
 2692 0ece 91       		.byte	0x91
 2693 0ecf F07E     		.sleb128 -144
 2694 0ed1 00       		.byte	0
 2695 0ed2 38       		.uleb128 0x38
 2696 0ed3 28000000 		.4byte	.LVL46
 2697 0ed7 2B100000 		.4byte	0x102b
 2698 0edb EC0E0000 		.4byte	0xeec
 2699 0edf 24       		.uleb128 0x24
 2700 0ee0 01       		.byte	0x1
 2701 0ee1 51       		.byte	0x51
 2702 0ee2 02       		.byte	0x2
 2703 0ee3 7D       		.byte	0x7d
 2704 0ee4 00       		.sleb128 0
 2705 0ee5 24       		.uleb128 0x24
 2706 0ee6 01       		.byte	0x1
 2707 0ee7 50       		.byte	0x50
 2708 0ee8 02       		.byte	0x2
 2709 0ee9 7D       		.byte	0x7d
 2710 0eea 00       		.sleb128 0
 2711 0eeb 00       		.byte	0
 2712 0eec 38       		.uleb128 0x38
 2713 0eed 30000000 		.4byte	.LVL47
 2714 0ef1 44100000 		.4byte	0x1044
 2715 0ef5 000F0000 		.4byte	0xf00
 2716 0ef9 24       		.uleb128 0x24
 2717 0efa 01       		.byte	0x1
 2718 0efb 51       		.byte	0x51
 2719 0efc 02       		.byte	0x2
 2720 0efd 7D       		.byte	0x7d
 2721 0efe 00       		.sleb128 0
 2722 0eff 00       		.byte	0
 2723 0f00 38       		.uleb128 0x38
ARM GAS  /tmp/ccUmV1P3.s 			page 49


 2724 0f01 38000000 		.4byte	.LVL48
 2725 0f05 2B100000 		.4byte	0x102b
 2726 0f09 1C0F0000 		.4byte	0xf1c
 2727 0f0d 24       		.uleb128 0x24
 2728 0f0e 01       		.byte	0x1
 2729 0f0f 51       		.byte	0x51
 2730 0f10 03       		.byte	0x3
 2731 0f11 91       		.byte	0x91
 2732 0f12 F07C     		.sleb128 -400
 2733 0f14 24       		.uleb128 0x24
 2734 0f15 01       		.byte	0x1
 2735 0f16 50       		.byte	0x50
 2736 0f17 03       		.byte	0x3
 2737 0f18 91       		.byte	0x91
 2738 0f19 F07C     		.sleb128 -400
 2739 0f1b 00       		.byte	0
 2740 0f1c 38       		.uleb128 0x38
 2741 0f1d 40000000 		.4byte	.LVL49
 2742 0f21 44100000 		.4byte	0x1044
 2743 0f25 310F0000 		.4byte	0xf31
 2744 0f29 24       		.uleb128 0x24
 2745 0f2a 01       		.byte	0x1
 2746 0f2b 51       		.byte	0x51
 2747 0f2c 03       		.byte	0x3
 2748 0f2d 91       		.byte	0x91
 2749 0f2e F07C     		.sleb128 -400
 2750 0f30 00       		.byte	0
 2751 0f31 38       		.uleb128 0x38
 2752 0f32 4A000000 		.4byte	.LVL50
 2753 0f36 2B100000 		.4byte	0x102b
 2754 0f3a 4D0F0000 		.4byte	0xf4d
 2755 0f3e 24       		.uleb128 0x24
 2756 0f3f 01       		.byte	0x1
 2757 0f40 51       		.byte	0x51
 2758 0f41 03       		.byte	0x3
 2759 0f42 91       		.byte	0x91
 2760 0f43 F07D     		.sleb128 -272
 2761 0f45 24       		.uleb128 0x24
 2762 0f46 01       		.byte	0x1
 2763 0f47 50       		.byte	0x50
 2764 0f48 03       		.byte	0x3
 2765 0f49 91       		.byte	0x91
 2766 0f4a F07D     		.sleb128 -272
 2767 0f4c 00       		.byte	0
 2768 0f4d 23       		.uleb128 0x23
 2769 0f4e 54000000 		.4byte	.LVL51
 2770 0f52 44100000 		.4byte	0x1044
 2771 0f56 24       		.uleb128 0x24
 2772 0f57 01       		.byte	0x1
 2773 0f58 51       		.byte	0x51
 2774 0f59 03       		.byte	0x3
 2775 0f5a 91       		.byte	0x91
 2776 0f5b F07D     		.sleb128 -272
 2777 0f5d 00       		.byte	0
 2778 0f5e 00       		.byte	0
 2779 0f5f 0A       		.uleb128 0xa
 2780 0f60 42000000 		.4byte	0x42
ARM GAS  /tmp/ccUmV1P3.s 			page 50


 2781 0f64 750F0000 		.4byte	0xf75
 2782 0f68 0B       		.uleb128 0xb
 2783 0f69 4D010000 		.4byte	0x14d
 2784 0f6d 07       		.byte	0x7
 2785 0f6e 0B       		.uleb128 0xb
 2786 0f6f 4D010000 		.4byte	0x14d
 2787 0f73 07       		.byte	0x7
 2788 0f74 00       		.byte	0
 2789 0f75 0A       		.uleb128 0xa
 2790 0f76 D2000000 		.4byte	0xd2
 2791 0f7a 8B0F0000 		.4byte	0xf8b
 2792 0f7e 0B       		.uleb128 0xb
 2793 0f7f 4D010000 		.4byte	0x14d
 2794 0f83 07       		.byte	0x7
 2795 0f84 0B       		.uleb128 0xb
 2796 0f85 4D010000 		.4byte	0x14d
 2797 0f89 07       		.byte	0x7
 2798 0f8a 00       		.byte	0
 2799 0f8b 0A       		.uleb128 0xa
 2800 0f8c 86010000 		.4byte	0x186
 2801 0f90 9B0F0000 		.4byte	0xf9b
 2802 0f94 0B       		.uleb128 0xb
 2803 0f95 4D010000 		.4byte	0x14d
 2804 0f99 02       		.byte	0x2
 2805 0f9a 00       		.byte	0
 2806 0f9b 39       		.uleb128 0x39
 2807 0f9c A7030000 		.4byte	.LASF135
 2808 0fa0 04       		.byte	0x4
 2809 0fa1 18       		.byte	0x18
 2810 0fa2 8B0F0000 		.4byte	0xf8b
 2811 0fa6 01       		.byte	0x1
 2812 0fa7 01       		.byte	0x1
 2813 0fa8 3A       		.uleb128 0x3a
 2814 0fa9 7E000000 		.4byte	.LASF136
 2815 0fad 10       		.byte	0x10
 2816 0fae 9404     		.2byte	0x494
 2817 0fb0 B60F0000 		.4byte	0xfb6
 2818 0fb4 01       		.byte	0x1
 2819 0fb5 01       		.byte	0x1
 2820 0fb6 11       		.uleb128 0x11
 2821 0fb7 5B000000 		.4byte	0x5b
 2822 0fbb 3B       		.uleb128 0x3b
 2823 0fbc 53443100 		.ascii	"SD1\000"
 2824 0fc0 11       		.byte	0x11
 2825 0fc1 FB       		.byte	0xfb
 2826 0fc2 FA070000 		.4byte	0x7fa
 2827 0fc6 01       		.byte	0x1
 2828 0fc7 01       		.byte	0x1
 2829 0fc8 3C       		.uleb128 0x3c
 2830 0fc9 70000000 		.4byte	.LASF137
 2831 0fcd 01       		.byte	0x1
 2832 0fce 05       		.byte	0x5
 2833 0fcf 6D000000 		.4byte	0x6d
 2834 0fd3 01       		.byte	0x1
 2835 0fd4 05       		.byte	0x5
 2836 0fd5 03       		.byte	0x3
 2837 0fd6 00000000 		.4byte	file_addr_ptr
ARM GAS  /tmp/ccUmV1P3.s 			page 51


 2838 0fda 3D       		.uleb128 0x3d
 2839 0fdb 01       		.byte	0x1
 2840 0fdc 6A020000 		.4byte	.LASF138
 2841 0fe0 0C       		.byte	0xc
 2842 0fe1 5B01     		.2byte	0x15b
 2843 0fe3 01       		.byte	0x1
 2844 0fe4 91010000 		.4byte	0x191
 2845 0fe8 01       		.byte	0x1
 2846 0fe9 02100000 		.4byte	0x1002
 2847 0fed 15       		.uleb128 0x15
 2848 0fee 02100000 		.4byte	0x1002
 2849 0ff2 15       		.uleb128 0x15
 2850 0ff3 70010000 		.4byte	0x170
 2851 0ff7 15       		.uleb128 0x15
 2852 0ff8 91010000 		.4byte	0x191
 2853 0ffc 15       		.uleb128 0x15
 2854 0ffd E9010000 		.4byte	0x1e9
 2855 1001 00       		.byte	0
 2856 1002 0C       		.uleb128 0xc
 2857 1003 04       		.byte	0x4
 2858 1004 E1050000 		.4byte	0x5e1
 2859 1008 3E       		.uleb128 0x3e
 2860 1009 01       		.byte	0x1
 2861 100a F1000000 		.4byte	.LASF139
 2862 100e 04       		.byte	0x4
 2863 100f 1E       		.byte	0x1e
 2864 1010 01       		.byte	0x1
 2865 1011 01       		.byte	0x1
 2866 1012 21100000 		.4byte	0x1021
 2867 1016 15       		.uleb128 0x15
 2868 1017 42000000 		.4byte	0x42
 2869 101b 15       		.uleb128 0x15
 2870 101c 42000000 		.4byte	0x42
 2871 1020 00       		.byte	0
 2872 1021 3F       		.uleb128 0x3f
 2873 1022 01       		.byte	0x1
 2874 1023 DC010000 		.4byte	.LASF144
 2875 1027 04       		.byte	0x4
 2876 1028 1F       		.byte	0x1f
 2877 1029 01       		.byte	0x1
 2878 102a 01       		.byte	0x1
 2879 102b 40       		.uleb128 0x40
 2880 102c 01       		.byte	0x1
 2881 102d 64637400 		.ascii	"dct\000"
 2882 1031 12       		.byte	0x12
 2883 1032 05       		.byte	0x5
 2884 1033 01       		.byte	0x1
 2885 1034 01       		.byte	0x1
 2886 1035 44100000 		.4byte	0x1044
 2887 1039 15       		.uleb128 0x15
 2888 103a 3B0D0000 		.4byte	0xd3b
 2889 103e 15       		.uleb128 0x15
 2890 103f 3B0D0000 		.4byte	0xd3b
 2891 1043 00       		.byte	0
 2892 1044 3E       		.uleb128 0x3e
 2893 1045 01       		.byte	0x1
 2894 1046 E3020000 		.4byte	.LASF140
ARM GAS  /tmp/ccUmV1P3.s 			page 52


 2895 104a 04       		.byte	0x4
 2896 104b 20       		.byte	0x20
 2897 104c 01       		.byte	0x1
 2898 104d 01       		.byte	0x1
 2899 104e 5D100000 		.4byte	0x105d
 2900 1052 15       		.uleb128 0x15
 2901 1053 5D100000 		.4byte	0x105d
 2902 1057 15       		.uleb128 0x15
 2903 1058 68100000 		.4byte	0x1068
 2904 105c 00       		.byte	0
 2905 105d 0D       		.uleb128 0xd
 2906 105e 62100000 		.4byte	0x1062
 2907 1062 0C       		.uleb128 0xc
 2908 1063 04       		.byte	0x4
 2909 1064 86010000 		.4byte	0x186
 2910 1068 0C       		.uleb128 0xc
 2911 1069 04       		.byte	0x4
 2912 106a 6E100000 		.4byte	0x106e
 2913 106e 0D       		.uleb128 0xd
 2914 106f 42000000 		.4byte	0x42
 2915 1073 00       		.byte	0
 2916              		.section	.debug_abbrev,"",%progbits
 2917              	.Ldebug_abbrev0:
 2918 0000 01       		.uleb128 0x1
 2919 0001 11       		.uleb128 0x11
 2920 0002 01       		.byte	0x1
 2921 0003 25       		.uleb128 0x25
 2922 0004 0E       		.uleb128 0xe
 2923 0005 13       		.uleb128 0x13
 2924 0006 0B       		.uleb128 0xb
 2925 0007 03       		.uleb128 0x3
 2926 0008 0E       		.uleb128 0xe
 2927 0009 1B       		.uleb128 0x1b
 2928 000a 0E       		.uleb128 0xe
 2929 000b 55       		.uleb128 0x55
 2930 000c 06       		.uleb128 0x6
 2931 000d 11       		.uleb128 0x11
 2932 000e 01       		.uleb128 0x1
 2933 000f 52       		.uleb128 0x52
 2934 0010 01       		.uleb128 0x1
 2935 0011 10       		.uleb128 0x10
 2936 0012 06       		.uleb128 0x6
 2937 0013 00       		.byte	0
 2938 0014 00       		.byte	0
 2939 0015 02       		.uleb128 0x2
 2940 0016 24       		.uleb128 0x24
 2941 0017 00       		.byte	0
 2942 0018 0B       		.uleb128 0xb
 2943 0019 0B       		.uleb128 0xb
 2944 001a 3E       		.uleb128 0x3e
 2945 001b 0B       		.uleb128 0xb
 2946 001c 03       		.uleb128 0x3
 2947 001d 0E       		.uleb128 0xe
 2948 001e 00       		.byte	0
 2949 001f 00       		.byte	0
 2950 0020 03       		.uleb128 0x3
 2951 0021 16       		.uleb128 0x16
ARM GAS  /tmp/ccUmV1P3.s 			page 53


 2952 0022 00       		.byte	0
 2953 0023 03       		.uleb128 0x3
 2954 0024 0E       		.uleb128 0xe
 2955 0025 3A       		.uleb128 0x3a
 2956 0026 0B       		.uleb128 0xb
 2957 0027 3B       		.uleb128 0x3b
 2958 0028 0B       		.uleb128 0xb
 2959 0029 49       		.uleb128 0x49
 2960 002a 13       		.uleb128 0x13
 2961 002b 00       		.byte	0
 2962 002c 00       		.byte	0
 2963 002d 04       		.uleb128 0x4
 2964 002e 24       		.uleb128 0x24
 2965 002f 00       		.byte	0
 2966 0030 0B       		.uleb128 0xb
 2967 0031 0B       		.uleb128 0xb
 2968 0032 3E       		.uleb128 0x3e
 2969 0033 0B       		.uleb128 0xb
 2970 0034 03       		.uleb128 0x3
 2971 0035 08       		.uleb128 0x8
 2972 0036 00       		.byte	0
 2973 0037 00       		.byte	0
 2974 0038 05       		.uleb128 0x5
 2975 0039 13       		.uleb128 0x13
 2976 003a 01       		.byte	0x1
 2977 003b 0B       		.uleb128 0xb
 2978 003c 0B       		.uleb128 0xb
 2979 003d 3A       		.uleb128 0x3a
 2980 003e 0B       		.uleb128 0xb
 2981 003f 3B       		.uleb128 0x3b
 2982 0040 0B       		.uleb128 0xb
 2983 0041 01       		.uleb128 0x1
 2984 0042 13       		.uleb128 0x13
 2985 0043 00       		.byte	0
 2986 0044 00       		.byte	0
 2987 0045 06       		.uleb128 0x6
 2988 0046 0D       		.uleb128 0xd
 2989 0047 00       		.byte	0
 2990 0048 03       		.uleb128 0x3
 2991 0049 08       		.uleb128 0x8
 2992 004a 3A       		.uleb128 0x3a
 2993 004b 0B       		.uleb128 0xb
 2994 004c 3B       		.uleb128 0x3b
 2995 004d 0B       		.uleb128 0xb
 2996 004e 49       		.uleb128 0x49
 2997 004f 13       		.uleb128 0x13
 2998 0050 38       		.uleb128 0x38
 2999 0051 0A       		.uleb128 0xa
 3000 0052 00       		.byte	0
 3001 0053 00       		.byte	0
 3002 0054 07       		.uleb128 0x7
 3003 0055 16       		.uleb128 0x16
 3004 0056 00       		.byte	0
 3005 0057 03       		.uleb128 0x3
 3006 0058 08       		.uleb128 0x8
 3007 0059 3A       		.uleb128 0x3a
 3008 005a 0B       		.uleb128 0xb
ARM GAS  /tmp/ccUmV1P3.s 			page 54


 3009 005b 3B       		.uleb128 0x3b
 3010 005c 0B       		.uleb128 0xb
 3011 005d 49       		.uleb128 0x49
 3012 005e 13       		.uleb128 0x13
 3013 005f 00       		.byte	0
 3014 0060 00       		.byte	0
 3015 0061 08       		.uleb128 0x8
 3016 0062 13       		.uleb128 0x13
 3017 0063 01       		.byte	0x1
 3018 0064 03       		.uleb128 0x3
 3019 0065 0E       		.uleb128 0xe
 3020 0066 0B       		.uleb128 0xb
 3021 0067 0B       		.uleb128 0xb
 3022 0068 3A       		.uleb128 0x3a
 3023 0069 0B       		.uleb128 0xb
 3024 006a 3B       		.uleb128 0x3b
 3025 006b 0B       		.uleb128 0xb
 3026 006c 01       		.uleb128 0x1
 3027 006d 13       		.uleb128 0x13
 3028 006e 00       		.byte	0
 3029 006f 00       		.byte	0
 3030 0070 09       		.uleb128 0x9
 3031 0071 0D       		.uleb128 0xd
 3032 0072 00       		.byte	0
 3033 0073 03       		.uleb128 0x3
 3034 0074 0E       		.uleb128 0xe
 3035 0075 3A       		.uleb128 0x3a
 3036 0076 0B       		.uleb128 0xb
 3037 0077 3B       		.uleb128 0x3b
 3038 0078 0B       		.uleb128 0xb
 3039 0079 49       		.uleb128 0x49
 3040 007a 13       		.uleb128 0x13
 3041 007b 38       		.uleb128 0x38
 3042 007c 0A       		.uleb128 0xa
 3043 007d 00       		.byte	0
 3044 007e 00       		.byte	0
 3045 007f 0A       		.uleb128 0xa
 3046 0080 01       		.uleb128 0x1
 3047 0081 01       		.byte	0x1
 3048 0082 49       		.uleb128 0x49
 3049 0083 13       		.uleb128 0x13
 3050 0084 01       		.uleb128 0x1
 3051 0085 13       		.uleb128 0x13
 3052 0086 00       		.byte	0
 3053 0087 00       		.byte	0
 3054 0088 0B       		.uleb128 0xb
 3055 0089 21       		.uleb128 0x21
 3056 008a 00       		.byte	0
 3057 008b 49       		.uleb128 0x49
 3058 008c 13       		.uleb128 0x13
 3059 008d 2F       		.uleb128 0x2f
 3060 008e 0B       		.uleb128 0xb
 3061 008f 00       		.byte	0
 3062 0090 00       		.byte	0
 3063 0091 0C       		.uleb128 0xc
 3064 0092 0F       		.uleb128 0xf
 3065 0093 00       		.byte	0
ARM GAS  /tmp/ccUmV1P3.s 			page 55


 3066 0094 0B       		.uleb128 0xb
 3067 0095 0B       		.uleb128 0xb
 3068 0096 49       		.uleb128 0x49
 3069 0097 13       		.uleb128 0x13
 3070 0098 00       		.byte	0
 3071 0099 00       		.byte	0
 3072 009a 0D       		.uleb128 0xd
 3073 009b 26       		.uleb128 0x26
 3074 009c 00       		.byte	0
 3075 009d 49       		.uleb128 0x49
 3076 009e 13       		.uleb128 0x13
 3077 009f 00       		.byte	0
 3078 00a0 00       		.byte	0
 3079 00a1 0E       		.uleb128 0xe
 3080 00a2 0F       		.uleb128 0xf
 3081 00a3 00       		.byte	0
 3082 00a4 0B       		.uleb128 0xb
 3083 00a5 0B       		.uleb128 0xb
 3084 00a6 00       		.byte	0
 3085 00a7 00       		.byte	0
 3086 00a8 0F       		.uleb128 0xf
 3087 00a9 0D       		.uleb128 0xd
 3088 00aa 00       		.byte	0
 3089 00ab 03       		.uleb128 0x3
 3090 00ac 08       		.uleb128 0x8
 3091 00ad 3A       		.uleb128 0x3a
 3092 00ae 0B       		.uleb128 0xb
 3093 00af 3B       		.uleb128 0x3b
 3094 00b0 05       		.uleb128 0x5
 3095 00b1 49       		.uleb128 0x49
 3096 00b2 13       		.uleb128 0x13
 3097 00b3 38       		.uleb128 0x38
 3098 00b4 0A       		.uleb128 0xa
 3099 00b5 00       		.byte	0
 3100 00b6 00       		.byte	0
 3101 00b7 10       		.uleb128 0x10
 3102 00b8 13       		.uleb128 0x13
 3103 00b9 01       		.byte	0x1
 3104 00ba 03       		.uleb128 0x3
 3105 00bb 0E       		.uleb128 0xe
 3106 00bc 0B       		.uleb128 0xb
 3107 00bd 0B       		.uleb128 0xb
 3108 00be 3A       		.uleb128 0x3a
 3109 00bf 0B       		.uleb128 0xb
 3110 00c0 3B       		.uleb128 0x3b
 3111 00c1 05       		.uleb128 0x5
 3112 00c2 01       		.uleb128 0x1
 3113 00c3 13       		.uleb128 0x13
 3114 00c4 00       		.byte	0
 3115 00c5 00       		.byte	0
 3116 00c6 11       		.uleb128 0x11
 3117 00c7 35       		.uleb128 0x35
 3118 00c8 00       		.byte	0
 3119 00c9 49       		.uleb128 0x49
 3120 00ca 13       		.uleb128 0x13
 3121 00cb 00       		.byte	0
 3122 00cc 00       		.byte	0
ARM GAS  /tmp/ccUmV1P3.s 			page 56


 3123 00cd 12       		.uleb128 0x12
 3124 00ce 17       		.uleb128 0x17
 3125 00cf 01       		.byte	0x1
 3126 00d0 0B       		.uleb128 0xb
 3127 00d1 0B       		.uleb128 0xb
 3128 00d2 3A       		.uleb128 0x3a
 3129 00d3 0B       		.uleb128 0xb
 3130 00d4 3B       		.uleb128 0x3b
 3131 00d5 0B       		.uleb128 0xb
 3132 00d6 01       		.uleb128 0x1
 3133 00d7 13       		.uleb128 0x13
 3134 00d8 00       		.byte	0
 3135 00d9 00       		.byte	0
 3136 00da 13       		.uleb128 0x13
 3137 00db 0D       		.uleb128 0xd
 3138 00dc 00       		.byte	0
 3139 00dd 03       		.uleb128 0x3
 3140 00de 0E       		.uleb128 0xe
 3141 00df 3A       		.uleb128 0x3a
 3142 00e0 0B       		.uleb128 0xb
 3143 00e1 3B       		.uleb128 0x3b
 3144 00e2 0B       		.uleb128 0xb
 3145 00e3 49       		.uleb128 0x49
 3146 00e4 13       		.uleb128 0x13
 3147 00e5 00       		.byte	0
 3148 00e6 00       		.byte	0
 3149 00e7 14       		.uleb128 0x14
 3150 00e8 15       		.uleb128 0x15
 3151 00e9 01       		.byte	0x1
 3152 00ea 27       		.uleb128 0x27
 3153 00eb 0C       		.uleb128 0xc
 3154 00ec 01       		.uleb128 0x1
 3155 00ed 13       		.uleb128 0x13
 3156 00ee 00       		.byte	0
 3157 00ef 00       		.byte	0
 3158 00f0 15       		.uleb128 0x15
 3159 00f1 05       		.uleb128 0x5
 3160 00f2 00       		.byte	0
 3161 00f3 49       		.uleb128 0x49
 3162 00f4 13       		.uleb128 0x13
 3163 00f5 00       		.byte	0
 3164 00f6 00       		.byte	0
 3165 00f7 16       		.uleb128 0x16
 3166 00f8 15       		.uleb128 0x15
 3167 00f9 01       		.byte	0x1
 3168 00fa 27       		.uleb128 0x27
 3169 00fb 0C       		.uleb128 0xc
 3170 00fc 49       		.uleb128 0x49
 3171 00fd 13       		.uleb128 0x13
 3172 00fe 01       		.uleb128 0x1
 3173 00ff 13       		.uleb128 0x13
 3174 0100 00       		.byte	0
 3175 0101 00       		.byte	0
 3176 0102 17       		.uleb128 0x17
 3177 0103 16       		.uleb128 0x16
 3178 0104 00       		.byte	0
 3179 0105 03       		.uleb128 0x3
ARM GAS  /tmp/ccUmV1P3.s 			page 57


 3180 0106 0E       		.uleb128 0xe
 3181 0107 3A       		.uleb128 0x3a
 3182 0108 0B       		.uleb128 0xb
 3183 0109 3B       		.uleb128 0x3b
 3184 010a 05       		.uleb128 0x5
 3185 010b 49       		.uleb128 0x49
 3186 010c 13       		.uleb128 0x13
 3187 010d 00       		.byte	0
 3188 010e 00       		.byte	0
 3189 010f 18       		.uleb128 0x18
 3190 0110 13       		.uleb128 0x13
 3191 0111 01       		.byte	0x1
 3192 0112 0B       		.uleb128 0xb
 3193 0113 0B       		.uleb128 0xb
 3194 0114 3A       		.uleb128 0x3a
 3195 0115 0B       		.uleb128 0xb
 3196 0116 3B       		.uleb128 0x3b
 3197 0117 05       		.uleb128 0x5
 3198 0118 01       		.uleb128 0x1
 3199 0119 13       		.uleb128 0x13
 3200 011a 00       		.byte	0
 3201 011b 00       		.byte	0
 3202 011c 19       		.uleb128 0x19
 3203 011d 0D       		.uleb128 0xd
 3204 011e 00       		.byte	0
 3205 011f 03       		.uleb128 0x3
 3206 0120 0E       		.uleb128 0xe
 3207 0121 3A       		.uleb128 0x3a
 3208 0122 0B       		.uleb128 0xb
 3209 0123 3B       		.uleb128 0x3b
 3210 0124 05       		.uleb128 0x5
 3211 0125 49       		.uleb128 0x49
 3212 0126 13       		.uleb128 0x13
 3213 0127 38       		.uleb128 0x38
 3214 0128 0A       		.uleb128 0xa
 3215 0129 00       		.byte	0
 3216 012a 00       		.byte	0
 3217 012b 1A       		.uleb128 0x1a
 3218 012c 04       		.uleb128 0x4
 3219 012d 01       		.byte	0x1
 3220 012e 0B       		.uleb128 0xb
 3221 012f 0B       		.uleb128 0xb
 3222 0130 3A       		.uleb128 0x3a
 3223 0131 0B       		.uleb128 0xb
 3224 0132 3B       		.uleb128 0x3b
 3225 0133 0B       		.uleb128 0xb
 3226 0134 01       		.uleb128 0x1
 3227 0135 13       		.uleb128 0x13
 3228 0136 00       		.byte	0
 3229 0137 00       		.byte	0
 3230 0138 1B       		.uleb128 0x1b
 3231 0139 28       		.uleb128 0x28
 3232 013a 00       		.byte	0
 3233 013b 03       		.uleb128 0x3
 3234 013c 0E       		.uleb128 0xe
 3235 013d 1C       		.uleb128 0x1c
 3236 013e 0D       		.uleb128 0xd
ARM GAS  /tmp/ccUmV1P3.s 			page 58


 3237 013f 00       		.byte	0
 3238 0140 00       		.byte	0
 3239 0141 1C       		.uleb128 0x1c
 3240 0142 2E       		.uleb128 0x2e
 3241 0143 01       		.byte	0x1
 3242 0144 3F       		.uleb128 0x3f
 3243 0145 0C       		.uleb128 0xc
 3244 0146 03       		.uleb128 0x3
 3245 0147 0E       		.uleb128 0xe
 3246 0148 3A       		.uleb128 0x3a
 3247 0149 0B       		.uleb128 0xb
 3248 014a 3B       		.uleb128 0x3b
 3249 014b 0B       		.uleb128 0xb
 3250 014c 27       		.uleb128 0x27
 3251 014d 0C       		.uleb128 0xc
 3252 014e 49       		.uleb128 0x49
 3253 014f 13       		.uleb128 0x13
 3254 0150 20       		.uleb128 0x20
 3255 0151 0B       		.uleb128 0xb
 3256 0152 01       		.uleb128 0x1
 3257 0153 13       		.uleb128 0x13
 3258 0154 00       		.byte	0
 3259 0155 00       		.byte	0
 3260 0156 1D       		.uleb128 0x1d
 3261 0157 05       		.uleb128 0x5
 3262 0158 00       		.byte	0
 3263 0159 03       		.uleb128 0x3
 3264 015a 0E       		.uleb128 0xe
 3265 015b 3A       		.uleb128 0x3a
 3266 015c 0B       		.uleb128 0xb
 3267 015d 3B       		.uleb128 0x3b
 3268 015e 0B       		.uleb128 0xb
 3269 015f 49       		.uleb128 0x49
 3270 0160 13       		.uleb128 0x13
 3271 0161 00       		.byte	0
 3272 0162 00       		.byte	0
 3273 0163 1E       		.uleb128 0x1e
 3274 0164 34       		.uleb128 0x34
 3275 0165 00       		.byte	0
 3276 0166 03       		.uleb128 0x3
 3277 0167 08       		.uleb128 0x8
 3278 0168 3A       		.uleb128 0x3a
 3279 0169 0B       		.uleb128 0xb
 3280 016a 3B       		.uleb128 0x3b
 3281 016b 0B       		.uleb128 0xb
 3282 016c 49       		.uleb128 0x49
 3283 016d 13       		.uleb128 0x13
 3284 016e 00       		.byte	0
 3285 016f 00       		.byte	0
 3286 0170 1F       		.uleb128 0x1f
 3287 0171 34       		.uleb128 0x34
 3288 0172 00       		.byte	0
 3289 0173 03       		.uleb128 0x3
 3290 0174 0E       		.uleb128 0xe
 3291 0175 3A       		.uleb128 0x3a
 3292 0176 0B       		.uleb128 0xb
 3293 0177 3B       		.uleb128 0x3b
ARM GAS  /tmp/ccUmV1P3.s 			page 59


 3294 0178 0B       		.uleb128 0xb
 3295 0179 49       		.uleb128 0x49
 3296 017a 13       		.uleb128 0x13
 3297 017b 00       		.byte	0
 3298 017c 00       		.byte	0
 3299 017d 20       		.uleb128 0x20
 3300 017e 05       		.uleb128 0x5
 3301 017f 00       		.byte	0
 3302 0180 03       		.uleb128 0x3
 3303 0181 08       		.uleb128 0x8
 3304 0182 3A       		.uleb128 0x3a
 3305 0183 0B       		.uleb128 0xb
 3306 0184 3B       		.uleb128 0x3b
 3307 0185 0B       		.uleb128 0xb
 3308 0186 49       		.uleb128 0x49
 3309 0187 13       		.uleb128 0x13
 3310 0188 00       		.byte	0
 3311 0189 00       		.byte	0
 3312 018a 21       		.uleb128 0x21
 3313 018b 2E       		.uleb128 0x2e
 3314 018c 01       		.byte	0x1
 3315 018d 3F       		.uleb128 0x3f
 3316 018e 0C       		.uleb128 0xc
 3317 018f 03       		.uleb128 0x3
 3318 0190 0E       		.uleb128 0xe
 3319 0191 3A       		.uleb128 0x3a
 3320 0192 0B       		.uleb128 0xb
 3321 0193 3B       		.uleb128 0x3b
 3322 0194 0B       		.uleb128 0xb
 3323 0195 27       		.uleb128 0x27
 3324 0196 0C       		.uleb128 0xc
 3325 0197 11       		.uleb128 0x11
 3326 0198 01       		.uleb128 0x1
 3327 0199 12       		.uleb128 0x12
 3328 019a 01       		.uleb128 0x1
 3329 019b 40       		.uleb128 0x40
 3330 019c 06       		.uleb128 0x6
 3331 019d 9742     		.uleb128 0x2117
 3332 019f 0C       		.uleb128 0xc
 3333 01a0 01       		.uleb128 0x1
 3334 01a1 13       		.uleb128 0x13
 3335 01a2 00       		.byte	0
 3336 01a3 00       		.byte	0
 3337 01a4 22       		.uleb128 0x22
 3338 01a5 05       		.uleb128 0x5
 3339 01a6 00       		.byte	0
 3340 01a7 03       		.uleb128 0x3
 3341 01a8 0E       		.uleb128 0xe
 3342 01a9 3A       		.uleb128 0x3a
 3343 01aa 0B       		.uleb128 0xb
 3344 01ab 3B       		.uleb128 0x3b
 3345 01ac 0B       		.uleb128 0xb
 3346 01ad 49       		.uleb128 0x49
 3347 01ae 13       		.uleb128 0x13
 3348 01af 02       		.uleb128 0x2
 3349 01b0 06       		.uleb128 0x6
 3350 01b1 00       		.byte	0
ARM GAS  /tmp/ccUmV1P3.s 			page 60


 3351 01b2 00       		.byte	0
 3352 01b3 23       		.uleb128 0x23
 3353 01b4 898201   		.uleb128 0x4109
 3354 01b7 01       		.byte	0x1
 3355 01b8 11       		.uleb128 0x11
 3356 01b9 01       		.uleb128 0x1
 3357 01ba 31       		.uleb128 0x31
 3358 01bb 13       		.uleb128 0x13
 3359 01bc 00       		.byte	0
 3360 01bd 00       		.byte	0
 3361 01be 24       		.uleb128 0x24
 3362 01bf 8A8201   		.uleb128 0x410a
 3363 01c2 00       		.byte	0
 3364 01c3 02       		.uleb128 0x2
 3365 01c4 0A       		.uleb128 0xa
 3366 01c5 9142     		.uleb128 0x2111
 3367 01c7 0A       		.uleb128 0xa
 3368 01c8 00       		.byte	0
 3369 01c9 00       		.byte	0
 3370 01ca 25       		.uleb128 0x25
 3371 01cb 2E       		.uleb128 0x2e
 3372 01cc 01       		.byte	0x1
 3373 01cd 31       		.uleb128 0x31
 3374 01ce 13       		.uleb128 0x13
 3375 01cf 11       		.uleb128 0x11
 3376 01d0 01       		.uleb128 0x1
 3377 01d1 12       		.uleb128 0x12
 3378 01d2 01       		.uleb128 0x1
 3379 01d3 40       		.uleb128 0x40
 3380 01d4 06       		.uleb128 0x6
 3381 01d5 9742     		.uleb128 0x2117
 3382 01d7 0C       		.uleb128 0xc
 3383 01d8 01       		.uleb128 0x1
 3384 01d9 13       		.uleb128 0x13
 3385 01da 00       		.byte	0
 3386 01db 00       		.byte	0
 3387 01dc 26       		.uleb128 0x26
 3388 01dd 05       		.uleb128 0x5
 3389 01de 00       		.byte	0
 3390 01df 31       		.uleb128 0x31
 3391 01e0 13       		.uleb128 0x13
 3392 01e1 02       		.uleb128 0x2
 3393 01e2 0A       		.uleb128 0xa
 3394 01e3 00       		.byte	0
 3395 01e4 00       		.byte	0
 3396 01e5 27       		.uleb128 0x27
 3397 01e6 34       		.uleb128 0x34
 3398 01e7 00       		.byte	0
 3399 01e8 31       		.uleb128 0x31
 3400 01e9 13       		.uleb128 0x13
 3401 01ea 02       		.uleb128 0x2
 3402 01eb 0A       		.uleb128 0xa
 3403 01ec 00       		.byte	0
 3404 01ed 00       		.byte	0
 3405 01ee 28       		.uleb128 0x28
 3406 01ef 2E       		.uleb128 0x2e
 3407 01f0 01       		.byte	0x1
ARM GAS  /tmp/ccUmV1P3.s 			page 61


 3408 01f1 31       		.uleb128 0x31
 3409 01f2 13       		.uleb128 0x13
 3410 01f3 11       		.uleb128 0x11
 3411 01f4 01       		.uleb128 0x1
 3412 01f5 12       		.uleb128 0x12
 3413 01f6 01       		.uleb128 0x1
 3414 01f7 40       		.uleb128 0x40
 3415 01f8 0A       		.uleb128 0xa
 3416 01f9 9742     		.uleb128 0x2117
 3417 01fb 0C       		.uleb128 0xc
 3418 01fc 01       		.uleb128 0x1
 3419 01fd 13       		.uleb128 0x13
 3420 01fe 00       		.byte	0
 3421 01ff 00       		.byte	0
 3422 0200 29       		.uleb128 0x29
 3423 0201 05       		.uleb128 0x5
 3424 0202 00       		.byte	0
 3425 0203 31       		.uleb128 0x31
 3426 0204 13       		.uleb128 0x13
 3427 0205 02       		.uleb128 0x2
 3428 0206 06       		.uleb128 0x6
 3429 0207 00       		.byte	0
 3430 0208 00       		.byte	0
 3431 0209 2A       		.uleb128 0x2a
 3432 020a 05       		.uleb128 0x5
 3433 020b 00       		.byte	0
 3434 020c 03       		.uleb128 0x3
 3435 020d 08       		.uleb128 0x8
 3436 020e 3A       		.uleb128 0x3a
 3437 020f 0B       		.uleb128 0xb
 3438 0210 3B       		.uleb128 0x3b
 3439 0211 0B       		.uleb128 0xb
 3440 0212 49       		.uleb128 0x49
 3441 0213 13       		.uleb128 0x13
 3442 0214 02       		.uleb128 0x2
 3443 0215 06       		.uleb128 0x6
 3444 0216 00       		.byte	0
 3445 0217 00       		.byte	0
 3446 0218 2B       		.uleb128 0x2b
 3447 0219 34       		.uleb128 0x34
 3448 021a 00       		.byte	0
 3449 021b 03       		.uleb128 0x3
 3450 021c 0E       		.uleb128 0xe
 3451 021d 3A       		.uleb128 0x3a
 3452 021e 0B       		.uleb128 0xb
 3453 021f 3B       		.uleb128 0x3b
 3454 0220 0B       		.uleb128 0xb
 3455 0221 49       		.uleb128 0x49
 3456 0222 13       		.uleb128 0x13
 3457 0223 02       		.uleb128 0x2
 3458 0224 06       		.uleb128 0x6
 3459 0225 00       		.byte	0
 3460 0226 00       		.byte	0
 3461 0227 2C       		.uleb128 0x2c
 3462 0228 34       		.uleb128 0x34
 3463 0229 00       		.byte	0
 3464 022a 03       		.uleb128 0x3
ARM GAS  /tmp/ccUmV1P3.s 			page 62


 3465 022b 08       		.uleb128 0x8
 3466 022c 3A       		.uleb128 0x3a
 3467 022d 0B       		.uleb128 0xb
 3468 022e 3B       		.uleb128 0x3b
 3469 022f 0B       		.uleb128 0xb
 3470 0230 49       		.uleb128 0x49
 3471 0231 13       		.uleb128 0x13
 3472 0232 02       		.uleb128 0x2
 3473 0233 06       		.uleb128 0x6
 3474 0234 00       		.byte	0
 3475 0235 00       		.byte	0
 3476 0236 2D       		.uleb128 0x2d
 3477 0237 1D       		.uleb128 0x1d
 3478 0238 01       		.byte	0x1
 3479 0239 31       		.uleb128 0x31
 3480 023a 13       		.uleb128 0x13
 3481 023b 52       		.uleb128 0x52
 3482 023c 01       		.uleb128 0x1
 3483 023d 55       		.uleb128 0x55
 3484 023e 06       		.uleb128 0x6
 3485 023f 58       		.uleb128 0x58
 3486 0240 0B       		.uleb128 0xb
 3487 0241 59       		.uleb128 0x59
 3488 0242 0B       		.uleb128 0xb
 3489 0243 01       		.uleb128 0x1
 3490 0244 13       		.uleb128 0x13
 3491 0245 00       		.byte	0
 3492 0246 00       		.byte	0
 3493 0247 2E       		.uleb128 0x2e
 3494 0248 0B       		.uleb128 0xb
 3495 0249 01       		.byte	0x1
 3496 024a 55       		.uleb128 0x55
 3497 024b 06       		.uleb128 0x6
 3498 024c 00       		.byte	0
 3499 024d 00       		.byte	0
 3500 024e 2F       		.uleb128 0x2f
 3501 024f 34       		.uleb128 0x34
 3502 0250 00       		.byte	0
 3503 0251 31       		.uleb128 0x31
 3504 0252 13       		.uleb128 0x13
 3505 0253 02       		.uleb128 0x2
 3506 0254 06       		.uleb128 0x6
 3507 0255 00       		.byte	0
 3508 0256 00       		.byte	0
 3509 0257 30       		.uleb128 0x30
 3510 0258 1D       		.uleb128 0x1d
 3511 0259 01       		.byte	0x1
 3512 025a 31       		.uleb128 0x31
 3513 025b 13       		.uleb128 0x13
 3514 025c 11       		.uleb128 0x11
 3515 025d 01       		.uleb128 0x1
 3516 025e 12       		.uleb128 0x12
 3517 025f 01       		.uleb128 0x1
 3518 0260 58       		.uleb128 0x58
 3519 0261 0B       		.uleb128 0xb
 3520 0262 59       		.uleb128 0x59
 3521 0263 0B       		.uleb128 0xb
ARM GAS  /tmp/ccUmV1P3.s 			page 63


 3522 0264 00       		.byte	0
 3523 0265 00       		.byte	0
 3524 0266 31       		.uleb128 0x31
 3525 0267 0B       		.uleb128 0xb
 3526 0268 01       		.byte	0x1
 3527 0269 11       		.uleb128 0x11
 3528 026a 01       		.uleb128 0x1
 3529 026b 12       		.uleb128 0x12
 3530 026c 01       		.uleb128 0x1
 3531 026d 00       		.byte	0
 3532 026e 00       		.byte	0
 3533 026f 32       		.uleb128 0x32
 3534 0270 2E       		.uleb128 0x2e
 3535 0271 01       		.byte	0x1
 3536 0272 3F       		.uleb128 0x3f
 3537 0273 0C       		.uleb128 0xc
 3538 0274 03       		.uleb128 0x3
 3539 0275 0E       		.uleb128 0xe
 3540 0276 3A       		.uleb128 0x3a
 3541 0277 0B       		.uleb128 0xb
 3542 0278 3B       		.uleb128 0x3b
 3543 0279 0B       		.uleb128 0xb
 3544 027a 27       		.uleb128 0x27
 3545 027b 0C       		.uleb128 0xc
 3546 027c 11       		.uleb128 0x11
 3547 027d 01       		.uleb128 0x1
 3548 027e 12       		.uleb128 0x12
 3549 027f 01       		.uleb128 0x1
 3550 0280 40       		.uleb128 0x40
 3551 0281 0A       		.uleb128 0xa
 3552 0282 9742     		.uleb128 0x2117
 3553 0284 0C       		.uleb128 0xc
 3554 0285 01       		.uleb128 0x1
 3555 0286 13       		.uleb128 0x13
 3556 0287 00       		.byte	0
 3557 0288 00       		.byte	0
 3558 0289 33       		.uleb128 0x33
 3559 028a 898201   		.uleb128 0x4109
 3560 028d 01       		.byte	0x1
 3561 028e 11       		.uleb128 0x11
 3562 028f 01       		.uleb128 0x1
 3563 0290 9542     		.uleb128 0x2115
 3564 0292 0C       		.uleb128 0xc
 3565 0293 31       		.uleb128 0x31
 3566 0294 13       		.uleb128 0x13
 3567 0295 00       		.byte	0
 3568 0296 00       		.byte	0
 3569 0297 34       		.uleb128 0x34
 3570 0298 898201   		.uleb128 0x4109
 3571 029b 00       		.byte	0
 3572 029c 11       		.uleb128 0x11
 3573 029d 01       		.uleb128 0x1
 3574 029e 9542     		.uleb128 0x2115
 3575 02a0 0C       		.uleb128 0xc
 3576 02a1 31       		.uleb128 0x31
 3577 02a2 13       		.uleb128 0x13
 3578 02a3 00       		.byte	0
ARM GAS  /tmp/ccUmV1P3.s 			page 64


 3579 02a4 00       		.byte	0
 3580 02a5 35       		.uleb128 0x35
 3581 02a6 05       		.uleb128 0x5
 3582 02a7 00       		.byte	0
 3583 02a8 03       		.uleb128 0x3
 3584 02a9 08       		.uleb128 0x8
 3585 02aa 3A       		.uleb128 0x3a
 3586 02ab 0B       		.uleb128 0xb
 3587 02ac 3B       		.uleb128 0x3b
 3588 02ad 0B       		.uleb128 0xb
 3589 02ae 49       		.uleb128 0x49
 3590 02af 13       		.uleb128 0x13
 3591 02b0 02       		.uleb128 0x2
 3592 02b1 0A       		.uleb128 0xa
 3593 02b2 00       		.byte	0
 3594 02b3 00       		.byte	0
 3595 02b4 36       		.uleb128 0x36
 3596 02b5 05       		.uleb128 0x5
 3597 02b6 00       		.byte	0
 3598 02b7 03       		.uleb128 0x3
 3599 02b8 0E       		.uleb128 0xe
 3600 02b9 3A       		.uleb128 0x3a
 3601 02ba 0B       		.uleb128 0xb
 3602 02bb 3B       		.uleb128 0x3b
 3603 02bc 0B       		.uleb128 0xb
 3604 02bd 49       		.uleb128 0x49
 3605 02be 13       		.uleb128 0x13
 3606 02bf 02       		.uleb128 0x2
 3607 02c0 0A       		.uleb128 0xa
 3608 02c1 00       		.byte	0
 3609 02c2 00       		.byte	0
 3610 02c3 37       		.uleb128 0x37
 3611 02c4 34       		.uleb128 0x34
 3612 02c5 00       		.byte	0
 3613 02c6 03       		.uleb128 0x3
 3614 02c7 0E       		.uleb128 0xe
 3615 02c8 3A       		.uleb128 0x3a
 3616 02c9 0B       		.uleb128 0xb
 3617 02ca 3B       		.uleb128 0x3b
 3618 02cb 0B       		.uleb128 0xb
 3619 02cc 49       		.uleb128 0x49
 3620 02cd 13       		.uleb128 0x13
 3621 02ce 02       		.uleb128 0x2
 3622 02cf 0A       		.uleb128 0xa
 3623 02d0 00       		.byte	0
 3624 02d1 00       		.byte	0
 3625 02d2 38       		.uleb128 0x38
 3626 02d3 898201   		.uleb128 0x4109
 3627 02d6 01       		.byte	0x1
 3628 02d7 11       		.uleb128 0x11
 3629 02d8 01       		.uleb128 0x1
 3630 02d9 31       		.uleb128 0x31
 3631 02da 13       		.uleb128 0x13
 3632 02db 01       		.uleb128 0x1
 3633 02dc 13       		.uleb128 0x13
 3634 02dd 00       		.byte	0
 3635 02de 00       		.byte	0
ARM GAS  /tmp/ccUmV1P3.s 			page 65


 3636 02df 39       		.uleb128 0x39
 3637 02e0 34       		.uleb128 0x34
 3638 02e1 00       		.byte	0
 3639 02e2 03       		.uleb128 0x3
 3640 02e3 0E       		.uleb128 0xe
 3641 02e4 3A       		.uleb128 0x3a
 3642 02e5 0B       		.uleb128 0xb
 3643 02e6 3B       		.uleb128 0x3b
 3644 02e7 0B       		.uleb128 0xb
 3645 02e8 49       		.uleb128 0x49
 3646 02e9 13       		.uleb128 0x13
 3647 02ea 3F       		.uleb128 0x3f
 3648 02eb 0C       		.uleb128 0xc
 3649 02ec 3C       		.uleb128 0x3c
 3650 02ed 0C       		.uleb128 0xc
 3651 02ee 00       		.byte	0
 3652 02ef 00       		.byte	0
 3653 02f0 3A       		.uleb128 0x3a
 3654 02f1 34       		.uleb128 0x34
 3655 02f2 00       		.byte	0
 3656 02f3 03       		.uleb128 0x3
 3657 02f4 0E       		.uleb128 0xe
 3658 02f5 3A       		.uleb128 0x3a
 3659 02f6 0B       		.uleb128 0xb
 3660 02f7 3B       		.uleb128 0x3b
 3661 02f8 05       		.uleb128 0x5
 3662 02f9 49       		.uleb128 0x49
 3663 02fa 13       		.uleb128 0x13
 3664 02fb 3F       		.uleb128 0x3f
 3665 02fc 0C       		.uleb128 0xc
 3666 02fd 3C       		.uleb128 0x3c
 3667 02fe 0C       		.uleb128 0xc
 3668 02ff 00       		.byte	0
 3669 0300 00       		.byte	0
 3670 0301 3B       		.uleb128 0x3b
 3671 0302 34       		.uleb128 0x34
 3672 0303 00       		.byte	0
 3673 0304 03       		.uleb128 0x3
 3674 0305 08       		.uleb128 0x8
 3675 0306 3A       		.uleb128 0x3a
 3676 0307 0B       		.uleb128 0xb
 3677 0308 3B       		.uleb128 0x3b
 3678 0309 0B       		.uleb128 0xb
 3679 030a 49       		.uleb128 0x49
 3680 030b 13       		.uleb128 0x13
 3681 030c 3F       		.uleb128 0x3f
 3682 030d 0C       		.uleb128 0xc
 3683 030e 3C       		.uleb128 0x3c
 3684 030f 0C       		.uleb128 0xc
 3685 0310 00       		.byte	0
 3686 0311 00       		.byte	0
 3687 0312 3C       		.uleb128 0x3c
 3688 0313 34       		.uleb128 0x34
 3689 0314 00       		.byte	0
 3690 0315 03       		.uleb128 0x3
 3691 0316 0E       		.uleb128 0xe
 3692 0317 3A       		.uleb128 0x3a
ARM GAS  /tmp/ccUmV1P3.s 			page 66


 3693 0318 0B       		.uleb128 0xb
 3694 0319 3B       		.uleb128 0x3b
 3695 031a 0B       		.uleb128 0xb
 3696 031b 49       		.uleb128 0x49
 3697 031c 13       		.uleb128 0x13
 3698 031d 3F       		.uleb128 0x3f
 3699 031e 0C       		.uleb128 0xc
 3700 031f 02       		.uleb128 0x2
 3701 0320 0A       		.uleb128 0xa
 3702 0321 00       		.byte	0
 3703 0322 00       		.byte	0
 3704 0323 3D       		.uleb128 0x3d
 3705 0324 2E       		.uleb128 0x2e
 3706 0325 01       		.byte	0x1
 3707 0326 3F       		.uleb128 0x3f
 3708 0327 0C       		.uleb128 0xc
 3709 0328 03       		.uleb128 0x3
 3710 0329 0E       		.uleb128 0xe
 3711 032a 3A       		.uleb128 0x3a
 3712 032b 0B       		.uleb128 0xb
 3713 032c 3B       		.uleb128 0x3b
 3714 032d 05       		.uleb128 0x5
 3715 032e 27       		.uleb128 0x27
 3716 032f 0C       		.uleb128 0xc
 3717 0330 49       		.uleb128 0x49
 3718 0331 13       		.uleb128 0x13
 3719 0332 3C       		.uleb128 0x3c
 3720 0333 0C       		.uleb128 0xc
 3721 0334 01       		.uleb128 0x1
 3722 0335 13       		.uleb128 0x13
 3723 0336 00       		.byte	0
 3724 0337 00       		.byte	0
 3725 0338 3E       		.uleb128 0x3e
 3726 0339 2E       		.uleb128 0x2e
 3727 033a 01       		.byte	0x1
 3728 033b 3F       		.uleb128 0x3f
 3729 033c 0C       		.uleb128 0xc
 3730 033d 03       		.uleb128 0x3
 3731 033e 0E       		.uleb128 0xe
 3732 033f 3A       		.uleb128 0x3a
 3733 0340 0B       		.uleb128 0xb
 3734 0341 3B       		.uleb128 0x3b
 3735 0342 0B       		.uleb128 0xb
 3736 0343 27       		.uleb128 0x27
 3737 0344 0C       		.uleb128 0xc
 3738 0345 3C       		.uleb128 0x3c
 3739 0346 0C       		.uleb128 0xc
 3740 0347 01       		.uleb128 0x1
 3741 0348 13       		.uleb128 0x13
 3742 0349 00       		.byte	0
 3743 034a 00       		.byte	0
 3744 034b 3F       		.uleb128 0x3f
 3745 034c 2E       		.uleb128 0x2e
 3746 034d 00       		.byte	0
 3747 034e 3F       		.uleb128 0x3f
 3748 034f 0C       		.uleb128 0xc
 3749 0350 03       		.uleb128 0x3
ARM GAS  /tmp/ccUmV1P3.s 			page 67


 3750 0351 0E       		.uleb128 0xe
 3751 0352 3A       		.uleb128 0x3a
 3752 0353 0B       		.uleb128 0xb
 3753 0354 3B       		.uleb128 0x3b
 3754 0355 0B       		.uleb128 0xb
 3755 0356 27       		.uleb128 0x27
 3756 0357 0C       		.uleb128 0xc
 3757 0358 3C       		.uleb128 0x3c
 3758 0359 0C       		.uleb128 0xc
 3759 035a 00       		.byte	0
 3760 035b 00       		.byte	0
 3761 035c 40       		.uleb128 0x40
 3762 035d 2E       		.uleb128 0x2e
 3763 035e 01       		.byte	0x1
 3764 035f 3F       		.uleb128 0x3f
 3765 0360 0C       		.uleb128 0xc
 3766 0361 03       		.uleb128 0x3
 3767 0362 08       		.uleb128 0x8
 3768 0363 3A       		.uleb128 0x3a
 3769 0364 0B       		.uleb128 0xb
 3770 0365 3B       		.uleb128 0x3b
 3771 0366 0B       		.uleb128 0xb
 3772 0367 27       		.uleb128 0x27
 3773 0368 0C       		.uleb128 0xc
 3774 0369 3C       		.uleb128 0x3c
 3775 036a 0C       		.uleb128 0xc
 3776 036b 01       		.uleb128 0x1
 3777 036c 13       		.uleb128 0x13
 3778 036d 00       		.byte	0
 3779 036e 00       		.byte	0
 3780 036f 00       		.byte	0
 3781              		.section	.debug_loc,"",%progbits
 3782              	.Ldebug_loc0:
 3783              	.LLST0:
 3784 0000 00000000 		.4byte	.LFB62
 3785 0004 02000000 		.4byte	.LCFI0
 3786 0008 0200     		.2byte	0x2
 3787 000a 7D       		.byte	0x7d
 3788 000b 00       		.sleb128 0
 3789 000c 02000000 		.4byte	.LCFI0
 3790 0010 28000000 		.4byte	.LFE62
 3791 0014 0200     		.2byte	0x2
 3792 0016 7D       		.byte	0x7d
 3793 0017 08       		.sleb128 8
 3794 0018 00000000 		.4byte	0
 3795 001c 00000000 		.4byte	0
 3796              	.LLST1:
 3797 0020 00000000 		.4byte	.LVL0
 3798 0024 0E000000 		.4byte	.LVL2
 3799 0028 0100     		.2byte	0x1
 3800 002a 50       		.byte	0x50
 3801 002b 0E000000 		.4byte	.LVL2
 3802 002f 11000000 		.4byte	.LVL3-1
 3803 0033 0100     		.2byte	0x1
 3804 0035 51       		.byte	0x51
 3805 0036 11000000 		.4byte	.LVL3-1
 3806 003a 28000000 		.4byte	.LFE62
ARM GAS  /tmp/ccUmV1P3.s 			page 68


 3807 003e 0400     		.2byte	0x4
 3808 0040 F3       		.byte	0xf3
 3809 0041 01       		.uleb128 0x1
 3810 0042 50       		.byte	0x50
 3811 0043 9F       		.byte	0x9f
 3812 0044 00000000 		.4byte	0
 3813 0048 00000000 		.4byte	0
 3814              	.LLST2:
 3815 004c 00000000 		.4byte	.LVL0
 3816 0050 08000000 		.4byte	.LVL1
 3817 0054 0100     		.2byte	0x1
 3818 0056 51       		.byte	0x51
 3819 0057 08000000 		.4byte	.LVL1
 3820 005b 11000000 		.4byte	.LVL3-1
 3821 005f 0100     		.2byte	0x1
 3822 0061 52       		.byte	0x52
 3823 0062 11000000 		.4byte	.LVL3-1
 3824 0066 1E000000 		.4byte	.LVL4
 3825 006a 0100     		.2byte	0x1
 3826 006c 54       		.byte	0x54
 3827 006d 1E000000 		.4byte	.LVL4
 3828 0071 28000000 		.4byte	.LFE62
 3829 0075 0400     		.2byte	0x4
 3830 0077 F3       		.byte	0xf3
 3831 0078 01       		.uleb128 0x1
 3832 0079 51       		.byte	0x51
 3833 007a 9F       		.byte	0x9f
 3834 007b 00000000 		.4byte	0
 3835 007f 00000000 		.4byte	0
 3836              	.LLST3:
 3837 0083 00000000 		.4byte	.LFB63
 3838 0087 02000000 		.4byte	.LCFI1
 3839 008b 0200     		.2byte	0x2
 3840 008d 7D       		.byte	0x7d
 3841 008e 00       		.sleb128 0
 3842 008f 02000000 		.4byte	.LCFI1
 3843 0093 0A000000 		.4byte	.LFE63
 3844 0097 0200     		.2byte	0x2
 3845 0099 7D       		.byte	0x7d
 3846 009a 08       		.sleb128 8
 3847 009b 00000000 		.4byte	0
 3848 009f 00000000 		.4byte	0
 3849              	.LLST4:
 3850 00a3 00000000 		.4byte	.LFB64
 3851 00a7 04000000 		.4byte	.LCFI2
 3852 00ab 0200     		.2byte	0x2
 3853 00ad 7D       		.byte	0x7d
 3854 00ae 00       		.sleb128 0
 3855 00af 04000000 		.4byte	.LCFI2
 3856 00b3 0C000000 		.4byte	.LFE64
 3857 00b7 0200     		.2byte	0x2
 3858 00b9 7D       		.byte	0x7d
 3859 00ba 08       		.sleb128 8
 3860 00bb 00000000 		.4byte	0
 3861 00bf 00000000 		.4byte	0
 3862              	.LLST5:
 3863 00c3 00000000 		.4byte	.LFB65
ARM GAS  /tmp/ccUmV1P3.s 			page 69


 3864 00c7 0C000000 		.4byte	.LCFI3
 3865 00cb 0200     		.2byte	0x2
 3866 00cd 7D       		.byte	0x7d
 3867 00ce 00       		.sleb128 0
 3868 00cf 0C000000 		.4byte	.LCFI3
 3869 00d3 12000000 		.4byte	.LFE65
 3870 00d7 0200     		.2byte	0x2
 3871 00d9 7D       		.byte	0x7d
 3872 00da 08       		.sleb128 8
 3873 00db 00000000 		.4byte	0
 3874 00df 00000000 		.4byte	0
 3875              	.LLST6:
 3876 00e3 00000000 		.4byte	.LVL8
 3877 00e7 08000000 		.4byte	.LVL9
 3878 00eb 0100     		.2byte	0x1
 3879 00ed 50       		.byte	0x50
 3880 00ee 08000000 		.4byte	.LVL9
 3881 00f2 22000000 		.4byte	.LFE66
 3882 00f6 0400     		.2byte	0x4
 3883 00f8 F3       		.byte	0xf3
 3884 00f9 01       		.uleb128 0x1
 3885 00fa 50       		.byte	0x50
 3886 00fb 9F       		.byte	0x9f
 3887 00fc 00000000 		.4byte	0
 3888 0100 00000000 		.4byte	0
 3889              	.LLST7:
 3890 0104 00000000 		.4byte	.LVL8
 3891 0108 14000000 		.4byte	.LVL10
 3892 010c 0100     		.2byte	0x1
 3893 010e 51       		.byte	0x51
 3894 010f 14000000 		.4byte	.LVL10
 3895 0113 22000000 		.4byte	.LFE66
 3896 0117 0400     		.2byte	0x4
 3897 0119 F3       		.byte	0xf3
 3898 011a 01       		.uleb128 0x1
 3899 011b 51       		.byte	0x51
 3900 011c 9F       		.byte	0x9f
 3901 011d 00000000 		.4byte	0
 3902 0121 00000000 		.4byte	0
 3903              	.LLST8:
 3904 0125 00000000 		.4byte	.LFB67
 3905 0129 0E000000 		.4byte	.LCFI4
 3906 012d 0200     		.2byte	0x2
 3907 012f 7D       		.byte	0x7d
 3908 0130 00       		.sleb128 0
 3909 0131 0E000000 		.4byte	.LCFI4
 3910 0135 30000000 		.4byte	.LFE67
 3911 0139 0200     		.2byte	0x2
 3912 013b 7D       		.byte	0x7d
 3913 013c 04       		.sleb128 4
 3914 013d 00000000 		.4byte	0
 3915 0141 00000000 		.4byte	0
 3916              	.LLST9:
 3917 0145 00000000 		.4byte	.LVL11
 3918 0149 0C000000 		.4byte	.LVL12
 3919 014d 0100     		.2byte	0x1
 3920 014f 50       		.byte	0x50
ARM GAS  /tmp/ccUmV1P3.s 			page 70


 3921 0150 0C000000 		.4byte	.LVL12
 3922 0154 30000000 		.4byte	.LFE67
 3923 0158 0400     		.2byte	0x4
 3924 015a F3       		.byte	0xf3
 3925 015b 01       		.uleb128 0x1
 3926 015c 50       		.byte	0x50
 3927 015d 9F       		.byte	0x9f
 3928 015e 00000000 		.4byte	0
 3929 0162 00000000 		.4byte	0
 3930              	.LLST10:
 3931 0166 00000000 		.4byte	.LVL11
 3932 016a 22000000 		.4byte	.LVL13
 3933 016e 0100     		.2byte	0x1
 3934 0170 51       		.byte	0x51
 3935 0171 22000000 		.4byte	.LVL13
 3936 0175 30000000 		.4byte	.LFE67
 3937 0179 0400     		.2byte	0x4
 3938 017b F3       		.byte	0xf3
 3939 017c 01       		.uleb128 0x1
 3940 017d 51       		.byte	0x51
 3941 017e 9F       		.byte	0x9f
 3942 017f 00000000 		.4byte	0
 3943 0183 00000000 		.4byte	0
 3944              	.LLST11:
 3945 0187 00000000 		.4byte	.LVL11
 3946 018b 26000000 		.4byte	.LVL14
 3947 018f 0100     		.2byte	0x1
 3948 0191 52       		.byte	0x52
 3949 0192 26000000 		.4byte	.LVL14
 3950 0196 30000000 		.4byte	.LFE67
 3951 019a 0400     		.2byte	0x4
 3952 019c F3       		.byte	0xf3
 3953 019d 01       		.uleb128 0x1
 3954 019e 52       		.byte	0x52
 3955 019f 9F       		.byte	0x9f
 3956 01a0 00000000 		.4byte	0
 3957 01a4 00000000 		.4byte	0
 3958              	.LLST12:
 3959 01a8 00000000 		.4byte	.LVL15
 3960 01ac 04000000 		.4byte	.LVL16
 3961 01b0 0100     		.2byte	0x1
 3962 01b2 50       		.byte	0x50
 3963 01b3 04000000 		.4byte	.LVL16
 3964 01b7 2A000000 		.4byte	.LFE68
 3965 01bb 0400     		.2byte	0x4
 3966 01bd F3       		.byte	0xf3
 3967 01be 01       		.uleb128 0x1
 3968 01bf 50       		.byte	0x50
 3969 01c0 9F       		.byte	0x9f
 3970 01c1 00000000 		.4byte	0
 3971 01c5 00000000 		.4byte	0
 3972              	.LLST13:
 3973 01c9 00000000 		.4byte	.LVL15
 3974 01cd 18000000 		.4byte	.LVL17
 3975 01d1 0100     		.2byte	0x1
 3976 01d3 51       		.byte	0x51
 3977 01d4 18000000 		.4byte	.LVL17
ARM GAS  /tmp/ccUmV1P3.s 			page 71


 3978 01d8 2A000000 		.4byte	.LFE68
 3979 01dc 0400     		.2byte	0x4
 3980 01de F3       		.byte	0xf3
 3981 01df 01       		.uleb128 0x1
 3982 01e0 51       		.byte	0x51
 3983 01e1 9F       		.byte	0x9f
 3984 01e2 00000000 		.4byte	0
 3985 01e6 00000000 		.4byte	0
 3986              	.LLST14:
 3987 01ea 00000000 		.4byte	.LFB69
 3988 01ee 04000000 		.4byte	.LCFI5
 3989 01f2 0200     		.2byte	0x2
 3990 01f4 7D       		.byte	0x7d
 3991 01f5 00       		.sleb128 0
 3992 01f6 04000000 		.4byte	.LCFI5
 3993 01fa 0E000000 		.4byte	.LCFI6
 3994 01fe 0200     		.2byte	0x2
 3995 0200 7D       		.byte	0x7d
 3996 0201 20       		.sleb128 32
 3997 0202 0E000000 		.4byte	.LCFI6
 3998 0206 FE000000 		.4byte	.LFE69
 3999 020a 0300     		.2byte	0x3
 4000 020c 7D       		.byte	0x7d
 4001 020d C000     		.sleb128 64
 4002 020f 00000000 		.4byte	0
 4003 0213 00000000 		.4byte	0
 4004              	.LLST15:
 4005 0217 00000000 		.4byte	.LVL18
 4006 021b 3C000000 		.4byte	.LVL19
 4007 021f 0100     		.2byte	0x1
 4008 0221 50       		.byte	0x50
 4009 0222 3C000000 		.4byte	.LVL19
 4010 0226 FE000000 		.4byte	.LFE69
 4011 022a 0200     		.2byte	0x2
 4012 022c 91       		.byte	0x91
 4013 022d 50       		.sleb128 -48
 4014 022e 00000000 		.4byte	0
 4015 0232 00000000 		.4byte	0
 4016              	.LLST16:
 4017 0236 00000000 		.4byte	.LVL18
 4018 023a 3C000000 		.4byte	.LVL19
 4019 023e 0100     		.2byte	0x1
 4020 0240 51       		.byte	0x51
 4021 0241 3C000000 		.4byte	.LVL19
 4022 0245 FE000000 		.4byte	.LFE69
 4023 0249 0200     		.2byte	0x2
 4024 024b 91       		.byte	0x91
 4025 024c 54       		.sleb128 -44
 4026 024d 00000000 		.4byte	0
 4027 0251 00000000 		.4byte	0
 4028              	.LLST17:
 4029 0255 00000000 		.4byte	.LVL18
 4030 0259 3C000000 		.4byte	.LVL19
 4031 025d 0100     		.2byte	0x1
 4032 025f 52       		.byte	0x52
 4033 0260 3C000000 		.4byte	.LVL19
 4034 0264 FE000000 		.4byte	.LFE69
ARM GAS  /tmp/ccUmV1P3.s 			page 72


 4035 0268 0200     		.2byte	0x2
 4036 026a 91       		.byte	0x91
 4037 026b 58       		.sleb128 -40
 4038 026c 00000000 		.4byte	0
 4039 0270 00000000 		.4byte	0
 4040              	.LLST18:
 4041 0274 00000000 		.4byte	.LVL18
 4042 0278 3C000000 		.4byte	.LVL19
 4043 027c 0100     		.2byte	0x1
 4044 027e 53       		.byte	0x53
 4045 027f 3C000000 		.4byte	.LVL19
 4046 0283 FE000000 		.4byte	.LFE69
 4047 0287 0200     		.2byte	0x2
 4048 0289 91       		.byte	0x91
 4049 028a 5C       		.sleb128 -36
 4050 028b 00000000 		.4byte	0
 4051 028f 00000000 		.4byte	0
 4052              	.LLST19:
 4053 0293 68000000 		.4byte	.LVL21
 4054 0297 78000000 		.4byte	.LVL22
 4055 029b 0B00     		.2byte	0xb
 4056 029d 72       		.byte	0x72
 4057 029e 00       		.sleb128 0
 4058 029f 31       		.byte	0x31
 4059 02a0 24       		.byte	0x24
 4060 02a1 74       		.byte	0x74
 4061 02a2 00       		.sleb128 0
 4062 02a3 22       		.byte	0x22
 4063 02a4 93       		.byte	0x93
 4064 02a5 01       		.uleb128 0x1
 4065 02a6 93       		.byte	0x93
 4066 02a7 01       		.uleb128 0x1
 4067 02a8 78000000 		.4byte	.LVL22
 4068 02ac 7E000000 		.4byte	.LVL23
 4069 02b0 0600     		.2byte	0x6
 4070 02b2 71       		.byte	0x71
 4071 02b3 00       		.sleb128 0
 4072 02b4 93       		.byte	0x93
 4073 02b5 01       		.uleb128 0x1
 4074 02b6 93       		.byte	0x93
 4075 02b7 01       		.uleb128 0x1
 4076 02b8 7E000000 		.4byte	.LVL23
 4077 02bc E0000000 		.4byte	.LVL29
 4078 02c0 1400     		.2byte	0x14
 4079 02c2 72       		.byte	0x72
 4080 02c3 00       		.sleb128 0
 4081 02c4 31       		.byte	0x31
 4082 02c5 24       		.byte	0x24
 4083 02c6 74       		.byte	0x74
 4084 02c7 00       		.sleb128 0
 4085 02c8 22       		.byte	0x22
 4086 02c9 93       		.byte	0x93
 4087 02ca 01       		.uleb128 0x1
 4088 02cb 72       		.byte	0x72
 4089 02cc 00       		.sleb128 0
 4090 02cd 31       		.byte	0x31
 4091 02ce 24       		.byte	0x24
ARM GAS  /tmp/ccUmV1P3.s 			page 73


 4092 02cf 74       		.byte	0x74
 4093 02d0 00       		.sleb128 0
 4094 02d1 22       		.byte	0x22
 4095 02d2 23       		.byte	0x23
 4096 02d3 01       		.uleb128 0x1
 4097 02d4 93       		.byte	0x93
 4098 02d5 01       		.uleb128 0x1
 4099 02d6 E0000000 		.4byte	.LVL29
 4100 02da EE000000 		.4byte	.LVL31
 4101 02de 1400     		.2byte	0x14
 4102 02e0 72       		.byte	0x72
 4103 02e1 7F       		.sleb128 -1
 4104 02e2 31       		.byte	0x31
 4105 02e3 24       		.byte	0x24
 4106 02e4 74       		.byte	0x74
 4107 02e5 00       		.sleb128 0
 4108 02e6 22       		.byte	0x22
 4109 02e7 93       		.byte	0x93
 4110 02e8 01       		.uleb128 0x1
 4111 02e9 72       		.byte	0x72
 4112 02ea 7F       		.sleb128 -1
 4113 02eb 31       		.byte	0x31
 4114 02ec 24       		.byte	0x24
 4115 02ed 74       		.byte	0x74
 4116 02ee 00       		.sleb128 0
 4117 02ef 22       		.byte	0x22
 4118 02f0 23       		.byte	0x23
 4119 02f1 01       		.uleb128 0x1
 4120 02f2 93       		.byte	0x93
 4121 02f3 01       		.uleb128 0x1
 4122 02f4 00000000 		.4byte	0
 4123 02f8 00000000 		.4byte	0
 4124              	.LLST20:
 4125 02fc 00000000 		.4byte	.LVL18
 4126 0300 3C000000 		.4byte	.LVL19
 4127 0304 0200     		.2byte	0x2
 4128 0306 30       		.byte	0x30
 4129 0307 9F       		.byte	0x9f
 4130 0308 00000000 		.4byte	0
 4131 030c 00000000 		.4byte	0
 4132              	.LLST21:
 4133 0310 3C000000 		.4byte	.LVL19
 4134 0314 64000000 		.4byte	.LVL20
 4135 0318 0200     		.2byte	0x2
 4136 031a 30       		.byte	0x30
 4137 031b 9F       		.byte	0x9f
 4138 031c 00000000 		.4byte	0
 4139 0320 00000000 		.4byte	0
 4140              	.LLST22:
 4141 0324 D4000000 		.4byte	.LVL28
 4142 0328 E0000000 		.4byte	.LVL29
 4143 032c 0E00     		.2byte	0xe
 4144 032e 72       		.byte	0x72
 4145 032f 00       		.sleb128 0
 4146 0330 31       		.byte	0x31
 4147 0331 24       		.byte	0x24
 4148 0332 74       		.byte	0x74
ARM GAS  /tmp/ccUmV1P3.s 			page 74


 4149 0333 00       		.sleb128 0
 4150 0334 22       		.byte	0x22
 4151 0335 23       		.byte	0x23
 4152 0336 01       		.uleb128 0x1
 4153 0337 94       		.byte	0x94
 4154 0338 01       		.byte	0x1
 4155 0339 33       		.byte	0x33
 4156 033a 24       		.byte	0x24
 4157 033b 9F       		.byte	0x9f
 4158 033c E0000000 		.4byte	.LVL29
 4159 0340 EE000000 		.4byte	.LVL31
 4160 0344 0E00     		.2byte	0xe
 4161 0346 72       		.byte	0x72
 4162 0347 7F       		.sleb128 -1
 4163 0348 31       		.byte	0x31
 4164 0349 24       		.byte	0x24
 4165 034a 74       		.byte	0x74
 4166 034b 00       		.sleb128 0
 4167 034c 22       		.byte	0x22
 4168 034d 23       		.byte	0x23
 4169 034e 01       		.uleb128 0x1
 4170 034f 94       		.byte	0x94
 4171 0350 01       		.byte	0x1
 4172 0351 33       		.byte	0x33
 4173 0352 24       		.byte	0x24
 4174 0353 9F       		.byte	0x9f
 4175 0354 00000000 		.4byte	0
 4176 0358 00000000 		.4byte	0
 4177              	.LLST23:
 4178 035c D4000000 		.4byte	.LVL28
 4179 0360 E0000000 		.4byte	.LVL29
 4180 0364 1A00     		.2byte	0x1a
 4181 0366 72       		.byte	0x72
 4182 0367 00       		.sleb128 0
 4183 0368 31       		.byte	0x31
 4184 0369 24       		.byte	0x24
 4185 036a 74       		.byte	0x74
 4186 036b 00       		.sleb128 0
 4187 036c 22       		.byte	0x22
 4188 036d 23       		.byte	0x23
 4189 036e 01       		.uleb128 0x1
 4190 036f 94       		.byte	0x94
 4191 0370 01       		.byte	0x1
 4192 0371 35       		.byte	0x35
 4193 0372 25       		.byte	0x25
 4194 0373 72       		.byte	0x72
 4195 0374 00       		.sleb128 0
 4196 0375 31       		.byte	0x31
 4197 0376 24       		.byte	0x24
 4198 0377 74       		.byte	0x74
 4199 0378 00       		.sleb128 0
 4200 0379 22       		.byte	0x22
 4201 037a 94       		.byte	0x94
 4202 037b 01       		.byte	0x1
 4203 037c 35       		.byte	0x35
 4204 037d 24       		.byte	0x24
 4205 037e 21       		.byte	0x21
ARM GAS  /tmp/ccUmV1P3.s 			page 75


 4206 037f 9F       		.byte	0x9f
 4207 0380 E0000000 		.4byte	.LVL29
 4208 0384 EE000000 		.4byte	.LVL31
 4209 0388 1A00     		.2byte	0x1a
 4210 038a 72       		.byte	0x72
 4211 038b 7F       		.sleb128 -1
 4212 038c 31       		.byte	0x31
 4213 038d 24       		.byte	0x24
 4214 038e 74       		.byte	0x74
 4215 038f 00       		.sleb128 0
 4216 0390 22       		.byte	0x22
 4217 0391 23       		.byte	0x23
 4218 0392 01       		.uleb128 0x1
 4219 0393 94       		.byte	0x94
 4220 0394 01       		.byte	0x1
 4221 0395 35       		.byte	0x35
 4222 0396 25       		.byte	0x25
 4223 0397 72       		.byte	0x72
 4224 0398 7F       		.sleb128 -1
 4225 0399 31       		.byte	0x31
 4226 039a 24       		.byte	0x24
 4227 039b 74       		.byte	0x74
 4228 039c 00       		.sleb128 0
 4229 039d 22       		.byte	0x22
 4230 039e 94       		.byte	0x94
 4231 039f 01       		.byte	0x1
 4232 03a0 35       		.byte	0x35
 4233 03a1 24       		.byte	0x24
 4234 03a2 21       		.byte	0x21
 4235 03a3 9F       		.byte	0x9f
 4236 03a4 00000000 		.4byte	0
 4237 03a8 00000000 		.4byte	0
 4238              	.LLST24:
 4239 03ac D4000000 		.4byte	.LVL28
 4240 03b0 E0000000 		.4byte	.LVL29
 4241 03b4 0D00     		.2byte	0xd
 4242 03b6 72       		.byte	0x72
 4243 03b7 00       		.sleb128 0
 4244 03b8 31       		.byte	0x31
 4245 03b9 24       		.byte	0x24
 4246 03ba 74       		.byte	0x74
 4247 03bb 00       		.sleb128 0
 4248 03bc 22       		.byte	0x22
 4249 03bd 94       		.byte	0x94
 4250 03be 01       		.byte	0x1
 4251 03bf 09       		.byte	0x9
 4252 03c0 F8       		.byte	0xf8
 4253 03c1 1A       		.byte	0x1a
 4254 03c2 9F       		.byte	0x9f
 4255 03c3 E0000000 		.4byte	.LVL29
 4256 03c7 EE000000 		.4byte	.LVL31
 4257 03cb 0D00     		.2byte	0xd
 4258 03cd 72       		.byte	0x72
 4259 03ce 7F       		.sleb128 -1
 4260 03cf 31       		.byte	0x31
 4261 03d0 24       		.byte	0x24
 4262 03d1 74       		.byte	0x74
ARM GAS  /tmp/ccUmV1P3.s 			page 76


 4263 03d2 00       		.sleb128 0
 4264 03d3 22       		.byte	0x22
 4265 03d4 94       		.byte	0x94
 4266 03d5 01       		.byte	0x1
 4267 03d6 09       		.byte	0x9
 4268 03d7 F8       		.byte	0xf8
 4269 03d8 1A       		.byte	0x1a
 4270 03d9 9F       		.byte	0x9f
 4271 03da 00000000 		.4byte	0
 4272 03de 00000000 		.4byte	0
 4273              	.LLST25:
 4274 03e2 8A000000 		.4byte	.LVL25
 4275 03e6 B4000000 		.4byte	.LVL27
 4276 03ea 0500     		.2byte	0x5
 4277 03ec 71       		.byte	0x71
 4278 03ed 00       		.sleb128 0
 4279 03ee 33       		.byte	0x33
 4280 03ef 24       		.byte	0x24
 4281 03f0 9F       		.byte	0x9f
 4282 03f1 B4000000 		.4byte	.LVL27
 4283 03f5 E0000000 		.4byte	.LVL29
 4284 03f9 0E00     		.2byte	0xe
 4285 03fb 72       		.byte	0x72
 4286 03fc 00       		.sleb128 0
 4287 03fd 31       		.byte	0x31
 4288 03fe 24       		.byte	0x24
 4289 03ff 74       		.byte	0x74
 4290 0400 00       		.sleb128 0
 4291 0401 22       		.byte	0x22
 4292 0402 23       		.byte	0x23
 4293 0403 01       		.uleb128 0x1
 4294 0404 94       		.byte	0x94
 4295 0405 01       		.byte	0x1
 4296 0406 33       		.byte	0x33
 4297 0407 24       		.byte	0x24
 4298 0408 9F       		.byte	0x9f
 4299 0409 E0000000 		.4byte	.LVL29
 4300 040d EE000000 		.4byte	.LVL31
 4301 0411 0E00     		.2byte	0xe
 4302 0413 72       		.byte	0x72
 4303 0414 7F       		.sleb128 -1
 4304 0415 31       		.byte	0x31
 4305 0416 24       		.byte	0x24
 4306 0417 74       		.byte	0x74
 4307 0418 00       		.sleb128 0
 4308 0419 22       		.byte	0x22
 4309 041a 23       		.byte	0x23
 4310 041b 01       		.uleb128 0x1
 4311 041c 94       		.byte	0x94
 4312 041d 01       		.byte	0x1
 4313 041e 33       		.byte	0x33
 4314 041f 24       		.byte	0x24
 4315 0420 9F       		.byte	0x9f
 4316 0421 00000000 		.4byte	0
 4317 0425 00000000 		.4byte	0
 4318              	.LLST26:
 4319 0429 8A000000 		.4byte	.LVL25
ARM GAS  /tmp/ccUmV1P3.s 			page 77


 4320 042d 92000000 		.4byte	.LVL26
 4321 0431 0800     		.2byte	0x8
 4322 0433 71       		.byte	0x71
 4323 0434 00       		.sleb128 0
 4324 0435 35       		.byte	0x35
 4325 0436 25       		.byte	0x25
 4326 0437 70       		.byte	0x70
 4327 0438 00       		.sleb128 0
 4328 0439 21       		.byte	0x21
 4329 043a 9F       		.byte	0x9f
 4330 043b 92000000 		.4byte	.LVL26
 4331 043f B4000000 		.4byte	.LVL27
 4332 0443 1100     		.2byte	0x11
 4333 0445 71       		.byte	0x71
 4334 0446 00       		.sleb128 0
 4335 0447 35       		.byte	0x35
 4336 0448 25       		.byte	0x25
 4337 0449 72       		.byte	0x72
 4338 044a 00       		.sleb128 0
 4339 044b 31       		.byte	0x31
 4340 044c 24       		.byte	0x24
 4341 044d 74       		.byte	0x74
 4342 044e 00       		.sleb128 0
 4343 044f 22       		.byte	0x22
 4344 0450 94       		.byte	0x94
 4345 0451 01       		.byte	0x1
 4346 0452 35       		.byte	0x35
 4347 0453 24       		.byte	0x24
 4348 0454 21       		.byte	0x21
 4349 0455 9F       		.byte	0x9f
 4350 0456 B4000000 		.4byte	.LVL27
 4351 045a E0000000 		.4byte	.LVL29
 4352 045e 1A00     		.2byte	0x1a
 4353 0460 72       		.byte	0x72
 4354 0461 00       		.sleb128 0
 4355 0462 31       		.byte	0x31
 4356 0463 24       		.byte	0x24
 4357 0464 74       		.byte	0x74
 4358 0465 00       		.sleb128 0
 4359 0466 22       		.byte	0x22
 4360 0467 23       		.byte	0x23
 4361 0468 01       		.uleb128 0x1
 4362 0469 94       		.byte	0x94
 4363 046a 01       		.byte	0x1
 4364 046b 35       		.byte	0x35
 4365 046c 25       		.byte	0x25
 4366 046d 72       		.byte	0x72
 4367 046e 00       		.sleb128 0
 4368 046f 31       		.byte	0x31
 4369 0470 24       		.byte	0x24
 4370 0471 74       		.byte	0x74
 4371 0472 00       		.sleb128 0
 4372 0473 22       		.byte	0x22
 4373 0474 94       		.byte	0x94
 4374 0475 01       		.byte	0x1
 4375 0476 35       		.byte	0x35
 4376 0477 24       		.byte	0x24
ARM GAS  /tmp/ccUmV1P3.s 			page 78


 4377 0478 21       		.byte	0x21
 4378 0479 9F       		.byte	0x9f
 4379 047a E0000000 		.4byte	.LVL29
 4380 047e EE000000 		.4byte	.LVL31
 4381 0482 1A00     		.2byte	0x1a
 4382 0484 72       		.byte	0x72
 4383 0485 7F       		.sleb128 -1
 4384 0486 31       		.byte	0x31
 4385 0487 24       		.byte	0x24
 4386 0488 74       		.byte	0x74
 4387 0489 00       		.sleb128 0
 4388 048a 22       		.byte	0x22
 4389 048b 23       		.byte	0x23
 4390 048c 01       		.uleb128 0x1
 4391 048d 94       		.byte	0x94
 4392 048e 01       		.byte	0x1
 4393 048f 35       		.byte	0x35
 4394 0490 25       		.byte	0x25
 4395 0491 72       		.byte	0x72
 4396 0492 7F       		.sleb128 -1
 4397 0493 31       		.byte	0x31
 4398 0494 24       		.byte	0x24
 4399 0495 74       		.byte	0x74
 4400 0496 00       		.sleb128 0
 4401 0497 22       		.byte	0x22
 4402 0498 94       		.byte	0x94
 4403 0499 01       		.byte	0x1
 4404 049a 35       		.byte	0x35
 4405 049b 24       		.byte	0x24
 4406 049c 21       		.byte	0x21
 4407 049d 9F       		.byte	0x9f
 4408 049e 00000000 		.4byte	0
 4409 04a2 00000000 		.4byte	0
 4410              	.LLST27:
 4411 04a6 8A000000 		.4byte	.LVL25
 4412 04aa E0000000 		.4byte	.LVL29
 4413 04ae 0D00     		.2byte	0xd
 4414 04b0 72       		.byte	0x72
 4415 04b1 00       		.sleb128 0
 4416 04b2 31       		.byte	0x31
 4417 04b3 24       		.byte	0x24
 4418 04b4 74       		.byte	0x74
 4419 04b5 00       		.sleb128 0
 4420 04b6 22       		.byte	0x22
 4421 04b7 94       		.byte	0x94
 4422 04b8 01       		.byte	0x1
 4423 04b9 09       		.byte	0x9
 4424 04ba F8       		.byte	0xf8
 4425 04bb 1A       		.byte	0x1a
 4426 04bc 9F       		.byte	0x9f
 4427 04bd E0000000 		.4byte	.LVL29
 4428 04c1 EE000000 		.4byte	.LVL31
 4429 04c5 0D00     		.2byte	0xd
 4430 04c7 72       		.byte	0x72
 4431 04c8 7F       		.sleb128 -1
 4432 04c9 31       		.byte	0x31
 4433 04ca 24       		.byte	0x24
ARM GAS  /tmp/ccUmV1P3.s 			page 79


 4434 04cb 74       		.byte	0x74
 4435 04cc 00       		.sleb128 0
 4436 04cd 22       		.byte	0x22
 4437 04ce 94       		.byte	0x94
 4438 04cf 01       		.byte	0x1
 4439 04d0 09       		.byte	0x9
 4440 04d1 F8       		.byte	0xf8
 4441 04d2 1A       		.byte	0x1a
 4442 04d3 9F       		.byte	0x9f
 4443 04d4 00000000 		.4byte	0
 4444 04d8 00000000 		.4byte	0
 4445              	.LLST28:
 4446 04dc E2000000 		.4byte	.LVL30
 4447 04e0 EE000000 		.4byte	.LVL31
 4448 04e4 0E00     		.2byte	0xe
 4449 04e6 72       		.byte	0x72
 4450 04e7 7F       		.sleb128 -1
 4451 04e8 31       		.byte	0x31
 4452 04e9 24       		.byte	0x24
 4453 04ea 74       		.byte	0x74
 4454 04eb 00       		.sleb128 0
 4455 04ec 22       		.byte	0x22
 4456 04ed 23       		.byte	0x23
 4457 04ee 01       		.uleb128 0x1
 4458 04ef 94       		.byte	0x94
 4459 04f0 01       		.byte	0x1
 4460 04f1 33       		.byte	0x33
 4461 04f2 24       		.byte	0x24
 4462 04f3 9F       		.byte	0x9f
 4463 04f4 00000000 		.4byte	0
 4464 04f8 00000000 		.4byte	0
 4465              	.LLST29:
 4466 04fc E2000000 		.4byte	.LVL30
 4467 0500 EE000000 		.4byte	.LVL31
 4468 0504 1A00     		.2byte	0x1a
 4469 0506 72       		.byte	0x72
 4470 0507 7F       		.sleb128 -1
 4471 0508 31       		.byte	0x31
 4472 0509 24       		.byte	0x24
 4473 050a 74       		.byte	0x74
 4474 050b 00       		.sleb128 0
 4475 050c 22       		.byte	0x22
 4476 050d 23       		.byte	0x23
 4477 050e 01       		.uleb128 0x1
 4478 050f 94       		.byte	0x94
 4479 0510 01       		.byte	0x1
 4480 0511 35       		.byte	0x35
 4481 0512 25       		.byte	0x25
 4482 0513 72       		.byte	0x72
 4483 0514 7F       		.sleb128 -1
 4484 0515 31       		.byte	0x31
 4485 0516 24       		.byte	0x24
 4486 0517 74       		.byte	0x74
 4487 0518 00       		.sleb128 0
 4488 0519 22       		.byte	0x22
 4489 051a 94       		.byte	0x94
 4490 051b 01       		.byte	0x1
ARM GAS  /tmp/ccUmV1P3.s 			page 80


 4491 051c 35       		.byte	0x35
 4492 051d 24       		.byte	0x24
 4493 051e 21       		.byte	0x21
 4494 051f 9F       		.byte	0x9f
 4495 0520 00000000 		.4byte	0
 4496 0524 00000000 		.4byte	0
 4497              	.LLST30:
 4498 0528 E2000000 		.4byte	.LVL30
 4499 052c EE000000 		.4byte	.LVL31
 4500 0530 0D00     		.2byte	0xd
 4501 0532 72       		.byte	0x72
 4502 0533 7F       		.sleb128 -1
 4503 0534 31       		.byte	0x31
 4504 0535 24       		.byte	0x24
 4505 0536 74       		.byte	0x74
 4506 0537 00       		.sleb128 0
 4507 0538 22       		.byte	0x22
 4508 0539 94       		.byte	0x94
 4509 053a 01       		.byte	0x1
 4510 053b 09       		.byte	0x9
 4511 053c F8       		.byte	0xf8
 4512 053d 1A       		.byte	0x1a
 4513 053e 9F       		.byte	0x9f
 4514 053f 00000000 		.4byte	0
 4515 0543 00000000 		.4byte	0
 4516              	.LLST31:
 4517 0547 7E000000 		.4byte	.LVL23
 4518 054b E0000000 		.4byte	.LVL29
 4519 054f 1400     		.2byte	0x14
 4520 0551 72       		.byte	0x72
 4521 0552 00       		.sleb128 0
 4522 0553 31       		.byte	0x31
 4523 0554 24       		.byte	0x24
 4524 0555 74       		.byte	0x74
 4525 0556 00       		.sleb128 0
 4526 0557 22       		.byte	0x22
 4527 0558 93       		.byte	0x93
 4528 0559 01       		.uleb128 0x1
 4529 055a 72       		.byte	0x72
 4530 055b 00       		.sleb128 0
 4531 055c 31       		.byte	0x31
 4532 055d 24       		.byte	0x24
 4533 055e 74       		.byte	0x74
 4534 055f 00       		.sleb128 0
 4535 0560 22       		.byte	0x22
 4536 0561 23       		.byte	0x23
 4537 0562 01       		.uleb128 0x1
 4538 0563 93       		.byte	0x93
 4539 0564 01       		.uleb128 0x1
 4540 0565 E0000000 		.4byte	.LVL29
 4541 0569 EE000000 		.4byte	.LVL31
 4542 056d 1400     		.2byte	0x14
 4543 056f 72       		.byte	0x72
 4544 0570 7F       		.sleb128 -1
 4545 0571 31       		.byte	0x31
 4546 0572 24       		.byte	0x24
 4547 0573 74       		.byte	0x74
ARM GAS  /tmp/ccUmV1P3.s 			page 81


 4548 0574 00       		.sleb128 0
 4549 0575 22       		.byte	0x22
 4550 0576 93       		.byte	0x93
 4551 0577 01       		.uleb128 0x1
 4552 0578 72       		.byte	0x72
 4553 0579 7F       		.sleb128 -1
 4554 057a 31       		.byte	0x31
 4555 057b 24       		.byte	0x24
 4556 057c 74       		.byte	0x74
 4557 057d 00       		.sleb128 0
 4558 057e 22       		.byte	0x22
 4559 057f 23       		.byte	0x23
 4560 0580 01       		.uleb128 0x1
 4561 0581 93       		.byte	0x93
 4562 0582 01       		.uleb128 0x1
 4563 0583 00000000 		.4byte	0
 4564 0587 00000000 		.4byte	0
 4565              	.LLST33:
 4566 058b 8A000000 		.4byte	.LVL25
 4567 058f E0000000 		.4byte	.LVL29
 4568 0593 0D00     		.2byte	0xd
 4569 0595 93       		.byte	0x93
 4570 0596 01       		.uleb128 0x1
 4571 0597 72       		.byte	0x72
 4572 0598 00       		.sleb128 0
 4573 0599 31       		.byte	0x31
 4574 059a 24       		.byte	0x24
 4575 059b 74       		.byte	0x74
 4576 059c 00       		.sleb128 0
 4577 059d 22       		.byte	0x22
 4578 059e 23       		.byte	0x23
 4579 059f 01       		.uleb128 0x1
 4580 05a0 93       		.byte	0x93
 4581 05a1 01       		.uleb128 0x1
 4582 05a2 E0000000 		.4byte	.LVL29
 4583 05a6 EE000000 		.4byte	.LVL31
 4584 05aa 0D00     		.2byte	0xd
 4585 05ac 93       		.byte	0x93
 4586 05ad 01       		.uleb128 0x1
 4587 05ae 72       		.byte	0x72
 4588 05af 7F       		.sleb128 -1
 4589 05b0 31       		.byte	0x31
 4590 05b1 24       		.byte	0x24
 4591 05b2 74       		.byte	0x74
 4592 05b3 00       		.sleb128 0
 4593 05b4 22       		.byte	0x22
 4594 05b5 23       		.byte	0x23
 4595 05b6 01       		.uleb128 0x1
 4596 05b7 93       		.byte	0x93
 4597 05b8 01       		.uleb128 0x1
 4598 05b9 00000000 		.4byte	0
 4599 05bd 00000000 		.4byte	0
 4600              	.LLST35:
 4601 05c1 00000000 		.4byte	.LFB72
 4602 05c5 02000000 		.4byte	.LCFI7
 4603 05c9 0200     		.2byte	0x2
 4604 05cb 7D       		.byte	0x7d
ARM GAS  /tmp/ccUmV1P3.s 			page 82


 4605 05cc 00       		.sleb128 0
 4606 05cd 02000000 		.4byte	.LCFI7
 4607 05d1 36000000 		.4byte	.LFE72
 4608 05d5 0200     		.2byte	0x2
 4609 05d7 7D       		.byte	0x7d
 4610 05d8 10       		.sleb128 16
 4611 05d9 00000000 		.4byte	0
 4612 05dd 00000000 		.4byte	0
 4613              	.LLST36:
 4614 05e1 00000000 		.4byte	.LVL34
 4615 05e5 04000000 		.4byte	.LVL35
 4616 05e9 0100     		.2byte	0x1
 4617 05eb 51       		.byte	0x51
 4618 05ec 04000000 		.4byte	.LVL35
 4619 05f0 36000000 		.4byte	.LFE72
 4620 05f4 0400     		.2byte	0x4
 4621 05f6 F3       		.byte	0xf3
 4622 05f7 01       		.uleb128 0x1
 4623 05f8 51       		.byte	0x51
 4624 05f9 9F       		.byte	0x9f
 4625 05fa 00000000 		.4byte	0
 4626 05fe 00000000 		.4byte	0
 4627              	.LLST37:
 4628 0602 00000000 		.4byte	.LVL34
 4629 0606 04000000 		.4byte	.LVL35
 4630 060a 0200     		.2byte	0x2
 4631 060c 30       		.byte	0x30
 4632 060d 9F       		.byte	0x9f
 4633 060e 00000000 		.4byte	0
 4634 0612 00000000 		.4byte	0
 4635              	.LLST38:
 4636 0616 08000000 		.4byte	.LVL36
 4637 061a 0A000000 		.4byte	.LVL37
 4638 061e 0200     		.2byte	0x2
 4639 0620 30       		.byte	0x30
 4640 0621 9F       		.byte	0x9f
 4641 0622 00000000 		.4byte	0
 4642 0626 00000000 		.4byte	0
 4643              	.LLST39:
 4644 062a 0A000000 		.4byte	.LVL37
 4645 062e 1C000000 		.4byte	.LVL38
 4646 0632 0100     		.2byte	0x1
 4647 0634 54       		.byte	0x54
 4648 0635 1C000000 		.4byte	.LVL38
 4649 0639 22000000 		.4byte	.LVL39
 4650 063d 0300     		.2byte	0x3
 4651 063f 74       		.byte	0x74
 4652 0640 7F       		.sleb128 -1
 4653 0641 9F       		.byte	0x9f
 4654 0642 00000000 		.4byte	0
 4655 0646 00000000 		.4byte	0
 4656              	.LLST40:
 4657 064a 08000000 		.4byte	.LVL36
 4658 064e 0A000000 		.4byte	.LVL37
 4659 0652 0100     		.2byte	0x1
 4660 0654 54       		.byte	0x54
 4661 0655 0A000000 		.4byte	.LVL37
ARM GAS  /tmp/ccUmV1P3.s 			page 83


 4662 0659 28000000 		.4byte	.LVL40
 4663 065d 0600     		.2byte	0x6
 4664 065f 77       		.byte	0x77
 4665 0660 00       		.sleb128 0
 4666 0661 70       		.byte	0x70
 4667 0662 00       		.sleb128 0
 4668 0663 22       		.byte	0x22
 4669 0664 9F       		.byte	0x9f
 4670 0665 28000000 		.4byte	.LVL40
 4671 0669 2A000000 		.4byte	.LVL41
 4672 066d 0A00     		.2byte	0xa
 4673 066f 70       		.byte	0x70
 4674 0670 00       		.sleb128 0
 4675 0671 77       		.byte	0x77
 4676 0672 00       		.sleb128 0
 4677 0673 22       		.byte	0x22
 4678 0674 0A       		.byte	0xa
 4679 0675 8002     		.2byte	0x280
 4680 0677 1C       		.byte	0x1c
 4681 0678 9F       		.byte	0x9f
 4682 0679 00000000 		.4byte	0
 4683 067d 00000000 		.4byte	0
 4684              	.LLST41:
 4685 0681 00000000 		.4byte	.LFB73
 4686 0685 02000000 		.4byte	.LCFI8
 4687 0689 0200     		.2byte	0x2
 4688 068b 7D       		.byte	0x7d
 4689 068c 00       		.sleb128 0
 4690 068d 02000000 		.4byte	.LCFI8
 4691 0691 08000000 		.4byte	.LCFI9
 4692 0695 0200     		.2byte	0x2
 4693 0697 7D       		.byte	0x7d
 4694 0698 0C       		.sleb128 12
 4695 0699 08000000 		.4byte	.LCFI9
 4696 069d 6C000000 		.4byte	.LFE73
 4697 06a1 0300     		.2byte	0x3
 4698 06a3 7D       		.byte	0x7d
 4699 06a4 9004     		.sleb128 528
 4700 06a6 00000000 		.4byte	0
 4701 06aa 00000000 		.4byte	0
 4702              	.LLST42:
 4703 06ae 00000000 		.4byte	.LVL42
 4704 06b2 0A000000 		.4byte	.LVL43
 4705 06b6 0100     		.2byte	0x1
 4706 06b8 50       		.byte	0x50
 4707 06b9 0A000000 		.4byte	.LVL43
 4708 06bd 6C000000 		.4byte	.LFE73
 4709 06c1 0100     		.2byte	0x1
 4710 06c3 55       		.byte	0x55
 4711 06c4 00000000 		.4byte	0
 4712 06c8 00000000 		.4byte	0
 4713              	.LLST43:
 4714 06cc 00000000 		.4byte	.LVL42
 4715 06d0 0A000000 		.4byte	.LVL43
 4716 06d4 0200     		.2byte	0x2
 4717 06d6 30       		.byte	0x30
 4718 06d7 9F       		.byte	0x9f
ARM GAS  /tmp/ccUmV1P3.s 			page 84


 4719 06d8 54000000 		.4byte	.LVL51
 4720 06dc 6C000000 		.4byte	.LFE73
 4721 06e0 0100     		.2byte	0x1
 4722 06e2 54       		.byte	0x54
 4723 06e3 00000000 		.4byte	0
 4724 06e7 00000000 		.4byte	0
 4725              		.section	.debug_aranges,"",%progbits
 4726 0000 74000000 		.4byte	0x74
 4727 0004 0200     		.2byte	0x2
 4728 0006 00000000 		.4byte	.Ldebug_info0
 4729 000a 04       		.byte	0x4
 4730 000b 00       		.byte	0
 4731 000c 0000     		.2byte	0
 4732 000e 0000     		.2byte	0
 4733 0010 00000000 		.4byte	.LFB62
 4734 0014 28000000 		.4byte	.LFE62-.LFB62
 4735 0018 00000000 		.4byte	.LFB63
 4736 001c 0A000000 		.4byte	.LFE63-.LFB63
 4737 0020 00000000 		.4byte	.LFB64
 4738 0024 0C000000 		.4byte	.LFE64-.LFB64
 4739 0028 00000000 		.4byte	.LFB65
 4740 002c 12000000 		.4byte	.LFE65-.LFB65
 4741 0030 00000000 		.4byte	.LFB66
 4742 0034 22000000 		.4byte	.LFE66-.LFB66
 4743 0038 00000000 		.4byte	.LFB67
 4744 003c 30000000 		.4byte	.LFE67-.LFB67
 4745 0040 00000000 		.4byte	.LFB68
 4746 0044 2A000000 		.4byte	.LFE68-.LFB68
 4747 0048 00000000 		.4byte	.LFB69
 4748 004c FE000000 		.4byte	.LFE69-.LFB69
 4749 0050 00000000 		.4byte	.LFB70
 4750 0054 0C000000 		.4byte	.LFE70-.LFB70
 4751 0058 00000000 		.4byte	.LFB71
 4752 005c 04000000 		.4byte	.LFE71-.LFB71
 4753 0060 00000000 		.4byte	.LFB72
 4754 0064 36000000 		.4byte	.LFE72-.LFB72
 4755 0068 00000000 		.4byte	.LFB73
 4756 006c 6C000000 		.4byte	.LFE73-.LFB73
 4757 0070 00000000 		.4byte	0
 4758 0074 00000000 		.4byte	0
 4759              		.section	.debug_ranges,"",%progbits
 4760              	.Ldebug_ranges0:
 4761 0000 04000000 		.4byte	.LBB26
 4762 0004 0C000000 		.4byte	.LBE26
 4763 0008 1A000000 		.4byte	.LBB46
 4764 000c 22000000 		.4byte	.LBE46
 4765 0010 36000000 		.4byte	.LBB48
 4766 0014 3C000000 		.4byte	.LBE48
 4767 0018 80000000 		.4byte	.LBB63
 4768 001c 88000000 		.4byte	.LBE63
 4769 0020 8A000000 		.4byte	.LBB65
 4770 0024 8E000000 		.4byte	.LBE65
 4771 0028 92000000 		.4byte	.LBB67
 4772 002c 9A000000 		.4byte	.LBE67
 4773 0030 B4000000 		.4byte	.LBB74
 4774 0034 B8000000 		.4byte	.LBE74
 4775 0038 BE000000 		.4byte	.LBB77
ARM GAS  /tmp/ccUmV1P3.s 			page 85


 4776 003c C2000000 		.4byte	.LBE77
 4777 0040 D4000000 		.4byte	.LBB80
 4778 0044 D6000000 		.4byte	.LBE80
 4779 0048 00000000 		.4byte	0
 4780 004c 00000000 		.4byte	0
 4781 0050 0E000000 		.4byte	.LBB36
 4782 0054 16000000 		.4byte	.LBE36
 4783 0058 2E000000 		.4byte	.LBB47
 4784 005c 36000000 		.4byte	.LBE47
 4785 0060 6C000000 		.4byte	.LBB57
 4786 0064 70000000 		.4byte	.LBE57
 4787 0068 78000000 		.4byte	.LBB59
 4788 006c 7C000000 		.4byte	.LBE59
 4789 0070 8E000000 		.4byte	.LBB66
 4790 0074 92000000 		.4byte	.LBE66
 4791 0078 A2000000 		.4byte	.LBB69
 4792 007c A6000000 		.4byte	.LBE69
 4793 0080 AA000000 		.4byte	.LBB71
 4794 0084 B2000000 		.4byte	.LBE71
 4795 0088 B8000000 		.4byte	.LBB75
 4796 008c BA000000 		.4byte	.LBE75
 4797 0090 C6000000 		.4byte	.LBB79
 4798 0094 CE000000 		.4byte	.LBE79
 4799 0098 00000000 		.4byte	0
 4800 009c 00000000 		.4byte	0
 4801 00a0 68000000 		.4byte	.LBB49
 4802 00a4 6C000000 		.4byte	.LBE49
 4803 00a8 70000000 		.4byte	.LBB58
 4804 00ac 74000000 		.4byte	.LBE58
 4805 00b0 9A000000 		.4byte	.LBB68
 4806 00b4 A2000000 		.4byte	.LBE68
 4807 00b8 A6000000 		.4byte	.LBB70
 4808 00bc AA000000 		.4byte	.LBE70
 4809 00c0 BA000000 		.4byte	.LBB76
 4810 00c4 BE000000 		.4byte	.LBE76
 4811 00c8 C2000000 		.4byte	.LBB78
 4812 00cc C6000000 		.4byte	.LBE78
 4813 00d0 D6000000 		.4byte	.LBB81
 4814 00d4 D8000000 		.4byte	.LBE81
 4815 00d8 00000000 		.4byte	0
 4816 00dc 00000000 		.4byte	0
 4817 00e0 7E000000 		.4byte	.LBB60
 4818 00e4 80000000 		.4byte	.LBE60
 4819 00e8 88000000 		.4byte	.LBB64
 4820 00ec 8A000000 		.4byte	.LBE64
 4821 00f0 00000000 		.4byte	0
 4822 00f4 00000000 		.4byte	0
 4823 00f8 7E000000 		.4byte	.LBB61
 4824 00fc 80000000 		.4byte	.LBE61
 4825 0100 88000000 		.4byte	.LBB62
 4826 0104 8A000000 		.4byte	.LBE62
 4827 0108 00000000 		.4byte	0
 4828 010c 00000000 		.4byte	0
 4829 0110 00000000 		.4byte	.LFB62
 4830 0114 28000000 		.4byte	.LFE62
 4831 0118 00000000 		.4byte	.LFB63
 4832 011c 0A000000 		.4byte	.LFE63
ARM GAS  /tmp/ccUmV1P3.s 			page 86


 4833 0120 00000000 		.4byte	.LFB64
 4834 0124 0C000000 		.4byte	.LFE64
 4835 0128 00000000 		.4byte	.LFB65
 4836 012c 12000000 		.4byte	.LFE65
 4837 0130 00000000 		.4byte	.LFB66
 4838 0134 22000000 		.4byte	.LFE66
 4839 0138 00000000 		.4byte	.LFB67
 4840 013c 30000000 		.4byte	.LFE67
 4841 0140 00000000 		.4byte	.LFB68
 4842 0144 2A000000 		.4byte	.LFE68
 4843 0148 00000000 		.4byte	.LFB69
 4844 014c FE000000 		.4byte	.LFE69
 4845 0150 00000000 		.4byte	.LFB70
 4846 0154 0C000000 		.4byte	.LFE70
 4847 0158 00000000 		.4byte	.LFB71
 4848 015c 04000000 		.4byte	.LFE71
 4849 0160 00000000 		.4byte	.LFB72
 4850 0164 36000000 		.4byte	.LFE72
 4851 0168 00000000 		.4byte	.LFB73
 4852 016c 6C000000 		.4byte	.LFE73
 4853 0170 00000000 		.4byte	0
 4854 0174 00000000 		.4byte	0
 4855              		.section	.debug_line,"",%progbits
 4856              	.Ldebug_line0:
 4857 0000 B2040000 		.section	.debug_str,"MS",%progbits,1
 4857      02008E02 
 4857      00000201 
 4857      FB0E0D00 
 4857      01010101 
 4858              	.LASF18:
 4859 0000 68646362 		.ascii	"hdcbit\000"
 4859      697400
 4860              	.LASF66:
 4861 0007 7264796D 		.ascii	"rdymsg\000"
 4861      736700
 4862              	.LASF126:
 4863 000e 6A706567 		.ascii	"jpeg_close\000"
 4863      5F636C6F 
 4863      736500
 4864              	.LASF112:
 4865 0019 67657447 		.ascii	"getGreen\000"
 4865      7265656E 
 4865      00
 4866              	.LASF81:
 4867 0022 4F757470 		.ascii	"OutputQueue\000"
 4867      75745175 
 4867      65756500 
 4868              	.LASF134:
 4869 002e 52474238 		.ascii	"RGB8x8\000"
 4869      783800
 4870              	.LASF13:
 4871 0035 75696E74 		.ascii	"uint_fast16_t\000"
 4871      5F666173 
 4871      7431365F 
 4871      7400
 4872              	.LASF11:
 4873 0043 6C6F6E67 		.ascii	"long long unsigned int\000"
ARM GAS  /tmp/ccUmV1P3.s 			page 87


 4873      206C6F6E 
 4873      6720756E 
 4873      7369676E 
 4873      65642069 
 4874              	.LASF124:
 4875 005a 70697865 		.ascii	"pixel\000"
 4875      6C00
 4876              	.LASF67:
 4877 0060 65786974 		.ascii	"exitcode\000"
 4877      636F6465 
 4877      00
 4878              	.LASF113:
 4879 0069 76616C75 		.ascii	"values\000"
 4879      657300
 4880              	.LASF137:
 4881 0070 66696C65 		.ascii	"file_addr_ptr\000"
 4881      5F616464 
 4881      725F7074 
 4881      7200
 4882              	.LASF136:
 4883 007e 49544D5F 		.ascii	"ITM_RxBuffer\000"
 4883      52784275 
 4883      66666572 
 4883      00
 4884              	.LASF35:
 4885 008b 705F7072 		.ascii	"p_prio\000"
 4885      696F00
 4886              	.LASF109:
 4887 0092 72656164 		.ascii	"readt\000"
 4887      7400
 4888              	.LASF72:
 4889 0098 715F7761 		.ascii	"q_waiting\000"
 4889      6974696E 
 4889      6700
 4890              	.LASF16:
 4891 00a2 68616362 		.ascii	"hacbit\000"
 4891      697400
 4892              	.LASF10:
 4893 00a9 6C6F6E67 		.ascii	"long long int\000"
 4893      206C6F6E 
 4893      6720696E 
 4893      7400
 4894              	.LASF0:
 4895 00b7 7369676E 		.ascii	"signed char\000"
 4895      65642063 
 4895      68617200 
 4896              	.LASF89:
 4897 00c3 47545052 		.ascii	"GTPR\000"
 4897      00
 4898              	.LASF9:
 4899 00c8 6C6F6E67 		.ascii	"long unsigned int\000"
 4899      20756E73 
 4899      69676E65 
 4899      6420696E 
 4899      7400
 4900              	.LASF50:
 4901 00da 705F6D70 		.ascii	"p_mpool\000"
ARM GAS  /tmp/ccUmV1P3.s 			page 88


 4901      6F6F6C00 
 4902              	.LASF23:
 4903 00e2 626F6F6C 		.ascii	"bool_t\000"
 4903      5F7400
 4904              	.LASF57:
 4905 00e9 6D5F7175 		.ascii	"m_queue\000"
 4905      65756500 
 4906              	.LASF139:
 4907 00f1 68756666 		.ascii	"huffman_start\000"
 4907      6D616E5F 
 4907      73746172 
 4907      7400
 4908              	.LASF99:
 4909 00ff 73746174 		.ascii	"state\000"
 4909      6500
 4910              	.LASF7:
 4911 0105 6C6F6E67 		.ascii	"long int\000"
 4911      20696E74 
 4911      00
 4912              	.LASF25:
 4913 010e 74737461 		.ascii	"tstate_t\000"
 4913      74655F74 
 4913      00
 4914              	.LASF42:
 4915 0117 705F7265 		.ascii	"p_refs\000"
 4915      667300
 4916              	.LASF74:
 4917 011e 715F6275 		.ascii	"q_buffer\000"
 4917      66666572 
 4917      00
 4918              	.LASF142:
 4919 0127 2E2F656E 		.ascii	"./encoder/encoder.c\000"
 4919      636F6465 
 4919      722F656E 
 4919      636F6465 
 4919      722E6300 
 4920              	.LASF76:
 4921 013b 715F7772 		.ascii	"q_wrptr\000"
 4921      70747200 
 4922              	.LASF43:
 4923 0143 705F7469 		.ascii	"p_time\000"
 4923      6D6500
 4924              	.LASF37:
 4925 014a 705F6E65 		.ascii	"p_newer\000"
 4925      77657200 
 4926              	.LASF106:
 4927 0152 70757477 		.ascii	"putwouldblock\000"
 4927      6F756C64 
 4927      626C6F63 
 4927      6B00
 4928              	.LASF130:
 4929 0160 636F6E76 		.ascii	"convert_rows\000"
 4929      6572745F 
 4929      726F7773 
 4929      00
 4930              	.LASF53:
 4931 016d 72656761 		.ascii	"regarm_t\000"
ARM GAS  /tmp/ccUmV1P3.s 			page 89


 4931      726D5F74 
 4931      00
 4932              	.LASF22:
 4933 0176 73697A65 		.ascii	"size_t\000"
 4933      5F7400
 4934              	.LASF118:
 4935 017d 52474232 		.ascii	"RGB2Cr\000"
 4935      437200
 4936              	.LASF64:
 4937 0184 4576656E 		.ascii	"EventSource\000"
 4937      74536F75 
 4937      72636500 
 4938              	.LASF102:
 4939 0190 75736172 		.ascii	"usart\000"
 4939      7400
 4940              	.LASF12:
 4941 0196 756E7369 		.ascii	"unsigned int\000"
 4941      676E6564 
 4941      20696E74 
 4941      00
 4942              	.LASF4:
 4943 01a3 75696E74 		.ascii	"uint16_t\000"
 4943      31365F74 
 4943      00
 4944              	.LASF103:
 4945 01ac 53657269 		.ascii	"SerialDriverVMT\000"
 4945      616C4472 
 4945      69766572 
 4945      564D5400 
 4946              	.LASF115:
 4947 01bc 67657442 		.ascii	"getBlue\000"
 4947      6C756500 
 4948              	.LASF100:
 4949 01c4 69717565 		.ascii	"iqueue\000"
 4949      756500
 4950              	.LASF45:
 4951 01cb 705F6D73 		.ascii	"p_msgqueue\000"
 4951      67717565 
 4951      756500
 4952              	.LASF97:
 4953 01d6 6576656E 		.ascii	"event\000"
 4953      7400
 4954              	.LASF144:
 4955 01dc 68756666 		.ascii	"huffman_stop\000"
 4955      6D616E5F 
 4955      73746F70 
 4955      00
 4956              	.LASF121:
 4957 01e9 73697A65 		.ascii	"size\000"
 4957      00
 4958              	.LASF5:
 4959 01ee 73686F72 		.ascii	"short unsigned int\000"
 4959      7420756E 
 4959      7369676E 
 4959      65642069 
 4959      6E7400
 4960              	.LASF28:
ARM GAS  /tmp/ccUmV1P3.s 			page 90


 4961 0201 6D73675F 		.ascii	"msg_t\000"
 4961      7400
 4962              	.LASF101:
 4963 0207 6F717565 		.ascii	"oqueue\000"
 4963      756500
 4964              	.LASF91:
 4965 020e 55534152 		.ascii	"USART_TypeDef\000"
 4965      545F5479 
 4965      70654465 
 4965      6600
 4966              	.LASF108:
 4967 021c 77726974 		.ascii	"writet\000"
 4967      657400
 4968              	.LASF24:
 4969 0223 746D6F64 		.ascii	"tmode_t\000"
 4969      655F7400 
 4970              	.LASF52:
 4971 022b 54687265 		.ascii	"ThreadsList\000"
 4971      6164734C 
 4971      69737400 
 4972              	.LASF29:
 4973 0237 6576656E 		.ascii	"eventmask_t\000"
 4973      746D6173 
 4973      6B5F7400 
 4974              	.LASF80:
 4975 0243 496E7075 		.ascii	"InputQueue\000"
 4975      74517565 
 4975      756500
 4976              	.LASF131:
 4977 024e 59387838 		.ascii	"Y8x8\000"
 4977      00
 4978              	.LASF79:
 4979 0253 716E6F74 		.ascii	"qnotify_t\000"
 4979      6966795F 
 4979      7400
 4980              	.LASF71:
 4981 025d 47656E65 		.ascii	"GenericQueue\000"
 4981      72696351 
 4981      75657565 
 4981      00
 4982              	.LASF138:
 4983 026a 63684F51 		.ascii	"chOQWriteTimeout\000"
 4983      57726974 
 4983      6554696D 
 4983      656F7574 
 4983      00
 4984              	.LASF104:
 4985 027b 77726974 		.ascii	"write\000"
 4985      6500
 4986              	.LASF127:
 4987 0281 7267625F 		.ascii	"rgb_get_block\000"
 4987      6765745F 
 4987      626C6F63 
 4987      6B00
 4988              	.LASF20:
 4989 028f 73697A65 		.ascii	"sizetype\000"
 4989      74797065 
ARM GAS  /tmp/ccUmV1P3.s 			page 91


 4989      00
 4990              	.LASF73:
 4991 0298 715F636F 		.ascii	"q_counter\000"
 4991      756E7465 
 4991      7200
 4992              	.LASF56:
 4993 02a2 4D757465 		.ascii	"Mutex\000"
 4993      7800
 4994              	.LASF125:
 4995 02a8 6A706567 		.ascii	"jpeg_init\000"
 4995      5F696E69 
 4995      7400
 4996              	.LASF132:
 4997 02b2 43623878 		.ascii	"Cb8x8\000"
 4997      3800
 4998              	.LASF38:
 4999 02b8 705F6F6C 		.ascii	"p_older\000"
 4999      64657200 
 5000              	.LASF82:
 5001 02c0 696F666C 		.ascii	"ioflags_t\000"
 5001      6167735F 
 5001      7400
 5002              	.LASF51:
 5003 02ca 54687265 		.ascii	"ThreadsQueue\000"
 5003      61647351 
 5003      75657565 
 5003      00
 5004              	.LASF141:
 5005 02d7 474E5520 		.ascii	"GNU C 4.7.2\000"
 5005      4320342E 
 5005      372E3200 
 5006              	.LASF140:
 5007 02e3 68756666 		.ascii	"huffman_encode\000"
 5007      6D616E5F 
 5007      656E636F 
 5007      646500
 5008              	.LASF63:
 5009 02f2 656C5F6D 		.ascii	"el_mask\000"
 5009      61736B00 
 5010              	.LASF26:
 5011 02fa 74726566 		.ascii	"trefs_t\000"
 5011      735F7400 
 5012              	.LASF83:
 5013 0302 52455345 		.ascii	"RESERVED0\000"
 5013      52564544 
 5013      3000
 5014              	.LASF84:
 5015 030c 52455345 		.ascii	"RESERVED1\000"
 5015      52564544 
 5015      3100
 5016              	.LASF85:
 5017 0316 52455345 		.ascii	"RESERVED2\000"
 5017      52564544 
 5017      3200
 5018              	.LASF86:
 5019 0320 52455345 		.ascii	"RESERVED3\000"
 5019      52564544 
ARM GAS  /tmp/ccUmV1P3.s 			page 92


 5019      3300
 5020              	.LASF87:
 5021 032a 52455345 		.ascii	"RESERVED4\000"
 5021      52564544 
 5021      3400
 5022              	.LASF34:
 5023 0334 705F7072 		.ascii	"p_prev\000"
 5023      657600
 5024              	.LASF90:
 5025 033b 52455345 		.ascii	"RESERVED6\000"
 5025      52564544 
 5025      3600
 5026              	.LASF27:
 5027 0345 74707269 		.ascii	"tprio_t\000"
 5027      6F5F7400 
 5028              	.LASF77:
 5029 034d 715F7264 		.ascii	"q_rdptr\000"
 5029      70747200 
 5030              	.LASF6:
 5031 0355 696E7433 		.ascii	"int32_t\000"
 5031      325F7400 
 5032              	.LASF1:
 5033 035d 756E7369 		.ascii	"unsigned char\000"
 5033      676E6564 
 5033      20636861 
 5033      7200
 5034              	.LASF62:
 5035 036b 656C5F6C 		.ascii	"el_listener\000"
 5035      69737465 
 5035      6E657200 
 5036              	.LASF32:
 5037 0377 68756666 		.ascii	"huffman_s\000"
 5037      6D616E5F 
 5037      7300
 5038              	.LASF21:
 5039 0381 68756666 		.ascii	"huffman_t\000"
 5039      6D616E5F 
 5039      7400
 5040              	.LASF40:
 5041 038b 705F7374 		.ascii	"p_state\000"
 5041      61746500 
 5042              	.LASF48:
 5043 0393 705F6D74 		.ascii	"p_mtxlist\000"
 5043      786C6973 
 5043      7400
 5044              	.LASF2:
 5045 039d 73686F72 		.ascii	"short int\000"
 5045      7420696E 
 5045      7400
 5046              	.LASF135:
 5047 03a7 68756666 		.ascii	"huffman_ctx\000"
 5047      6D616E5F 
 5047      63747800 
 5048              	.LASF120:
 5049 03b3 62756666 		.ascii	"buff\000"
 5049      00
 5050              	.LASF19:
ARM GAS  /tmp/ccUmV1P3.s 			page 93


 5051 03b8 71746162 		.ascii	"qtable\000"
 5051      6C6500
 5052              	.LASF17:
 5053 03bf 6864636C 		.ascii	"hdclen\000"
 5053      656E00
 5054              	.LASF69:
 5055 03c6 65776D61 		.ascii	"ewmask\000"
 5055      736B00
 5056              	.LASF33:
 5057 03cd 705F6E65 		.ascii	"p_next\000"
 5057      787400
 5058              	.LASF41:
 5059 03d4 705F666C 		.ascii	"p_flags\000"
 5059      61677300 
 5060              	.LASF61:
 5061 03dc 656C5F6E 		.ascii	"el_next\000"
 5061      65787400 
 5062              	.LASF111:
 5063 03e4 67657452 		.ascii	"getRed\000"
 5063      656400
 5064              	.LASF93:
 5065 03eb 53445F53 		.ascii	"SD_STOP\000"
 5065      544F5000 
 5066              	.LASF31:
 5067 03f3 54687265 		.ascii	"Thread\000"
 5067      616400
 5068              	.LASF47:
 5069 03fa 705F6570 		.ascii	"p_epending\000"
 5069      656E6469 
 5069      6E6700
 5070              	.LASF92:
 5071 0405 53445F55 		.ascii	"SD_UNINIT\000"
 5071      4E494E49 
 5071      5400
 5072              	.LASF88:
 5073 040f 52455345 		.ascii	"RESERVED5\000"
 5073      52564544 
 5073      3500
 5074              	.LASF8:
 5075 0419 75696E74 		.ascii	"uint32_t\000"
 5075      33325F74 
 5075      00
 5076              	.LASF95:
 5077 0422 73647374 		.ascii	"sdstate_t\000"
 5077      6174655F 
 5077      7400
 5078              	.LASF96:
 5079 042c 53657269 		.ascii	"SerialDriver\000"
 5079      616C4472 
 5079      69766572 
 5079      00
 5080              	.LASF116:
 5081 0439 626C7565 		.ascii	"blue\000"
 5081      00
 5082              	.LASF105:
 5083 043e 72656164 		.ascii	"read\000"
 5083      00
ARM GAS  /tmp/ccUmV1P3.s 			page 94


 5084              	.LASF70:
 5085 0443 63686172 		.ascii	"char\000"
 5085      00
 5086              	.LASF143:
 5087 0448 2F686F6D 		.ascii	"/home/mitchd/Documents/FOX-1/amsat-fox/stm32l1-deve"
 5087      652F6D69 
 5087      74636864 
 5087      2F446F63 
 5087      756D656E 
 5088 047b 6C00     		.ascii	"l\000"
 5089              	.LASF133:
 5090 047d 43723878 		.ascii	"Cr8x8\000"
 5090      3800
 5091              	.LASF59:
 5092 0483 6D5F6E65 		.ascii	"m_next\000"
 5092      787400
 5093              	.LASF30:
 5094 048a 73797374 		.ascii	"systime_t\000"
 5094      696D655F 
 5094      7400
 5095              	.LASF49:
 5096 0494 705F7265 		.ascii	"p_realprio\000"
 5096      616C7072 
 5096      696F00
 5097              	.LASF15:
 5098 049f 6861636C 		.ascii	"haclen\000"
 5098      656E00
 5099              	.LASF129:
 5100 04a6 6F666673 		.ascii	"offset\000"
 5100      657400
 5101              	.LASF123:
 5102 04ad 636F6E76 		.ascii	"convert\000"
 5102      65727400 
 5103              	.LASF110:
 5104 04b5 67657466 		.ascii	"getflags\000"
 5104      6C616773 
 5104      00
 5105              	.LASF54:
 5106 04be 696E7463 		.ascii	"intctx\000"
 5106      747800
 5107              	.LASF94:
 5108 04c5 53445F52 		.ascii	"SD_READY\000"
 5108      45414459 
 5108      00
 5109              	.LASF14:
 5110 04ce 636F6C6F 		.ascii	"color\000"
 5110      7200
 5111              	.LASF75:
 5112 04d4 715F746F 		.ascii	"q_top\000"
 5112      7000
 5113              	.LASF39:
 5114 04da 705F6E61 		.ascii	"p_name\000"
 5114      6D6500
 5115              	.LASF65:
 5116 04e1 65735F6E 		.ascii	"es_next\000"
 5116      65787400 
 5117              	.LASF114:
ARM GAS  /tmp/ccUmV1P3.s 			page 95


 5118 04e9 67726565 		.ascii	"green\000"
 5118      6E00
 5119              	.LASF78:
 5120 04ef 715F6E6F 		.ascii	"q_notify\000"
 5120      74696679 
 5120      00
 5121              	.LASF46:
 5122 04f8 705F6D73 		.ascii	"p_msg\000"
 5122      6700
 5123              	.LASF122:
 5124 04fe 77726974 		.ascii	"write_jpeg\000"
 5124      655F6A70 
 5124      656700
 5125              	.LASF3:
 5126 0509 75696E74 		.ascii	"uint8_t\000"
 5126      385F7400 
 5127              	.LASF98:
 5128 0511 666C6167 		.ascii	"flags\000"
 5128      7300
 5129              	.LASF60:
 5130 0517 4576656E 		.ascii	"EventListener\000"
 5130      744C6973 
 5130      74656E65 
 5130      7200
 5131              	.LASF68:
 5132 0525 77746F62 		.ascii	"wtobjp\000"
 5132      6A7000
 5133              	.LASF55:
 5134 052c 636F6E74 		.ascii	"context\000"
 5134      65787400 
 5135              	.LASF128:
 5136 0534 696E7075 		.ascii	"input_buffer\000"
 5136      745F6275 
 5136      66666572 
 5136      00
 5137              	.LASF107:
 5138 0541 67657477 		.ascii	"getwouldblock\000"
 5138      6F756C64 
 5138      626C6F63 
 5138      6B00
 5139              	.LASF58:
 5140 054f 6D5F6F77 		.ascii	"m_owner\000"
 5140      6E657200 
 5141              	.LASF119:
 5142 0557 52474232 		.ascii	"RGB2Y\000"
 5142      5900
 5143              	.LASF36:
 5144 055d 705F6374 		.ascii	"p_ctx\000"
 5144      7800
 5145              	.LASF44:
 5146 0563 705F7761 		.ascii	"p_waiting\000"
 5146      6974696E 
 5146      6700
 5147              	.LASF117:
 5148 056d 52474232 		.ascii	"RGB2Cb\000"
 5148      436200
 5149              		.ident	"GCC: (GNU) 4.7.2"
ARM GAS  /tmp/ccUmV1P3.s 			page 96


ARM GAS  /tmp/ccUmV1P3.s 			page 97


DEFINED SYMBOLS
                            *ABS*:0000000000000000 encoder.c
     /tmp/ccUmV1P3.s:19     .text.write_jpeg:0000000000000000 $t
     /tmp/ccUmV1P3.s:25     .text.write_jpeg:0000000000000000 write_jpeg
     /tmp/ccUmV1P3.s:745    .bss.file_addr_ptr:0000000000000000 .LANCHOR0
     /tmp/ccUmV1P3.s:62     .text.write_jpeg:0000000000000024 $d
     /tmp/ccUmV1P3.s:67     .text.getRed:0000000000000000 $t
     /tmp/ccUmV1P3.s:73     .text.getRed:0000000000000000 getRed
     /tmp/ccUmV1P3.s:92     .text.getBlue:0000000000000000 $t
     /tmp/ccUmV1P3.s:98     .text.getBlue:0000000000000000 getBlue
     /tmp/ccUmV1P3.s:120    .text.getGreen:0000000000000000 $t
     /tmp/ccUmV1P3.s:126    .text.getGreen:0000000000000000 getGreen
     /tmp/ccUmV1P3.s:151    .text.RGB2Y:0000000000000000 $t
     /tmp/ccUmV1P3.s:157    .text.RGB2Y:0000000000000000 RGB2Y
     /tmp/ccUmV1P3.s:182    .text.RGB2Cb:0000000000000000 $t
     /tmp/ccUmV1P3.s:188    .text.RGB2Cb:0000000000000000 RGB2Cb
     /tmp/ccUmV1P3.s:224    .text.RGB2Cr:0000000000000000 $t
     /tmp/ccUmV1P3.s:230    .text.RGB2Cr:0000000000000000 RGB2Cr
     /tmp/ccUmV1P3.s:257    .text.convert:0000000000000000 $t
     /tmp/ccUmV1P3.s:263    .text.convert:0000000000000000 convert
     /tmp/ccUmV1P3.s:539    .text.jpeg_init:0000000000000000 $t
     /tmp/ccUmV1P3.s:545    .text.jpeg_init:0000000000000000 jpeg_init
     /tmp/ccUmV1P3.s:563    .text.jpeg_close:0000000000000000 $t
     /tmp/ccUmV1P3.s:569    .text.jpeg_close:0000000000000000 jpeg_close
     /tmp/ccUmV1P3.s:584    .text.rgb_get_block:0000000000000000 $t
     /tmp/ccUmV1P3.s:590    .text.rgb_get_block:0000000000000000 rgb_get_block
     /tmp/ccUmV1P3.s:652    .text.convert_rows:0000000000000000 $t
     /tmp/ccUmV1P3.s:658    .text.convert_rows:0000000000000000 convert_rows
     /tmp/ccUmV1P3.s:736    .text.convert_rows:0000000000000060 $d
     /tmp/ccUmV1P3.s:748    .bss.file_addr_ptr:0000000000000000 file_addr_ptr
     /tmp/ccUmV1P3.s:744    .bss.file_addr_ptr:0000000000000000 $d
                     .debug_frame:0000000000000010 $d
     /tmp/ccUmV1P3.s:66     .text.write_jpeg:0000000000000028 $t
     /tmp/ccUmV1P3.s:743    .text.convert_rows:000000000000006c $t

UNDEFINED SYMBOLS
chOQWriteTimeout
SD1
huffman_start
huffman_stop
dct
huffman_encode
huffman_ctx
