ARM GAS  /tmp/ccUmV1P3.s 			page 1


   1              		.syntax unified
   2              		.cpu cortex-m3
   3              		.fpu softvfp
   4              		.eabi_attribute 20, 1
   5              		.eabi_attribute 21, 1
   6              		.eabi_attribute 23, 3
   7              		.eabi_attribute 24, 1
   8              		.eabi_attribute 25, 1
   9              		.eabi_attribute 26, 1
  10              		.eabi_attribute 30, 2
  11              		.eabi_attribute 34, 1
  12              		.eabi_attribute 18, 4
  13              		.thumb
  14              		.file	"encoder.c"
  15              		.text
  16              	.Ltext0:
  17              		.cfi_sections	.debug_frame
  18              		.section	.text.write_jpeg,"ax",%progbits
  19              		.align	2
  20              		.p2align 4,,15
  21              		.global	write_jpeg
  22              		.thumb
  23              		.thumb_func
  24              		.type	write_jpeg, %function
  25              	write_jpeg:
  26              	.LFB62:
  27              		.file 1 "./encoder/encoder.c"
  28              		.loc 1 7 0
  29              		.cfi_startproc
  30              		@ args = 0, pretend = 0, frame = 0
  31              		@ frame_needed = 0, uses_anonymous_args = 0
  32              	.LVL0:
  33 0000 10B5     		push	{r4, lr}
  34              	.LCFI0:
  35              		.cfi_def_cfa_offset 8
  36              		.cfi_offset 4, -8
  37              		.cfi_offset 14, -4
  38              		.loc 1 7 0
  39 0002 0C46     		mov	r4, r1
  40              		.loc 1 8 0
  41 0004 2246     		mov	r2, r4
  42              		.loc 1 7 0
  43 0006 0146     		mov	r1, r0
  44              	.LVL1:
  45              		.loc 1 8 0
  46 0008 4FF0FF33 		mov	r3, #-1
  47 000c 0548     		ldr	r0, .L2
  48              	.LVL2:
  49 000e FFF7FEFF 		bl	chOQWriteTimeout
  50              	.LVL3:
  51              		.loc 1 10 0
  52 0012 40F20003 		movw	r3, #:lower16:.LANCHOR0
  53 0016 C0F20003 		movt	r3, #:upper16:.LANCHOR0
  54 001a 1A68     		ldr	r2, [r3, #0]
  55 001c A418     		adds	r4, r4, r2
  56              	.LVL4:
  57 001e 1C60     		str	r4, [r3, #0]
ARM GAS  /tmp/ccUmV1P3.s 			page 2


  58 0020 10BD     		pop	{r4, pc}
  59              	.L3:
  60 0022 00BF     		.align	2
  61              	.L2:
  62 0024 30000000 		.word	SD1+48
  63              		.cfi_endproc
  64              	.LFE62:
  65              		.size	write_jpeg, .-write_jpeg
  66 0028 AFF30080 		.section	.text.getRed,"ax",%progbits
  66      AFF30080 
  67              		.align	2
  68              		.p2align 4,,15
  69              		.global	getRed
  70              		.thumb
  71              		.thumb_func
  72              		.type	getRed, %function
  73              	getRed:
  74              	.LFB63:
  75              		.loc 1 12 0
  76              		.cfi_startproc
  77              		@ args = 0, pretend = 0, frame = 8
  78              		@ frame_needed = 0, uses_anonymous_args = 0
  79              		@ link register save eliminated.
  80 0000 82B0     		sub	sp, sp, #8
  81              	.LCFI1:
  82              		.cfi_def_cfa_offset 8
  83              	.LVL5:
  84              		.loc 1 15 0
  85 0002 00F0F800 		and	r0, r0, #248
  86 0006 02B0     		add	sp, sp, #8
  87 0008 7047     		bx	lr
  88              		.cfi_endproc
  89              	.LFE63:
  90              		.size	getRed, .-getRed
  91 000a 00BFAFF3 		.section	.text.getBlue,"ax",%progbits
  91      0080
  92              		.align	2
  93              		.p2align 4,,15
  94              		.global	getBlue
  95              		.thumb
  96              		.thumb_func
  97              		.type	getBlue, %function
  98              	getBlue:
  99              	.LFB64:
 100              		.loc 1 17 0
 101              		.cfi_startproc
 102              		@ args = 0, pretend = 0, frame = 8
 103              		@ frame_needed = 0, uses_anonymous_args = 0
 104              		@ link register save eliminated.
 105              		.loc 1 18 0
 106 0000 4009     		lsrs	r0, r0, #5
 107              		.loc 1 17 0
 108 0002 82B0     		sub	sp, sp, #8
 109              	.LCFI2:
 110              		.cfi_def_cfa_offset 8
 111              	.LVL6:
 112              		.loc 1 20 0
ARM GAS  /tmp/ccUmV1P3.s 			page 3


 113 0004 00F0F800 		and	r0, r0, #248
 114 0008 02B0     		add	sp, sp, #8
 115 000a 7047     		bx	lr
 116              		.cfi_endproc
 117              	.LFE64:
 118              		.size	getBlue, .-getBlue
 119 000c AFF30080 		.section	.text.getGreen,"ax",%progbits
 120              		.align	2
 121              		.p2align 4,,15
 122              		.global	getGreen
 123              		.thumb
 124              		.thumb_func
 125              		.type	getGreen, %function
 126              	getGreen:
 127              	.LFB65:
 128              		.loc 1 22 0
 129              		.cfi_startproc
 130              		@ args = 0, pretend = 0, frame = 8
 131              		@ frame_needed = 0, uses_anonymous_args = 0
 132              		@ link register save eliminated.
 133              		.loc 1 23 0
 134 0000 4301     		lsls	r3, r0, #5
 135 0002 03F0E003 		and	r3, r3, #224
 136              		.loc 1 24 0
 137 0006 C0F34230 		ubfx	r0, r0, #13, #3
 138              		.loc 1 22 0
 139 000a 82B0     		sub	sp, sp, #8
 140              	.LCFI3:
 141              		.cfi_def_cfa_offset 8
 142              	.LVL7:
 143              		.loc 1 26 0
 144 000c 1843     		orrs	r0, r0, r3
 145 000e 02B0     		add	sp, sp, #8
 146 0010 7047     		bx	lr
 147              		.cfi_endproc
 148              	.LFE65:
 149              		.size	getGreen, .-getGreen
 150 0012 00BFAFF3 		.section	.text.RGB2Y,"ax",%progbits
 150      0080AFF3 
 150      0080AFF3 
 150      0080
 151              		.align	2
 152              		.p2align 4,,15
 153              		.global	RGB2Y
 154              		.thumb
 155              		.thumb_func
 156              		.type	RGB2Y, %function
 157              	RGB2Y:
 158              	.LFB66:
 159              		.loc 1 28 0
 160              		.cfi_startproc
 161              		@ args = 0, pretend = 0, frame = 0
 162              		@ frame_needed = 0, uses_anonymous_args = 0
 163              		@ link register save eliminated.
 164              	.LVL8:
 165              		.loc 1 29 0
 166 0000 44F68B43 		movw	r3, #19595
ARM GAS  /tmp/ccUmV1P3.s 			page 4


 167 0004 03FB00F0 		mul	r0, r3, r0
 168              	.LVL9:
 169 0008 00F50043 		add	r3, r0, #32768
 170 000c 49F24660 		movw	r0, #38470
 171 0010 00FB0131 		mla	r1, r0, r1, r3
 172              	.LVL10:
 173 0014 41F62F50 		movw	r0, #7471
 174 0018 00FB0210 		mla	r0, r0, r2, r1
 175              		.loc 1 30 0
 176 001c C0F30740 		ubfx	r0, r0, #16, #8
 177 0020 7047     		bx	lr
 178              		.cfi_endproc
 179              	.LFE66:
 180              		.size	RGB2Y, .-RGB2Y
 181 0022 00BFAFF3 		.section	.text.RGB2Cb,"ax",%progbits
 181      0080AFF3 
 181      0080AFF3 
 181      0080
 182              		.align	2
 183              		.p2align 4,,15
 184              		.global	RGB2Cb
 185              		.thumb
 186              		.thumb_func
 187              		.type	RGB2Cb, %function
 188              	RGB2Cb:
 189              	.LFB67:
 190              		.loc 1 31 0
 191              		.cfi_startproc
 192              		@ args = 0, pretend = 0, frame = 0
 193              		@ frame_needed = 0, uses_anonymous_args = 0
 194              		@ link register save eliminated.
 195              	.LVL11:
 196              		.loc 1 32 0
 197 0000 4DF2CE43 		movw	r3, #54478
 198 0004 CFF6FF73 		movt	r3, 65535
 199 0008 03FB00F0 		mul	r0, r3, r0
 200              	.LVL12:
 201              		.loc 1 31 0
 202 000c 10B4     		push	{r4}
 203              	.LCFI4:
 204              		.cfi_def_cfa_offset 4
 205              		.cfi_offset 4, -4
 206              		.loc 1 32 0
 207 000e 00F50003 		add	r3, r0, #8388608
 208 0012 4AF63334 		movw	r4, #43827
 209 0016 03F50043 		add	r3, r3, #32768
 210 001a CFF6FF74 		movt	r4, 65535
 211 001e 04FB0131 		mla	r1, r4, r1, r3
 212              	.LVL13:
 213 0022 C2EBC232 		rsb	r2, r2, r2, lsl #15
 214              	.LVL14:
 215 0026 8818     		adds	r0, r1, r2
 216              		.loc 1 33 0
 217 0028 C0F30740 		ubfx	r0, r0, #16, #8
 218 002c 10BC     		pop	{r4}
 219 002e 7047     		bx	lr
 220              		.cfi_endproc
ARM GAS  /tmp/ccUmV1P3.s 			page 5


 221              	.LFE67:
 222              		.size	RGB2Cb, .-RGB2Cb
 223              		.section	.text.RGB2Cr,"ax",%progbits
 224              		.align	2
 225              		.p2align 4,,15
 226              		.global	RGB2Cr
 227              		.thumb
 228              		.thumb_func
 229              		.type	RGB2Cr, %function
 230              	RGB2Cr:
 231              	.LFB68:
 232              		.loc 1 34 0
 233              		.cfi_startproc
 234              		@ args = 0, pretend = 0, frame = 0
 235              		@ frame_needed = 0, uses_anonymous_args = 0
 236              		@ link register save eliminated.
 237              	.LVL15:
 238              		.loc 1 35 0
 239 0000 C0EBC030 		rsb	r0, r0, r0, lsl #15
 240              	.LVL16:
 241 0004 00F50000 		add	r0, r0, #8388608
 242 0008 49F2D243 		movw	r3, #38098
 243 000c 00F50040 		add	r0, r0, #32768
 244 0010 CFF6FF73 		movt	r3, 65535
 245 0014 03FB0101 		mla	r1, r3, r1, r0
 246              	.LVL17:
 247 0018 4EF62F30 		movw	r0, #60207
 248 001c CFF6FF70 		movt	r0, 65535
 249 0020 00FB0210 		mla	r0, r0, r2, r1
 250              		.loc 1 36 0
 251 0024 C0F30740 		ubfx	r0, r0, #16, #8
 252 0028 7047     		bx	lr
 253              		.cfi_endproc
 254              	.LFE68:
 255              		.size	RGB2Cr, .-RGB2Cr
 256 002a 00BFAFF3 		.section	.text.convert,"ax",%progbits
 256      0080
 257              		.align	2
 258              		.p2align 4,,15
 259              		.global	convert
 260              		.thumb
 261              		.thumb_func
 262              		.type	convert, %function
 263              	convert:
 264              	.LFB69:
 265              		.loc 1 40 0
 266              		.cfi_startproc
 267              		@ args = 0, pretend = 0, frame = 32
 268              		@ frame_needed = 0, uses_anonymous_args = 0
 269              		@ link register save eliminated.
 270              	.LVL18:
 271 0000 2DE9F00F 		push	{r4, r5, r6, r7, r8, r9, sl, fp}
 272              	.LCFI5:
 273              		.cfi_def_cfa_offset 32
 274              		.cfi_offset 4, -32
 275              		.cfi_offset 5, -28
 276              		.cfi_offset 6, -24
ARM GAS  /tmp/ccUmV1P3.s 			page 6


 277              		.cfi_offset 7, -20
 278              		.cfi_offset 8, -16
 279              		.cfi_offset 9, -12
 280              		.cfi_offset 10, -8
 281              		.cfi_offset 11, -4
 282              	.LBB26:
 283              	.LBB27:
 284              		.loc 1 35 0
 285 0004 49F2D244 		movw	r4, #38098
 286 0008 4EF62F38 		movw	r8, #60207
 287              	.LBE27:
 288              	.LBE26:
 289              		.loc 1 40 0
 290 000c 88B0     		sub	sp, sp, #32
 291              	.LCFI6:
 292              		.cfi_def_cfa_offset 64
 293              	.LBB36:
 294              	.LBB37:
 295              		.loc 1 32 0
 296 000e 4DF2CE4C 		movw	ip, #54478
 297 0012 4AF63337 		movw	r7, #43827
 298              	.LBE37:
 299              	.LBE36:
 300              		.loc 1 40 0
 301 0016 4FF0000A 		mov	sl, #0
 302              	.LBB46:
 303              	.LBB28:
 304              		.loc 1 35 0
 305 001a CFF6FF74 		movt	r4, 65535
 306 001e CFF6FF78 		movt	r8, 65535
 307              	.LBE28:
 308              	.LBE46:
 309              		.loc 1 40 0
 310 0022 0490     		str	r0, [sp, #16]
 311 0024 0591     		str	r1, [sp, #20]
 312 0026 0692     		str	r2, [sp, #24]
 313 0028 0793     		str	r3, [sp, #28]
 314 002a CDF80CA0 		str	sl, [sp, #12]
 315              	.LBB47:
 316              	.LBB38:
 317              		.loc 1 32 0
 318 002e CFF6FF7C 		movt	ip, 65535
 319 0032 CFF6FF77 		movt	r7, 65535
 320              	.LBE38:
 321              	.LBE47:
 322              	.LBB48:
 323              	.LBB29:
 324              		.loc 1 35 0
 325 0036 0194     		str	r4, [sp, #4]
 326 0038 CDF80880 		str	r8, [sp, #8]
 327              	.LVL19:
 328              	.L11:
 329              	.LBE29:
 330              	.LBE48:
 331              		.loc 1 40 0 discriminator 1
 332 003c DDF80CA0 		ldr	sl, [sp, #12]
 333 0040 DDF81080 		ldr	r8, [sp, #16]
ARM GAS  /tmp/ccUmV1P3.s 			page 7


 334 0044 0699     		ldr	r1, [sp, #24]
 335 0046 079A     		ldr	r2, [sp, #28]
 336 0048 08EB0A04 		add	r4, r8, sl
 337 004c 01EB0A0B 		add	fp, r1, sl
 338 0050 DDF81480 		ldr	r8, [sp, #20]
 339 0054 0399     		ldr	r1, [sp, #12]
 340 0056 9244     		add	sl, r2, sl
 341 0058 0023     		movs	r3, #0
 342 005a 08EB0109 		add	r9, r8, r1
 343 005e 1A46     		mov	r2, r3
 344 0060 CDF800A0 		str	sl, [sp, #0]
 345              	.LVL20:
 346              	.L12:
 347              		.loc 1 45 0 discriminator 2
 348 0064 14F81200 		ldrb	r0, [r4, r2, lsl #1]	@ zero_extendqisi2
 349              	.LVL21:
 350              	.LBB49:
 351              	.LBB50:
 352              		.loc 1 29 0 discriminator 2
 353 0068 44F68B48 		movw	r8, #19595
 354              	.LBE50:
 355              	.LBE49:
 356              	.LBB57:
 357              	.LBB39:
 358              		.loc 1 32 0 discriminator 2
 359 006c 00F0F806 		and	r6, r0, #248
 360              	.LBE39:
 361              	.LBE57:
 362              	.LBB58:
 363              	.LBB51:
 364              		.loc 1 29 0 discriminator 2
 365 0070 08FB06F5 		mul	r5, r8, r6
 366              	.LBE51:
 367              	.LBE58:
 368              		.loc 1 45 0 discriminator 2
 369 0074 04EB4201 		add	r1, r4, r2, lsl #1
 370              	.LVL22:
 371              	.LBB59:
 372              	.LBB40:
 373              		.loc 1 32 0 discriminator 2
 374 0078 0CFB06F8 		mul	r8, ip, r6
 375              	.LBE40:
 376              	.LBE59:
 377              		.loc 1 45 0 discriminator 2
 378 007c 4978     		ldrb	r1, [r1, #1]	@ zero_extendqisi2
 379              	.LVL23:
 380              	.LBB60:
 381              	.LBB61:
 382              		.loc 1 23 0 discriminator 2
 383 007e 4001     		lsls	r0, r0, #5
 384              	.LVL24:
 385              	.LBE61:
 386              	.LBE60:
 387              	.LBB63:
 388              	.LBB30:
 389              		.loc 1 35 0 discriminator 2
 390 0080 C6EBC636 		rsb	r6, r6, r6, lsl #15
ARM GAS  /tmp/ccUmV1P3.s 			page 8


 391 0084 DDF804A0 		ldr	sl, [sp, #4]
 392              	.LBE30:
 393              	.LBE63:
 394              	.LBB64:
 395              	.LBB62:
 396              		.loc 1 23 0 discriminator 2
 397 0088 C0B2     		uxtb	r0, r0
 398              	.LVL25:
 399              	.LBE62:
 400              	.LBE64:
 401              	.LBB65:
 402              	.LBB31:
 403              		.loc 1 35 0 discriminator 2
 404 008a 06F50006 		add	r6, r6, #8388608
 405              	.LBE31:
 406              	.LBE65:
 407              	.LBB66:
 408              	.LBB41:
 409              		.loc 1 32 0 discriminator 2
 410 008e 40EA5110 		orr	r0, r0, r1, lsr #5
 411              	.LVL26:
 412              	.LBE41:
 413              	.LBE66:
 414              	.LBB67:
 415              	.LBB32:
 416              		.loc 1 35 0 discriminator 2
 417 0092 06F50046 		add	r6, r6, #32768
 418 0096 0AFB0066 		mla	r6, sl, r0, r6
 419              	.LBE32:
 420              	.LBE67:
 421              	.LBB68:
 422              	.LBB52:
 423              		.loc 1 29 0 discriminator 2
 424 009a 05F50045 		add	r5, r5, #32768
 425 009e 49F2466A 		movw	sl, #38470
 426              	.LBE52:
 427              	.LBE68:
 428              	.LBB69:
 429              	.LBB42:
 430              		.loc 1 32 0 discriminator 2
 431 00a2 08F50008 		add	r8, r8, #8388608
 432              	.LBE42:
 433              	.LBE69:
 434              	.LBB70:
 435              	.LBB53:
 436              		.loc 1 29 0 discriminator 2
 437 00a6 0AFB0055 		mla	r5, sl, r0, r5
 438              	.LBE53:
 439              	.LBE70:
 440              	.LBB71:
 441              	.LBB43:
 442              		.loc 1 32 0 discriminator 2
 443 00aa 08F50048 		add	r8, r8, #32768
 444 00ae 07FB0080 		mla	r0, r7, r0, r8
 445              	.LBE43:
 446              	.LBE71:
 447              	.LBB72:
ARM GAS  /tmp/ccUmV1P3.s 			page 9


 448              	.LBB73:
 449              		.loc 1 18 0 discriminator 2
 450 00b2 C900     		lsls	r1, r1, #3
 451              	.LVL27:
 452              	.LBE73:
 453              	.LBE72:
 454              	.LBB74:
 455              	.LBB33:
 456              		.loc 1 35 0 discriminator 2
 457 00b4 DDF80880 		ldr	r8, [sp, #8]
 458              	.LBE33:
 459              	.LBE74:
 460              	.LBB75:
 461              	.LBB44:
 462              		.loc 1 32 0 discriminator 2
 463 00b8 C9B2     		uxtb	r1, r1
 464              	.LBE44:
 465              	.LBE75:
 466              	.LBB76:
 467              	.LBB54:
 468              		.loc 1 29 0 discriminator 2
 469 00ba 41F62F5A 		movw	sl, #7471
 470              	.LBE54:
 471              	.LBE76:
 472              	.LBB77:
 473              	.LBB34:
 474              		.loc 1 35 0 discriminator 2
 475 00be 08FB0166 		mla	r6, r8, r1, r6
 476              	.LBE34:
 477              	.LBE77:
 478              	.LBB78:
 479              	.LBB55:
 480              		.loc 1 29 0 discriminator 2
 481 00c2 0AFB0155 		mla	r5, sl, r1, r5
 482              	.LBE55:
 483              	.LBE78:
 484              	.LBB79:
 485              	.LBB45:
 486              		.loc 1 32 0 discriminator 2
 487 00c6 C1EBC131 		rsb	r1, r1, r1, lsl #15
 488 00ca 4118     		adds	r1, r0, r1
 489 00cc 0914     		asrs	r1, r1, #16
 490              	.LBE45:
 491              	.LBE79:
 492              		.loc 1 46 0 discriminator 2
 493 00ce 8039     		subs	r1, r1, #128
 494 00d0 2BF80310 		strh	r1, [fp, r3]	@ movhi
 495              	.LVL28:
 496              	.LBB80:
 497              	.LBB35:
 498              		.loc 1 35 0 discriminator 2
 499 00d4 3614     		asrs	r6, r6, #16
 500              	.LBE35:
 501              	.LBE80:
 502              	.LBB81:
 503              	.LBB56:
 504              		.loc 1 29 0 discriminator 2
ARM GAS  /tmp/ccUmV1P3.s 			page 10


 505 00d6 2D14     		asrs	r5, r5, #16
 506              	.LBE56:
 507              	.LBE81:
 508              		.loc 1 47 0 discriminator 2
 509 00d8 0099     		ldr	r1, [sp, #0]
 510 00da 803E     		subs	r6, r6, #128
 511              		.loc 1 48 0 discriminator 2
 512 00dc 803D     		subs	r5, r5, #128
 513 00de 0132     		adds	r2, r2, #1
 514              	.LVL29:
 515              		.loc 1 47 0 discriminator 2
 516 00e0 CE52     		strh	r6, [r1, r3]	@ movhi
 517              	.LVL30:
 518              		.loc 1 48 0 discriminator 2
 519 00e2 29F80350 		strh	r5, [r9, r3]	@ movhi
 520 00e6 0233     		adds	r3, r3, #2
 521              		.loc 1 44 0 discriminator 2
 522 00e8 082A     		cmp	r2, #8
 523 00ea BBD1     		bne	.L12
 524 00ec 039A     		ldr	r2, [sp, #12]
 525              	.LVL31:
 526 00ee 1032     		adds	r2, r2, #16
 527              		.loc 1 43 0
 528 00f0 802A     		cmp	r2, #128
 529 00f2 0392     		str	r2, [sp, #12]
 530 00f4 A2D1     		bne	.L11
 531              		.loc 1 50 0
 532 00f6 08B0     		add	sp, sp, #32
 533 00f8 BDE8F00F 		pop	{r4, r5, r6, r7, r8, r9, sl, fp}
 534 00fc 7047     		bx	lr
 535              		.cfi_endproc
 536              	.LFE69:
 537              		.size	convert, .-convert
 538 00fe 00BF     		.section	.text.jpeg_init,"ax",%progbits
 539              		.align	2
 540              		.p2align 4,,15
 541              		.global	jpeg_init
 542              		.thumb
 543              		.thumb_func
 544              		.type	jpeg_init, %function
 545              	jpeg_init:
 546              	.LFB70:
 547              		.loc 1 52 0
 548              		.cfi_startproc
 549              		@ args = 0, pretend = 0, frame = 0
 550              		@ frame_needed = 0, uses_anonymous_args = 0
 551              		@ link register save eliminated.
 552              		.loc 1 53 0
 553 0000 4FF4F070 		mov	r0, #480
 554 0004 4FF42071 		mov	r1, #640
 555              		.loc 1 54 0
 556              		.loc 1 53 0
 557 0008 FFF7FEBF 		b	huffman_start
 558              	.LVL32:
 559              		.cfi_endproc
 560              	.LFE70:
 561              		.size	jpeg_init, .-jpeg_init
ARM GAS  /tmp/ccUmV1P3.s 			page 11


 562 000c AFF30080 		.section	.text.jpeg_close,"ax",%progbits
 563              		.align	2
 564              		.p2align 4,,15
 565              		.global	jpeg_close
 566              		.thumb
 567              		.thumb_func
 568              		.type	jpeg_close, %function
 569              	jpeg_close:
 570              	.LFB71:
 571              		.loc 1 56 0
 572              		.cfi_startproc
 573              		@ args = 0, pretend = 0, frame = 0
 574              		@ frame_needed = 0, uses_anonymous_args = 0
 575              		@ link register save eliminated.
 576              		.loc 1 58 0
 577              		.loc 1 57 0
 578 0000 FFF7FEBF 		b	huffman_stop
 579              	.LVL33:
 580              		.cfi_endproc
 581              	.LFE71:
 582              		.size	jpeg_close, .-jpeg_close
 583 0004 AFF30080 		.section	.text.rgb_get_block,"ax",%progbits
 583      AFF30080 
 583      AFF30080 
 584              		.align	2
 585              		.p2align 4,,15
 586              		.global	rgb_get_block
 587              		.thumb
 588              		.thumb_func
 589              		.type	rgb_get_block, %function
 590              	rgb_get_block:
 591              	.LFB72:
 592              		.loc 1 60 0
 593              		.cfi_startproc
 594              		@ args = 0, pretend = 0, frame = 0
 595              		@ frame_needed = 0, uses_anonymous_args = 0
 596              		@ link register save eliminated.
 597              	.LVL34:
 598 0000 F0B4     		push	{r4, r5, r6, r7}
 599              	.LCFI7:
 600              		.cfi_def_cfa_offset 16
 601              		.cfi_offset 4, -16
 602              		.cfi_offset 5, -12
 603              		.cfi_offset 6, -8
 604              		.cfi_offset 7, -4
 605              		.loc 1 60 0
 606 0002 0027     		movs	r7, #0
 607              	.LVL35:
 608              	.L21:
 609              		.loc 1 64 0
 610 0004 3C18     		adds	r4, r7, r0
 611 0006 A4B2     		uxth	r4, r4
 612              	.LVL36:
 613 0008 0023     		movs	r3, #0
 614              	.LVL37:
 615              	.L20:
 616              		.loc 1 67 0 discriminator 2
ARM GAS  /tmp/ccUmV1P3.s 			page 12


 617 000a 12F81460 		ldrb	r6, [r2, r4, lsl #1]	@ zero_extendqisi2
 618              		.loc 1 68 0 discriminator 2
 619 000e 02EB4405 		add	r5, r2, r4, lsl #1
 620              		.loc 1 67 0 discriminator 2
 621 0012 CE54     		strb	r6, [r1, r3]
 622              		.loc 1 68 0 discriminator 2
 623 0014 6E78     		ldrb	r6, [r5, #1]	@ zero_extendqisi2
 624              		.loc 1 60 0 discriminator 2
 625 0016 CD18     		adds	r5, r1, r3
 626 0018 0233     		adds	r3, r3, #2
 627 001a 0134     		adds	r4, r4, #1
 628              	.LVL38:
 629              		.loc 1 65 0 discriminator 2
 630 001c 102B     		cmp	r3, #16
 631              		.loc 1 68 0 discriminator 2
 632 001e 6E70     		strb	r6, [r5, #1]
 633 0020 A4B2     		uxth	r4, r4
 634              	.LVL39:
 635              		.loc 1 65 0 discriminator 2
 636 0022 F2D1     		bne	.L20
 637 0024 07F52077 		add	r7, r7, #640
 638              	.LVL40:
 639 0028 BFB2     		uxth	r7, r7
 640              	.LVL41:
 641 002a 1031     		adds	r1, r1, #16
 642              		.loc 1 63 0
 643 002c B7F5A05F 		cmp	r7, #5120
 644 0030 E8D1     		bne	.L21
 645              		.loc 1 72 0
 646 0032 F0BC     		pop	{r4, r5, r6, r7}
 647 0034 7047     		bx	lr
 648              		.cfi_endproc
 649              	.LFE72:
 650              		.size	rgb_get_block, .-rgb_get_block
 651 0036 00BFAFF3 		.section	.text.convert_rows,"ax",%progbits
 651      0080AFF3 
 651      0080
 652              		.align	2
 653              		.p2align 4,,15
 654              		.global	convert_rows
 655              		.thumb
 656              		.thumb_func
 657              		.type	convert_rows, %function
 658              	convert_rows:
 659              	.LFB73:
 660              		.loc 1 74 0
 661              		.cfi_startproc
 662              		@ args = 0, pretend = 0, frame = 512
 663              		@ frame_needed = 0, uses_anonymous_args = 0
 664              	.LVL42:
 665 0000 30B5     		push	{r4, r5, lr}
 666              	.LCFI8:
 667              		.cfi_def_cfa_offset 12
 668              		.cfi_offset 4, -12
 669              		.cfi_offset 5, -8
 670              		.cfi_offset 14, -4
 671 0002 0546     		mov	r5, r0
ARM GAS  /tmp/ccUmV1P3.s 			page 13


 672 0004 ADF5017D 		sub	sp, sp, #516
 673              	.LCFI9:
 674              		.cfi_def_cfa_offset 528
 675              		.loc 1 84 0
 676 0008 0024     		movs	r4, #0
 677              	.LVL43:
 678              	.L25:
 679              		.loc 1 85 0 discriminator 2
 680 000a 2046     		mov	r0, r4
 681 000c 60A9     		add	r1, sp, #384
 682 000e 2A46     		mov	r2, r5
 683 0010 FFF7FEFF 		bl	rgb_get_block
 684              	.LVL44:
 685              		.loc 1 87 0 discriminator 2
 686 0014 20AA     		add	r2, sp, #128
 687 0016 40AB     		add	r3, sp, #256
 688 0018 60A8     		add	r0, sp, #384
 689 001a 6946     		mov	r1, sp
 690 001c FFF7FEFF 		bl	convert
 691              	.LVL45:
 692              		.loc 1 89 0 discriminator 2
 693 0020 6846     		mov	r0, sp
 694 0022 6946     		mov	r1, sp
 695 0024 FFF7FEFF 		bl	dct
 696              	.LVL46:
 697              		.loc 1 90 0 discriminator 2
 698 0028 0D48     		ldr	r0, .L27
 699 002a 6946     		mov	r1, sp
 700 002c FFF7FEFF 		bl	huffman_encode
 701              	.LVL47:
 702              		.loc 1 92 0 discriminator 2
 703 0030 20A8     		add	r0, sp, #128
 704 0032 0146     		mov	r1, r0
 705 0034 FFF7FEFF 		bl	dct
 706              	.LVL48:
 707              		.loc 1 93 0 discriminator 2
 708 0038 0A48     		ldr	r0, .L27+4
 709 003a 20A9     		add	r1, sp, #128
 710 003c FFF7FEFF 		bl	huffman_encode
 711              	.LVL49:
 712              		.loc 1 95 0 discriminator 2
 713 0040 40A8     		add	r0, sp, #256
 714 0042 0146     		mov	r1, r0
 715              		.loc 1 84 0 discriminator 2
 716 0044 0834     		adds	r4, r4, #8
 717              		.loc 1 95 0 discriminator 2
 718 0046 FFF7FEFF 		bl	dct
 719              	.LVL50:
 720              		.loc 1 84 0 discriminator 2
 721 004a A4B2     		uxth	r4, r4
 722              		.loc 1 96 0 discriminator 2
 723 004c 0648     		ldr	r0, .L27+8
 724 004e 40A9     		add	r1, sp, #256
 725 0050 FFF7FEFF 		bl	huffman_encode
 726              	.LVL51:
 727              		.loc 1 84 0 discriminator 2
 728 0054 B4F5207F 		cmp	r4, #640
ARM GAS  /tmp/ccUmV1P3.s 			page 14


 729 0058 D7D1     		bne	.L25
 730              		.loc 1 100 0
 731 005a 0DF5017D 		add	sp, sp, #516
 732 005e 30BD     		pop	{r4, r5, pc}
 733              	.L28:
 734              		.align	2
 735              	.L27:
 736 0060 00000000 		.word	huffman_ctx
 737 0064 18000000 		.word	huffman_ctx+24
 738 0068 30000000 		.word	huffman_ctx+48
 739              		.cfi_endproc
 740              	.LFE73:
 741              		.size	convert_rows, .-convert_rows
 742              		.global	file_addr_ptr
 743 006c AFF30080 		.section	.bss.file_addr_ptr,"aw",%nobits
 744              		.align	2
 745              		.set	.LANCHOR0,. + 0
 746              		.type	file_addr_ptr, %object
 747              		.size	file_addr_ptr, 4
 748              	file_addr_ptr:
 749 0000 00000000 		.space	4
 750              		.text
 751              	.Letext0:
 752              		.file 2 "/home/mitchd/Documents/FOX-1/amsat-fox/x86_64-toolchain/arm/bin/../lib/gcc/arm-none-eabi/
 753              		.file 3 "./encoder/rgbdata.h"
 754              		.file 4 "./encoder/jpegenc.h"
 755              		.file 5 "/home/mitchd/Documents/FOX-1/amsat-fox/x86_64-toolchain/arm/bin/../lib/gcc/arm-none-eabi/
 756              		.file 6 "./os/ports/GCC/ARMCMx/chtypes.h"
 757              		.file 7 "./os/kernel/include/chlists.h"
 758              		.file 8 "./os/kernel/include/chthreads.h"
 759              		.file 9 "./os/ports/GCC/ARMCMx/chcore_v7m.h"
 760              		.file 10 "./os/kernel/include/chmtx.h"
 761              		.file 11 "./os/kernel/include/chevents.h"
 762              		.file 12 "./os/kernel/include/chqueues.h"
 763              		.file 13 "./os/kernel/include/chioch.h"
 764              		.file 14 "./os/hal/platforms/STM32L1xx/stm32l1xx.h"
 765              		.file 15 "./os/hal/include/serial.h"
 766              		.file 16 "./os/ports/common/ARMCMx/CMSIS/include/core_cm3.h"
 767              		.file 17 "./os/hal/platforms/STM32/serial_lld.h"
 768              		.file 18 "./encoder/dct.h"