ARM GAS  /tmp/ccqmKBwl.s 			page 1


   1              		.syntax unified
   2              		.cpu cortex-m3
   3              		.fpu softvfp
   4              		.eabi_attribute 20, 1
   5              		.eabi_attribute 21, 1
   6              		.eabi_attribute 23, 3
   7              		.eabi_attribute 24, 1
   8              		.eabi_attribute 25, 1
   9              		.eabi_attribute 26, 1
  10              		.eabi_attribute 30, 2
  11              		.eabi_attribute 34, 1
  12              		.eabi_attribute 18, 4
  13              		.thumb
  14              		.file	"gpt.c"
  15              		.text
  16              	.Ltext0:
  17              		.cfi_sections	.debug_frame
  18              		.section	.text.gptInit,"ax",%progbits
  19              		.align	2
  20              		.p2align 4,,15
  21              		.global	gptInit
  22              		.thumb
  23              		.thumb_func
  24              		.type	gptInit, %function
  25              	gptInit:
  26              	.LFB62:
  27              		.file 1 "./os/hal/src/gpt.c"
  28              		.loc 1 68 0
  29              		.cfi_startproc
  30              		@ args = 0, pretend = 0, frame = 0
  31              		@ frame_needed = 0, uses_anonymous_args = 0
  32              		@ link register save eliminated.
  33              		.loc 1 71 0
  34              		.loc 1 70 0
  35 0000 FFF7FEBF 		b	gpt_lld_init
  36              	.LVL0:
  37              		.cfi_endproc
  38              	.LFE62:
  39              		.size	gptInit, .-gptInit
  40 0004 AFF30080 		.section	.text.gptObjectInit,"ax",%progbits
  40      AFF30080 
  40      AFF30080 
  41              		.align	2
  42              		.p2align 4,,15
  43              		.global	gptObjectInit
  44              		.thumb
  45              		.thumb_func
  46              		.type	gptObjectInit, %function
  47              	gptObjectInit:
  48              	.LFB63:
  49              		.loc 1 80 0
  50              		.cfi_startproc
  51              		@ args = 0, pretend = 0, frame = 0
  52              		@ frame_needed = 0, uses_anonymous_args = 0
  53              		@ link register save eliminated.
  54              	.LVL1:
  55              		.loc 1 82 0
ARM GAS  /tmp/ccqmKBwl.s 			page 2


  56 0000 0123     		movs	r3, #1
  57 0002 0370     		strb	r3, [r0, #0]
  58              		.loc 1 83 0
  59 0004 0023     		movs	r3, #0
  60 0006 4360     		str	r3, [r0, #4]
  61 0008 7047     		bx	lr
  62              		.cfi_endproc
  63              	.LFE63:
  64              		.size	gptObjectInit, .-gptObjectInit
  65 000a 00BFAFF3 		.section	.text.gptStart,"ax",%progbits
  65      0080
  66              		.align	2
  67              		.p2align 4,,15
  68              		.global	gptStart
  69              		.thumb
  70              		.thumb_func
  71              		.type	gptStart, %function
  72              	gptStart:
  73              	.LFB64:
  74              		.loc 1 94 0
  75              		.cfi_startproc
  76              		@ args = 0, pretend = 0, frame = 0
  77              		@ frame_needed = 0, uses_anonymous_args = 0
  78              	.LVL2:
  79 0000 10B5     		push	{r4, lr}
  80              	.LCFI0:
  81              		.cfi_def_cfa_offset 8
  82              		.cfi_offset 4, -8
  83              		.cfi_offset 14, -4
  84              	.LBB2:
  85              		.loc 1 98 0
  86 0002 2023     		movs	r3, #32
  87              	.LVL3:
  88              	.LBE2:
  89              		.loc 1 94 0
  90 0004 0446     		mov	r4, r0
  91              	.LBB3:
  92              		.loc 1 98 0
  93              	@ 98 "./os/hal/src/gpt.c" 1
  94 0006 83F31188 		msr     BASEPRI, r3
  95              	@ 0 "" 2
  96              	.LVL4:
  97              		.thumb
  98              	.LBE3:
  99              		.loc 1 101 0
 100 000a 4160     		str	r1, [r0, #4]
 101              		.loc 1 102 0
 102 000c FFF7FEFF 		bl	gpt_lld_start
 103              	.LVL5:
 104              		.loc 1 103 0
 105 0010 0223     		movs	r3, #2
 106 0012 2370     		strb	r3, [r4, #0]
 107              	.LBB4:
 108              		.loc 1 104 0
 109 0014 0023     		movs	r3, #0
 110              	.LVL6:
 111              	@ 104 "./os/hal/src/gpt.c" 1
ARM GAS  /tmp/ccqmKBwl.s 			page 3


 112 0016 83F31188 		msr     BASEPRI, r3
 113              	@ 0 "" 2
 114              	.LVL7:
 115              		.thumb
 116 001a 10BD     		pop	{r4, pc}
 117              	.LBE4:
 118              		.cfi_endproc
 119              	.LFE64:
 120              		.size	gptStart, .-gptStart
 121 001c AFF30080 		.section	.text.gptStop,"ax",%progbits
 122              		.align	2
 123              		.p2align 4,,15
 124              		.global	gptStop
 125              		.thumb
 126              		.thumb_func
 127              		.type	gptStop, %function
 128              	gptStop:
 129              	.LFB65:
 130              		.loc 1 114 0
 131              		.cfi_startproc
 132              		@ args = 0, pretend = 0, frame = 0
 133              		@ frame_needed = 0, uses_anonymous_args = 0
 134              	.LVL8:
 135 0000 10B5     		push	{r4, lr}
 136              	.LCFI1:
 137              		.cfi_def_cfa_offset 8
 138              		.cfi_offset 4, -8
 139              		.cfi_offset 14, -4
 140              	.LBB5:
 141              		.loc 1 118 0
 142 0002 2023     		movs	r3, #32
 143              	.LVL9:
 144              	.LBE5:
 145              		.loc 1 114 0
 146 0004 0446     		mov	r4, r0
 147              	.LBB6:
 148              		.loc 1 118 0
 149              	@ 118 "./os/hal/src/gpt.c" 1
 150 0006 83F31188 		msr     BASEPRI, r3
 151              	@ 0 "" 2
 152              	.LVL10:
 153              		.thumb
 154              	.LBE6:
 155              		.loc 1 121 0
 156 000a FFF7FEFF 		bl	gpt_lld_stop
 157              	.LVL11:
 158              		.loc 1 122 0
 159 000e 0123     		movs	r3, #1
 160 0010 2370     		strb	r3, [r4, #0]
 161              	.LBB7:
 162              		.loc 1 123 0
 163 0012 0023     		movs	r3, #0
 164              	.LVL12:
 165              	@ 123 "./os/hal/src/gpt.c" 1
 166 0014 83F31188 		msr     BASEPRI, r3
 167              	@ 0 "" 2
 168              	.LVL13:
ARM GAS  /tmp/ccqmKBwl.s 			page 4


 169              		.thumb
 170 0018 10BD     		pop	{r4, pc}
 171              	.LBE7:
 172              		.cfi_endproc
 173              	.LFE65:
 174              		.size	gptStop, .-gptStop
 175 001a 00BFAFF3 		.section	.text.gptStartContinuousI,"ax",%progbits
 175      0080
 176              		.align	2
 177              		.p2align 4,,15
 178              		.global	gptStartContinuousI
 179              		.thumb
 180              		.thumb_func
 181              		.type	gptStartContinuousI, %function
 182              	gptStartContinuousI:
 183              	.LFB67:
 184              		.loc 1 149 0
 185              		.cfi_startproc
 186              		@ args = 0, pretend = 0, frame = 0
 187              		@ frame_needed = 0, uses_anonymous_args = 0
 188              		@ link register save eliminated.
 189              	.LVL14:
 190              		.loc 1 156 0
 191 0000 0323     		movs	r3, #3
 192 0002 0370     		strb	r3, [r0, #0]
 193              		.loc 1 158 0
 194              		.loc 1 157 0
 195 0004 FFF7FEBF 		b	gpt_lld_start_timer
 196              	.LVL15:
 197              		.cfi_endproc
 198              	.LFE67:
 199              		.size	gptStartContinuousI, .-gptStartContinuousI
 200 0008 AFF30080 		.section	.text.gptStartContinuous,"ax",%progbits
 200      AFF30080 
 201              		.align	2
 202              		.p2align 4,,15
 203              		.global	gptStartContinuous
 204              		.thumb
 205              		.thumb_func
 206              		.type	gptStartContinuous, %function
 207              	gptStartContinuous:
 208              	.LFB66:
 209              		.loc 1 134 0
 210              		.cfi_startproc
 211              		@ args = 0, pretend = 0, frame = 0
 212              		@ frame_needed = 0, uses_anonymous_args = 0
 213              	.LVL16:
 214 0000 08B5     		push	{r3, lr}
 215              	.LCFI2:
 216              		.cfi_def_cfa_offset 8
 217              		.cfi_offset 3, -8
 218              		.cfi_offset 14, -4
 219              	.LBB8:
 220              		.loc 1 136 0
 221 0002 2023     		movs	r3, #32
 222              	.LVL17:
 223              	@ 136 "./os/hal/src/gpt.c" 1
ARM GAS  /tmp/ccqmKBwl.s 			page 5


 224 0004 83F31188 		msr     BASEPRI, r3
 225              	@ 0 "" 2
 226              	.LVL18:
 227              		.thumb
 228              	.LBE8:
 229              		.loc 1 137 0
 230 0008 FFF7FEFF 		bl	gptStartContinuousI
 231              	.LVL19:
 232              	.LBB9:
 233              		.loc 1 138 0
 234 000c 0023     		movs	r3, #0
 235              	.LVL20:
 236              	@ 138 "./os/hal/src/gpt.c" 1
 237 000e 83F31188 		msr     BASEPRI, r3
 238              	@ 0 "" 2
 239              	.LVL21:
 240              		.thumb
 241 0012 08BD     		pop	{r3, pc}
 242              	.LBE9:
 243              		.cfi_endproc
 244              	.LFE66:
 245              		.size	gptStartContinuous, .-gptStartContinuous
 246 0014 AFF30080 		.section	.text.gptStartOneShotI,"ax",%progbits
 246      AFF30080 
 246      AFF30080 
 247              		.align	2
 248              		.p2align 4,,15
 249              		.global	gptStartOneShotI
 250              		.thumb
 251              		.thumb_func
 252              		.type	gptStartOneShotI, %function
 253              	gptStartOneShotI:
 254              	.LFB69:
 255              		.loc 1 183 0
 256              		.cfi_startproc
 257              		@ args = 0, pretend = 0, frame = 0
 258              		@ frame_needed = 0, uses_anonymous_args = 0
 259              		@ link register save eliminated.
 260              	.LVL22:
 261              		.loc 1 190 0
 262 0000 0423     		movs	r3, #4
 263 0002 0370     		strb	r3, [r0, #0]
 264              		.loc 1 192 0
 265              		.loc 1 191 0
 266 0004 FFF7FEBF 		b	gpt_lld_start_timer
 267              	.LVL23:
 268              		.cfi_endproc
 269              	.LFE69:
 270              		.size	gptStartOneShotI, .-gptStartOneShotI
 271 0008 AFF30080 		.section	.text.gptStartOneShot,"ax",%progbits
 271      AFF30080 
 272              		.align	2
 273              		.p2align 4,,15
 274              		.global	gptStartOneShot
 275              		.thumb
 276              		.thumb_func
 277              		.type	gptStartOneShot, %function
ARM GAS  /tmp/ccqmKBwl.s 			page 6


 278              	gptStartOneShot:
 279              	.LFB68:
 280              		.loc 1 168 0
 281              		.cfi_startproc
 282              		@ args = 0, pretend = 0, frame = 0
 283              		@ frame_needed = 0, uses_anonymous_args = 0
 284              	.LVL24:
 285 0000 08B5     		push	{r3, lr}
 286              	.LCFI3:
 287              		.cfi_def_cfa_offset 8
 288              		.cfi_offset 3, -8
 289              		.cfi_offset 14, -4
 290              	.LBB10:
 291              		.loc 1 170 0
 292 0002 2023     		movs	r3, #32
 293              	.LVL25:
 294              	@ 170 "./os/hal/src/gpt.c" 1
 295 0004 83F31188 		msr     BASEPRI, r3
 296              	@ 0 "" 2
 297              	.LVL26:
 298              		.thumb
 299              	.LBE10:
 300              		.loc 1 171 0
 301 0008 FFF7FEFF 		bl	gptStartOneShotI
 302              	.LVL27:
 303              	.LBB11:
 304              		.loc 1 172 0
 305 000c 0023     		movs	r3, #0
 306              	.LVL28:
 307              	@ 172 "./os/hal/src/gpt.c" 1
 308 000e 83F31188 		msr     BASEPRI, r3
 309              	@ 0 "" 2
 310              	.LVL29:
 311              		.thumb
 312 0012 08BD     		pop	{r3, pc}
 313              	.LBE11:
 314              		.cfi_endproc
 315              	.LFE68:
 316              		.size	gptStartOneShot, .-gptStartOneShot
 317 0014 AFF30080 		.section	.text.gptStopTimerI,"ax",%progbits
 317      AFF30080 
 317      AFF30080 
 318              		.align	2
 319              		.p2align 4,,15
 320              		.global	gptStopTimerI
 321              		.thumb
 322              		.thumb_func
 323              		.type	gptStopTimerI, %function
 324              	gptStopTimerI:
 325              	.LFB71:
 326              		.loc 1 215 0
 327              		.cfi_startproc
 328              		@ args = 0, pretend = 0, frame = 0
 329              		@ frame_needed = 0, uses_anonymous_args = 0
 330              		@ link register save eliminated.
 331              	.LVL30:
 332              		.loc 1 223 0
ARM GAS  /tmp/ccqmKBwl.s 			page 7


 333 0000 0223     		movs	r3, #2
 334 0002 0370     		strb	r3, [r0, #0]
 335              		.loc 1 225 0
 336              		.loc 1 224 0
 337 0004 FFF7FEBF 		b	gpt_lld_stop_timer
 338              	.LVL31:
 339              		.cfi_endproc
 340              	.LFE71:
 341              		.size	gptStopTimerI, .-gptStopTimerI
 342 0008 AFF30080 		.section	.text.gptStopTimer,"ax",%progbits
 342      AFF30080 
 343              		.align	2
 344              		.p2align 4,,15
 345              		.global	gptStopTimer
 346              		.thumb
 347              		.thumb_func
 348              		.type	gptStopTimer, %function
 349              	gptStopTimer:
 350              	.LFB70:
 351              		.loc 1 201 0
 352              		.cfi_startproc
 353              		@ args = 0, pretend = 0, frame = 0
 354              		@ frame_needed = 0, uses_anonymous_args = 0
 355              	.LVL32:
 356 0000 08B5     		push	{r3, lr}
 357              	.LCFI4:
 358              		.cfi_def_cfa_offset 8
 359              		.cfi_offset 3, -8
 360              		.cfi_offset 14, -4
 361              	.LBB12:
 362              		.loc 1 203 0
 363 0002 2023     		movs	r3, #32
 364              	.LVL33:
 365              	@ 203 "./os/hal/src/gpt.c" 1
 366 0004 83F31188 		msr     BASEPRI, r3
 367              	@ 0 "" 2
 368              	.LVL34:
 369              		.thumb
 370              	.LBE12:
 371              		.loc 1 204 0
 372 0008 FFF7FEFF 		bl	gptStopTimerI
 373              	.LVL35:
 374              	.LBB13:
 375              		.loc 1 205 0
 376 000c 0023     		movs	r3, #0
 377              	.LVL36:
 378              	@ 205 "./os/hal/src/gpt.c" 1
 379 000e 83F31188 		msr     BASEPRI, r3
 380              	@ 0 "" 2
 381              	.LVL37:
 382              		.thumb
 383 0012 08BD     		pop	{r3, pc}
 384              	.LBE13:
 385              		.cfi_endproc
 386              	.LFE70:
 387              		.size	gptStopTimer, .-gptStopTimer
 388 0014 AFF30080 		.section	.text.gptPolledDelay,"ax",%progbits
ARM GAS  /tmp/ccqmKBwl.s 			page 8


 388      AFF30080 
 388      AFF30080 
 389              		.align	2
 390              		.p2align 4,,15
 391              		.global	gptPolledDelay
 392              		.thumb
 393              		.thumb_func
 394              		.type	gptPolledDelay, %function
 395              	gptPolledDelay:
 396              	.LFB72:
 397              		.loc 1 239 0
 398              		.cfi_startproc
 399              		@ args = 0, pretend = 0, frame = 0
 400              		@ frame_needed = 0, uses_anonymous_args = 0
 401              	.LVL38:
 402              		.loc 1 244 0
 403 0000 0423     		movs	r3, #4
 404              		.loc 1 239 0
 405 0002 10B5     		push	{r4, lr}
 406              	.LCFI5:
 407              		.cfi_def_cfa_offset 8
 408              		.cfi_offset 4, -8
 409              		.cfi_offset 14, -4
 410              		.loc 1 244 0
 411 0004 0370     		strb	r3, [r0, #0]
 412              		.loc 1 239 0
 413 0006 0446     		mov	r4, r0
 414              		.loc 1 245 0
 415 0008 FFF7FEFF 		bl	gpt_lld_polled_delay
 416              	.LVL39:
 417              		.loc 1 246 0
 418 000c 0223     		movs	r3, #2
 419 000e 2370     		strb	r3, [r4, #0]
 420 0010 10BD     		pop	{r4, pc}
 421              		.cfi_endproc
 422              	.LFE72:
 423              		.size	gptPolledDelay, .-gptPolledDelay
 424 0012 00BFAFF3 		.text
 424      0080AFF3 
 424      0080AFF3 
 424      0080
 425              	.Letext0:
 426              		.file 2 "/home/mitchd/Documents/FOX-1/amsat-fox/x86_64-toolchain/arm/bin/../lib/gcc/arm-none-eabi/
 427              		.file 3 "./os/hal/platforms/STM32/stm32.h"
 428              		.file 4 "./os/hal/include/gpt.h"
 429              		.file 5 "./os/hal/platforms/STM32/gpt_lld.h"
 430              		.file 6 "./os/ports/common/ARMCMx/CMSIS/include/core_cm3.h"