ARM GAS  /tmp/cc5joLPx.s 			page 1


   1              		.syntax unified
   2              		.cpu cortex-m3
   3              		.fpu softvfp
   4              		.eabi_attribute 20, 1
   5              		.eabi_attribute 21, 1
   6              		.eabi_attribute 23, 3
   7              		.eabi_attribute 24, 1
   8              		.eabi_attribute 25, 1
   9              		.eabi_attribute 26, 1
  10              		.eabi_attribute 30, 2
  11              		.eabi_attribute 34, 1
  12              		.eabi_attribute 18, 4
  13              		.thumb
  14              		.file	"gpt_lld.c"
  15              		.text
  16              	.Ltext0:
  17              		.cfi_sections	.debug_frame
  18              		.section	.text.VectorB4,"ax",%progbits
  19              		.align	2
  20              		.p2align 4,,15
  21              		.global	VectorB4
  22              		.thumb
  23              		.thumb_func
  24              		.type	VectorB4, %function
  25              	VectorB4:
  26              	.LFB63:
  27              		.file 1 "./os/hal/platforms/STM32/gpt_lld.c"
  28              		.loc 1 158 0
  29              		.cfi_startproc
  30              		@ args = 0, pretend = 0, frame = 0
  31              		@ frame_needed = 0, uses_anonymous_args = 0
  32              	.LVL0:
  33 0000 08B5     		push	{r3, lr}
  34              	.LCFI0:
  35              		.cfi_def_cfa_offset 8
  36              		.cfi_offset 3, -8
  37              		.cfi_offset 14, -4
  38              	.LBB8:
  39              	.LBB9:
  40              		.loc 1 108 0
  41 0002 0A4B     		ldr	r3, .L4
  42 0004 0021     		movs	r1, #0
  43              		.loc 1 109 0
  44 0006 1878     		ldrb	r0, [r3, #0]	@ zero_extendqisi2
  45              		.loc 1 108 0
  46 0008 DA68     		ldr	r2, [r3, #12]
  47              		.loc 1 109 0
  48 000a 0428     		cmp	r0, #4
  49              		.loc 1 108 0
  50 000c 1182     		strh	r1, [r2, #16]	@ movhi
  51              		.loc 1 109 0
  52 000e 04D1     		bne	.L2
  53              		.loc 1 110 0
  54 0010 0220     		movs	r0, #2
  55 0012 1870     		strb	r0, [r3, #0]
  56              	.LVL1:
  57              	.LBB10:
ARM GAS  /tmp/cc5joLPx.s 			page 2


  58              	.LBB11:
  59              		.loc 1 429 0
  60 0014 1180     		strh	r1, [r2, #0]	@ movhi
  61              		.loc 1 430 0
  62 0016 1182     		strh	r1, [r2, #16]	@ movhi
  63              		.loc 1 431 0
  64 0018 9181     		strh	r1, [r2, #12]	@ movhi
  65              	.LVL2:
  66              	.L2:
  67              	.LBE11:
  68              	.LBE10:
  69              		.loc 1 113 0
  70 001a 5B68     		ldr	r3, [r3, #4]
  71 001c 0348     		ldr	r0, .L4
  72 001e 5B68     		ldr	r3, [r3, #4]
  73 0020 9847     		blx	r3
  74              	.LVL3:
  75              	.LBE9:
  76              	.LBE8:
  77              		.loc 1 165 0
  78 0022 BDE80840 		pop	{r3, lr}
  79              		.loc 1 164 0
  80 0026 FFF7FEBF 		b	_port_irq_epilogue
  81              	.LVL4:
  82              	.L5:
  83 002a 00BF     		.align	2
  84              	.L4:
  85 002c 00000000 		.word	.LANCHOR0
  86              		.cfi_endproc
  87              	.LFE63:
  88              		.size	VectorB4, .-VectorB4
  89              		.section	.text.gpt_lld_init,"ax",%progbits
  90              		.align	2
  91              		.p2align 4,,15
  92              		.global	gpt_lld_init
  93              		.thumb
  94              		.thumb_func
  95              		.type	gpt_lld_init, %function
  96              	gpt_lld_init:
  97              	.LFB64:
  98              		.loc 1 225 0
  99              		.cfi_startproc
 100              		@ args = 0, pretend = 0, frame = 0
 101              		@ frame_needed = 0, uses_anonymous_args = 0
 102              		@ link register save eliminated.
 103              		.loc 1 241 0
 104 0000 40F20003 		movw	r3, #:lower16:.LANCHOR0
 105 0004 C0F20003 		movt	r3, #:upper16:.LANCHOR0
 106 0008 4FF48062 		mov	r2, #1024
 107 000c C4F20002 		movt	r2, 16384
 108              		.loc 1 242 0
 109 0010 1846     		mov	r0, r3
 110              		.loc 1 241 0
 111 0012 DA60     		str	r2, [r3, #12]
 112              		.loc 1 262 0
 113              		.loc 1 242 0
 114 0014 FFF7FEBF 		b	gptObjectInit
ARM GAS  /tmp/cc5joLPx.s 			page 3


 115              	.LVL5:
 116              		.cfi_endproc
 117              	.LFE64:
 118              		.size	gpt_lld_init, .-gpt_lld_init
 119 0018 AFF30080 		.section	.text.gpt_lld_start,"ax",%progbits
 119      AFF30080 
 120              		.align	2
 121              		.p2align 4,,15
 122              		.global	gpt_lld_start
 123              		.thumb
 124              		.thumb_func
 125              		.type	gpt_lld_start, %function
 126              	gpt_lld_start:
 127              	.LFB65:
 128              		.loc 1 271 0
 129              		.cfi_startproc
 130              		@ args = 0, pretend = 0, frame = 0
 131              		@ frame_needed = 0, uses_anonymous_args = 0
 132              	.LVL6:
 133              		.loc 1 274 0
 134 0000 0378     		ldrb	r3, [r0, #0]	@ zero_extendqisi2
 135              		.loc 1 271 0
 136 0002 10B5     		push	{r4, lr}
 137              	.LCFI1:
 138              		.cfi_def_cfa_offset 8
 139              		.cfi_offset 4, -8
 140              		.cfi_offset 14, -4
 141              		.loc 1 274 0
 142 0004 012B     		cmp	r3, #1
 143              		.loc 1 271 0
 144 0006 0446     		mov	r4, r0
 145              		.loc 1 274 0
 146 0008 0ED0     		beq	.L9
 147              	.LVL7:
 148              	.L8:
 149              		.loc 1 335 0
 150 000a 6368     		ldr	r3, [r4, #4]
 151 000c A168     		ldr	r1, [r4, #8]
 152 000e 1A68     		ldr	r2, [r3, #0]
 153              		.loc 1 340 0
 154 0010 E368     		ldr	r3, [r4, #12]
 155              		.loc 1 335 0
 156 0012 B1FBF2F1 		udiv	r1, r1, r2
 157 0016 0139     		subs	r1, r1, #1
 158              		.loc 1 340 0
 159 0018 0022     		movs	r2, #0
 160              		.loc 1 335 0
 161 001a 89B2     		uxth	r1, r1
 162              	.LVL8:
 163              		.loc 1 341 0
 164 001c 0820     		movs	r0, #8
 165              		.loc 1 340 0
 166 001e 1A80     		strh	r2, [r3, #0]	@ movhi
 167              		.loc 1 341 0
 168 0020 9880     		strh	r0, [r3, #4]	@ movhi
 169              		.loc 1 342 0
 170 0022 1985     		strh	r1, [r3, #40]	@ movhi
ARM GAS  /tmp/cc5joLPx.s 			page 4


 171              		.loc 1 343 0
 172 0024 9A81     		strh	r2, [r3, #12]	@ movhi
 173 0026 10BD     		pop	{r4, pc}
 174              	.LVL9:
 175              	.L9:
 176              		.loc 1 295 0
 177 0028 0D4B     		ldr	r3, .L10
 178 002a 9842     		cmp	r0, r3
 179 002c EDD1     		bne	.L8
 180              		.loc 1 296 0
 181 002e 4FF46053 		mov	r3, #14336
 182 0032 C4F20203 		movt	r3, 16386
 183 0036 5A6A     		ldr	r2, [r3, #36]
 184              		.loc 1 298 0
 185 0038 1D20     		movs	r0, #29
 186              	.LVL10:
 187              		.loc 1 296 0
 188 003a 42F00202 		orr	r2, r2, #2
 189 003e 5A62     		str	r2, [r3, #36]
 190              		.loc 1 297 0
 191 0040 9A69     		ldr	r2, [r3, #24]
 192              		.loc 1 298 0
 193 0042 7021     		movs	r1, #112
 194              		.loc 1 297 0
 195 0044 42F00202 		orr	r2, r2, #2
 196 0048 9A61     		str	r2, [r3, #24]
 197 004a 0022     		movs	r2, #0
 198 004c 9A61     		str	r2, [r3, #24]
 199              		.loc 1 298 0
 200 004e FFF7FEFF 		bl	nvicEnableVector
 201              	.LVL11:
 202              		.loc 1 300 0
 203 0052 4FF49043 		mov	r3, #18432
 204 0056 C0F2E813 		movt	r3, 488
 205 005a A360     		str	r3, [r4, #8]
 206 005c D5E7     		b	.L8
 207              	.L11:
 208 005e 00BF     		.align	2
 209              	.L10:
 210 0060 00000000 		.word	.LANCHOR0
 211              		.cfi_endproc
 212              	.LFE65:
 213              		.size	gpt_lld_start, .-gpt_lld_start
 214 0064 AFF30080 		.section	.text.gpt_lld_stop,"ax",%progbits
 214      AFF30080 
 214      AFF30080 
 215              		.align	2
 216              		.p2align 4,,15
 217              		.global	gpt_lld_stop
 218              		.thumb
 219              		.thumb_func
 220              		.type	gpt_lld_stop, %function
 221              	gpt_lld_stop:
 222              	.LFB66:
 223              		.loc 1 353 0
 224              		.cfi_startproc
 225              		@ args = 0, pretend = 0, frame = 0
ARM GAS  /tmp/cc5joLPx.s 			page 5


 226              		@ frame_needed = 0, uses_anonymous_args = 0
 227              	.LVL12:
 228 0000 08B5     		push	{r3, lr}
 229              	.LCFI2:
 230              		.cfi_def_cfa_offset 8
 231              		.cfi_offset 3, -8
 232              		.cfi_offset 14, -4
 233              		.loc 1 355 0
 234 0002 0378     		ldrb	r3, [r0, #0]	@ zero_extendqisi2
 235 0004 022B     		cmp	r3, #2
 236 0006 00D0     		beq	.L16
 237              	.LVL13:
 238              	.L12:
 239 0008 08BD     		pop	{r3, pc}
 240              	.LVL14:
 241              	.L16:
 242              		.loc 1 356 0
 243 000a C368     		ldr	r3, [r0, #12]
 244 000c 0022     		movs	r2, #0
 245 000e 1A80     		strh	r2, [r3, #0]	@ movhi
 246              		.loc 1 357 0
 247 0010 9A81     		strh	r2, [r3, #12]	@ movhi
 248              		.loc 1 358 0
 249 0012 1A82     		strh	r2, [r3, #16]	@ movhi
 250              		.loc 1 373 0
 251 0014 074B     		ldr	r3, .L17
 252 0016 9842     		cmp	r0, r3
 253 0018 F6D1     		bne	.L12
 254              		.loc 1 374 0
 255 001a 1D20     		movs	r0, #29
 256              	.LVL15:
 257 001c FFF7FEFF 		bl	nvicDisableVector
 258              	.LVL16:
 259              		.loc 1 375 0
 260 0020 4FF46053 		mov	r3, #14336
 261 0024 C4F20203 		movt	r3, 16386
 262 0028 5A6A     		ldr	r2, [r3, #36]
 263 002a 22F00202 		bic	r2, r2, #2
 264 002e 5A62     		str	r2, [r3, #36]
 265 0030 EAE7     		b	.L12
 266              	.L18:
 267 0032 00BF     		.align	2
 268              	.L17:
 269 0034 00000000 		.word	.LANCHOR0
 270              		.cfi_endproc
 271              	.LFE66:
 272              		.size	gpt_lld_stop, .-gpt_lld_stop
 273 0038 AFF30080 		.section	.text.gpt_lld_start_timer,"ax",%progbits
 273      AFF30080 
 274              		.align	2
 275              		.p2align 4,,15
 276              		.global	gpt_lld_start_timer
 277              		.thumb
 278              		.thumb_func
 279              		.type	gpt_lld_start_timer, %function
 280              	gpt_lld_start_timer:
 281              	.LFB67:
ARM GAS  /tmp/cc5joLPx.s 			page 6


 282              		.loc 1 407 0
 283              		.cfi_startproc
 284              		@ args = 0, pretend = 0, frame = 0
 285              		@ frame_needed = 0, uses_anonymous_args = 0
 286              		@ link register save eliminated.
 287              	.LVL17:
 288              		.loc 1 409 0
 289 0000 C368     		ldr	r3, [r0, #12]
 290              		.loc 1 410 0
 291 0002 0122     		movs	r2, #1
 292              		.loc 1 411 0
 293 0004 0020     		movs	r0, #0
 294              	.LVL18:
 295              		.loc 1 409 0
 296 0006 0139     		subs	r1, r1, #1
 297              	.LVL19:
 298 0008 D962     		str	r1, [r3, #44]
 299              		.loc 1 410 0
 300 000a 9A82     		strh	r2, [r3, #20]	@ movhi
 301              		.loc 1 411 0
 302 000c 5862     		str	r0, [r3, #36]
 303              		.loc 1 415 0
 304 000e 1882     		strh	r0, [r3, #16]	@ movhi
 305              		.loc 1 416 0
 306 0010 9A81     		strh	r2, [r3, #12]	@ movhi
 307              		.loc 1 417 0
 308 0012 0522     		movs	r2, #5
 309 0014 1A80     		strh	r2, [r3, #0]	@ movhi
 310 0016 7047     		bx	lr
 311              		.cfi_endproc
 312              	.LFE67:
 313              		.size	gpt_lld_start_timer, .-gpt_lld_start_timer
 314 0018 AFF30080 		.section	.text.gpt_lld_stop_timer,"ax",%progbits
 314      AFF30080 
 315              		.align	2
 316              		.p2align 4,,15
 317              		.global	gpt_lld_stop_timer
 318              		.thumb
 319              		.thumb_func
 320              		.type	gpt_lld_stop_timer, %function
 321              	gpt_lld_stop_timer:
 322              	.LFB68:
 323              		.loc 1 427 0
 324              		.cfi_startproc
 325              		@ args = 0, pretend = 0, frame = 0
 326              		@ frame_needed = 0, uses_anonymous_args = 0
 327              		@ link register save eliminated.
 328              	.LVL20:
 329              		.loc 1 429 0
 330 0000 C368     		ldr	r3, [r0, #12]
 331 0002 0022     		movs	r2, #0
 332 0004 1A80     		strh	r2, [r3, #0]	@ movhi
 333              		.loc 1 430 0
 334 0006 1A82     		strh	r2, [r3, #16]	@ movhi
 335              		.loc 1 431 0
 336 0008 9A81     		strh	r2, [r3, #12]	@ movhi
 337 000a 7047     		bx	lr
ARM GAS  /tmp/cc5joLPx.s 			page 7


 338              		.cfi_endproc
 339              	.LFE68:
 340              		.size	gpt_lld_stop_timer, .-gpt_lld_stop_timer
 341 000c AFF30080 		.section	.text.gpt_lld_polled_delay,"ax",%progbits
 342              		.align	2
 343              		.p2align 4,,15
 344              		.global	gpt_lld_polled_delay
 345              		.thumb
 346              		.thumb_func
 347              		.type	gpt_lld_polled_delay, %function
 348              	gpt_lld_polled_delay:
 349              	.LFB69:
 350              		.loc 1 445 0
 351              		.cfi_startproc
 352              		@ args = 0, pretend = 0, frame = 0
 353              		@ frame_needed = 0, uses_anonymous_args = 0
 354              		@ link register save eliminated.
 355              	.LVL21:
 356              		.loc 1 447 0
 357 0000 C268     		ldr	r2, [r0, #12]
 358              		.loc 1 448 0
 359 0002 0123     		movs	r3, #1
 360              		.loc 1 447 0
 361 0004 0139     		subs	r1, r1, #1
 362              	.LVL22:
 363 0006 D162     		str	r1, [r2, #44]
 364              		.loc 1 448 0
 365 0008 9382     		strh	r3, [r2, #20]	@ movhi
 366              		.loc 1 449 0
 367 000a 0023     		movs	r3, #0
 368 000c 1382     		strh	r3, [r2, #16]	@ movhi
 369              		.loc 1 450 0
 370 000e 0D23     		movs	r3, #13
 371 0010 1380     		strh	r3, [r2, #0]	@ movhi
 372              	.L22:
 373              		.loc 1 451 0 discriminator 1
 374 0012 138A     		ldrh	r3, [r2, #16]
 375 0014 DB07     		lsls	r3, r3, #31
 376 0016 FCD5     		bpl	.L22
 377              		.loc 1 453 0
 378 0018 7047     		bx	lr
 379              		.cfi_endproc
 380              	.LFE69:
 381              		.size	gpt_lld_polled_delay, .-gpt_lld_polled_delay
 382              		.global	GPTD3
 383 001a 00BFAFF3 		.section	.bss.GPTD3,"aw",%nobits
 383      0080
 384              		.align	2
 385              		.set	.LANCHOR0,. + 0
 386              		.type	GPTD3, %object
 387              		.size	GPTD3, 16
 388              	GPTD3:
 389 0000 00000000 		.space	16
 389      00000000 
 389      00000000 
 389      00000000 
 390              		.text
ARM GAS  /tmp/cc5joLPx.s 			page 8


 391              	.Letext0:
 392              		.file 2 "/home/mitchd/Documents/FOX-1/amsat-fox/x86_64-toolchain/arm/bin/../lib/gcc/arm-none-eabi/
 393              		.file 3 "./os/hal/platforms/STM32L1xx/stm32l1xx.h"
 394              		.file 4 "./os/hal/platforms/STM32/stm32.h"
 395              		.file 5 "./os/hal/include/gpt.h"
 396              		.file 6 "./os/hal/platforms/STM32/gpt_lld.h"
 397              		.file 7 "./os/ports/common/ARMCMx/CMSIS/include/core_cm3.h"
 398              		.file 8 "./os/ports/common/ARMCMx/nvic.h"
 399              		.file 9 "./os/ports/GCC/ARMCMx/chcore_v7m.h"