ARM GAS  /tmp/ccLKg93q.s 			page 1


   1              		.syntax unified
   2              		.cpu cortex-m3
   3              		.fpu softvfp
   4              		.eabi_attribute 20, 1
   5              		.eabi_attribute 21, 1
   6              		.eabi_attribute 23, 3
   7              		.eabi_attribute 24, 1
   8              		.eabi_attribute 25, 1
   9              		.eabi_attribute 26, 1
  10              		.eabi_attribute 30, 2
  11              		.eabi_attribute 34, 1
  12              		.eabi_attribute 18, 4
  13              		.thumb
  14              		.file	"pal.c"
  15              		.text
  16              	.Ltext0:
  17              		.cfi_sections	.debug_frame
  18              		.section	.text.palReadBus,"ax",%progbits
  19              		.align	2
  20              		.p2align 4,,15
  21              		.global	palReadBus
  22              		.thumb
  23              		.thumb_func
  24              		.type	palReadBus, %function
  25              	palReadBus:
  26              	.LFB62:
  27              		.file 1 "./os/hal/src/pal.c"
  28              		.loc 1 76 0
  29              		.cfi_startproc
  30              		@ args = 0, pretend = 0, frame = 0
  31              		@ frame_needed = 0, uses_anonymous_args = 0
  32              		@ link register save eliminated.
  33              	.LVL0:
  34              		.loc 1 81 0
  35 0000 0368     		ldr	r3, [r0, #0]
  36 0002 8268     		ldr	r2, [r0, #8]
  37 0004 1969     		ldr	r1, [r3, #16]
  38 0006 4368     		ldr	r3, [r0, #4]
  39 0008 21FA02F0 		lsr	r0, r1, r2
  40              	.LVL1:
  41              		.loc 1 82 0
  42 000c 1840     		ands	r0, r0, r3
  43 000e 7047     		bx	lr
  44              		.cfi_endproc
  45              	.LFE62:
  46              		.size	palReadBus, .-palReadBus
  47              		.section	.text.palWriteBus,"ax",%progbits
  48              		.align	2
  49              		.p2align 4,,15
  50              		.global	palWriteBus
  51              		.thumb
  52              		.thumb_func
  53              		.type	palWriteBus, %function
  54              	palWriteBus:
  55              	.LFB63:
  56              		.loc 1 101 0
  57              		.cfi_startproc
ARM GAS  /tmp/ccLKg93q.s 			page 2


  58              		@ args = 0, pretend = 0, frame = 0
  59              		@ frame_needed = 0, uses_anonymous_args = 0
  60              		@ link register save eliminated.
  61              	.LVL2:
  62              		.loc 1 106 0
  63 0000 4268     		ldr	r2, [r0, #4]
  64 0002 8368     		ldr	r3, [r0, #8]
  65              		.loc 1 101 0
  66 0004 30B4     		push	{r4, r5}
  67              	.LCFI0:
  68              		.cfi_def_cfa_offset 8
  69              		.cfi_offset 4, -8
  70              		.cfi_offset 5, -4
  71              		.loc 1 106 0
  72 0006 22EA0105 		bic	r5, r2, r1
  73 000a 03F11004 		add	r4, r3, #16
  74 000e 0A40     		ands	r2, r2, r1
  75 0010 05FA04F4 		lsl	r4, r5, r4
  76 0014 02FA03F3 		lsl	r3, r2, r3
  77 0018 0068     		ldr	r0, [r0, #0]
  78              	.LVL3:
  79 001a 2343     		orrs	r3, r3, r4
  80 001c 8361     		str	r3, [r0, #24]
  81              		.loc 1 107 0
  82 001e 30BC     		pop	{r4, r5}
  83 0020 7047     		bx	lr
  84              		.cfi_endproc
  85              	.LFE63:
  86              		.size	palWriteBus, .-palWriteBus
  87 0022 00BFAFF3 		.section	.text.palSetBusMode,"ax",%progbits
  87      0080AFF3 
  87      0080AFF3 
  87      0080
  88              		.align	2
  89              		.p2align 4,,15
  90              		.global	palSetBusMode
  91              		.thumb
  92              		.thumb_func
  93              		.type	palSetBusMode, %function
  94              	palSetBusMode:
  95              	.LFB64:
  96              		.loc 1 124 0
  97              		.cfi_startproc
  98              		@ args = 0, pretend = 0, frame = 0
  99              		@ frame_needed = 0, uses_anonymous_args = 0
 100              		@ link register save eliminated.
 101              	.LVL4:
 102              		.loc 1 129 0
 103 0000 8368     		ldr	r3, [r0, #8]
 104              		.loc 1 124 0
 105 0002 10B4     		push	{r4}
 106              	.LCFI1:
 107              		.cfi_def_cfa_offset 4
 108              		.cfi_offset 4, -4
 109              		.loc 1 129 0
 110 0004 4468     		ldr	r4, [r0, #4]
 111              		.loc 1 124 0
ARM GAS  /tmp/ccLKg93q.s 			page 3


 112 0006 0A46     		mov	r2, r1
 113              		.loc 1 129 0
 114 0008 04FA03F1 		lsl	r1, r4, r3
 115              	.LVL5:
 116 000c 0068     		ldr	r0, [r0, #0]
 117              	.LVL6:
 118              		.loc 1 130 0
 119 000e 10BC     		pop	{r4}
 120              		.loc 1 129 0
 121 0010 FFF7FEBF 		b	_pal_lld_setgroupmode
 122              	.LVL7:
 123              		.cfi_endproc
 124              	.LFE64:
 125              		.size	palSetBusMode, .-palSetBusMode
 126 0014 AFF30080 		.text
 126      AFF30080 
 126      AFF30080 
 127              	.Letext0:
 128              		.file 2 "/home/mitchd/Documents/FOX-1/amsat-fox/x86_64-toolchain/arm/bin/../lib/gcc/arm-none-eabi/
 129              		.file 3 "./os/hal/platforms/STM32/GPIOv2/pal_lld.h"
 130              		.file 4 "./os/hal/include/pal.h"
 131              		.file 5 "./os/ports/common/ARMCMx/CMSIS/include/core_cm3.h"