ARM GAS  /tmp/cc2DpUmI.s 			page 1


   1              		.syntax unified
   2              		.cpu cortex-m3
   3              		.fpu softvfp
   4              		.eabi_attribute 20, 1
   5              		.eabi_attribute 21, 1
   6              		.eabi_attribute 23, 3
   7              		.eabi_attribute 24, 1
   8              		.eabi_attribute 25, 1
   9              		.eabi_attribute 26, 1
  10              		.eabi_attribute 30, 2
  11              		.eabi_attribute 34, 1
  12              		.eabi_attribute 18, 4
  13              		.thumb
  14              		.file	"serial_lld.c"
  15              		.text
  16              	.Ltext0:
  17              		.cfi_sections	.debug_frame
  18              		.section	.text.notify1,"ax",%progbits
  19              		.align	2
  20              		.p2align 4,,15
  21              		.thumb
  22              		.thumb_func
  23              		.type	notify1, %function
  24              	notify1:
  25              	.LFB66:
  26              		.file 1 "./os/hal/platforms/STM32/serial_lld.c"
  27              		.loc 1 217 0
  28              		.cfi_startproc
  29              		@ args = 0, pretend = 0, frame = 0
  30              		@ frame_needed = 0, uses_anonymous_args = 0
  31              		@ link register save eliminated.
  32              	.LVL0:
  33              		.loc 1 220 0
  34 0000 4FF46053 		mov	r3, #14336
  35 0004 C4F20103 		movt	r3, 16385
  36 0008 9A89     		ldrh	r2, [r3, #12]
  37 000a 92B2     		uxth	r2, r2
  38 000c 42F08002 		orr	r2, r2, #128
  39 0010 9A81     		strh	r2, [r3, #12]	@ movhi
  40 0012 7047     		bx	lr
  41              		.cfi_endproc
  42              	.LFE66:
  43              		.size	notify1, .-notify1
  44              		.section	.text.notify3,"ax",%progbits
  45              		.align	2
  46              		.p2align 4,,15
  47              		.thumb
  48              		.thumb_func
  49              		.type	notify3, %function
  50              	notify3:
  51              	.LFB67:
  52              		.loc 1 233 0
  53              		.cfi_startproc
  54              		@ args = 0, pretend = 0, frame = 0
  55              		@ frame_needed = 0, uses_anonymous_args = 0
  56              		@ link register save eliminated.
  57              	.LVL1:
ARM GAS  /tmp/cc2DpUmI.s 			page 2


  58              		.loc 1 236 0
  59 0000 4FF49043 		mov	r3, #18432
  60 0004 C4F20003 		movt	r3, 16384
  61 0008 9A89     		ldrh	r2, [r3, #12]
  62 000a 92B2     		uxth	r2, r2
  63 000c 42F08002 		orr	r2, r2, #128
  64 0010 9A81     		strh	r2, [r3, #12]	@ movhi
  65 0012 7047     		bx	lr
  66              		.cfi_endproc
  67              	.LFE67:
  68              		.size	notify3, .-notify3
  69 0014 AFF30080 		.section	.text.serve_interrupt,"ax",%progbits
  69      AFF30080 
  69      AFF30080 
  70              		.align	2
  71              		.p2align 4,,15
  72              		.thumb
  73              		.thumb_func
  74              		.type	serve_interrupt, %function
  75              	serve_interrupt:
  76              	.LFB65:
  77              		.loc 1 170 0
  78              		.cfi_startproc
  79              		@ args = 0, pretend = 0, frame = 0
  80              		@ frame_needed = 0, uses_anonymous_args = 0
  81              	.LVL2:
  82 0000 2DE9F041 		push	{r4, r5, r6, r7, r8, lr}
  83              	.LCFI0:
  84              		.cfi_def_cfa_offset 24
  85              		.cfi_offset 4, -24
  86              		.cfi_offset 5, -20
  87              		.cfi_offset 6, -16
  88              		.cfi_offset 7, -12
  89              		.cfi_offset 8, -8
  90              		.cfi_offset 14, -4
  91              		.loc 1 171 0
  92 0004 D0F8D050 		ldr	r5, [r0, #208]
  93              	.LVL3:
  94              		.loc 1 170 0
  95 0008 0646     		mov	r6, r0
  96              		.loc 1 172 0
  97 000a AF89     		ldrh	r7, [r5, #12]
  98              		.loc 1 173 0
  99 000c 2C88     		ldrh	r4, [r5, #0]
 100              		.loc 1 174 0
 101 000e A988     		ldrh	r1, [r5, #4]
 102              		.loc 1 173 0
 103 0010 A4B2     		uxth	r4, r4
 104              		.loc 1 177 0
 105 0012 2207     		lsls	r2, r4, #28
 106              		.loc 1 172 0
 107 0014 BFB2     		uxth	r7, r7
 108              	.LVL4:
 109              		.loc 1 174 0
 110 0016 1FFA81F8 		uxth	r8, r1
 111              	.LVL5:
 112              		.loc 1 177 0
ARM GAS  /tmp/cc2DpUmI.s 			page 3


 113 001a 50D1     		bne	.L44
 114              	.LVL6:
 115              	.L4:
 116              		.loc 1 180 0
 117 001c 04F48073 		and	r3, r4, #256
 118              	.LVL7:
 119 0020 9BB2     		uxth	r3, r3
 120 0022 002B     		cmp	r3, #0
 121 0024 36D1     		bne	.L45
 122              	.L9:
 123              		.loc 1 187 0
 124 0026 04F02003 		and	r3, r4, #32
 125 002a 9BB2     		uxth	r3, r3
 126 002c 33BB     		cbnz	r3, .L46
 127              	.LVL8:
 128              	.L10:
 129              		.loc 1 193 0
 130 002e 07F08003 		and	r3, r7, #128
 131              	.LVL9:
 132 0032 9BB2     		uxth	r3, r3
 133 0034 23B1     		cbz	r3, .L11
 134              		.loc 1 193 0 is_stmt 0 discriminator 1
 135 0036 04F08003 		and	r3, r4, #128
 136 003a 9BB2     		uxth	r3, r3
 137 003c 002B     		cmp	r3, #0
 138 003e 63D1     		bne	.L47
 139              	.LVL10:
 140              	.L11:
 141              		.loc 1 206 0 is_stmt 1
 142 0040 04F04004 		and	r4, r4, #64
 143              	.LVL11:
 144 0044 A4B2     		uxth	r4, r4
 145 0046 BCB1     		cbz	r4, .L3
 146              	.LBB17:
 147              		.loc 1 207 0
 148 0048 2023     		movs	r3, #32
 149              	.LVL12:
 150              	@ 207 "./os/hal/platforms/STM32/serial_lld.c" 1
 151 004a 83F31188 		msr     BASEPRI, r3
 152              	@ 0 "" 2
 153              	.LVL13:
 154              		.thumb
 155              	.LBE17:
 156              		.loc 1 208 0
 157 004e B368     		ldr	r3, [r6, #8]
 158              	.LVL14:
 159 0050 301D     		adds	r0, r6, #4
 160 0052 43F01003 		orr	r3, r3, #16
 161 0056 B360     		str	r3, [r6, #8]
 162 0058 0021     		movs	r1, #0
 163 005a FFF7FEFF 		bl	chEvtBroadcastFlagsI
 164              	.LVL15:
 165              	.LBB18:
 166              		.loc 1 209 0
 167 005e 0023     		movs	r3, #0
 168              	.LVL16:
 169              	@ 209 "./os/hal/platforms/STM32/serial_lld.c" 1
ARM GAS  /tmp/cc2DpUmI.s 			page 4


 170 0060 83F31188 		msr     BASEPRI, r3
 171              	@ 0 "" 2
 172              	.LVL17:
 173              		.thumb
 174              	.LBE18:
 175              		.loc 1 210 0
 176 0064 4FF6BF73 		movw	r3, #65471
 177              	.LVL18:
 178 0068 3B40     		ands	r3, r3, r7
 179 006a AB81     		strh	r3, [r5, #12]	@ movhi
 180              		.loc 1 211 0
 181 006c 2B88     		ldrh	r3, [r5, #0]
 182 006e 23F04003 		bic	r3, r3, #64
 183 0072 1B04     		lsls	r3, r3, #16
 184 0074 1B0C     		lsrs	r3, r3, #16
 185 0076 2B80     		strh	r3, [r5, #0]	@ movhi
 186              	.LVL19:
 187              	.L3:
 188 0078 BDE8F081 		pop	{r4, r5, r6, r7, r8, pc}
 189              	.LVL20:
 190              	.L46:
 191              	.LBB19:
 192              		.loc 1 188 0
 193 007c 2023     		movs	r3, #32
 194              	.LVL21:
 195              	@ 188 "./os/hal/platforms/STM32/serial_lld.c" 1
 196 007e 83F31188 		msr     BASEPRI, r3
 197              	@ 0 "" 2
 198              	.LVL22:
 199              		.thumb
 200              	.LBE19:
 201              		.loc 1 189 0
 202 0082 3046     		mov	r0, r6
 203 0084 5FFA88F1 		uxtb	r1, r8
 204 0088 FFF7FEFF 		bl	sdIncomingDataI
 205              	.LVL23:
 206              	.LBB20:
 207              		.loc 1 190 0
 208 008c 0023     		movs	r3, #0
 209              	@ 190 "./os/hal/platforms/STM32/serial_lld.c" 1
 210 008e 83F31188 		msr     BASEPRI, r3
 211              	@ 0 "" 2
 212              	.LVL24:
 213              		.thumb
 214 0092 CCE7     		b	.L10
 215              	.LVL25:
 216              	.L45:
 217              	.LBE20:
 218              	.LBB21:
 219              		.loc 1 181 0
 220 0094 2023     		movs	r3, #32
 221              	.LVL26:
 222              	@ 181 "./os/hal/platforms/STM32/serial_lld.c" 1
 223 0096 83F31188 		msr     BASEPRI, r3
 224              	@ 0 "" 2
 225              	.LVL27:
 226              		.thumb
ARM GAS  /tmp/cc2DpUmI.s 			page 5


 227              	.LBE21:
 228              		.loc 1 182 0
 229 009a B368     		ldr	r3, [r6, #8]
 230              	.LVL28:
 231 009c 301D     		adds	r0, r6, #4
 232 009e 43F40073 		orr	r3, r3, #512
 233 00a2 B360     		str	r3, [r6, #8]
 234 00a4 0021     		movs	r1, #0
 235 00a6 FFF7FEFF 		bl	chEvtBroadcastFlagsI
 236              	.LVL29:
 237              	.LBB22:
 238              		.loc 1 183 0
 239 00aa 0023     		movs	r3, #0
 240              	.LVL30:
 241              	@ 183 "./os/hal/platforms/STM32/serial_lld.c" 1
 242 00ac 83F31188 		msr     BASEPRI, r3
 243              	@ 0 "" 2
 244              	.LVL31:
 245              		.thumb
 246              	.LBE22:
 247              		.loc 1 184 0
 248 00b0 2B88     		ldrh	r3, [r5, #0]
 249              	.LVL32:
 250 00b2 23F48073 		bic	r3, r3, #256
 251 00b6 1B04     		lsls	r3, r3, #16
 252 00b8 1B0C     		lsrs	r3, r3, #16
 253 00ba 2B80     		strh	r3, [r5, #0]	@ movhi
 254 00bc B3E7     		b	.L9
 255              	.LVL33:
 256              	.L44:
 257              	.LBB23:
 258              	.LBB24:
 259              		.loc 1 152 0
 260 00be 04F00802 		and	r2, r4, #8
 261 00c2 92B2     		uxth	r2, r2
 262              		.loc 1 153 0
 263 00c4 002A     		cmp	r2, #0
 264 00c6 14BF     		ite	ne
 265 00c8 8022     		movne	r2, #128
 266 00ca 0022     		moveq	r2, #0
 267              	.LVL34:
 268              		.loc 1 154 0
 269 00cc E307     		lsls	r3, r4, #31
 270              		.loc 1 156 0
 271 00ce 04F00203 		and	r3, r4, #2
 272 00d2 9BB2     		uxth	r3, r3
 273              		.loc 1 155 0
 274 00d4 48BF     		it	mi
 275 00d6 42F02002 		orrmi	r2, r2, #32
 276              	.LVL35:
 277              		.loc 1 156 0
 278 00da 0BB1     		cbz	r3, .L7
 279              		.loc 1 157 0
 280 00dc 42F04002 		orr	r2, r2, #64
 281              	.LVL36:
 282              	.L7:
 283              		.loc 1 158 0
ARM GAS  /tmp/cc2DpUmI.s 			page 6


 284 00e0 04F00403 		and	r3, r4, #4
 285 00e4 9BB2     		uxth	r3, r3
 286 00e6 0BB1     		cbz	r3, .L8
 287              		.loc 1 159 0
 288 00e8 42F48072 		orr	r2, r2, #256
 289              	.LVL37:
 290              	.L8:
 291              	.LBB25:
 292              		.loc 1 160 0
 293 00ec 2023     		movs	r3, #32
 294              	.LVL38:
 295              	@ 160 "./os/hal/platforms/STM32/serial_lld.c" 1
 296 00ee 83F31188 		msr     BASEPRI, r3
 297              	@ 0 "" 2
 298              	.LVL39:
 299              		.thumb
 300              	.LBE25:
 301              		.loc 1 161 0
 302 00f2 B368     		ldr	r3, [r6, #8]
 303              	.LVL40:
 304 00f4 301D     		adds	r0, r6, #4
 305              	.LVL41:
 306 00f6 1A43     		orrs	r2, r2, r3
 307              	.LVL42:
 308 00f8 B260     		str	r2, [r6, #8]
 309 00fa 0021     		movs	r1, #0
 310              	.LVL43:
 311 00fc FFF7FEFF 		bl	chEvtBroadcastFlagsI
 312              	.LVL44:
 313              	.LBB26:
 314              		.loc 1 162 0
 315 0100 0023     		movs	r3, #0
 316              	@ 162 "./os/hal/platforms/STM32/serial_lld.c" 1
 317 0102 83F31188 		msr     BASEPRI, r3
 318              	@ 0 "" 2
 319              	.LVL45:
 320              		.thumb
 321 0106 89E7     		b	.L4
 322              	.LVL46:
 323              	.L47:
 324              	.LBE26:
 325              	.LBE24:
 326              	.LBE23:
 327              	.LBB27:
 328              	.LBB28:
 329              		.loc 1 195 0
 330 0108 2023     		movs	r3, #32
 331              	.LVL47:
 332              	@ 195 "./os/hal/platforms/STM32/serial_lld.c" 1
 333 010a 83F31188 		msr     BASEPRI, r3
 334              	@ 0 "" 2
 335              	.LVL48:
 336              		.thumb
 337              	.LBE28:
 338              		.loc 1 196 0
 339 010e 06F13000 		add	r0, r6, #48
 340 0112 FFF7FEFF 		bl	chOQGetI
ARM GAS  /tmp/cc2DpUmI.s 			page 7


 341              	.LVL49:
 342              		.loc 1 197 0
 343 0116 0028     		cmp	r0, #0
 344              		.loc 1 202 0
 345 0118 A4BF     		itt	ge
 346 011a 80B2     		uxthge	r0, r0
 347              	.LVL50:
 348 011c A880     		strhge	r0, [r5, #4]	@ movhi
 349              		.loc 1 197 0
 350 011e 03DB     		blt	.L48
 351              	.L13:
 352              	.LBB29:
 353              		.loc 1 203 0
 354 0120 0023     		movs	r3, #0
 355              	@ 203 "./os/hal/platforms/STM32/serial_lld.c" 1
 356 0122 83F31188 		msr     BASEPRI, r3
 357              	@ 0 "" 2
 358              	.LVL51:
 359              		.thumb
 360 0126 8BE7     		b	.L11
 361              	.LVL52:
 362              	.L48:
 363              	.LBE29:
 364              		.loc 1 198 0
 365 0128 B368     		ldr	r3, [r6, #8]
 366 012a 301D     		adds	r0, r6, #4
 367 012c 43F00803 		orr	r3, r3, #8
 368 0130 B360     		str	r3, [r6, #8]
 369 0132 0021     		movs	r1, #0
 370 0134 FFF7FEFF 		bl	chEvtBroadcastFlagsI
 371              	.LVL53:
 372              		.loc 1 199 0
 373 0138 27F0C003 		bic	r3, r7, #192
 374 013c 43F04003 		orr	r3, r3, #64
 375 0140 AB81     		strh	r3, [r5, #12]	@ movhi
 376 0142 EDE7     		b	.L13
 377              	.LBE27:
 378              		.cfi_endproc
 379              	.LFE65:
 380              		.size	serve_interrupt, .-serve_interrupt
 381 0144 AFF30080 		.section	.text.VectorD4,"ax",%progbits
 381      AFF30080 
 381      AFF30080 
 382              		.align	2
 383              		.p2align 4,,15
 384              		.global	VectorD4
 385              		.thumb
 386              		.thumb_func
 387              		.type	VectorD4, %function
 388              	VectorD4:
 389              	.LFB68:
 390              		.loc 1 274 0
 391              		.cfi_startproc
 392              		@ args = 0, pretend = 0, frame = 0
 393              		@ frame_needed = 0, uses_anonymous_args = 0
 394              		.loc 1 278 0
 395 0000 40F20000 		movw	r0, #:lower16:.LANCHOR0
ARM GAS  /tmp/cc2DpUmI.s 			page 8


 396              		.loc 1 274 0
 397 0004 08B5     		push	{r3, lr}
 398              	.LCFI1:
 399              		.cfi_def_cfa_offset 8
 400              		.cfi_offset 3, -8
 401              		.cfi_offset 14, -4
 402              		.loc 1 278 0
 403 0006 C0F20000 		movt	r0, #:upper16:.LANCHOR0
 404 000a FFF7FEFF 		bl	serve_interrupt
 405              	.LVL54:
 406              		.loc 1 281 0
 407 000e BDE80840 		pop	{r3, lr}
 408              		.loc 1 280 0
 409 0012 FFF7FEBF 		b	_port_irq_epilogue
 410              	.LVL55:
 411              		.cfi_endproc
 412              	.LFE68:
 413              		.size	VectorD4, .-VectorD4
 414 0016 00BFAFF3 		.section	.text.VectorDC,"ax",%progbits
 414      0080AFF3 
 414      0080
 415              		.align	2
 416              		.p2align 4,,15
 417              		.global	VectorDC
 418              		.thumb
 419              		.thumb_func
 420              		.type	VectorDC, %function
 421              	VectorDC:
 422              	.LFB69:
 423              		.loc 1 306 0
 424              		.cfi_startproc
 425              		@ args = 0, pretend = 0, frame = 0
 426              		@ frame_needed = 0, uses_anonymous_args = 0
 427              		.loc 1 310 0
 428 0000 40F20000 		movw	r0, #:lower16:.LANCHOR1
 429              		.loc 1 306 0
 430 0004 08B5     		push	{r3, lr}
 431              	.LCFI2:
 432              		.cfi_def_cfa_offset 8
 433              		.cfi_offset 3, -8
 434              		.cfi_offset 14, -4
 435              		.loc 1 310 0
 436 0006 C0F20000 		movt	r0, #:upper16:.LANCHOR1
 437 000a FFF7FEFF 		bl	serve_interrupt
 438              	.LVL56:
 439              		.loc 1 313 0
 440 000e BDE80840 		pop	{r3, lr}
 441              		.loc 1 312 0
 442 0012 FFF7FEBF 		b	_port_irq_epilogue
 443              	.LVL57:
 444              		.cfi_endproc
 445              	.LFE69:
 446              		.size	VectorDC, .-VectorDC
 447 0016 00BFAFF3 		.section	.text.sd_lld_init,"ax",%progbits
 447      0080AFF3 
 447      0080
 448              		.align	2
ARM GAS  /tmp/cc2DpUmI.s 			page 9


 449              		.p2align 4,,15
 450              		.global	sd_lld_init
 451              		.thumb
 452              		.thumb_func
 453              		.type	sd_lld_init, %function
 454              	sd_lld_init:
 455              	.LFB70:
 456              		.loc 1 373 0
 457              		.cfi_startproc
 458              		@ args = 0, pretend = 0, frame = 0
 459              		@ frame_needed = 0, uses_anonymous_args = 0
 460 0000 38B5     		push	{r3, r4, r5, lr}
 461              	.LCFI3:
 462              		.cfi_def_cfa_offset 16
 463              		.cfi_offset 3, -16
 464              		.cfi_offset 4, -12
 465              		.cfi_offset 5, -8
 466              		.cfi_offset 14, -4
 467              		.loc 1 376 0
 468 0002 40F20005 		movw	r5, #:lower16:.LANCHOR0
 469 0006 C0F20005 		movt	r5, #:upper16:.LANCHOR0
 470 000a 40F20002 		movw	r2, #:lower16:notify1
 471 000e 2846     		mov	r0, r5
 472 0010 0021     		movs	r1, #0
 473 0012 C0F20002 		movt	r2, #:upper16:notify1
 474              		.loc 1 386 0
 475 0016 40F20004 		movw	r4, #:lower16:.LANCHOR1
 476              		.loc 1 376 0
 477 001a FFF7FEFF 		bl	sdObjectInit
 478              	.LVL58:
 479              		.loc 1 386 0
 480 001e C0F20004 		movt	r4, #:upper16:.LANCHOR1
 481              		.loc 1 377 0
 482 0022 4FF46053 		mov	r3, #14336
 483              		.loc 1 386 0
 484 0026 40F20002 		movw	r2, #:lower16:notify3
 485              		.loc 1 377 0
 486 002a C4F20103 		movt	r3, 16385
 487              		.loc 1 386 0
 488 002e 2046     		mov	r0, r4
 489 0030 0021     		movs	r1, #0
 490 0032 C0F20002 		movt	r2, #:upper16:notify3
 491              		.loc 1 377 0
 492 0036 C5F8D030 		str	r3, [r5, #208]
 493              		.loc 1 386 0
 494 003a FFF7FEFF 		bl	sdObjectInit
 495              	.LVL59:
 496              		.loc 1 387 0
 497 003e 4FF49043 		mov	r3, #18432
 498 0042 C4F20003 		movt	r3, 16384
 499 0046 C4F8D030 		str	r3, [r4, #208]
 500 004a 38BD     		pop	{r3, r4, r5, pc}
 501              		.cfi_endproc
 502              	.LFE70:
 503              		.size	sd_lld_init, .-sd_lld_init
 504 004c AFF30080 		.section	.text.sd_lld_start,"ax",%progbits
 505              		.align	2
ARM GAS  /tmp/cc2DpUmI.s 			page 10


 506              		.p2align 4,,15
 507              		.global	sd_lld_start
 508              		.thumb
 509              		.thumb_func
 510              		.type	sd_lld_start, %function
 511              	sd_lld_start:
 512              	.LFB71:
 513              		.loc 1 416 0
 514              		.cfi_startproc
 515              		@ args = 0, pretend = 0, frame = 0
 516              		@ frame_needed = 0, uses_anonymous_args = 0
 517              	.LVL60:
 518 0000 38B5     		push	{r3, r4, r5, lr}
 519              	.LCFI4:
 520              		.cfi_def_cfa_offset 16
 521              		.cfi_offset 3, -16
 522              		.cfi_offset 4, -12
 523              		.cfi_offset 5, -8
 524              		.cfi_offset 14, -4
 525              		.loc 1 421 0
 526 0002 037B     		ldrb	r3, [r0, #12]	@ zero_extendqisi2
 527              		.loc 1 419 0
 528 0004 234C     		ldr	r4, .L61
 529              		.loc 1 416 0
 530 0006 0546     		mov	r5, r0
 531              		.loc 1 419 0
 532 0008 0029     		cmp	r1, #0
 533 000a 18BF     		it	ne
 534 000c 0C46     		movne	r4, r1
 535              	.LVL61:
 536              		.loc 1 421 0
 537 000e 012B     		cmp	r3, #1
 538 0010 20D0     		beq	.L59
 539              	.LVL62:
 540              	.L54:
 541              	.LBB32:
 542              	.LBB33:
 543              		.loc 1 110 0
 544 0012 2168     		ldr	r1, [r4, #0]
 545 0014 4FF49042 		mov	r2, #18432
 546 0018 C0F2E812 		movt	r2, 488
 547              		.loc 1 100 0
 548 001c D5F8D030 		ldr	r3, [r5, #208]
 549              	.LVL63:
 550              		.loc 1 110 0
 551 0020 B2FBF1F2 		udiv	r2, r2, r1
 552 0024 92B2     		uxth	r2, r2
 553 0026 1A81     		strh	r2, [r3, #8]	@ movhi
 554              		.loc 1 119 0
 555 0028 A288     		ldrh	r2, [r4, #4]
 556              		.loc 1 117 0
 557 002a E088     		ldrh	r0, [r4, #6]
 558              		.loc 1 118 0
 559 002c 2189     		ldrh	r1, [r4, #8]
 560              		.loc 1 119 0
 561 002e 42F40452 		orr	r2, r2, #8448
 562              		.loc 1 117 0
ARM GAS  /tmp/cc2DpUmI.s 			page 11


 563 0032 40F04000 		orr	r0, r0, #64
 564              		.loc 1 118 0
 565 0036 41F00101 		orr	r1, r1, #1
 566              		.loc 1 119 0
 567 003a 42F02C02 		orr	r2, r2, #44
 568 003e 92B2     		uxth	r2, r2
 569              		.loc 1 117 0
 570 0040 80B2     		uxth	r0, r0
 571              		.loc 1 118 0
 572 0042 89B2     		uxth	r1, r1
 573              		.loc 1 117 0
 574 0044 1882     		strh	r0, [r3, #16]	@ movhi
 575              		.loc 1 118 0
 576 0046 9982     		strh	r1, [r3, #20]	@ movhi
 577              		.loc 1 119 0
 578 0048 9A81     		strh	r2, [r3, #12]	@ movhi
 579              		.loc 1 122 0
 580 004a 0022     		movs	r2, #0
 581 004c 1A80     		strh	r2, [r3, #0]	@ movhi
 582              		.loc 1 123 0
 583 004e 1A88     		ldrh	r2, [r3, #0]
 584              		.loc 1 124 0
 585 0050 9B88     		ldrh	r3, [r3, #4]
 586              	.LVL64:
 587 0052 38BD     		pop	{r3, r4, r5, pc}
 588              	.LVL65:
 589              	.L59:
 590              	.LBE33:
 591              	.LBE32:
 592              		.loc 1 423 0
 593 0054 104B     		ldr	r3, .L61+4
 594 0056 9842     		cmp	r0, r3
 595 0058 0FD0     		beq	.L60
 596              		.loc 1 437 0
 597 005a 104B     		ldr	r3, .L61+8
 598 005c 9842     		cmp	r0, r3
 599 005e D8D1     		bne	.L54
 600              		.loc 1 438 0
 601 0060 4FF46053 		mov	r3, #14336
 602 0064 C4F20203 		movt	r3, 16386
 603 0068 5A6A     		ldr	r2, [r3, #36]
 604              		.loc 1 439 0
 605 006a 2720     		movs	r0, #39
 606              	.LVL66:
 607              		.loc 1 438 0
 608 006c 42F48022 		orr	r2, r2, #262144
 609 0070 5A62     		str	r2, [r3, #36]
 610              		.loc 1 439 0
 611 0072 C021     		movs	r1, #192
 612 0074 FFF7FEFF 		bl	nvicEnableVector
 613              	.LVL67:
 614 0078 CBE7     		b	.L54
 615              	.LVL68:
 616              	.L60:
 617              		.loc 1 424 0
 618 007a 4FF46053 		mov	r3, #14336
 619 007e C4F20203 		movt	r3, 16386
ARM GAS  /tmp/cc2DpUmI.s 			page 12


 620 0082 1A6A     		ldr	r2, [r3, #32]
 621              		.loc 1 425 0
 622 0084 2520     		movs	r0, #37
 623              	.LVL69:
 624              		.loc 1 424 0
 625 0086 42F48042 		orr	r2, r2, #16384
 626 008a 1A62     		str	r2, [r3, #32]
 627              		.loc 1 425 0
 628 008c C021     		movs	r1, #192
 629 008e FFF7FEFF 		bl	nvicEnableVector
 630              	.LVL70:
 631 0092 BEE7     		b	.L54
 632              	.L62:
 633              		.align	2
 634              	.L61:
 635 0094 00000000 		.word	.LANCHOR2
 636 0098 00000000 		.word	.LANCHOR0
 637 009c 00000000 		.word	.LANCHOR1
 638              		.cfi_endproc
 639              	.LFE71:
 640              		.size	sd_lld_start, .-sd_lld_start
 641              		.section	.text.sd_lld_stop,"ax",%progbits
 642              		.align	2
 643              		.p2align 4,,15
 644              		.global	sd_lld_stop
 645              		.thumb
 646              		.thumb_func
 647              		.type	sd_lld_stop, %function
 648              	sd_lld_stop:
 649              	.LFB72:
 650              		.loc 1 477 0
 651              		.cfi_startproc
 652              		@ args = 0, pretend = 0, frame = 0
 653              		@ frame_needed = 0, uses_anonymous_args = 0
 654              		@ link register save eliminated.
 655              	.LVL71:
 656              		.loc 1 479 0
 657 0000 037B     		ldrb	r3, [r0, #12]	@ zero_extendqisi2
 658 0002 022B     		cmp	r3, #2
 659 0004 00D0     		beq	.L68
 660              	.L63:
 661 0006 7047     		bx	lr
 662              	.L68:
 663              		.loc 1 480 0
 664 0008 D0F8D030 		ldr	r3, [r0, #208]
 665              	.LVL72:
 666              	.LBB34:
 667              	.LBB35:
 668              		.loc 1 135 0
 669 000c 0022     		movs	r2, #0
 670 000e 9A81     		strh	r2, [r3, #12]	@ movhi
 671              		.loc 1 136 0
 672 0010 1A82     		strh	r2, [r3, #16]	@ movhi
 673              		.loc 1 137 0
 674 0012 9A82     		strh	r2, [r3, #20]	@ movhi
 675              	.LBE35:
 676              	.LBE34:
ARM GAS  /tmp/cc2DpUmI.s 			page 13


 677              		.loc 1 482 0
 678 0014 0D4B     		ldr	r3, .L70
 679              	.LVL73:
 680 0016 9842     		cmp	r0, r3
 681 0018 0DD0     		beq	.L69
 682              		.loc 1 496 0
 683 001a 0D4B     		ldr	r3, .L70+4
 684 001c 9842     		cmp	r0, r3
 685 001e F2D1     		bne	.L63
 686              		.loc 1 497 0
 687 0020 4FF46053 		mov	r3, #14336
 688 0024 C4F20203 		movt	r3, 16386
 689 0028 5A6A     		ldr	r2, [r3, #36]
 690              		.loc 1 498 0
 691 002a 2720     		movs	r0, #39
 692              	.LVL74:
 693              		.loc 1 497 0
 694 002c 22F48022 		bic	r2, r2, #262144
 695 0030 5A62     		str	r2, [r3, #36]
 696              		.loc 1 524 0
 697              		.loc 1 498 0
 698 0032 FFF7FEBF 		b	nvicDisableVector
 699              	.LVL75:
 700              	.L69:
 701              		.loc 1 483 0
 702 0036 4FF46053 		mov	r3, #14336
 703 003a C4F20203 		movt	r3, 16386
 704 003e 1A6A     		ldr	r2, [r3, #32]
 705              		.loc 1 484 0
 706 0040 2520     		movs	r0, #37
 707              	.LVL76:
 708              		.loc 1 483 0
 709 0042 22F48042 		bic	r2, r2, #16384
 710 0046 1A62     		str	r2, [r3, #32]
 711              		.loc 1 524 0
 712              		.loc 1 484 0
 713 0048 FFF7FEBF 		b	nvicDisableVector
 714              	.LVL77:
 715              	.L71:
 716              		.align	2
 717              	.L70:
 718 004c 00000000 		.word	.LANCHOR0
 719 0050 00000000 		.word	.LANCHOR1
 720              		.cfi_endproc
 721              	.LFE72:
 722              		.size	sd_lld_stop, .-sd_lld_stop
 723              		.global	SD3
 724              		.global	SD1
 725 0054 AFF30080 		.section	.rodata.default_config,"a",%progbits
 725      AFF30080 
 725      AFF30080 
 726              		.align	2
 727              		.set	.LANCHOR2,. + 0
 728              		.type	default_config, %object
 729              		.size	default_config, 12
 730              	default_config:
 731 0000 004B0000 		.word	19200
ARM GAS  /tmp/cc2DpUmI.s 			page 14


 732 0004 0000     		.short	0
 733 0006 0040     		.short	16384
 734 0008 0000     		.short	0
 735 000a 0000     		.space	2
 736              		.section	.bss.SD1,"aw",%nobits
 737              		.align	2
 738              		.set	.LANCHOR0,. + 0
 739              		.type	SD1, %object
 740              		.size	SD1, 212
 741              	SD1:
 742 0000 00000000 		.space	212
 742      00000000 
 742      00000000 
 742      00000000 
 742      00000000 
 743              		.section	.bss.SD3,"aw",%nobits
 744              		.align	2
 745              		.set	.LANCHOR1,. + 0
 746              		.type	SD3, %object
 747              		.size	SD3, 212
 748              	SD3:
 749 0000 00000000 		.space	212
 749      00000000 
 749      00000000 
 749      00000000 
 749      00000000 
 750              		.text
 751              	.Letext0:
 752              		.file 2 "/home/mitchd/Documents/FOX-1/amsat-fox/x86_64-toolchain/arm/bin/../lib/gcc/arm-none-eabi/
 753              		.file 3 "/home/mitchd/Documents/FOX-1/amsat-fox/x86_64-toolchain/arm/bin/../lib/gcc/arm-none-eabi/
 754              		.file 4 "./os/ports/GCC/ARMCMx/chtypes.h"
 755              		.file 5 "./os/kernel/include/chlists.h"
 756              		.file 6 "./os/kernel/include/chthreads.h"
 757              		.file 7 "./os/ports/GCC/ARMCMx/chcore_v7m.h"
 758              		.file 8 "./os/kernel/include/chmtx.h"
 759              		.file 9 "./os/kernel/include/chevents.h"
 760              		.file 10 "./os/kernel/include/chqueues.h"
 761              		.file 11 "./os/kernel/include/chioch.h"
 762              		.file 12 "./os/hal/platforms/STM32L1xx/stm32l1xx.h"
 763              		.file 13 "./os/hal/include/serial.h"
 764              		.file 14 "./os/hal/platforms/STM32/serial_lld.h"
 765              		.file 15 "./os/ports/common/ARMCMx/nvic.h"
 766              		.file 16 "./os/ports/common/ARMCMx/CMSIS/include/core_cm3.h"