ARM GAS  /tmp/cc2DpUmI.s 			page 1


   1              		.syntax unified
   2              		.cpu cortex-m3
   3              		.fpu softvfp
   4              		.eabi_attribute 20, 1
   5              		.eabi_attribute 21, 1
   6              		.eabi_attribute 23, 3
   7              		.eabi_attribute 24, 1
   8              		.eabi_attribute 25, 1
   9              		.eabi_attribute 26, 1
  10              		.eabi_attribute 30, 2
  11              		.eabi_attribute 34, 1
  12              		.eabi_attribute 18, 4
  13              		.thumb
  14              		.file	"serial_lld.c"
  15              		.text
  16              	.Ltext0:
  17              		.cfi_sections	.debug_frame
  18              		.section	.text.notify1,"ax",%progbits
  19              		.align	2
  20              		.p2align 4,,15
  21              		.thumb
  22              		.thumb_func
  23              		.type	notify1, %function
  24              	notify1:
  25              	.LFB66:
  26              		.file 1 "./os/hal/platforms/STM32/serial_lld.c"
  27              		.loc 1 217 0
  28              		.cfi_startproc
  29              		@ args = 0, pretend = 0, frame = 0
  30              		@ frame_needed = 0, uses_anonymous_args = 0
  31              		@ link register save eliminated.
  32              	.LVL0:
  33              		.loc 1 220 0
  34 0000 4FF46053 		mov	r3, #14336
  35 0004 C4F20103 		movt	r3, 16385
  36 0008 9A89     		ldrh	r2, [r3, #12]
  37 000a 92B2     		uxth	r2, r2
  38 000c 42F08002 		orr	r2, r2, #128
  39 0010 9A81     		strh	r2, [r3, #12]	@ movhi
  40 0012 7047     		bx	lr
  41              		.cfi_endproc
  42              	.LFE66:
  43              		.size	notify1, .-notify1
  44              		.section	.text.notify3,"ax",%progbits
  45              		.align	2
  46              		.p2align 4,,15
  47              		.thumb
  48              		.thumb_func
  49              		.type	notify3, %function
  50              	notify3:
  51              	.LFB67:
  52              		.loc 1 233 0
  53              		.cfi_startproc
  54              		@ args = 0, pretend = 0, frame = 0
  55              		@ frame_needed = 0, uses_anonymous_args = 0
  56              		@ link register save eliminated.
  57              	.LVL1:
ARM GAS  /tmp/cc2DpUmI.s 			page 2


  58              		.loc 1 236 0
  59 0000 4FF49043 		mov	r3, #18432
  60 0004 C4F20003 		movt	r3, 16384
  61 0008 9A89     		ldrh	r2, [r3, #12]
  62 000a 92B2     		uxth	r2, r2
  63 000c 42F08002 		orr	r2, r2, #128
  64 0010 9A81     		strh	r2, [r3, #12]	@ movhi
  65 0012 7047     		bx	lr
  66              		.cfi_endproc
  67              	.LFE67:
  68              		.size	notify3, .-notify3
  69 0014 AFF30080 		.section	.text.serve_interrupt,"ax",%progbits
  69      AFF30080 
  69      AFF30080 
  70              		.align	2
  71              		.p2align 4,,15
  72              		.thumb
  73              		.thumb_func
  74              		.type	serve_interrupt, %function
  75              	serve_interrupt:
  76              	.LFB65:
  77              		.loc 1 170 0
  78              		.cfi_startproc
  79              		@ args = 0, pretend = 0, frame = 0
  80              		@ frame_needed = 0, uses_anonymous_args = 0
  81              	.LVL2:
  82 0000 2DE9F041 		push	{r4, r5, r6, r7, r8, lr}
  83              	.LCFI0:
  84              		.cfi_def_cfa_offset 24
  85              		.cfi_offset 4, -24
  86              		.cfi_offset 5, -20
  87              		.cfi_offset 6, -16
  88              		.cfi_offset 7, -12
  89              		.cfi_offset 8, -8
  90              		.cfi_offset 14, -4
  91              		.loc 1 171 0
  92 0004 D0F8D050 		ldr	r5, [r0, #208]
  93              	.LVL3:
  94              		.loc 1 170 0
  95 0008 0646     		mov	r6, r0
  96              		.loc 1 172 0
  97 000a AF89     		ldrh	r7, [r5, #12]
  98              		.loc 1 173 0
  99 000c 2C88     		ldrh	r4, [r5, #0]
 100              		.loc 1 174 0
 101 000e A988     		ldrh	r1, [r5, #4]
 102              		.loc 1 173 0
 103 0010 A4B2     		uxth	r4, r4
 104              		.loc 1 177 0
 105 0012 2207     		lsls	r2, r4, #28
 106              		.loc 1 172 0
 107 0014 BFB2     		uxth	r7, r7
 108              	.LVL4:
 109              		.loc 1 174 0
 110 0016 1FFA81F8 		uxth	r8, r1
 111              	.LVL5:
 112              		.loc 1 177 0
ARM GAS  /tmp/cc2DpUmI.s 			page 3


 113 001a 50D1     		bne	.L44
 114              	.LVL6:
 115              	.L4:
 116              		.loc 1 180 0
 117 001c 04F48073 		and	r3, r4, #256
 118              	.LVL7:
 119 0020 9BB2     		uxth	r3, r3
 120 0022 002B     		cmp	r3, #0
 121 0024 36D1     		bne	.L45
 122              	.L9:
 123              		.loc 1 187 0
 124 0026 04F02003 		and	r3, r4, #32
 125 002a 9BB2     		uxth	r3, r3
 126 002c 33BB     		cbnz	r3, .L46
 127              	.LVL8:
 128              	.L10:
 129              		.loc 1 193 0
 130 002e 07F08003 		and	r3, r7, #128
 131              	.LVL9:
 132 0032 9BB2     		uxth	r3, r3
 133 0034 23B1     		cbz	r3, .L11
 134              		.loc 1 193 0 is_stmt 0 discriminator 1
 135 0036 04F08003 		and	r3, r4, #128
 136 003a 9BB2     		uxth	r3, r3
 137 003c 002B     		cmp	r3, #0
 138 003e 63D1     		bne	.L47
 139              	.LVL10:
 140              	.L11:
 141              		.loc 1 206 0 is_stmt 1
 142 0040 04F04004 		and	r4, r4, #64
 143              	.LVL11:
 144 0044 A4B2     		uxth	r4, r4
 145 0046 BCB1     		cbz	r4, .L3
 146              	.LBB17:
 147              		.loc 1 207 0
 148 0048 2023     		movs	r3, #32
 149              	.LVL12:
 150              	@ 207 "./os/hal/platforms/STM32/serial_lld.c" 1
 151 004a 83F31188 		msr     BASEPRI, r3
 152              	@ 0 "" 2
 153              	.LVL13:
 154              		.thumb
 155              	.LBE17:
 156              		.loc 1 208 0
 157 004e B368     		ldr	r3, [r6, #8]
 158              	.LVL14:
 159 0050 301D     		adds	r0, r6, #4
 160 0052 43F01003 		orr	r3, r3, #16
 161 0056 B360     		str	r3, [r6, #8]
 162 0058 0021     		movs	r1, #0
 163 005a FFF7FEFF 		bl	chEvtBroadcastFlagsI
 164              	.LVL15:
 165              	.LBB18:
 166              		.loc 1 209 0
 167 005e 0023     		movs	r3, #0
 168              	.LVL16:
 169              	@ 209 "./os/hal/platforms/STM32/serial_lld.c" 1
ARM GAS  /tmp/cc2DpUmI.s 			page 4


 170 0060 83F31188 		msr     BASEPRI, r3
 171              	@ 0 "" 2
 172              	.LVL17:
 173              		.thumb
 174              	.LBE18:
 175              		.loc 1 210 0
 176 0064 4FF6BF73 		movw	r3, #65471
 177              	.LVL18:
 178 0068 3B40     		ands	r3, r3, r7
 179 006a AB81     		strh	r3, [r5, #12]	@ movhi
 180              		.loc 1 211 0
 181 006c 2B88     		ldrh	r3, [r5, #0]
 182 006e 23F04003 		bic	r3, r3, #64
 183 0072 1B04     		lsls	r3, r3, #16
 184 0074 1B0C     		lsrs	r3, r3, #16
 185 0076 2B80     		strh	r3, [r5, #0]	@ movhi
 186              	.LVL19:
 187              	.L3:
 188 0078 BDE8F081 		pop	{r4, r5, r6, r7, r8, pc}
 189              	.LVL20:
 190              	.L46:
 191              	.LBB19:
 192              		.loc 1 188 0
 193 007c 2023     		movs	r3, #32
 194              	.LVL21:
 195              	@ 188 "./os/hal/platforms/STM32/serial_lld.c" 1
 196 007e 83F31188 		msr     BASEPRI, r3
 197              	@ 0 "" 2
 198              	.LVL22:
 199              		.thumb
 200              	.LBE19:
 201              		.loc 1 189 0
 202 0082 3046     		mov	r0, r6
 203 0084 5FFA88F1 		uxtb	r1, r8
 204 0088 FFF7FEFF 		bl	sdIncomingDataI
 205              	.LVL23:
 206              	.LBB20:
 207              		.loc 1 190 0
 208 008c 0023     		movs	r3, #0
 209              	@ 190 "./os/hal/platforms/STM32/serial_lld.c" 1
 210 008e 83F31188 		msr     BASEPRI, r3
 211              	@ 0 "" 2
 212              	.LVL24:
 213              		.thumb
 214 0092 CCE7     		b	.L10
 215              	.LVL25:
 216              	.L45:
 217              	.LBE20:
 218              	.LBB21:
 219              		.loc 1 181 0
 220 0094 2023     		movs	r3, #32
 221              	.LVL26:
 222              	@ 181 "./os/hal/platforms/STM32/serial_lld.c" 1
 223 0096 83F31188 		msr     BASEPRI, r3
 224              	@ 0 "" 2
 225              	.LVL27:
 226              		.thumb
ARM GAS  /tmp/cc2DpUmI.s 			page 5


 227              	.LBE21:
 228              		.loc 1 182 0
 229 009a B368     		ldr	r3, [r6, #8]
 230              	.LVL28:
 231 009c 301D     		adds	r0, r6, #4
 232 009e 43F40073 		orr	r3, r3, #512
 233 00a2 B360     		str	r3, [r6, #8]
 234 00a4 0021     		movs	r1, #0
 235 00a6 FFF7FEFF 		bl	chEvtBroadcastFlagsI
 236              	.LVL29:
 237              	.LBB22:
 238              		.loc 1 183 0
 239 00aa 0023     		movs	r3, #0
 240              	.LVL30:
 241              	@ 183 "./os/hal/platforms/STM32/serial_lld.c" 1
 242 00ac 83F31188 		msr     BASEPRI, r3
 243              	@ 0 "" 2
 244              	.LVL31:
 245              		.thumb
 246              	.LBE22:
 247              		.loc 1 184 0
 248 00b0 2B88     		ldrh	r3, [r5, #0]
 249              	.LVL32:
 250 00b2 23F48073 		bic	r3, r3, #256
 251 00b6 1B04     		lsls	r3, r3, #16
 252 00b8 1B0C     		lsrs	r3, r3, #16
 253 00ba 2B80     		strh	r3, [r5, #0]	@ movhi
 254 00bc B3E7     		b	.L9
 255              	.LVL33:
 256              	.L44:
 257              	.LBB23:
 258              	.LBB24:
 259              		.loc 1 152 0
 260 00be 04F00802 		and	r2, r4, #8
 261 00c2 92B2     		uxth	r2, r2
 262              		.loc 1 153 0
 263 00c4 002A     		cmp	r2, #0
 264 00c6 14BF     		ite	ne
 265 00c8 8022     		movne	r2, #128
 266 00ca 0022     		moveq	r2, #0
 267              	.LVL34:
 268              		.loc 1 154 0
 269 00cc E307     		lsls	r3, r4, #31
 270              		.loc 1 156 0
 271 00ce 04F00203 		and	r3, r4, #2
 272 00d2 9BB2     		uxth	r3, r3
 273              		.loc 1 155 0
 274 00d4 48BF     		it	mi
 275 00d6 42F02002 		orrmi	r2, r2, #32
 276              	.LVL35:
 277              		.loc 1 156 0
 278 00da 0BB1     		cbz	r3, .L7
 279              		.loc 1 157 0
 280 00dc 42F04002 		orr	r2, r2, #64
 281              	.LVL36:
 282              	.L7:
 283              		.loc 1 158 0
ARM GAS  /tmp/cc2DpUmI.s 			page 6


 284 00e0 04F00403 		and	r3, r4, #4
 285 00e4 9BB2     		uxth	r3, r3
 286 00e6 0BB1     		cbz	r3, .L8
 287              		.loc 1 159 0
 288 00e8 42F48072 		orr	r2, r2, #256
 289              	.LVL37:
 290              	.L8:
 291              	.LBB25:
 292              		.loc 1 160 0
 293 00ec 2023     		movs	r3, #32
 294              	.LVL38:
 295              	@ 160 "./os/hal/platforms/STM32/serial_lld.c" 1
 296 00ee 83F31188 		msr     BASEPRI, r3
 297              	@ 0 "" 2
 298              	.LVL39:
 299              		.thumb
 300              	.LBE25:
 301              		.loc 1 161 0
 302 00f2 B368     		ldr	r3, [r6, #8]
 303              	.LVL40:
 304 00f4 301D     		adds	r0, r6, #4
 305              	.LVL41:
 306 00f6 1A43     		orrs	r2, r2, r3
 307              	.LVL42:
 308 00f8 B260     		str	r2, [r6, #8]
 309 00fa 0021     		movs	r1, #0
 310              	.LVL43:
 311 00fc FFF7FEFF 		bl	chEvtBroadcastFlagsI
 312              	.LVL44:
 313              	.LBB26:
 314              		.loc 1 162 0
 315 0100 0023     		movs	r3, #0
 316              	@ 162 "./os/hal/platforms/STM32/serial_lld.c" 1
 317 0102 83F31188 		msr     BASEPRI, r3
 318              	@ 0 "" 2
 319              	.LVL45:
 320              		.thumb
 321 0106 89E7     		b	.L4
 322              	.LVL46:
 323              	.L47:
 324              	.LBE26:
 325              	.LBE24:
 326              	.LBE23:
 327              	.LBB27:
 328              	.LBB28:
 329              		.loc 1 195 0
 330 0108 2023     		movs	r3, #32
 331              	.LVL47:
 332              	@ 195 "./os/hal/platforms/STM32/serial_lld.c" 1
 333 010a 83F31188 		msr     BASEPRI, r3
 334              	@ 0 "" 2
 335              	.LVL48:
 336              		.thumb
 337              	.LBE28:
 338              		.loc 1 196 0
 339 010e 06F13000 		add	r0, r6, #48
 340 0112 FFF7FEFF 		bl	chOQGetI
ARM GAS  /tmp/cc2DpUmI.s 			page 7


 341              	.LVL49:
 342              		.loc 1 197 0
 343 0116 0028     		cmp	r0, #0
 344              		.loc 1 202 0
 345 0118 A4BF     		itt	ge
 346 011a 80B2     		uxthge	r0, r0
 347              	.LVL50:
 348 011c A880     		strhge	r0, [r5, #4]	@ movhi
 349              		.loc 1 197 0
 350 011e 03DB     		blt	.L48
 351              	.L13:
 352              	.LBB29:
 353              		.loc 1 203 0
 354 0120 0023     		movs	r3, #0
 355              	@ 203 "./os/hal/platforms/STM32/serial_lld.c" 1
 356 0122 83F31188 		msr     BASEPRI, r3
 357              	@ 0 "" 2
 358              	.LVL51:
 359              		.thumb
 360 0126 8BE7     		b	.L11
 361              	.LVL52:
 362              	.L48:
 363              	.LBE29:
 364              		.loc 1 198 0
 365 0128 B368     		ldr	r3, [r6, #8]
 366 012a 301D     		adds	r0, r6, #4
 367 012c 43F00803 		orr	r3, r3, #8
 368 0130 B360     		str	r3, [r6, #8]
 369 0132 0021     		movs	r1, #0
 370 0134 FFF7FEFF 		bl	chEvtBroadcastFlagsI
 371              	.LVL53:
 372              		.loc 1 199 0
 373 0138 27F0C003 		bic	r3, r7, #192
 374 013c 43F04003 		orr	r3, r3, #64
 375 0140 AB81     		strh	r3, [r5, #12]	@ movhi
 376 0142 EDE7     		b	.L13
 377              	.LBE27:
 378              		.cfi_endproc
 379              	.LFE65:
 380              		.size	serve_interrupt, .-serve_interrupt
 381 0144 AFF30080 		.section	.text.VectorD4,"ax",%progbits
 381      AFF30080 
 381      AFF30080 
 382              		.align	2
 383              		.p2align 4,,15
 384              		.global	VectorD4
 385              		.thumb
 386              		.thumb_func
 387              		.type	VectorD4, %function
 388              	VectorD4:
 389              	.LFB68:
 390              		.loc 1 274 0
 391              		.cfi_startproc
 392              		@ args = 0, pretend = 0, frame = 0
 393              		@ frame_needed = 0, uses_anonymous_args = 0
 394              		.loc 1 278 0
 395 0000 40F20000 		movw	r0, #:lower16:.LANCHOR0
ARM GAS  /tmp/cc2DpUmI.s 			page 8


 396              		.loc 1 274 0
 397 0004 08B5     		push	{r3, lr}
 398              	.LCFI1:
 399              		.cfi_def_cfa_offset 8
 400              		.cfi_offset 3, -8
 401              		.cfi_offset 14, -4
 402              		.loc 1 278 0
 403 0006 C0F20000 		movt	r0, #:upper16:.LANCHOR0
 404 000a FFF7FEFF 		bl	serve_interrupt
 405              	.LVL54:
 406              		.loc 1 281 0
 407 000e BDE80840 		pop	{r3, lr}
 408              		.loc 1 280 0
 409 0012 FFF7FEBF 		b	_port_irq_epilogue
 410              	.LVL55:
 411              		.cfi_endproc
 412              	.LFE68:
 413              		.size	VectorD4, .-VectorD4
 414 0016 00BFAFF3 		.section	.text.VectorDC,"ax",%progbits
 414      0080AFF3 
 414      0080
 415              		.align	2
 416              		.p2align 4,,15
 417              		.global	VectorDC
 418              		.thumb
 419              		.thumb_func
 420              		.type	VectorDC, %function
 421              	VectorDC:
 422              	.LFB69:
 423              		.loc 1 306 0
 424              		.cfi_startproc
 425              		@ args = 0, pretend = 0, frame = 0
 426              		@ frame_needed = 0, uses_anonymous_args = 0
 427              		.loc 1 310 0
 428 0000 40F20000 		movw	r0, #:lower16:.LANCHOR1
 429              		.loc 1 306 0
 430 0004 08B5     		push	{r3, lr}
 431              	.LCFI2:
 432              		.cfi_def_cfa_offset 8
 433              		.cfi_offset 3, -8
 434              		.cfi_offset 14, -4
 435              		.loc 1 310 0
 436 0006 C0F20000 		movt	r0, #:upper16:.LANCHOR1
 437 000a FFF7FEFF 		bl	serve_interrupt
 438              	.LVL56:
 439              		.loc 1 313 0
 440 000e BDE80840 		pop	{r3, lr}
 441              		.loc 1 312 0
 442 0012 FFF7FEBF 		b	_port_irq_epilogue
 443              	.LVL57:
 444              		.cfi_endproc
 445              	.LFE69:
 446              		.size	VectorDC, .-VectorDC
 447 0016 00BFAFF3 		.section	.text.sd_lld_init,"ax",%progbits
 447      0080AFF3 
 447      0080
 448              		.align	2
ARM GAS  /tmp/cc2DpUmI.s 			page 9


 449              		.p2align 4,,15
 450              		.global	sd_lld_init
 451              		.thumb
 452              		.thumb_func
 453              		.type	sd_lld_init, %function
 454              	sd_lld_init:
 455              	.LFB70:
 456              		.loc 1 373 0
 457              		.cfi_startproc
 458              		@ args = 0, pretend = 0, frame = 0
 459              		@ frame_needed = 0, uses_anonymous_args = 0
 460 0000 38B5     		push	{r3, r4, r5, lr}
 461              	.LCFI3:
 462              		.cfi_def_cfa_offset 16
 463              		.cfi_offset 3, -16
 464              		.cfi_offset 4, -12
 465              		.cfi_offset 5, -8
 466              		.cfi_offset 14, -4
 467              		.loc 1 376 0
 468 0002 40F20005 		movw	r5, #:lower16:.LANCHOR0
 469 0006 C0F20005 		movt	r5, #:upper16:.LANCHOR0
 470 000a 40F20002 		movw	r2, #:lower16:notify1
 471 000e 2846     		mov	r0, r5
 472 0010 0021     		movs	r1, #0
 473 0012 C0F20002 		movt	r2, #:upper16:notify1
 474              		.loc 1 386 0
 475 0016 40F20004 		movw	r4, #:lower16:.LANCHOR1
 476              		.loc 1 376 0
 477 001a FFF7FEFF 		bl	sdObjectInit
 478              	.LVL58:
 479              		.loc 1 386 0
 480 001e C0F20004 		movt	r4, #:upper16:.LANCHOR1
 481              		.loc 1 377 0
 482 0022 4FF46053 		mov	r3, #14336
 483              		.loc 1 386 0
 484 0026 40F20002 		movw	r2, #:lower16:notify3
 485              		.loc 1 377 0
 486 002a C4F20103 		movt	r3, 16385
 487              		.loc 1 386 0
 488 002e 2046     		mov	r0, r4
 489 0030 0021     		movs	r1, #0
 490 0032 C0F20002 		movt	r2, #:upper16:notify3
 491              		.loc 1 377 0
 492 0036 C5F8D030 		str	r3, [r5, #208]
 493              		.loc 1 386 0
 494 003a FFF7FEFF 		bl	sdObjectInit
 495              	.LVL59:
 496              		.loc 1 387 0
 497 003e 4FF49043 		mov	r3, #18432
 498 0042 C4F20003 		movt	r3, 16384
 499 0046 C4F8D030 		str	r3, [r4, #208]
 500 004a 38BD     		pop	{r3, r4, r5, pc}
 501              		.cfi_endproc
 502              	.LFE70:
 503              		.size	sd_lld_init, .-sd_lld_init
 504 004c AFF30080 		.section	.text.sd_lld_start,"ax",%progbits
 505              		.align	2
ARM GAS  /tmp/cc2DpUmI.s 			page 10


 506              		.p2align 4,,15
 507              		.global	sd_lld_start
 508              		.thumb
 509              		.thumb_func
 510              		.type	sd_lld_start, %function
 511              	sd_lld_start:
 512              	.LFB71:
 513              		.loc 1 416 0
 514              		.cfi_startproc
 515              		@ args = 0, pretend = 0, frame = 0
 516              		@ frame_needed = 0, uses_anonymous_args = 0
 517              	.LVL60:
 518 0000 38B5     		push	{r3, r4, r5, lr}
 519              	.LCFI4:
 520              		.cfi_def_cfa_offset 16
 521              		.cfi_offset 3, -16
 522              		.cfi_offset 4, -12
 523              		.cfi_offset 5, -8
 524              		.cfi_offset 14, -4
 525              		.loc 1 421 0
 526 0002 037B     		ldrb	r3, [r0, #12]	@ zero_extendqisi2
 527              		.loc 1 419 0
 528 0004 234C     		ldr	r4, .L61
 529              		.loc 1 416 0
 530 0006 0546     		mov	r5, r0
 531              		.loc 1 419 0
 532 0008 0029     		cmp	r1, #0
 533 000a 18BF     		it	ne
 534 000c 0C46     		movne	r4, r1
 535              	.LVL61:
 536              		.loc 1 421 0
 537 000e 012B     		cmp	r3, #1
 538 0010 20D0     		beq	.L59
 539              	.LVL62:
 540              	.L54:
 541              	.LBB32:
 542              	.LBB33:
 543              		.loc 1 110 0
 544 0012 2168     		ldr	r1, [r4, #0]
 545 0014 4FF49042 		mov	r2, #18432
 546 0018 C0F2E812 		movt	r2, 488
 547              		.loc 1 100 0
 548 001c D5F8D030 		ldr	r3, [r5, #208]
 549              	.LVL63:
 550              		.loc 1 110 0
 551 0020 B2FBF1F2 		udiv	r2, r2, r1
 552 0024 92B2     		uxth	r2, r2
 553 0026 1A81     		strh	r2, [r3, #8]	@ movhi
 554              		.loc 1 119 0
 555 0028 A288     		ldrh	r2, [r4, #4]
 556              		.loc 1 117 0
 557 002a E088     		ldrh	r0, [r4, #6]
 558              		.loc 1 118 0
 559 002c 2189     		ldrh	r1, [r4, #8]
 560              		.loc 1 119 0
 561 002e 42F40452 		orr	r2, r2, #8448
 562              		.loc 1 117 0
ARM GAS  /tmp/cc2DpUmI.s 			page 11


 563 0032 40F04000 		orr	r0, r0, #64
 564              		.loc 1 118 0
 565 0036 41F00101 		orr	r1, r1, #1
 566              		.loc 1 119 0
 567 003a 42F02C02 		orr	r2, r2, #44
 568 003e 92B2     		uxth	r2, r2
 569              		.loc 1 117 0
 570 0040 80B2     		uxth	r0, r0
 571              		.loc 1 118 0
 572 0042 89B2     		uxth	r1, r1
 573              		.loc 1 117 0
 574 0044 1882     		strh	r0, [r3, #16]	@ movhi
 575              		.loc 1 118 0
 576 0046 9982     		strh	r1, [r3, #20]	@ movhi
 577              		.loc 1 119 0
 578 0048 9A81     		strh	r2, [r3, #12]	@ movhi
 579              		.loc 1 122 0
 580 004a 0022     		movs	r2, #0
 581 004c 1A80     		strh	r2, [r3, #0]	@ movhi
 582              		.loc 1 123 0
 583 004e 1A88     		ldrh	r2, [r3, #0]
 584              		.loc 1 124 0
 585 0050 9B88     		ldrh	r3, [r3, #4]
 586              	.LVL64:
 587 0052 38BD     		pop	{r3, r4, r5, pc}
 588              	.LVL65:
 589              	.L59:
 590              	.LBE33:
 591              	.LBE32:
 592              		.loc 1 423 0
 593 0054 104B     		ldr	r3, .L61+4
 594 0056 9842     		cmp	r0, r3
 595 0058 0FD0     		beq	.L60
 596              		.loc 1 437 0
 597 005a 104B     		ldr	r3, .L61+8
 598 005c 9842     		cmp	r0, r3
 599 005e D8D1     		bne	.L54
 600              		.loc 1 438 0
 601 0060 4FF46053 		mov	r3, #14336
 602 0064 C4F20203 		movt	r3, 16386
 603 0068 5A6A     		ldr	r2, [r3, #36]
 604              		.loc 1 439 0
 605 006a 2720     		movs	r0, #39
 606              	.LVL66:
 607              		.loc 1 438 0
 608 006c 42F48022 		orr	r2, r2, #262144
 609 0070 5A62     		str	r2, [r3, #36]
 610              		.loc 1 439 0
 611 0072 C021     		movs	r1, #192
 612 0074 FFF7FEFF 		bl	nvicEnableVector
 613              	.LVL67:
 614 0078 CBE7     		b	.L54
 615              	.LVL68:
 616              	.L60:
 617              		.loc 1 424 0
 618 007a 4FF46053 		mov	r3, #14336
 619 007e C4F20203 		movt	r3, 16386
ARM GAS  /tmp/cc2DpUmI.s 			page 12


 620 0082 1A6A     		ldr	r2, [r3, #32]
 621              		.loc 1 425 0
 622 0084 2520     		movs	r0, #37
 623              	.LVL69:
 624              		.loc 1 424 0
 625 0086 42F48042 		orr	r2, r2, #16384
 626 008a 1A62     		str	r2, [r3, #32]
 627              		.loc 1 425 0
 628 008c C021     		movs	r1, #192
 629 008e FFF7FEFF 		bl	nvicEnableVector
 630              	.LVL70:
 631 0092 BEE7     		b	.L54
 632              	.L62:
 633              		.align	2
 634              	.L61:
 635 0094 00000000 		.word	.LANCHOR2
 636 0098 00000000 		.word	.LANCHOR0
 637 009c 00000000 		.word	.LANCHOR1
 638              		.cfi_endproc
 639              	.LFE71:
 640              		.size	sd_lld_start, .-sd_lld_start
 641              		.section	.text.sd_lld_stop,"ax",%progbits
 642              		.align	2
 643              		.p2align 4,,15
 644              		.global	sd_lld_stop
 645              		.thumb
 646              		.thumb_func
 647              		.type	sd_lld_stop, %function
 648              	sd_lld_stop:
 649              	.LFB72:
 650              		.loc 1 477 0
 651              		.cfi_startproc
 652              		@ args = 0, pretend = 0, frame = 0
 653              		@ frame_needed = 0, uses_anonymous_args = 0
 654              		@ link register save eliminated.
 655              	.LVL71:
 656              		.loc 1 479 0
 657 0000 037B     		ldrb	r3, [r0, #12]	@ zero_extendqisi2
 658 0002 022B     		cmp	r3, #2
 659 0004 00D0     		beq	.L68
 660              	.L63:
 661 0006 7047     		bx	lr
 662              	.L68:
 663              		.loc 1 480 0
 664 0008 D0F8D030 		ldr	r3, [r0, #208]
 665              	.LVL72:
 666              	.LBB34:
 667              	.LBB35:
 668              		.loc 1 135 0
 669 000c 0022     		movs	r2, #0
 670 000e 9A81     		strh	r2, [r3, #12]	@ movhi
 671              		.loc 1 136 0
 672 0010 1A82     		strh	r2, [r3, #16]	@ movhi
 673              		.loc 1 137 0
 674 0012 9A82     		strh	r2, [r3, #20]	@ movhi
 675              	.LBE35:
 676              	.LBE34:
ARM GAS  /tmp/cc2DpUmI.s 			page 13


 677              		.loc 1 482 0
 678 0014 0D4B     		ldr	r3, .L70
 679              	.LVL73:
 680 0016 9842     		cmp	r0, r3
 681 0018 0DD0     		beq	.L69
 682              		.loc 1 496 0
 683 001a 0D4B     		ldr	r3, .L70+4
 684 001c 9842     		cmp	r0, r3
 685 001e F2D1     		bne	.L63
 686              		.loc 1 497 0
 687 0020 4FF46053 		mov	r3, #14336
 688 0024 C4F20203 		movt	r3, 16386
 689 0028 5A6A     		ldr	r2, [r3, #36]
 690              		.loc 1 498 0
 691 002a 2720     		movs	r0, #39
 692              	.LVL74:
 693              		.loc 1 497 0
 694 002c 22F48022 		bic	r2, r2, #262144
 695 0030 5A62     		str	r2, [r3, #36]
 696              		.loc 1 524 0
 697              		.loc 1 498 0
 698 0032 FFF7FEBF 		b	nvicDisableVector
 699              	.LVL75:
 700              	.L69:
 701              		.loc 1 483 0
 702 0036 4FF46053 		mov	r3, #14336
 703 003a C4F20203 		movt	r3, 16386
 704 003e 1A6A     		ldr	r2, [r3, #32]
 705              		.loc 1 484 0
 706 0040 2520     		movs	r0, #37
 707              	.LVL76:
 708              		.loc 1 483 0
 709 0042 22F48042 		bic	r2, r2, #16384
 710 0046 1A62     		str	r2, [r3, #32]
 711              		.loc 1 524 0
 712              		.loc 1 484 0
 713 0048 FFF7FEBF 		b	nvicDisableVector
 714              	.LVL77:
 715              	.L71:
 716              		.align	2
 717              	.L70:
 718 004c 00000000 		.word	.LANCHOR0
 719 0050 00000000 		.word	.LANCHOR1
 720              		.cfi_endproc
 721              	.LFE72:
 722              		.size	sd_lld_stop, .-sd_lld_stop
 723              		.global	SD3
 724              		.global	SD1
 725 0054 AFF30080 		.section	.rodata.default_config,"a",%progbits
 725      AFF30080 
 725      AFF30080 
 726              		.align	2
 727              		.set	.LANCHOR2,. + 0
 728              		.type	default_config, %object
 729              		.size	default_config, 12
 730              	default_config:
 731 0000 004B0000 		.word	19200
ARM GAS  /tmp/cc2DpUmI.s 			page 14


 732 0004 0000     		.short	0
 733 0006 0040     		.short	16384
 734 0008 0000     		.short	0
 735 000a 0000     		.space	2
 736              		.section	.bss.SD1,"aw",%nobits
 737              		.align	2
 738              		.set	.LANCHOR0,. + 0
 739              		.type	SD1, %object
 740              		.size	SD1, 212
 741              	SD1:
 742 0000 00000000 		.space	212
 742      00000000 
 742      00000000 
 742      00000000 
 742      00000000 
 743              		.section	.bss.SD3,"aw",%nobits
 744              		.align	2
 745              		.set	.LANCHOR1,. + 0
 746              		.type	SD3, %object
 747              		.size	SD3, 212
 748              	SD3:
 749 0000 00000000 		.space	212
 749      00000000 
 749      00000000 
 749      00000000 
 749      00000000 
 750              		.text
 751              	.Letext0:
 752              		.file 2 "/home/mitchd/Documents/FOX-1/amsat-fox/x86_64-toolchain/arm/bin/../lib/gcc/arm-none-eabi/
 753              		.file 3 "/home/mitchd/Documents/FOX-1/amsat-fox/x86_64-toolchain/arm/bin/../lib/gcc/arm-none-eabi/
 754              		.file 4 "./os/ports/GCC/ARMCMx/chtypes.h"
 755              		.file 5 "./os/kernel/include/chlists.h"
 756              		.file 6 "./os/kernel/include/chthreads.h"
 757              		.file 7 "./os/ports/GCC/ARMCMx/chcore_v7m.h"
 758              		.file 8 "./os/kernel/include/chmtx.h"
 759              		.file 9 "./os/kernel/include/chevents.h"
 760              		.file 10 "./os/kernel/include/chqueues.h"
 761              		.file 11 "./os/kernel/include/chioch.h"
 762              		.file 12 "./os/hal/platforms/STM32L1xx/stm32l1xx.h"
 763              		.file 13 "./os/hal/include/serial.h"
 764              		.file 14 "./os/hal/platforms/STM32/serial_lld.h"
 765              		.file 15 "./os/ports/common/ARMCMx/nvic.h"
 766              		.file 16 "./os/ports/common/ARMCMx/CMSIS/include/core_cm3.h"
 767              		.section	.debug_info,"",%progbits
 768              	.Ldebug_info0:
 769 0000 FB100000 		.4byte	0x10fb
 770 0004 0200     		.2byte	0x2
 771 0006 00000000 		.4byte	.Ldebug_abbrev0
 772 000a 04       		.byte	0x4
 773 000b 01       		.uleb128 0x1
 774 000c 0D020000 		.4byte	.LASF191
 775 0010 01       		.byte	0x1
 776 0011 2D030000 		.4byte	.LASF192
 777 0015 88040000 		.4byte	.LASF193
 778 0019 00000000 		.4byte	.Ldebug_ranges0+0
 779 001d 00000000 		.4byte	0
 780 0021 00000000 		.4byte	0
ARM GAS  /tmp/cc2DpUmI.s 			page 15


 781 0025 00000000 		.4byte	.Ldebug_line0
 782 0029 02       		.uleb128 0x2
 783 002a 04       		.byte	0x4
 784 002b 05       		.byte	0x5
 785 002c 696E7400 		.ascii	"int\000"
 786 0030 03       		.uleb128 0x3
 787 0031 C1020000 		.4byte	.LASF2
 788 0035 02       		.byte	0x2
 789 0036 D5       		.byte	0xd5
 790 0037 3B000000 		.4byte	0x3b
 791 003b 04       		.uleb128 0x4
 792 003c 04       		.byte	0x4
 793 003d 07       		.byte	0x7
 794 003e E9000000 		.4byte	.LASF0
 795 0042 04       		.uleb128 0x4
 796 0043 01       		.byte	0x1
 797 0044 06       		.byte	0x6
 798 0045 EF070000 		.4byte	.LASF1
 799 0049 03       		.uleb128 0x3
 800 004a 1D040000 		.4byte	.LASF3
 801 004e 03       		.byte	0x3
 802 004f 2A       		.byte	0x2a
 803 0050 54000000 		.4byte	0x54
 804 0054 04       		.uleb128 0x4
 805 0055 01       		.byte	0x1
 806 0056 08       		.byte	0x8
 807 0057 7C070000 		.4byte	.LASF4
 808 005b 04       		.uleb128 0x4
 809 005c 02       		.byte	0x2
 810 005d 05       		.byte	0x5
 811 005e 37060000 		.4byte	.LASF5
 812 0062 03       		.uleb128 0x3
 813 0063 91050000 		.4byte	.LASF6
 814 0067 03       		.byte	0x3
 815 0068 36       		.byte	0x36
 816 0069 6D000000 		.4byte	0x6d
 817 006d 04       		.uleb128 0x4
 818 006e 02       		.byte	0x2
 819 006f 07       		.byte	0x7
 820 0070 10080000 		.4byte	.LASF7
 821 0074 03       		.uleb128 0x3
 822 0075 40070000 		.4byte	.LASF8
 823 0079 03       		.byte	0x3
 824 007a 4F       		.byte	0x4f
 825 007b 7F000000 		.4byte	0x7f
 826 007f 04       		.uleb128 0x4
 827 0080 04       		.byte	0x4
 828 0081 05       		.byte	0x5
 829 0082 65060000 		.4byte	.LASF9
 830 0086 03       		.uleb128 0x3
 831 0087 D1010000 		.4byte	.LASF10
 832 008b 03       		.byte	0x3
 833 008c 50       		.byte	0x50
 834 008d 91000000 		.4byte	0x91
 835 0091 04       		.uleb128 0x4
 836 0092 04       		.byte	0x4
 837 0093 07       		.byte	0x7
ARM GAS  /tmp/cc2DpUmI.s 			page 16


 838 0094 24070000 		.4byte	.LASF11
 839 0098 04       		.uleb128 0x4
 840 0099 08       		.byte	0x8
 841 009a 05       		.byte	0x5
 842 009b 51040000 		.4byte	.LASF12
 843 009f 04       		.uleb128 0x4
 844 00a0 08       		.byte	0x8
 845 00a1 07       		.byte	0x7
 846 00a2 66020000 		.4byte	.LASF13
 847 00a6 03       		.uleb128 0x3
 848 00a7 00000000 		.4byte	.LASF14
 849 00ab 03       		.byte	0x3
 850 00ac A6       		.byte	0xa6
 851 00ad 3B000000 		.4byte	0x3b
 852 00b1 03       		.uleb128 0x3
 853 00b2 DB020000 		.4byte	.LASF15
 854 00b6 04       		.byte	0x4
 855 00b7 2E       		.byte	0x2e
 856 00b8 74000000 		.4byte	0x74
 857 00bc 03       		.uleb128 0x3
 858 00bd 62050000 		.4byte	.LASF16
 859 00c1 04       		.byte	0x4
 860 00c2 2F       		.byte	0x2f
 861 00c3 49000000 		.4byte	0x49
 862 00c7 03       		.uleb128 0x3
 863 00c8 E8030000 		.4byte	.LASF17
 864 00cc 04       		.byte	0x4
 865 00cd 30       		.byte	0x30
 866 00ce 49000000 		.4byte	0x49
 867 00d2 03       		.uleb128 0x3
 868 00d3 0E070000 		.4byte	.LASF18
 869 00d7 04       		.byte	0x4
 870 00d8 31       		.byte	0x31
 871 00d9 49000000 		.4byte	0x49
 872 00dd 03       		.uleb128 0x3
 873 00de 29020000 		.4byte	.LASF19
 874 00e2 04       		.byte	0x4
 875 00e3 32       		.byte	0x32
 876 00e4 86000000 		.4byte	0x86
 877 00e8 03       		.uleb128 0x3
 878 00e9 82040000 		.4byte	.LASF20
 879 00ed 04       		.byte	0x4
 880 00ee 33       		.byte	0x33
 881 00ef 74000000 		.4byte	0x74
 882 00f3 03       		.uleb128 0x3
 883 00f4 EC010000 		.4byte	.LASF21
 884 00f8 04       		.byte	0x4
 885 00f9 35       		.byte	0x35
 886 00fa 86000000 		.4byte	0x86
 887 00fe 03       		.uleb128 0x3
 888 00ff AF000000 		.4byte	.LASF22
 889 0103 04       		.byte	0x4
 890 0104 36       		.byte	0x36
 891 0105 86000000 		.4byte	0x86
 892 0109 03       		.uleb128 0x3
 893 010a E1030000 		.4byte	.LASF23
 894 010e 05       		.byte	0x5
ARM GAS  /tmp/cc2DpUmI.s 			page 17


 895 010f 2A       		.byte	0x2a
 896 0110 14010000 		.4byte	0x114
 897 0114 05       		.uleb128 0x5
 898 0115 E1030000 		.4byte	.LASF23
 899 0119 48       		.byte	0x48
 900 011a 06       		.byte	0x6
 901 011b 5E       		.byte	0x5e
 902 011c 2B020000 		.4byte	0x22b
 903 0120 06       		.uleb128 0x6
 904 0121 A9060000 		.4byte	.LASF24
 905 0125 06       		.byte	0x6
 906 0126 5F       		.byte	0x5f
 907 0127 50020000 		.4byte	0x250
 908 012b 02       		.byte	0x2
 909 012c 23       		.byte	0x23
 910 012d 00       		.uleb128 0
 911 012e 06       		.uleb128 0x6
 912 012f FE060000 		.4byte	.LASF25
 913 0133 06       		.byte	0x6
 914 0134 61       		.byte	0x61
 915 0135 50020000 		.4byte	0x250
 916 0139 02       		.byte	0x2
 917 013a 23       		.byte	0x23
 918 013b 04       		.uleb128 0x4
 919 013c 06       		.uleb128 0x6
 920 013d 54000000 		.4byte	.LASF26
 921 0141 06       		.byte	0x6
 922 0142 63       		.byte	0x63
 923 0143 DD000000 		.4byte	0xdd
 924 0147 02       		.byte	0x2
 925 0148 23       		.byte	0x23
 926 0149 08       		.uleb128 0x8
 927 014a 06       		.uleb128 0x6
 928 014b B0060000 		.4byte	.LASF27
 929 014f 06       		.byte	0x6
 930 0150 64       		.byte	0x64
 931 0151 1D030000 		.4byte	0x31d
 932 0155 02       		.byte	0x2
 933 0156 23       		.byte	0x23
 934 0157 0C       		.uleb128 0xc
 935 0158 06       		.uleb128 0x6
 936 0159 90020000 		.4byte	.LASF28
 937 015d 06       		.byte	0x6
 938 015e 66       		.byte	0x66
 939 015f 50020000 		.4byte	0x250
 940 0163 02       		.byte	0x2
 941 0164 23       		.byte	0x23
 942 0165 10       		.uleb128 0x10
 943 0166 06       		.uleb128 0x6
 944 0167 0D040000 		.4byte	.LASF29
 945 016b 06       		.byte	0x6
 946 016c 67       		.byte	0x67
 947 016d 50020000 		.4byte	0x250
 948 0171 02       		.byte	0x2
 949 0172 23       		.byte	0x23
 950 0173 14       		.uleb128 0x14
 951 0174 06       		.uleb128 0x6
ARM GAS  /tmp/cc2DpUmI.s 			page 18


 952 0175 5E030000 		.4byte	.LASF30
 953 0179 06       		.byte	0x6
 954 017a 6E       		.byte	0x6e
 955 017b 3C040000 		.4byte	0x43c
 956 017f 02       		.byte	0x2
 957 0180 23       		.byte	0x23
 958 0181 18       		.uleb128 0x18
 959 0182 06       		.uleb128 0x6
 960 0183 15040000 		.4byte	.LASF31
 961 0187 06       		.byte	0x6
 962 0188 79       		.byte	0x79
 963 0189 C7000000 		.4byte	0xc7
 964 018d 02       		.byte	0x2
 965 018e 23       		.byte	0x23
 966 018f 1C       		.uleb128 0x1c
 967 0190 06       		.uleb128 0x6
 968 0191 D1040000 		.4byte	.LASF32
 969 0195 06       		.byte	0x6
 970 0196 7D       		.byte	0x7d
 971 0197 BC000000 		.4byte	0xbc
 972 019b 02       		.byte	0x2
 973 019c 23       		.byte	0x23
 974 019d 1D       		.uleb128 0x1d
 975 019e 06       		.uleb128 0x6
 976 019f 8A070000 		.4byte	.LASF33
 977 01a3 06       		.byte	0x6
 978 01a4 82       		.byte	0x82
 979 01a5 D2000000 		.4byte	0xd2
 980 01a9 02       		.byte	0x2
 981 01aa 23       		.byte	0x23
 982 01ab 1E       		.uleb128 0x1e
 983 01ac 06       		.uleb128 0x6
 984 01ad 44000000 		.4byte	.LASF34
 985 01b1 06       		.byte	0x6
 986 01b2 89       		.byte	0x89
 987 01b3 4C030000 		.4byte	0x34c
 988 01b7 02       		.byte	0x2
 989 01b8 23       		.byte	0x23
 990 01b9 20       		.uleb128 0x20
 991 01ba 07       		.uleb128 0x7
 992 01bb 705F7500 		.ascii	"p_u\000"
 993 01bf 06       		.byte	0x6
 994 01c0 AE       		.byte	0xae
 995 01c1 07040000 		.4byte	0x407
 996 01c5 02       		.byte	0x2
 997 01c6 23       		.byte	0x23
 998 01c7 24       		.uleb128 0x24
 999 01c8 06       		.uleb128 0x6
 1000 01c9 25000000 		.4byte	.LASF35
 1001 01cd 06       		.byte	0x6
 1002 01ce B3       		.byte	0xb3
 1003 01cf 78020000 		.4byte	0x278
 1004 01d3 02       		.byte	0x2
 1005 01d4 23       		.byte	0x23
 1006 01d5 28       		.uleb128 0x28
 1007 01d6 06       		.uleb128 0x6
 1008 01d7 DE000000 		.4byte	.LASF36
ARM GAS  /tmp/cc2DpUmI.s 			page 19


 1009 01db 06       		.byte	0x6
 1010 01dc B9       		.byte	0xb9
 1011 01dd 56020000 		.4byte	0x256
 1012 01e1 02       		.byte	0x2
 1013 01e2 23       		.byte	0x23
 1014 01e3 2C       		.uleb128 0x2c
 1015 01e4 06       		.uleb128 0x6
 1016 01e5 5C050000 		.4byte	.LASF37
 1017 01e9 06       		.byte	0x6
 1018 01ea BD       		.byte	0xbd
 1019 01eb E8000000 		.4byte	0xe8
 1020 01ef 02       		.byte	0x2
 1021 01f0 23       		.byte	0x23
 1022 01f1 34       		.uleb128 0x34
 1023 01f2 06       		.uleb128 0x6
 1024 01f3 52060000 		.4byte	.LASF38
 1025 01f7 06       		.byte	0x6
 1026 01f8 C3       		.byte	0xc3
 1027 01f9 F3000000 		.4byte	0xf3
 1028 01fd 02       		.byte	0x2
 1029 01fe 23       		.byte	0x23
 1030 01ff 38       		.uleb128 0x38
 1031 0200 06       		.uleb128 0x6
 1032 0201 2D040000 		.4byte	.LASF39
 1033 0205 06       		.byte	0x6
 1034 0206 CA       		.byte	0xca
 1035 0207 4E040000 		.4byte	0x44e
 1036 020b 02       		.byte	0x2
 1037 020c 23       		.byte	0x23
 1038 020d 3C       		.uleb128 0x3c
 1039 020e 06       		.uleb128 0x6
 1040 020f F0050000 		.4byte	.LASF40
 1041 0213 06       		.byte	0x6
 1042 0214 CE       		.byte	0xce
 1043 0215 DD000000 		.4byte	0xdd
 1044 0219 02       		.byte	0x2
 1045 021a 23       		.byte	0x23
 1046 021b 40       		.uleb128 0x40
 1047 021c 06       		.uleb128 0x6
 1048 021d 25040000 		.4byte	.LASF41
 1049 0221 06       		.byte	0x6
 1050 0222 D4       		.byte	0xd4
 1051 0223 8E020000 		.4byte	0x28e
 1052 0227 02       		.byte	0x2
 1053 0228 23       		.byte	0x23
 1054 0229 44       		.uleb128 0x44
 1055 022a 00       		.byte	0
 1056 022b 08       		.uleb128 0x8
 1057 022c 08       		.byte	0x8
 1058 022d 05       		.byte	0x5
 1059 022e 61       		.byte	0x61
 1060 022f 50020000 		.4byte	0x250
 1061 0233 06       		.uleb128 0x6
 1062 0234 A9060000 		.4byte	.LASF24
 1063 0238 05       		.byte	0x5
 1064 0239 62       		.byte	0x62
 1065 023a 50020000 		.4byte	0x250
ARM GAS  /tmp/cc2DpUmI.s 			page 20


 1066 023e 02       		.byte	0x2
 1067 023f 23       		.byte	0x23
 1068 0240 00       		.uleb128 0
 1069 0241 06       		.uleb128 0x6
 1070 0242 FE060000 		.4byte	.LASF25
 1071 0246 05       		.byte	0x5
 1072 0247 64       		.byte	0x64
 1073 0248 50020000 		.4byte	0x250
 1074 024c 02       		.byte	0x2
 1075 024d 23       		.byte	0x23
 1076 024e 04       		.uleb128 0x4
 1077 024f 00       		.byte	0
 1078 0250 09       		.uleb128 0x9
 1079 0251 04       		.byte	0x4
 1080 0252 09010000 		.4byte	0x109
 1081 0256 03       		.uleb128 0x3
 1082 0257 97030000 		.4byte	.LASF42
 1083 025b 05       		.byte	0x5
 1084 025c 66       		.byte	0x66
 1085 025d 2B020000 		.4byte	0x22b
 1086 0261 08       		.uleb128 0x8
 1087 0262 04       		.byte	0x4
 1088 0263 05       		.byte	0x5
 1089 0264 6B       		.byte	0x6b
 1090 0265 78020000 		.4byte	0x278
 1091 0269 06       		.uleb128 0x6
 1092 026a A9060000 		.4byte	.LASF24
 1093 026e 05       		.byte	0x5
 1094 026f 6D       		.byte	0x6d
 1095 0270 50020000 		.4byte	0x250
 1096 0274 02       		.byte	0x2
 1097 0275 23       		.byte	0x23
 1098 0276 00       		.uleb128 0
 1099 0277 00       		.byte	0
 1100 0278 03       		.uleb128 0x3
 1101 0279 19000000 		.4byte	.LASF43
 1102 027d 05       		.byte	0x5
 1103 027e 70       		.byte	0x70
 1104 027f 61020000 		.4byte	0x261
 1105 0283 03       		.uleb128 0x3
 1106 0284 4B000000 		.4byte	.LASF44
 1107 0288 07       		.byte	0x7
 1108 0289 D7       		.byte	0xd7
 1109 028a 8E020000 		.4byte	0x28e
 1110 028e 0A       		.uleb128 0xa
 1111 028f 04       		.byte	0x4
 1112 0290 05       		.uleb128 0x5
 1113 0291 AC050000 		.4byte	.LASF45
 1114 0295 24       		.byte	0x24
 1115 0296 07       		.byte	0x7
 1116 0297 FE       		.byte	0xfe
 1117 0298 1D030000 		.4byte	0x31d
 1118 029c 0B       		.uleb128 0xb
 1119 029d 723400   		.ascii	"r4\000"
 1120 02a0 07       		.byte	0x7
 1121 02a1 1101     		.2byte	0x111
 1122 02a3 83020000 		.4byte	0x283
ARM GAS  /tmp/cc2DpUmI.s 			page 21


 1123 02a7 02       		.byte	0x2
 1124 02a8 23       		.byte	0x23
 1125 02a9 00       		.uleb128 0
 1126 02aa 0B       		.uleb128 0xb
 1127 02ab 723500   		.ascii	"r5\000"
 1128 02ae 07       		.byte	0x7
 1129 02af 1201     		.2byte	0x112
 1130 02b1 83020000 		.4byte	0x283
 1131 02b5 02       		.byte	0x2
 1132 02b6 23       		.byte	0x23
 1133 02b7 04       		.uleb128 0x4
 1134 02b8 0B       		.uleb128 0xb
 1135 02b9 723600   		.ascii	"r6\000"
 1136 02bc 07       		.byte	0x7
 1137 02bd 1301     		.2byte	0x113
 1138 02bf 83020000 		.4byte	0x283
 1139 02c3 02       		.byte	0x2
 1140 02c4 23       		.byte	0x23
 1141 02c5 08       		.uleb128 0x8
 1142 02c6 0B       		.uleb128 0xb
 1143 02c7 723700   		.ascii	"r7\000"
 1144 02ca 07       		.byte	0x7
 1145 02cb 1401     		.2byte	0x114
 1146 02cd 83020000 		.4byte	0x283
 1147 02d1 02       		.byte	0x2
 1148 02d2 23       		.byte	0x23
 1149 02d3 0C       		.uleb128 0xc
 1150 02d4 0B       		.uleb128 0xb
 1151 02d5 723800   		.ascii	"r8\000"
 1152 02d8 07       		.byte	0x7
 1153 02d9 1501     		.2byte	0x115
 1154 02db 83020000 		.4byte	0x283
 1155 02df 02       		.byte	0x2
 1156 02e0 23       		.byte	0x23
 1157 02e1 10       		.uleb128 0x10
 1158 02e2 0B       		.uleb128 0xb
 1159 02e3 723900   		.ascii	"r9\000"
 1160 02e6 07       		.byte	0x7
 1161 02e7 1601     		.2byte	0x116
 1162 02e9 83020000 		.4byte	0x283
 1163 02ed 02       		.byte	0x2
 1164 02ee 23       		.byte	0x23
 1165 02ef 14       		.uleb128 0x14
 1166 02f0 0B       		.uleb128 0xb
 1167 02f1 72313000 		.ascii	"r10\000"
 1168 02f5 07       		.byte	0x7
 1169 02f6 1701     		.2byte	0x117
 1170 02f8 83020000 		.4byte	0x283
 1171 02fc 02       		.byte	0x2
 1172 02fd 23       		.byte	0x23
 1173 02fe 18       		.uleb128 0x18
 1174 02ff 0B       		.uleb128 0xb
 1175 0300 72313100 		.ascii	"r11\000"
 1176 0304 07       		.byte	0x7
 1177 0305 1801     		.2byte	0x118
 1178 0307 83020000 		.4byte	0x283
 1179 030b 02       		.byte	0x2
ARM GAS  /tmp/cc2DpUmI.s 			page 22


 1180 030c 23       		.byte	0x23
 1181 030d 1C       		.uleb128 0x1c
 1182 030e 0B       		.uleb128 0xb
 1183 030f 6C7200   		.ascii	"lr\000"
 1184 0312 07       		.byte	0x7
 1185 0313 1901     		.2byte	0x119
 1186 0315 83020000 		.4byte	0x283
 1187 0319 02       		.byte	0x2
 1188 031a 23       		.byte	0x23
 1189 031b 20       		.uleb128 0x20
 1190 031c 00       		.byte	0
 1191 031d 0C       		.uleb128 0xc
 1192 031e C9040000 		.4byte	.LASF46
 1193 0322 04       		.byte	0x4
 1194 0323 07       		.byte	0x7
 1195 0324 2301     		.2byte	0x123
 1196 0326 3A030000 		.4byte	0x33a
 1197 032a 0B       		.uleb128 0xb
 1198 032b 72313300 		.ascii	"r13\000"
 1199 032f 07       		.byte	0x7
 1200 0330 2401     		.2byte	0x124
 1201 0332 3A030000 		.4byte	0x33a
 1202 0336 02       		.byte	0x2
 1203 0337 23       		.byte	0x23
 1204 0338 00       		.uleb128 0
 1205 0339 00       		.byte	0
 1206 033a 09       		.uleb128 0x9
 1207 033b 04       		.byte	0x4
 1208 033c 90020000 		.4byte	0x290
 1209 0340 0D       		.uleb128 0xd
 1210 0341 86000000 		.4byte	0x86
 1211 0345 04       		.uleb128 0x4
 1212 0346 04       		.byte	0x4
 1213 0347 07       		.byte	0x7
 1214 0348 05070000 		.4byte	.LASF47
 1215 034c 0D       		.uleb128 0xd
 1216 034d FE000000 		.4byte	0xfe
 1217 0351 05       		.uleb128 0x5
 1218 0352 12030000 		.4byte	.LASF48
 1219 0356 10       		.byte	0x10
 1220 0357 08       		.byte	0x8
 1221 0358 2C       		.byte	0x2c
 1222 0359 88030000 		.4byte	0x388
 1223 035d 06       		.uleb128 0x6
 1224 035e 5D060000 		.4byte	.LASF49
 1225 0362 08       		.byte	0x8
 1226 0363 2D       		.byte	0x2d
 1227 0364 56020000 		.4byte	0x256
 1228 0368 02       		.byte	0x2
 1229 0369 23       		.byte	0x23
 1230 036a 00       		.uleb128 0
 1231 036b 06       		.uleb128 0x6
 1232 036c B9000000 		.4byte	.LASF50
 1233 0370 08       		.byte	0x8
 1234 0371 2F       		.byte	0x2f
 1235 0372 50020000 		.4byte	0x250
 1236 0376 02       		.byte	0x2
ARM GAS  /tmp/cc2DpUmI.s 			page 23


 1237 0377 23       		.byte	0x23
 1238 0378 08       		.uleb128 0x8
 1239 0379 06       		.uleb128 0x6
 1240 037a E8070000 		.4byte	.LASF51
 1241 037e 08       		.byte	0x8
 1242 037f 31       		.byte	0x31
 1243 0380 88030000 		.4byte	0x388
 1244 0384 02       		.byte	0x2
 1245 0385 23       		.byte	0x23
 1246 0386 0C       		.uleb128 0xc
 1247 0387 00       		.byte	0
 1248 0388 09       		.uleb128 0x9
 1249 0389 04       		.byte	0x4
 1250 038a 51030000 		.4byte	0x351
 1251 038e 03       		.uleb128 0x3
 1252 038f 12030000 		.4byte	.LASF48
 1253 0393 08       		.byte	0x8
 1254 0394 33       		.byte	0x33
 1255 0395 51030000 		.4byte	0x351
 1256 0399 03       		.uleb128 0x3
 1257 039a 16070000 		.4byte	.LASF52
 1258 039e 09       		.byte	0x9
 1259 039f 29       		.byte	0x29
 1260 03a0 A4030000 		.4byte	0x3a4
 1261 03a4 05       		.uleb128 0x5
 1262 03a5 16070000 		.4byte	.LASF52
 1263 03a9 0C       		.byte	0xc
 1264 03aa 09       		.byte	0x9
 1265 03ab 2E       		.byte	0x2e
 1266 03ac DB030000 		.4byte	0x3db
 1267 03b0 06       		.uleb128 0x6
 1268 03b1 54050000 		.4byte	.LASF53
 1269 03b5 09       		.byte	0x9
 1270 03b6 2F       		.byte	0x2f
 1271 03b7 DB030000 		.4byte	0x3db
 1272 03bb 02       		.byte	0x2
 1273 03bc 23       		.byte	0x23
 1274 03bd 00       		.uleb128 0
 1275 03be 06       		.uleb128 0x6
 1276 03bf CB060000 		.4byte	.LASF54
 1277 03c3 09       		.byte	0x9
 1278 03c4 32       		.byte	0x32
 1279 03c5 50020000 		.4byte	0x250
 1280 03c9 02       		.byte	0x2
 1281 03ca 23       		.byte	0x23
 1282 03cb 04       		.uleb128 0x4
 1283 03cc 06       		.uleb128 0x6
 1284 03cd 20010000 		.4byte	.LASF55
 1285 03d1 09       		.byte	0x9
 1286 03d2 34       		.byte	0x34
 1287 03d3 F3000000 		.4byte	0xf3
 1288 03d7 02       		.byte	0x2
 1289 03d8 23       		.byte	0x23
 1290 03d9 08       		.uleb128 0x8
 1291 03da 00       		.byte	0
 1292 03db 09       		.uleb128 0x9
 1293 03dc 04       		.byte	0x4
ARM GAS  /tmp/cc2DpUmI.s 			page 24


 1294 03dd 99030000 		.4byte	0x399
 1295 03e1 05       		.uleb128 0x5
 1296 03e2 B5020000 		.4byte	.LASF56
 1297 03e6 04       		.byte	0x4
 1298 03e7 09       		.byte	0x9
 1299 03e8 3C       		.byte	0x3c
 1300 03e9 FC030000 		.4byte	0x3fc
 1301 03ed 06       		.uleb128 0x6
 1302 03ee B0070000 		.4byte	.LASF57
 1303 03f2 09       		.byte	0x9
 1304 03f3 3D       		.byte	0x3d
 1305 03f4 DB030000 		.4byte	0x3db
 1306 03f8 02       		.byte	0x2
 1307 03f9 23       		.byte	0x23
 1308 03fa 00       		.uleb128 0
 1309 03fb 00       		.byte	0
 1310 03fc 03       		.uleb128 0x3
 1311 03fd B5020000 		.4byte	.LASF56
 1312 0401 09       		.byte	0x9
 1313 0402 40       		.byte	0x40
 1314 0403 E1030000 		.4byte	0x3e1
 1315 0407 0E       		.uleb128 0xe
 1316 0408 04       		.byte	0x4
 1317 0409 06       		.byte	0x6
 1318 040a 90       		.byte	0x90
 1319 040b 3C040000 		.4byte	0x43c
 1320 040f 0F       		.uleb128 0xf
 1321 0410 C8020000 		.4byte	.LASF58
 1322 0414 06       		.byte	0x6
 1323 0415 97       		.byte	0x97
 1324 0416 E8000000 		.4byte	0xe8
 1325 041a 0F       		.uleb128 0xf
 1326 041b 6D080000 		.4byte	.LASF59
 1327 041f 06       		.byte	0x6
 1328 0420 9E       		.byte	0x9e
 1329 0421 E8000000 		.4byte	0xe8
 1330 0425 0F       		.uleb128 0xf
 1331 0426 33010000 		.4byte	.LASF60
 1332 042a 06       		.byte	0x6
 1333 042b A5       		.byte	0xa5
 1334 042c 8E020000 		.4byte	0x28e
 1335 0430 0F       		.uleb128 0xf
 1336 0431 61010000 		.4byte	.LASF61
 1337 0435 06       		.byte	0x6
 1338 0436 AC       		.byte	0xac
 1339 0437 F3000000 		.4byte	0xf3
 1340 043b 00       		.byte	0
 1341 043c 09       		.uleb128 0x9
 1342 043d 04       		.byte	0x4
 1343 043e 42040000 		.4byte	0x442
 1344 0442 10       		.uleb128 0x10
 1345 0443 47040000 		.4byte	0x447
 1346 0447 04       		.uleb128 0x4
 1347 0448 01       		.byte	0x1
 1348 0449 08       		.byte	0x8
 1349 044a A4030000 		.4byte	.LASF62
 1350 044e 09       		.uleb128 0x9
ARM GAS  /tmp/cc2DpUmI.s 			page 25


 1351 044f 04       		.byte	0x4
 1352 0450 8E030000 		.4byte	0x38e
 1353 0454 03       		.uleb128 0x3
 1354 0455 77050000 		.4byte	.LASF63
 1355 0459 0A       		.byte	0xa
 1356 045a 37       		.byte	0x37
 1357 045b 5F040000 		.4byte	0x45f
 1358 045f 05       		.uleb128 0x5
 1359 0460 77050000 		.4byte	.LASF63
 1360 0464 20       		.byte	0x20
 1361 0465 0A       		.byte	0xa
 1362 0466 45       		.byte	0x45
 1363 0467 CE040000 		.4byte	0x4ce
 1364 046b 06       		.uleb128 0x6
 1365 046c 98020000 		.4byte	.LASF64
 1366 0470 0A       		.byte	0xa
 1367 0471 46       		.byte	0x46
 1368 0472 56020000 		.4byte	0x256
 1369 0476 02       		.byte	0x2
 1370 0477 23       		.byte	0x23
 1371 0478 00       		.uleb128 0
 1372 0479 06       		.uleb128 0x6
 1373 047a EE060000 		.4byte	.LASF65
 1374 047e 0A       		.byte	0xa
 1375 047f 47       		.byte	0x47
 1376 0480 30000000 		.4byte	0x30
 1377 0484 02       		.byte	0x2
 1378 0485 23       		.byte	0x23
 1379 0486 08       		.uleb128 0x8
 1380 0487 06       		.uleb128 0x6
 1381 0488 6F040000 		.4byte	.LASF66
 1382 048c 0A       		.byte	0xa
 1383 048d 48       		.byte	0x48
 1384 048e F1040000 		.4byte	0x4f1
 1385 0492 02       		.byte	0x2
 1386 0493 23       		.byte	0x23
 1387 0494 0C       		.uleb128 0xc
 1388 0495 06       		.uleb128 0x6
 1389 0496 F8060000 		.4byte	.LASF67
 1390 049a 0A       		.byte	0xa
 1391 049b 49       		.byte	0x49
 1392 049c F1040000 		.4byte	0x4f1
 1393 04a0 02       		.byte	0x2
 1394 04a1 23       		.byte	0x23
 1395 04a2 10       		.uleb128 0x10
 1396 04a3 06       		.uleb128 0x6
 1397 04a4 BC030000 		.4byte	.LASF68
 1398 04a8 0A       		.byte	0xa
 1399 04a9 4B       		.byte	0x4b
 1400 04aa F1040000 		.4byte	0x4f1
 1401 04ae 02       		.byte	0x2
 1402 04af 23       		.byte	0x23
 1403 04b0 14       		.uleb128 0x14
 1404 04b1 06       		.uleb128 0x6
 1405 04b2 03010000 		.4byte	.LASF69
 1406 04b6 0A       		.byte	0xa
 1407 04b7 4C       		.byte	0x4c
ARM GAS  /tmp/cc2DpUmI.s 			page 26


 1408 04b8 F1040000 		.4byte	0x4f1
 1409 04bc 02       		.byte	0x2
 1410 04bd 23       		.byte	0x23
 1411 04be 18       		.uleb128 0x18
 1412 04bf 06       		.uleb128 0x6
 1413 04c0 24030000 		.4byte	.LASF70
 1414 04c4 0A       		.byte	0xa
 1415 04c5 4D       		.byte	0x4d
 1416 04c6 CE040000 		.4byte	0x4ce
 1417 04ca 02       		.byte	0x2
 1418 04cb 23       		.byte	0x23
 1419 04cc 1C       		.uleb128 0x1c
 1420 04cd 00       		.byte	0
 1421 04ce 03       		.uleb128 0x3
 1422 04cf 16010000 		.4byte	.LASF71
 1423 04d3 0A       		.byte	0xa
 1424 04d4 3A       		.byte	0x3a
 1425 04d5 D9040000 		.4byte	0x4d9
 1426 04d9 09       		.uleb128 0x9
 1427 04da 04       		.byte	0x4
 1428 04db DF040000 		.4byte	0x4df
 1429 04df 11       		.uleb128 0x11
 1430 04e0 01       		.byte	0x1
 1431 04e1 EB040000 		.4byte	0x4eb
 1432 04e5 12       		.uleb128 0x12
 1433 04e6 EB040000 		.4byte	0x4eb
 1434 04ea 00       		.byte	0
 1435 04eb 09       		.uleb128 0x9
 1436 04ec 04       		.byte	0x4
 1437 04ed 54040000 		.4byte	0x454
 1438 04f1 09       		.uleb128 0x9
 1439 04f2 04       		.byte	0x4
 1440 04f3 49000000 		.4byte	0x49
 1441 04f7 03       		.uleb128 0x3
 1442 04f8 8C030000 		.4byte	.LASF72
 1443 04fc 0A       		.byte	0xa
 1444 04fd 76       		.byte	0x76
 1445 04fe 54040000 		.4byte	0x454
 1446 0502 03       		.uleb128 0x3
 1447 0503 18030000 		.4byte	.LASF73
 1448 0507 0A       		.byte	0xa
 1449 0508 E6       		.byte	0xe6
 1450 0509 54040000 		.4byte	0x454
 1451 050d 13       		.uleb128 0x13
 1452 050e 01       		.byte	0x1
 1453 050f 30000000 		.4byte	0x30
 1454 0513 27050000 		.4byte	0x527
 1455 0517 12       		.uleb128 0x12
 1456 0518 8E020000 		.4byte	0x28e
 1457 051c 12       		.uleb128 0x12
 1458 051d 27050000 		.4byte	0x527
 1459 0521 12       		.uleb128 0x12
 1460 0522 30000000 		.4byte	0x30
 1461 0526 00       		.byte	0
 1462 0527 09       		.uleb128 0x9
 1463 0528 04       		.byte	0x4
 1464 0529 2D050000 		.4byte	0x52d
ARM GAS  /tmp/cc2DpUmI.s 			page 27


 1465 052d 10       		.uleb128 0x10
 1466 052e 49000000 		.4byte	0x49
 1467 0532 09       		.uleb128 0x9
 1468 0533 04       		.byte	0x4
 1469 0534 0D050000 		.4byte	0x50d
 1470 0538 13       		.uleb128 0x13
 1471 0539 01       		.byte	0x1
 1472 053a 30000000 		.4byte	0x30
 1473 053e 52050000 		.4byte	0x552
 1474 0542 12       		.uleb128 0x12
 1475 0543 8E020000 		.4byte	0x28e
 1476 0547 12       		.uleb128 0x12
 1477 0548 F1040000 		.4byte	0x4f1
 1478 054c 12       		.uleb128 0x12
 1479 054d 30000000 		.4byte	0x30
 1480 0551 00       		.byte	0
 1481 0552 09       		.uleb128 0x9
 1482 0553 04       		.byte	0x4
 1483 0554 38050000 		.4byte	0x538
 1484 0558 13       		.uleb128 0x13
 1485 0559 01       		.byte	0x1
 1486 055a B1000000 		.4byte	0xb1
 1487 055e 68050000 		.4byte	0x568
 1488 0562 12       		.uleb128 0x12
 1489 0563 8E020000 		.4byte	0x28e
 1490 0567 00       		.byte	0
 1491 0568 09       		.uleb128 0x9
 1492 0569 04       		.byte	0x4
 1493 056a 58050000 		.4byte	0x558
 1494 056e 13       		.uleb128 0x13
 1495 056f 01       		.byte	0x1
 1496 0570 E8000000 		.4byte	0xe8
 1497 0574 88050000 		.4byte	0x588
 1498 0578 12       		.uleb128 0x12
 1499 0579 8E020000 		.4byte	0x28e
 1500 057d 12       		.uleb128 0x12
 1501 057e 49000000 		.4byte	0x49
 1502 0582 12       		.uleb128 0x12
 1503 0583 FE000000 		.4byte	0xfe
 1504 0587 00       		.byte	0
 1505 0588 09       		.uleb128 0x9
 1506 0589 04       		.byte	0x4
 1507 058a 6E050000 		.4byte	0x56e
 1508 058e 13       		.uleb128 0x13
 1509 058f 01       		.byte	0x1
 1510 0590 E8000000 		.4byte	0xe8
 1511 0594 A3050000 		.4byte	0x5a3
 1512 0598 12       		.uleb128 0x12
 1513 0599 8E020000 		.4byte	0x28e
 1514 059d 12       		.uleb128 0x12
 1515 059e FE000000 		.4byte	0xfe
 1516 05a2 00       		.byte	0
 1517 05a3 09       		.uleb128 0x9
 1518 05a4 04       		.byte	0x4
 1519 05a5 8E050000 		.4byte	0x58e
 1520 05a9 13       		.uleb128 0x13
 1521 05aa 01       		.byte	0x1
ARM GAS  /tmp/cc2DpUmI.s 			page 28


 1522 05ab 30000000 		.4byte	0x30
 1523 05af C8050000 		.4byte	0x5c8
 1524 05b3 12       		.uleb128 0x12
 1525 05b4 8E020000 		.4byte	0x28e
 1526 05b8 12       		.uleb128 0x12
 1527 05b9 27050000 		.4byte	0x527
 1528 05bd 12       		.uleb128 0x12
 1529 05be 30000000 		.4byte	0x30
 1530 05c2 12       		.uleb128 0x12
 1531 05c3 FE000000 		.4byte	0xfe
 1532 05c7 00       		.byte	0
 1533 05c8 09       		.uleb128 0x9
 1534 05c9 04       		.byte	0x4
 1535 05ca A9050000 		.4byte	0x5a9
 1536 05ce 13       		.uleb128 0x13
 1537 05cf 01       		.byte	0x1
 1538 05d0 30000000 		.4byte	0x30
 1539 05d4 ED050000 		.4byte	0x5ed
 1540 05d8 12       		.uleb128 0x12
 1541 05d9 8E020000 		.4byte	0x28e
 1542 05dd 12       		.uleb128 0x12
 1543 05de F1040000 		.4byte	0x4f1
 1544 05e2 12       		.uleb128 0x12
 1545 05e3 30000000 		.4byte	0x30
 1546 05e7 12       		.uleb128 0x12
 1547 05e8 FE000000 		.4byte	0xfe
 1548 05ec 00       		.byte	0
 1549 05ed 09       		.uleb128 0x9
 1550 05ee 04       		.byte	0x4
 1551 05ef CE050000 		.4byte	0x5ce
 1552 05f3 14       		.uleb128 0x14
 1553 05f4 A2020000 		.4byte	.LASF74
 1554 05f8 0B       		.byte	0xb
 1555 05f9 0B01     		.2byte	0x10b
 1556 05fb A6000000 		.4byte	0xa6
 1557 05ff 13       		.uleb128 0x13
 1558 0600 01       		.byte	0x1
 1559 0601 F3050000 		.4byte	0x5f3
 1560 0605 0F060000 		.4byte	0x60f
 1561 0609 12       		.uleb128 0x12
 1562 060a 8E020000 		.4byte	0x28e
 1563 060e 00       		.byte	0
 1564 060f 09       		.uleb128 0x9
 1565 0610 04       		.byte	0x4
 1566 0611 FF050000 		.4byte	0x5ff
 1567 0615 15       		.uleb128 0x15
 1568 0616 9A050000 		.4byte	.LASF194
 1569 061a 01       		.byte	0x1
 1570 061b 0C       		.byte	0xc
 1571 061c 81       		.byte	0x81
 1572 061d 60070000 		.4byte	0x760
 1573 0621 16       		.uleb128 0x16
 1574 0622 95060000 		.4byte	.LASF75
 1575 0626 72       		.sleb128 -14
 1576 0627 16       		.uleb128 0x16
 1577 0628 AB010000 		.4byte	.LASF76
 1578 062c 74       		.sleb128 -12
ARM GAS  /tmp/cc2DpUmI.s 			page 29


 1579 062d 16       		.uleb128 0x16
 1580 062e D9040000 		.4byte	.LASF77
 1581 0632 75       		.sleb128 -11
 1582 0633 16       		.uleb128 0x16
 1583 0634 6C070000 		.4byte	.LASF78
 1584 0638 76       		.sleb128 -10
 1585 0639 16       		.uleb128 0x16
 1586 063a 91070000 		.4byte	.LASF79
 1587 063e 7B       		.sleb128 -5
 1588 063f 16       		.uleb128 0x16
 1589 0640 5A070000 		.4byte	.LASF80
 1590 0644 7C       		.sleb128 -4
 1591 0645 16       		.uleb128 0x16
 1592 0646 8A010000 		.4byte	.LASF81
 1593 064a 7E       		.sleb128 -2
 1594 064b 16       		.uleb128 0x16
 1595 064c F6000000 		.4byte	.LASF82
 1596 0650 7F       		.sleb128 -1
 1597 0651 16       		.uleb128 0x16
 1598 0652 5F040000 		.4byte	.LASF83
 1599 0656 00       		.sleb128 0
 1600 0657 16       		.uleb128 0x16
 1601 0658 0A050000 		.4byte	.LASF84
 1602 065c 01       		.sleb128 1
 1603 065d 16       		.uleb128 0x16
 1604 065e DA010000 		.4byte	.LASF85
 1605 0662 02       		.sleb128 2
 1606 0663 16       		.uleb128 0x16
 1607 0664 F6020000 		.4byte	.LASF86
 1608 0668 03       		.sleb128 3
 1609 0669 16       		.uleb128 0x16
 1610 066a 0B010000 		.4byte	.LASF87
 1611 066e 04       		.sleb128 4
 1612 066f 16       		.uleb128 0x16
 1613 0670 9D010000 		.4byte	.LASF88
 1614 0674 05       		.sleb128 5
 1615 0675 16       		.uleb128 0x16
 1616 0676 28010000 		.4byte	.LASF89
 1617 067a 06       		.sleb128 6
 1618 067b 16       		.uleb128 0x16
 1619 067c BB060000 		.4byte	.LASF90
 1620 0680 07       		.sleb128 7
 1621 0681 16       		.uleb128 0x16
 1622 0682 53030000 		.4byte	.LASF91
 1623 0686 08       		.sleb128 8
 1624 0687 16       		.uleb128 0x16
 1625 0688 23080000 		.4byte	.LASF92
 1626 068c 09       		.sleb128 9
 1627 068d 16       		.uleb128 0x16
 1628 068e F0040000 		.4byte	.LASF93
 1629 0692 0A       		.sleb128 10
 1630 0693 16       		.uleb128 0x16
 1631 0694 CE030000 		.4byte	.LASF94
 1632 0698 0B       		.sleb128 11
 1633 0699 16       		.uleb128 0x16
 1634 069a CB000000 		.4byte	.LASF95
 1635 069e 0C       		.sleb128 12
ARM GAS  /tmp/cc2DpUmI.s 			page 30


 1636 069f 16       		.uleb128 0x16
 1637 06a0 41050000 		.4byte	.LASF96
 1638 06a4 0D       		.sleb128 13
 1639 06a5 16       		.uleb128 0x16
 1640 06a6 53020000 		.4byte	.LASF97
 1641 06aa 0E       		.sleb128 14
 1642 06ab 16       		.uleb128 0x16
 1643 06ac CC070000 		.4byte	.LASF98
 1644 06b0 0F       		.sleb128 15
 1645 06b1 16       		.uleb128 0x16
 1646 06b2 A9030000 		.4byte	.LASF99
 1647 06b6 10       		.sleb128 16
 1648 06b7 16       		.uleb128 0x16
 1649 06b8 82000000 		.4byte	.LASF100
 1650 06bc 11       		.sleb128 17
 1651 06bd 16       		.uleb128 0x16
 1652 06be 65030000 		.4byte	.LASF101
 1653 06c2 12       		.sleb128 18
 1654 06c3 16       		.uleb128 0x16
 1655 06c4 4E070000 		.4byte	.LASF102
 1656 06c8 13       		.sleb128 19
 1657 06c9 16       		.uleb128 0x16
 1658 06ca 44080000 		.4byte	.LASF103
 1659 06ce 14       		.sleb128 20
 1660 06cf 16       		.uleb128 0x16
 1661 06d0 DF070000 		.4byte	.LASF104
 1662 06d4 15       		.sleb128 21
 1663 06d5 16       		.uleb128 0x16
 1664 06d6 7D020000 		.4byte	.LASF105
 1665 06da 16       		.sleb128 22
 1666 06db 16       		.uleb128 0x16
 1667 06dc 84050000 		.4byte	.LASF106
 1668 06e0 17       		.sleb128 23
 1669 06e1 16       		.uleb128 0x16
 1670 06e2 FB040000 		.4byte	.LASF107
 1671 06e6 18       		.sleb128 24
 1672 06e7 16       		.uleb128 0x16
 1673 06e8 78000000 		.4byte	.LASF108
 1674 06ec 19       		.sleb128 25
 1675 06ed 16       		.uleb128 0x16
 1676 06ee 37040000 		.4byte	.LASF109
 1677 06f2 1A       		.sleb128 26
 1678 06f3 16       		.uleb128 0x16
 1679 06f4 0E000000 		.4byte	.LASF110
 1680 06f8 1B       		.sleb128 27
 1681 06f9 16       		.uleb128 0x16
 1682 06fa 36070000 		.4byte	.LASF111
 1683 06fe 1C       		.sleb128 28
 1684 06ff 16       		.uleb128 0x16
 1685 0700 C4030000 		.4byte	.LASF112
 1686 0704 1D       		.sleb128 29
 1687 0705 16       		.uleb128 0x16
 1688 0706 C1000000 		.4byte	.LASF113
 1689 070a 1E       		.sleb128 30
 1690 070b 16       		.uleb128 0x16
 1691 070c 6A050000 		.4byte	.LASF114
 1692 0710 1F       		.sleb128 31
ARM GAS  /tmp/cc2DpUmI.s 			page 31


 1693 0711 16       		.uleb128 0x16
 1694 0712 E1060000 		.4byte	.LASF115
 1695 0716 20       		.sleb128 32
 1696 0717 16       		.uleb128 0x16
 1697 0718 78030000 		.4byte	.LASF116
 1698 071c 21       		.sleb128 33
 1699 071d 16       		.uleb128 0x16
 1700 071e 9C000000 		.4byte	.LASF117
 1701 0722 22       		.sleb128 34
 1702 0723 16       		.uleb128 0x16
 1703 0724 3F020000 		.4byte	.LASF118
 1704 0728 23       		.sleb128 35
 1705 0729 16       		.uleb128 0x16
 1706 072a B8070000 		.4byte	.LASF119
 1707 072e 24       		.sleb128 36
 1708 072f 16       		.uleb128 0x16
 1709 0730 6E060000 		.4byte	.LASF120
 1710 0734 25       		.sleb128 37
 1711 0735 16       		.uleb128 0x16
 1712 0736 CF020000 		.4byte	.LASF121
 1713 073a 26       		.sleb128 38
 1714 073b 16       		.uleb128 0x16
 1715 073c 38080000 		.4byte	.LASF122
 1716 0740 27       		.sleb128 39
 1717 0741 16       		.uleb128 0x16
 1718 0742 45010000 		.4byte	.LASF123
 1719 0746 28       		.sleb128 40
 1720 0747 16       		.uleb128 0x16
 1721 0748 DA050000 		.4byte	.LASF124
 1722 074c 29       		.sleb128 41
 1723 074d 16       		.uleb128 0x16
 1724 074e 41060000 		.4byte	.LASF125
 1725 0752 2A       		.sleb128 42
 1726 0753 16       		.uleb128 0x16
 1727 0754 49020000 		.4byte	.LASF126
 1728 0758 2B       		.sleb128 43
 1729 0759 16       		.uleb128 0x16
 1730 075a C2070000 		.4byte	.LASF127
 1731 075e 2C       		.sleb128 44
 1732 075f 00       		.byte	0
 1733 0760 0D       		.uleb128 0xd
 1734 0761 62000000 		.4byte	0x62
 1735 0765 17       		.uleb128 0x17
 1736 0766 38       		.byte	0x38
 1737 0767 0C       		.byte	0xc
 1738 0768 0102     		.2byte	0x201
 1739 076a 40080000 		.4byte	0x840
 1740 076e 0B       		.uleb128 0xb
 1741 076f 435200   		.ascii	"CR\000"
 1742 0772 0C       		.byte	0xc
 1743 0773 0302     		.2byte	0x203
 1744 0775 40030000 		.4byte	0x340
 1745 0779 02       		.byte	0x2
 1746 077a 23       		.byte	0x23
 1747 077b 00       		.uleb128 0
 1748 077c 18       		.uleb128 0x18
 1749 077d 04050000 		.4byte	.LASF128
ARM GAS  /tmp/cc2DpUmI.s 			page 32


 1750 0781 0C       		.byte	0xc
 1751 0782 0402     		.2byte	0x204
 1752 0784 40030000 		.4byte	0x340
 1753 0788 02       		.byte	0x2
 1754 0789 23       		.byte	0x23
 1755 078a 04       		.uleb128 0x4
 1756 078b 18       		.uleb128 0x18
 1757 078c B6060000 		.4byte	.LASF129
 1758 0790 0C       		.byte	0xc
 1759 0791 0502     		.2byte	0x205
 1760 0793 40030000 		.4byte	0x340
 1761 0797 02       		.byte	0x2
 1762 0798 23       		.byte	0x23
 1763 0799 08       		.uleb128 0x8
 1764 079a 0B       		.uleb128 0xb
 1765 079b 43495200 		.ascii	"CIR\000"
 1766 079f 0C       		.byte	0xc
 1767 07a0 0602     		.2byte	0x206
 1768 07a2 40030000 		.4byte	0x340
 1769 07a6 02       		.byte	0x2
 1770 07a7 23       		.byte	0x23
 1771 07a8 0C       		.uleb128 0xc
 1772 07a9 18       		.uleb128 0x18
 1773 07aa F8010000 		.4byte	.LASF130
 1774 07ae 0C       		.byte	0xc
 1775 07af 0702     		.2byte	0x207
 1776 07b1 40030000 		.4byte	0x340
 1777 07b5 02       		.byte	0x2
 1778 07b6 23       		.byte	0x23
 1779 07b7 10       		.uleb128 0x10
 1780 07b8 18       		.uleb128 0x18
 1781 07b9 6F000000 		.4byte	.LASF131
 1782 07bd 0C       		.byte	0xc
 1783 07be 0802     		.2byte	0x208
 1784 07c0 40030000 		.4byte	0x340
 1785 07c4 02       		.byte	0x2
 1786 07c5 23       		.byte	0x23
 1787 07c6 14       		.uleb128 0x14
 1788 07c7 18       		.uleb128 0x18
 1789 07c8 6F030000 		.4byte	.LASF132
 1790 07cc 0C       		.byte	0xc
 1791 07cd 0902     		.2byte	0x209
 1792 07cf 40030000 		.4byte	0x340
 1793 07d3 02       		.byte	0x2
 1794 07d4 23       		.byte	0x23
 1795 07d5 18       		.uleb128 0x18
 1796 07d6 18       		.uleb128 0x18
 1797 07d7 06040000 		.4byte	.LASF133
 1798 07db 0C       		.byte	0xc
 1799 07dc 0A02     		.2byte	0x20a
 1800 07de 40030000 		.4byte	0x340
 1801 07e2 02       		.byte	0x2
 1802 07e3 23       		.byte	0x23
 1803 07e4 1C       		.uleb128 0x1c
 1804 07e5 18       		.uleb128 0x18
 1805 07e6 23050000 		.4byte	.LASF134
 1806 07ea 0C       		.byte	0xc
ARM GAS  /tmp/cc2DpUmI.s 			page 33


 1807 07eb 0B02     		.2byte	0x20b
 1808 07ed 40030000 		.4byte	0x340
 1809 07f1 02       		.byte	0x2
 1810 07f2 23       		.byte	0x23
 1811 07f3 20       		.uleb128 0x20
 1812 07f4 18       		.uleb128 0x18
 1813 07f5 3C000000 		.4byte	.LASF135
 1814 07f9 0C       		.byte	0xc
 1815 07fa 0C02     		.2byte	0x20c
 1816 07fc 40030000 		.4byte	0x340
 1817 0800 02       		.byte	0x2
 1818 0801 23       		.byte	0x23
 1819 0802 24       		.uleb128 0x24
 1820 0803 18       		.uleb128 0x18
 1821 0804 42040000 		.4byte	.LASF136
 1822 0808 0C       		.byte	0xc
 1823 0809 0D02     		.2byte	0x20d
 1824 080b 40030000 		.4byte	0x340
 1825 080f 02       		.byte	0x2
 1826 0810 23       		.byte	0x23
 1827 0811 28       		.uleb128 0x28
 1828 0812 18       		.uleb128 0x18
 1829 0813 65000000 		.4byte	.LASF137
 1830 0817 0C       		.byte	0xc
 1831 0818 0E02     		.2byte	0x20e
 1832 081a 40030000 		.4byte	0x340
 1833 081e 02       		.byte	0x2
 1834 081f 23       		.byte	0x23
 1835 0820 2C       		.uleb128 0x2c
 1836 0821 18       		.uleb128 0x18
 1837 0822 78040000 		.4byte	.LASF138
 1838 0826 0C       		.byte	0xc
 1839 0827 0F02     		.2byte	0x20f
 1840 0829 40030000 		.4byte	0x340
 1841 082d 02       		.byte	0x2
 1842 082e 23       		.byte	0x23
 1843 082f 30       		.uleb128 0x30
 1844 0830 0B       		.uleb128 0xb
 1845 0831 43535200 		.ascii	"CSR\000"
 1846 0835 0C       		.byte	0xc
 1847 0836 1002     		.2byte	0x210
 1848 0838 40030000 		.4byte	0x340
 1849 083c 02       		.byte	0x2
 1850 083d 23       		.byte	0x23
 1851 083e 34       		.uleb128 0x34
 1852 083f 00       		.byte	0
 1853 0840 14       		.uleb128 0x14
 1854 0841 E2020000 		.4byte	.LASF139
 1855 0845 0C       		.byte	0xc
 1856 0846 1102     		.2byte	0x211
 1857 0848 65070000 		.4byte	0x765
 1858 084c 17       		.uleb128 0x17
 1859 084d 1C       		.byte	0x1c
 1860 084e 0C       		.byte	0xc
 1861 084f 9B02     		.2byte	0x29b
 1862 0851 26090000 		.4byte	0x926
 1863 0855 0B       		.uleb128 0xb
ARM GAS  /tmp/cc2DpUmI.s 			page 34


 1864 0856 535200   		.ascii	"SR\000"
 1865 0859 0C       		.byte	0xc
 1866 085a 9D02     		.2byte	0x29d
 1867 085c 60070000 		.4byte	0x760
 1868 0860 02       		.byte	0x2
 1869 0861 23       		.byte	0x23
 1870 0862 00       		.uleb128 0
 1871 0863 18       		.uleb128 0x18
 1872 0864 2E080000 		.4byte	.LASF140
 1873 0868 0C       		.byte	0xc
 1874 0869 9E02     		.2byte	0x29e
 1875 086b 62000000 		.4byte	0x62
 1876 086f 02       		.byte	0x2
 1877 0870 23       		.byte	0x23
 1878 0871 02       		.uleb128 0x2
 1879 0872 0B       		.uleb128 0xb
 1880 0873 445200   		.ascii	"DR\000"
 1881 0876 0C       		.byte	0xc
 1882 0877 9F02     		.2byte	0x29f
 1883 0879 60070000 		.4byte	0x760
 1884 087d 02       		.byte	0x2
 1885 087e 23       		.byte	0x23
 1886 087f 04       		.uleb128 0x4
 1887 0880 18       		.uleb128 0x18
 1888 0881 FB050000 		.4byte	.LASF141
 1889 0885 0C       		.byte	0xc
 1890 0886 A002     		.2byte	0x2a0
 1891 0888 62000000 		.4byte	0x62
 1892 088c 02       		.byte	0x2
 1893 088d 23       		.byte	0x23
 1894 088e 06       		.uleb128 0x6
 1895 088f 0B       		.uleb128 0xb
 1896 0890 42525200 		.ascii	"BRR\000"
 1897 0894 0C       		.byte	0xc
 1898 0895 A102     		.2byte	0x2a1
 1899 0897 60070000 		.4byte	0x760
 1900 089b 02       		.byte	0x2
 1901 089c 23       		.byte	0x23
 1902 089d 08       		.uleb128 0x8
 1903 089e 18       		.uleb128 0x18
 1904 089f 05060000 		.4byte	.LASF142
 1905 08a3 0C       		.byte	0xc
 1906 08a4 A202     		.2byte	0x2a2
 1907 08a6 62000000 		.4byte	0x62
 1908 08aa 02       		.byte	0x2
 1909 08ab 23       		.byte	0x23
 1910 08ac 0A       		.uleb128 0xa
 1911 08ad 0B       		.uleb128 0xb
 1912 08ae 43523100 		.ascii	"CR1\000"
 1913 08b2 0C       		.byte	0xc
 1914 08b3 A302     		.2byte	0x2a3
 1915 08b5 60070000 		.4byte	0x760
 1916 08b9 02       		.byte	0x2
 1917 08ba 23       		.byte	0x23
 1918 08bb 0C       		.uleb128 0xc
 1919 08bc 18       		.uleb128 0x18
 1920 08bd 0F060000 		.4byte	.LASF143
ARM GAS  /tmp/cc2DpUmI.s 			page 35


 1921 08c1 0C       		.byte	0xc
 1922 08c2 A402     		.2byte	0x2a4
 1923 08c4 62000000 		.4byte	0x62
 1924 08c8 02       		.byte	0x2
 1925 08c9 23       		.byte	0x23
 1926 08ca 0E       		.uleb128 0xe
 1927 08cb 0B       		.uleb128 0xb
 1928 08cc 43523200 		.ascii	"CR2\000"
 1929 08d0 0C       		.byte	0xc
 1930 08d1 A502     		.2byte	0x2a5
 1931 08d3 60070000 		.4byte	0x760
 1932 08d7 02       		.byte	0x2
 1933 08d8 23       		.byte	0x23
 1934 08d9 10       		.uleb128 0x10
 1935 08da 18       		.uleb128 0x18
 1936 08db 19060000 		.4byte	.LASF144
 1937 08df 0C       		.byte	0xc
 1938 08e0 A602     		.2byte	0x2a6
 1939 08e2 62000000 		.4byte	0x62
 1940 08e6 02       		.byte	0x2
 1941 08e7 23       		.byte	0x23
 1942 08e8 12       		.uleb128 0x12
 1943 08e9 0B       		.uleb128 0xb
 1944 08ea 43523300 		.ascii	"CR3\000"
 1945 08ee 0C       		.byte	0xc
 1946 08ef A702     		.2byte	0x2a7
 1947 08f1 60070000 		.4byte	0x760
 1948 08f5 02       		.byte	0x2
 1949 08f6 23       		.byte	0x23
 1950 08f7 14       		.uleb128 0x14
 1951 08f8 18       		.uleb128 0x18
 1952 08f9 23060000 		.4byte	.LASF145
 1953 08fd 0C       		.byte	0xc
 1954 08fe A802     		.2byte	0x2a8
 1955 0900 62000000 		.4byte	0x62
 1956 0904 02       		.byte	0x2
 1957 0905 23       		.byte	0x23
 1958 0906 16       		.uleb128 0x16
 1959 0907 18       		.uleb128 0x18
 1960 0908 A6010000 		.4byte	.LASF146
 1961 090c 0C       		.byte	0xc
 1962 090d A902     		.2byte	0x2a9
 1963 090f 60070000 		.4byte	0x760
 1964 0913 02       		.byte	0x2
 1965 0914 23       		.byte	0x23
 1966 0915 18       		.uleb128 0x18
 1967 0916 18       		.uleb128 0x18
 1968 0917 2D060000 		.4byte	.LASF147
 1969 091b 0C       		.byte	0xc
 1970 091c AA02     		.2byte	0x2aa
 1971 091e 62000000 		.4byte	0x62
 1972 0922 02       		.byte	0x2
 1973 0923 23       		.byte	0x23
 1974 0924 1A       		.uleb128 0x1a
 1975 0925 00       		.byte	0
 1976 0926 14       		.uleb128 0x14
 1977 0927 04030000 		.4byte	.LASF148
ARM GAS  /tmp/cc2DpUmI.s 			page 36


 1978 092b 0C       		.byte	0xc
 1979 092c AB02     		.2byte	0x2ab
 1980 092e 4C080000 		.4byte	0x84c
 1981 0932 19       		.uleb128 0x19
 1982 0933 01       		.byte	0x1
 1983 0934 0D       		.byte	0xd
 1984 0935 64       		.byte	0x64
 1985 0936 4D090000 		.4byte	0x94d
 1986 093a 16       		.uleb128 0x16
 1987 093b D7060000 		.4byte	.LASF149
 1988 093f 00       		.sleb128 0
 1989 0940 16       		.uleb128 0x16
 1990 0941 EE020000 		.4byte	.LASF150
 1991 0945 01       		.sleb128 1
 1992 0946 16       		.uleb128 0x16
 1993 0947 B3050000 		.4byte	.LASF151
 1994 094b 02       		.sleb128 2
 1995 094c 00       		.byte	0
 1996 094d 03       		.uleb128 0x3
 1997 094e 19020000 		.4byte	.LASF152
 1998 0952 0D       		.byte	0xd
 1999 0953 68       		.byte	0x68
 2000 0954 32090000 		.4byte	0x932
 2001 0958 03       		.uleb128 0x3
 2002 0959 2F000000 		.4byte	.LASF153
 2003 095d 0D       		.byte	0xd
 2004 095e 6D       		.byte	0x6d
 2005 095f 63090000 		.4byte	0x963
 2006 0963 05       		.uleb128 0x5
 2007 0964 2F000000 		.4byte	.LASF153
 2008 0968 D4       		.byte	0xd4
 2009 0969 0D       		.byte	0xd
 2010 096a 87       		.byte	0x87
 2011 096b EE090000 		.4byte	0x9ee
 2012 096f 07       		.uleb128 0x7
 2013 0970 766D7400 		.ascii	"vmt\000"
 2014 0974 0D       		.byte	0xd
 2015 0975 89       		.byte	0x89
 2016 0976 C50A0000 		.4byte	0xac5
 2017 097a 02       		.byte	0x2
 2018 097b 23       		.byte	0x23
 2019 097c 00       		.uleb128 0
 2020 097d 06       		.uleb128 0x6
 2021 097e 23020000 		.4byte	.LASF154
 2022 0982 0D       		.byte	0xd
 2023 0983 8A       		.byte	0x8a
 2024 0984 FC030000 		.4byte	0x3fc
 2025 0988 02       		.byte	0x2
 2026 0989 23       		.byte	0x23
 2027 098a 04       		.uleb128 0x4
 2028 098b 06       		.uleb128 0x6
 2029 098c A9000000 		.4byte	.LASF155
 2030 0990 0D       		.byte	0xd
 2031 0991 8A       		.byte	0x8a
 2032 0992 F3050000 		.4byte	0x5f3
 2033 0996 02       		.byte	0x2
 2034 0997 23       		.byte	0x23
ARM GAS  /tmp/cc2DpUmI.s 			page 37


 2035 0998 08       		.uleb128 0x8
 2036 0999 06       		.uleb128 0x6
 2037 099a 48070000 		.4byte	.LASF156
 2038 099e 0D       		.byte	0xd
 2039 099f 8A       		.byte	0x8a
 2040 09a0 4D090000 		.4byte	0x94d
 2041 09a4 02       		.byte	0x2
 2042 09a5 23       		.byte	0x23
 2043 09a6 0C       		.uleb128 0xc
 2044 09a7 06       		.uleb128 0x6
 2045 09a8 CA010000 		.4byte	.LASF157
 2046 09ac 0D       		.byte	0xd
 2047 09ad 8A       		.byte	0x8a
 2048 09ae F7040000 		.4byte	0x4f7
 2049 09b2 02       		.byte	0x2
 2050 09b3 23       		.byte	0x23
 2051 09b4 10       		.uleb128 0x10
 2052 09b5 06       		.uleb128 0x6
 2053 09b6 95000000 		.4byte	.LASF158
 2054 09ba 0D       		.byte	0xd
 2055 09bb 8A       		.byte	0x8a
 2056 09bc 02050000 		.4byte	0x502
 2057 09c0 02       		.byte	0x2
 2058 09c1 23       		.byte	0x23
 2059 09c2 30       		.uleb128 0x30
 2060 09c3 07       		.uleb128 0x7
 2061 09c4 696200   		.ascii	"ib\000"
 2062 09c7 0D       		.byte	0xd
 2063 09c8 8A       		.byte	0x8a
 2064 09c9 D00A0000 		.4byte	0xad0
 2065 09cd 02       		.byte	0x2
 2066 09ce 23       		.byte	0x23
 2067 09cf 50       		.uleb128 0x50
 2068 09d0 07       		.uleb128 0x7
 2069 09d1 6F6200   		.ascii	"ob\000"
 2070 09d4 0D       		.byte	0xd
 2071 09d5 8A       		.byte	0x8a
 2072 09d6 D00A0000 		.4byte	0xad0
 2073 09da 03       		.byte	0x3
 2074 09db 23       		.byte	0x23
 2075 09dc 9001     		.uleb128 0x90
 2076 09de 06       		.uleb128 0x6
 2077 09df 4B040000 		.4byte	.LASF159
 2078 09e3 0D       		.byte	0xd
 2079 09e4 8A       		.byte	0x8a
 2080 09e5 E00A0000 		.4byte	0xae0
 2081 09e9 03       		.byte	0x3
 2082 09ea 23       		.byte	0x23
 2083 09eb D001     		.uleb128 0xd0
 2084 09ed 00       		.byte	0
 2085 09ee 08       		.uleb128 0x8
 2086 09ef 0C       		.byte	0xc
 2087 09f0 0E       		.byte	0xe
 2088 09f1 C4       		.byte	0xc4
 2089 09f2 2F0A0000 		.4byte	0xa2f
 2090 09f6 06       		.uleb128 0x6
 2091 09f7 87020000 		.4byte	.LASF160
ARM GAS  /tmp/cc2DpUmI.s 			page 38


 2092 09fb 0E       		.byte	0xe
 2093 09fc C8       		.byte	0xc8
 2094 09fd 86000000 		.4byte	0x86
 2095 0a01 02       		.byte	0x2
 2096 0a02 23       		.byte	0x23
 2097 0a03 00       		.uleb128 0
 2098 0a04 06       		.uleb128 0x6
 2099 0a05 85030000 		.4byte	.LASF161
 2100 0a09 0E       		.byte	0xe
 2101 0a0a CC       		.byte	0xcc
 2102 0a0b 62000000 		.4byte	0x62
 2103 0a0f 02       		.byte	0x2
 2104 0a10 23       		.byte	0x23
 2105 0a11 04       		.uleb128 0x4
 2106 0a12 06       		.uleb128 0x6
 2107 0a13 31020000 		.4byte	.LASF162
 2108 0a17 0E       		.byte	0xe
 2109 0a18 D0       		.byte	0xd0
 2110 0a19 62000000 		.4byte	0x62
 2111 0a1d 02       		.byte	0x2
 2112 0a1e 23       		.byte	0x23
 2113 0a1f 06       		.uleb128 0x6
 2114 0a20 06       		.uleb128 0x6
 2115 0a21 38020000 		.4byte	.LASF163
 2116 0a25 0E       		.byte	0xe
 2117 0a26 D4       		.byte	0xd4
 2118 0a27 62000000 		.4byte	0x62
 2119 0a2b 02       		.byte	0x2
 2120 0a2c 23       		.byte	0x23
 2121 0a2d 08       		.uleb128 0x8
 2122 0a2e 00       		.byte	0
 2123 0a2f 03       		.uleb128 0x3
 2124 0a30 00020000 		.4byte	.LASF164
 2125 0a34 0E       		.byte	0xe
 2126 0a35 D5       		.byte	0xd5
 2127 0a36 EE090000 		.4byte	0x9ee
 2128 0a3a 05       		.uleb128 0x5
 2129 0a3b BC050000 		.4byte	.LASF165
 2130 0a3f 24       		.byte	0x24
 2131 0a40 0D       		.byte	0xd
 2132 0a41 7C       		.byte	0x7c
 2133 0a42 C50A0000 		.4byte	0xac5
 2134 0a46 06       		.uleb128 0x6
 2135 0a47 69040000 		.4byte	.LASF166
 2136 0a4b 0D       		.byte	0xd
 2137 0a4c 7D       		.byte	0x7d
 2138 0a4d 32050000 		.4byte	0x532
 2139 0a51 02       		.byte	0x2
 2140 0a52 23       		.byte	0x23
 2141 0a53 00       		.uleb128 0
 2142 0a54 06       		.uleb128 0x6
 2143 0a55 C6060000 		.4byte	.LASF167
 2144 0a59 0D       		.byte	0xd
 2145 0a5a 7D       		.byte	0x7d
 2146 0a5b 52050000 		.4byte	0x552
 2147 0a5f 02       		.byte	0x2
 2148 0a60 23       		.byte	0x23
ARM GAS  /tmp/cc2DpUmI.s 			page 39


 2149 0a61 04       		.uleb128 0x4
 2150 0a62 06       		.uleb128 0x6
 2151 0a63 7A060000 		.4byte	.LASF168
 2152 0a67 0D       		.byte	0xd
 2153 0a68 7D       		.byte	0x7d
 2154 0a69 68050000 		.4byte	0x568
 2155 0a6d 02       		.byte	0x2
 2156 0a6e 23       		.byte	0x23
 2157 0a6f 08       		.uleb128 0x8
 2158 0a70 06       		.uleb128 0x6
 2159 0a71 CC050000 		.4byte	.LASF169
 2160 0a75 0D       		.byte	0xd
 2161 0a76 7D       		.byte	0x7d
 2162 0a77 68050000 		.4byte	0x568
 2163 0a7b 02       		.byte	0x2
 2164 0a7c 23       		.byte	0x23
 2165 0a7d 0C       		.uleb128 0xc
 2166 0a7e 07       		.uleb128 0x7
 2167 0a7f 70757400 		.ascii	"put\000"
 2168 0a83 0D       		.byte	0xd
 2169 0a84 7D       		.byte	0x7d
 2170 0a85 88050000 		.4byte	0x588
 2171 0a89 02       		.byte	0x2
 2172 0a8a 23       		.byte	0x23
 2173 0a8b 10       		.uleb128 0x10
 2174 0a8c 07       		.uleb128 0x7
 2175 0a8d 67657400 		.ascii	"get\000"
 2176 0a91 0D       		.byte	0xd
 2177 0a92 7D       		.byte	0x7d
 2178 0a93 A3050000 		.4byte	0x5a3
 2179 0a97 02       		.byte	0x2
 2180 0a98 23       		.byte	0x23
 2181 0a99 14       		.uleb128 0x14
 2182 0a9a 06       		.uleb128 0x6
 2183 0a9b 96010000 		.4byte	.LASF170
 2184 0a9f 0D       		.byte	0xd
 2185 0aa0 7D       		.byte	0x7d
 2186 0aa1 C8050000 		.4byte	0x5c8
 2187 0aa5 02       		.byte	0x2
 2188 0aa6 23       		.byte	0x23
 2189 0aa7 18       		.uleb128 0x18
 2190 0aa8 06       		.uleb128 0x6
 2191 0aa9 0A080000 		.4byte	.LASF171
 2192 0aad 0D       		.byte	0xd
 2193 0aae 7D       		.byte	0x7d
 2194 0aaf ED050000 		.4byte	0x5ed
 2195 0ab3 02       		.byte	0x2
 2196 0ab4 23       		.byte	0x23
 2197 0ab5 1C       		.uleb128 0x1c
 2198 0ab6 06       		.uleb128 0x6
 2199 0ab7 E7040000 		.4byte	.LASF172
 2200 0abb 0D       		.byte	0xd
 2201 0abc 7D       		.byte	0x7d
 2202 0abd 0F060000 		.4byte	0x60f
 2203 0ac1 02       		.byte	0x2
 2204 0ac2 23       		.byte	0x23
 2205 0ac3 20       		.uleb128 0x20
ARM GAS  /tmp/cc2DpUmI.s 			page 40


 2206 0ac4 00       		.byte	0
 2207 0ac5 09       		.uleb128 0x9
 2208 0ac6 04       		.byte	0x4
 2209 0ac7 CB0A0000 		.4byte	0xacb
 2210 0acb 10       		.uleb128 0x10
 2211 0acc 3A0A0000 		.4byte	0xa3a
 2212 0ad0 1A       		.uleb128 0x1a
 2213 0ad1 49000000 		.4byte	0x49
 2214 0ad5 E00A0000 		.4byte	0xae0
 2215 0ad9 1B       		.uleb128 0x1b
 2216 0ada 45030000 		.4byte	0x345
 2217 0ade 3F       		.byte	0x3f
 2218 0adf 00       		.byte	0
 2219 0ae0 09       		.uleb128 0x9
 2220 0ae1 04       		.byte	0x4
 2221 0ae2 26090000 		.4byte	0x926
 2222 0ae6 1C       		.uleb128 0x1c
 2223 0ae7 9F050000 		.4byte	.LASF175
 2224 0aeb 01       		.byte	0x1
 2225 0aec 85       		.byte	0x85
 2226 0aed 01       		.byte	0x1
 2227 0aee 01       		.byte	0x1
 2228 0aef FD0A0000 		.4byte	0xafd
 2229 0af3 1D       		.uleb128 0x1d
 2230 0af4 7500     		.ascii	"u\000"
 2231 0af6 01       		.byte	0x1
 2232 0af7 85       		.byte	0x85
 2233 0af8 E00A0000 		.4byte	0xae0
 2234 0afc 00       		.byte	0
 2235 0afd 1E       		.uleb128 0x1e
 2236 0afe 13050000 		.4byte	.LASF173
 2237 0b02 01       		.byte	0x1
 2238 0b03 D9       		.byte	0xd9
 2239 0b04 01       		.byte	0x1
 2240 0b05 00000000 		.4byte	.LFB66
 2241 0b09 14000000 		.4byte	.LFE66
 2242 0b0d 02       		.byte	0x2
 2243 0b0e 7D       		.byte	0x7d
 2244 0b0f 00       		.sleb128 0
 2245 0b10 01       		.byte	0x1
 2246 0b11 220B0000 		.4byte	0xb22
 2247 0b15 1F       		.uleb128 0x1f
 2248 0b16 717000   		.ascii	"qp\000"
 2249 0b19 01       		.byte	0x1
 2250 0b1a D9       		.byte	0xd9
 2251 0b1b EB040000 		.4byte	0x4eb
 2252 0b1f 01       		.byte	0x1
 2253 0b20 50       		.byte	0x50
 2254 0b21 00       		.byte	0
 2255 0b22 1E       		.uleb128 0x1e
 2256 0b23 1B050000 		.4byte	.LASF174
 2257 0b27 01       		.byte	0x1
 2258 0b28 E9       		.byte	0xe9
 2259 0b29 01       		.byte	0x1
 2260 0b2a 00000000 		.4byte	.LFB67
 2261 0b2e 14000000 		.4byte	.LFE67
 2262 0b32 02       		.byte	0x2
ARM GAS  /tmp/cc2DpUmI.s 			page 41


 2263 0b33 7D       		.byte	0x7d
 2264 0b34 00       		.sleb128 0
 2265 0b35 01       		.byte	0x1
 2266 0b36 470B0000 		.4byte	0xb47
 2267 0b3a 1F       		.uleb128 0x1f
 2268 0b3b 717000   		.ascii	"qp\000"
 2269 0b3e 01       		.byte	0x1
 2270 0b3f E9       		.byte	0xe9
 2271 0b40 EB040000 		.4byte	0x4eb
 2272 0b44 01       		.byte	0x1
 2273 0b45 50       		.byte	0x50
 2274 0b46 00       		.byte	0
 2275 0b47 1C       		.uleb128 0x1c
 2276 0b48 5B000000 		.4byte	.LASF176
 2277 0b4c 01       		.byte	0x1
 2278 0b4d 95       		.byte	0x95
 2279 0b4e 01       		.byte	0x1
 2280 0b4f 01       		.byte	0x1
 2281 0b50 930B0000 		.4byte	0xb93
 2282 0b54 1D       		.uleb128 0x1d
 2283 0b55 73647000 		.ascii	"sdp\000"
 2284 0b59 01       		.byte	0x1
 2285 0b5a 95       		.byte	0x95
 2286 0b5b 930B0000 		.4byte	0xb93
 2287 0b5f 1D       		.uleb128 0x1d
 2288 0b60 737200   		.ascii	"sr\000"
 2289 0b63 01       		.byte	0x1
 2290 0b64 95       		.byte	0x95
 2291 0b65 62000000 		.4byte	0x62
 2292 0b69 20       		.uleb128 0x20
 2293 0b6a 73747300 		.ascii	"sts\000"
 2294 0b6e 01       		.byte	0x1
 2295 0b6f 96       		.byte	0x96
 2296 0b70 F3050000 		.4byte	0x5f3
 2297 0b74 21       		.uleb128 0x21
 2298 0b75 850B0000 		.4byte	0xb85
 2299 0b79 20       		.uleb128 0x20
 2300 0b7a 746D7000 		.ascii	"tmp\000"
 2301 0b7e 01       		.byte	0x1
 2302 0b7f A0       		.byte	0xa0
 2303 0b80 86000000 		.4byte	0x86
 2304 0b84 00       		.byte	0
 2305 0b85 22       		.uleb128 0x22
 2306 0b86 20       		.uleb128 0x20
 2307 0b87 746D7000 		.ascii	"tmp\000"
 2308 0b8b 01       		.byte	0x1
 2309 0b8c A2       		.byte	0xa2
 2310 0b8d 86000000 		.4byte	0x86
 2311 0b91 00       		.byte	0
 2312 0b92 00       		.byte	0
 2313 0b93 09       		.uleb128 0x9
 2314 0b94 04       		.byte	0x4
 2315 0b95 58090000 		.4byte	0x958
 2316 0b99 23       		.uleb128 0x23
 2317 0b9a 76080000 		.4byte	.LASF177
 2318 0b9e 01       		.byte	0x1
 2319 0b9f AA       		.byte	0xaa
ARM GAS  /tmp/cc2DpUmI.s 			page 42


 2320 0ba0 01       		.byte	0x1
 2321 0ba1 00000000 		.4byte	.LFB65
 2322 0ba5 44010000 		.4byte	.LFE65
 2323 0ba9 00000000 		.4byte	.LLST0
 2324 0bad 01       		.byte	0x1
 2325 0bae E60D0000 		.4byte	0xde6
 2326 0bb2 24       		.uleb128 0x24
 2327 0bb3 73647000 		.ascii	"sdp\000"
 2328 0bb7 01       		.byte	0x1
 2329 0bb8 AA       		.byte	0xaa
 2330 0bb9 930B0000 		.4byte	0xb93
 2331 0bbd 20000000 		.4byte	.LLST1
 2332 0bc1 25       		.uleb128 0x25
 2333 0bc2 7500     		.ascii	"u\000"
 2334 0bc4 01       		.byte	0x1
 2335 0bc5 AB       		.byte	0xab
 2336 0bc6 E00A0000 		.4byte	0xae0
 2337 0bca 01       		.byte	0x1
 2338 0bcb 55       		.byte	0x55
 2339 0bcc 25       		.uleb128 0x25
 2340 0bcd 63723100 		.ascii	"cr1\000"
 2341 0bd1 01       		.byte	0x1
 2342 0bd2 AC       		.byte	0xac
 2343 0bd3 62000000 		.4byte	0x62
 2344 0bd7 01       		.byte	0x1
 2345 0bd8 57       		.byte	0x57
 2346 0bd9 26       		.uleb128 0x26
 2347 0bda 737200   		.ascii	"sr\000"
 2348 0bdd 01       		.byte	0x1
 2349 0bde AD       		.byte	0xad
 2350 0bdf 62000000 		.4byte	0x62
 2351 0be3 54000000 		.4byte	.LLST2
 2352 0be7 26       		.uleb128 0x26
 2353 0be8 647200   		.ascii	"dr\000"
 2354 0beb 01       		.byte	0x1
 2355 0bec AE       		.byte	0xae
 2356 0bed 62000000 		.4byte	0x62
 2357 0bf1 72000000 		.4byte	.LLST3
 2358 0bf5 27       		.uleb128 0x27
 2359 0bf6 48000000 		.4byte	.LBB17
 2360 0bfa 4E000000 		.4byte	.LBE17
 2361 0bfe 120C0000 		.4byte	0xc12
 2362 0c02 26       		.uleb128 0x26
 2363 0c03 746D7000 		.ascii	"tmp\000"
 2364 0c07 01       		.byte	0x1
 2365 0c08 CF       		.byte	0xcf
 2366 0c09 86000000 		.4byte	0x86
 2367 0c0d A6000000 		.4byte	.LLST4
 2368 0c11 00       		.byte	0
 2369 0c12 27       		.uleb128 0x27
 2370 0c13 5E000000 		.4byte	.LBB18
 2371 0c17 64000000 		.4byte	.LBE18
 2372 0c1b 2F0C0000 		.4byte	0xc2f
 2373 0c1f 26       		.uleb128 0x26
 2374 0c20 746D7000 		.ascii	"tmp\000"
 2375 0c24 01       		.byte	0x1
 2376 0c25 D1       		.byte	0xd1
ARM GAS  /tmp/cc2DpUmI.s 			page 43


 2377 0c26 86000000 		.4byte	0x86
 2378 0c2a B9000000 		.4byte	.LLST5
 2379 0c2e 00       		.byte	0
 2380 0c2f 27       		.uleb128 0x27
 2381 0c30 7C000000 		.4byte	.LBB19
 2382 0c34 82000000 		.4byte	.LBE19
 2383 0c38 4C0C0000 		.4byte	0xc4c
 2384 0c3c 26       		.uleb128 0x26
 2385 0c3d 746D7000 		.ascii	"tmp\000"
 2386 0c41 01       		.byte	0x1
 2387 0c42 BC       		.byte	0xbc
 2388 0c43 86000000 		.4byte	0x86
 2389 0c47 CC000000 		.4byte	.LLST6
 2390 0c4b 00       		.byte	0
 2391 0c4c 27       		.uleb128 0x27
 2392 0c4d 8C000000 		.4byte	.LBB20
 2393 0c51 94000000 		.4byte	.LBE20
 2394 0c55 690C0000 		.4byte	0xc69
 2395 0c59 26       		.uleb128 0x26
 2396 0c5a 746D7000 		.ascii	"tmp\000"
 2397 0c5e 01       		.byte	0x1
 2398 0c5f BE       		.byte	0xbe
 2399 0c60 86000000 		.4byte	0x86
 2400 0c64 DF000000 		.4byte	.LLST7
 2401 0c68 00       		.byte	0
 2402 0c69 27       		.uleb128 0x27
 2403 0c6a 94000000 		.4byte	.LBB21
 2404 0c6e 9A000000 		.4byte	.LBE21
 2405 0c72 860C0000 		.4byte	0xc86
 2406 0c76 26       		.uleb128 0x26
 2407 0c77 746D7000 		.ascii	"tmp\000"
 2408 0c7b 01       		.byte	0x1
 2409 0c7c B5       		.byte	0xb5
 2410 0c7d 86000000 		.4byte	0x86
 2411 0c81 FD000000 		.4byte	.LLST8
 2412 0c85 00       		.byte	0
 2413 0c86 27       		.uleb128 0x27
 2414 0c87 AA000000 		.4byte	.LBB22
 2415 0c8b B0000000 		.4byte	.LBE22
 2416 0c8f A30C0000 		.4byte	0xca3
 2417 0c93 26       		.uleb128 0x26
 2418 0c94 746D7000 		.ascii	"tmp\000"
 2419 0c98 01       		.byte	0x1
 2420 0c99 B7       		.byte	0xb7
 2421 0c9a 86000000 		.4byte	0x86
 2422 0c9e 10010000 		.4byte	.LLST9
 2423 0ca2 00       		.byte	0
 2424 0ca3 28       		.uleb128 0x28
 2425 0ca4 470B0000 		.4byte	0xb47
 2426 0ca8 BE000000 		.4byte	.LBB23
 2427 0cac 08010000 		.4byte	.LBE23
 2428 0cb0 01       		.byte	0x1
 2429 0cb1 B2       		.byte	0xb2
 2430 0cb2 1F0D0000 		.4byte	0xd1f
 2431 0cb6 29       		.uleb128 0x29
 2432 0cb7 5F0B0000 		.4byte	0xb5f
 2433 0cbb 23010000 		.4byte	.LLST10
ARM GAS  /tmp/cc2DpUmI.s 			page 44


 2434 0cbf 29       		.uleb128 0x29
 2435 0cc0 540B0000 		.4byte	0xb54
 2436 0cc4 36010000 		.4byte	.LLST11
 2437 0cc8 2A       		.uleb128 0x2a
 2438 0cc9 BE000000 		.4byte	.LBB24
 2439 0ccd 08010000 		.4byte	.LBE24
 2440 0cd1 2B       		.uleb128 0x2b
 2441 0cd2 690B0000 		.4byte	0xb69
 2442 0cd6 54010000 		.4byte	.LLST12
 2443 0cda 27       		.uleb128 0x27
 2444 0cdb EC000000 		.4byte	.LBB25
 2445 0cdf F2000000 		.4byte	.LBE25
 2446 0ce3 F10C0000 		.4byte	0xcf1
 2447 0ce7 2B       		.uleb128 0x2b
 2448 0ce8 790B0000 		.4byte	0xb79
 2449 0cec 73010000 		.4byte	.LLST13
 2450 0cf0 00       		.byte	0
 2451 0cf1 27       		.uleb128 0x27
 2452 0cf2 00010000 		.4byte	.LBB26
 2453 0cf6 08010000 		.4byte	.LBE26
 2454 0cfa 080D0000 		.4byte	0xd08
 2455 0cfe 2B       		.uleb128 0x2b
 2456 0cff 860B0000 		.4byte	0xb86
 2457 0d03 86010000 		.4byte	.LLST14
 2458 0d07 00       		.byte	0
 2459 0d08 2C       		.uleb128 0x2c
 2460 0d09 00010000 		.4byte	.LVL44
 2461 0d0d 51100000 		.4byte	0x1051
 2462 0d11 2D       		.uleb128 0x2d
 2463 0d12 01       		.byte	0x1
 2464 0d13 51       		.byte	0x51
 2465 0d14 01       		.byte	0x1
 2466 0d15 30       		.byte	0x30
 2467 0d16 2D       		.uleb128 0x2d
 2468 0d17 01       		.byte	0x1
 2469 0d18 50       		.byte	0x50
 2470 0d19 02       		.byte	0x2
 2471 0d1a 76       		.byte	0x76
 2472 0d1b 04       		.sleb128 4
 2473 0d1c 00       		.byte	0
 2474 0d1d 00       		.byte	0
 2475 0d1e 00       		.byte	0
 2476 0d1f 27       		.uleb128 0x27
 2477 0d20 08010000 		.4byte	.LBB27
 2478 0d24 44010000 		.4byte	.LBE27
 2479 0d28 9D0D0000 		.4byte	0xd9d
 2480 0d2c 26       		.uleb128 0x26
 2481 0d2d 6200     		.ascii	"b\000"
 2482 0d2f 01       		.byte	0x1
 2483 0d30 C2       		.byte	0xc2
 2484 0d31 E8000000 		.4byte	0xe8
 2485 0d35 A4010000 		.4byte	.LLST15
 2486 0d39 27       		.uleb128 0x27
 2487 0d3a 08010000 		.4byte	.LBB28
 2488 0d3e 0E010000 		.4byte	.LBE28
 2489 0d42 560D0000 		.4byte	0xd56
 2490 0d46 26       		.uleb128 0x26
ARM GAS  /tmp/cc2DpUmI.s 			page 45


 2491 0d47 746D7000 		.ascii	"tmp\000"
 2492 0d4b 01       		.byte	0x1
 2493 0d4c C3       		.byte	0xc3
 2494 0d4d 86000000 		.4byte	0x86
 2495 0d51 B7010000 		.4byte	.LLST16
 2496 0d55 00       		.byte	0
 2497 0d56 27       		.uleb128 0x27
 2498 0d57 20010000 		.4byte	.LBB29
 2499 0d5b 28010000 		.4byte	.LBE29
 2500 0d5f 730D0000 		.4byte	0xd73
 2501 0d63 26       		.uleb128 0x26
 2502 0d64 746D7000 		.ascii	"tmp\000"
 2503 0d68 01       		.byte	0x1
 2504 0d69 CB       		.byte	0xcb
 2505 0d6a 86000000 		.4byte	0x86
 2506 0d6e CA010000 		.4byte	.LLST17
 2507 0d72 00       		.byte	0
 2508 0d73 2E       		.uleb128 0x2e
 2509 0d74 16010000 		.4byte	.LVL49
 2510 0d78 70100000 		.4byte	0x1070
 2511 0d7c 870D0000 		.4byte	0xd87
 2512 0d80 2D       		.uleb128 0x2d
 2513 0d81 01       		.byte	0x1
 2514 0d82 50       		.byte	0x50
 2515 0d83 02       		.byte	0x2
 2516 0d84 76       		.byte	0x76
 2517 0d85 30       		.sleb128 48
 2518 0d86 00       		.byte	0
 2519 0d87 2C       		.uleb128 0x2c
 2520 0d88 38010000 		.4byte	.LVL53
 2521 0d8c 51100000 		.4byte	0x1051
 2522 0d90 2D       		.uleb128 0x2d
 2523 0d91 01       		.byte	0x1
 2524 0d92 51       		.byte	0x51
 2525 0d93 01       		.byte	0x1
 2526 0d94 30       		.byte	0x30
 2527 0d95 2D       		.uleb128 0x2d
 2528 0d96 01       		.byte	0x1
 2529 0d97 50       		.byte	0x50
 2530 0d98 02       		.byte	0x2
 2531 0d99 76       		.byte	0x76
 2532 0d9a 04       		.sleb128 4
 2533 0d9b 00       		.byte	0
 2534 0d9c 00       		.byte	0
 2535 0d9d 2E       		.uleb128 0x2e
 2536 0d9e 5E000000 		.4byte	.LVL15
 2537 0da2 51100000 		.4byte	0x1051
 2538 0da6 B60D0000 		.4byte	0xdb6
 2539 0daa 2D       		.uleb128 0x2d
 2540 0dab 01       		.byte	0x1
 2541 0dac 51       		.byte	0x51
 2542 0dad 01       		.byte	0x1
 2543 0dae 30       		.byte	0x30
 2544 0daf 2D       		.uleb128 0x2d
 2545 0db0 01       		.byte	0x1
 2546 0db1 50       		.byte	0x50
 2547 0db2 02       		.byte	0x2
ARM GAS  /tmp/cc2DpUmI.s 			page 46


 2548 0db3 76       		.byte	0x76
 2549 0db4 04       		.sleb128 4
 2550 0db5 00       		.byte	0
 2551 0db6 2E       		.uleb128 0x2e
 2552 0db7 8C000000 		.4byte	.LVL23
 2553 0dbb 8F100000 		.4byte	0x108f
 2554 0dbf D00D0000 		.4byte	0xdd0
 2555 0dc3 2D       		.uleb128 0x2d
 2556 0dc4 01       		.byte	0x1
 2557 0dc5 51       		.byte	0x51
 2558 0dc6 02       		.byte	0x2
 2559 0dc7 78       		.byte	0x78
 2560 0dc8 00       		.sleb128 0
 2561 0dc9 2D       		.uleb128 0x2d
 2562 0dca 01       		.byte	0x1
 2563 0dcb 50       		.byte	0x50
 2564 0dcc 02       		.byte	0x2
 2565 0dcd 76       		.byte	0x76
 2566 0dce 00       		.sleb128 0
 2567 0dcf 00       		.byte	0
 2568 0dd0 2C       		.uleb128 0x2c
 2569 0dd1 AA000000 		.4byte	.LVL29
 2570 0dd5 51100000 		.4byte	0x1051
 2571 0dd9 2D       		.uleb128 0x2d
 2572 0dda 01       		.byte	0x1
 2573 0ddb 51       		.byte	0x51
 2574 0ddc 01       		.byte	0x1
 2575 0ddd 30       		.byte	0x30
 2576 0dde 2D       		.uleb128 0x2d
 2577 0ddf 01       		.byte	0x1
 2578 0de0 50       		.byte	0x50
 2579 0de1 02       		.byte	0x2
 2580 0de2 76       		.byte	0x76
 2581 0de3 04       		.sleb128 4
 2582 0de4 00       		.byte	0
 2583 0de5 00       		.byte	0
 2584 0de6 2F       		.uleb128 0x2f
 2585 0de7 01       		.byte	0x1
 2586 0de8 2B050000 		.4byte	.LASF178
 2587 0dec 01       		.byte	0x1
 2588 0ded 1201     		.2byte	0x112
 2589 0def 01       		.byte	0x1
 2590 0df0 00000000 		.4byte	.LFB68
 2591 0df4 16000000 		.4byte	.LFE68
 2592 0df8 F3010000 		.4byte	.LLST18
 2593 0dfc 01       		.byte	0x1
 2594 0dfd 230E0000 		.4byte	0xe23
 2595 0e01 2E       		.uleb128 0x2e
 2596 0e02 0E000000 		.4byte	.LVL54
 2597 0e06 990B0000 		.4byte	0xb99
 2598 0e0a 180E0000 		.4byte	0xe18
 2599 0e0e 2D       		.uleb128 0x2d
 2600 0e0f 01       		.byte	0x1
 2601 0e10 50       		.byte	0x50
 2602 0e11 05       		.byte	0x5
 2603 0e12 03       		.byte	0x3
 2604 0e13 00000000 		.4byte	.LANCHOR0
ARM GAS  /tmp/cc2DpUmI.s 			page 47


 2605 0e17 00       		.byte	0
 2606 0e18 30       		.uleb128 0x30
 2607 0e19 16000000 		.4byte	.LVL55
 2608 0e1d 01       		.byte	0x1
 2609 0e1e A9100000 		.4byte	0x10a9
 2610 0e22 00       		.byte	0
 2611 0e23 2F       		.uleb128 0x2f
 2612 0e24 01       		.byte	0x1
 2613 0e25 AC020000 		.4byte	.LASF179
 2614 0e29 01       		.byte	0x1
 2615 0e2a 3201     		.2byte	0x132
 2616 0e2c 01       		.byte	0x1
 2617 0e2d 00000000 		.4byte	.LFB69
 2618 0e31 16000000 		.4byte	.LFE69
 2619 0e35 13020000 		.4byte	.LLST19
 2620 0e39 01       		.byte	0x1
 2621 0e3a 600E0000 		.4byte	0xe60
 2622 0e3e 2E       		.uleb128 0x2e
 2623 0e3f 0E000000 		.4byte	.LVL56
 2624 0e43 990B0000 		.4byte	0xb99
 2625 0e47 550E0000 		.4byte	0xe55
 2626 0e4b 2D       		.uleb128 0x2d
 2627 0e4c 01       		.byte	0x1
 2628 0e4d 50       		.byte	0x50
 2629 0e4e 05       		.byte	0x5
 2630 0e4f 03       		.byte	0x3
 2631 0e50 00000000 		.4byte	.LANCHOR1
 2632 0e54 00       		.byte	0
 2633 0e55 30       		.uleb128 0x30
 2634 0e56 16000000 		.4byte	.LVL57
 2635 0e5a 01       		.byte	0x1
 2636 0e5b A9100000 		.4byte	0x10a9
 2637 0e5f 00       		.byte	0
 2638 0e60 2F       		.uleb128 0x2f
 2639 0e61 01       		.byte	0x1
 2640 0e62 61080000 		.4byte	.LASF180
 2641 0e66 01       		.byte	0x1
 2642 0e67 7501     		.2byte	0x175
 2643 0e69 01       		.byte	0x1
 2644 0e6a 00000000 		.4byte	.LFB70
 2645 0e6e 4C000000 		.4byte	.LFE70
 2646 0e72 33020000 		.4byte	.LLST20
 2647 0e76 01       		.byte	0x1
 2648 0e77 BC0E0000 		.4byte	0xebc
 2649 0e7b 2E       		.uleb128 0x2e
 2650 0e7c 1E000000 		.4byte	.LVL58
 2651 0e80 B4100000 		.4byte	0x10b4
 2652 0e84 9D0E0000 		.4byte	0xe9d
 2653 0e88 2D       		.uleb128 0x2d
 2654 0e89 01       		.byte	0x1
 2655 0e8a 52       		.byte	0x52
 2656 0e8b 05       		.byte	0x5
 2657 0e8c 03       		.byte	0x3
 2658 0e8d 00000000 		.4byte	notify1
 2659 0e91 2D       		.uleb128 0x2d
 2660 0e92 01       		.byte	0x1
 2661 0e93 51       		.byte	0x51
ARM GAS  /tmp/cc2DpUmI.s 			page 48


 2662 0e94 01       		.byte	0x1
 2663 0e95 30       		.byte	0x30
 2664 0e96 2D       		.uleb128 0x2d
 2665 0e97 01       		.byte	0x1
 2666 0e98 50       		.byte	0x50
 2667 0e99 02       		.byte	0x2
 2668 0e9a 75       		.byte	0x75
 2669 0e9b 00       		.sleb128 0
 2670 0e9c 00       		.byte	0
 2671 0e9d 2C       		.uleb128 0x2c
 2672 0e9e 3E000000 		.4byte	.LVL59
 2673 0ea2 B4100000 		.4byte	0x10b4
 2674 0ea6 2D       		.uleb128 0x2d
 2675 0ea7 01       		.byte	0x1
 2676 0ea8 52       		.byte	0x52
 2677 0ea9 05       		.byte	0x5
 2678 0eaa 03       		.byte	0x3
 2679 0eab 00000000 		.4byte	notify3
 2680 0eaf 2D       		.uleb128 0x2d
 2681 0eb0 01       		.byte	0x1
 2682 0eb1 51       		.byte	0x51
 2683 0eb2 01       		.byte	0x1
 2684 0eb3 30       		.byte	0x30
 2685 0eb4 2D       		.uleb128 0x2d
 2686 0eb5 01       		.byte	0x1
 2687 0eb6 50       		.byte	0x50
 2688 0eb7 02       		.byte	0x2
 2689 0eb8 74       		.byte	0x74
 2690 0eb9 00       		.sleb128 0
 2691 0eba 00       		.byte	0
 2692 0ebb 00       		.byte	0
 2693 0ebc 1C       		.uleb128 0x1c
 2694 0ebd 3A010000 		.4byte	.LASF181
 2695 0ec1 01       		.byte	0x1
 2696 0ec2 63       		.byte	0x63
 2697 0ec3 01       		.byte	0x1
 2698 0ec4 01       		.byte	0x1
 2699 0ec5 E90E0000 		.4byte	0xee9
 2700 0ec9 1D       		.uleb128 0x1d
 2701 0eca 73647000 		.ascii	"sdp\000"
 2702 0ece 01       		.byte	0x1
 2703 0ecf 63       		.byte	0x63
 2704 0ed0 930B0000 		.4byte	0xb93
 2705 0ed4 31       		.uleb128 0x31
 2706 0ed5 E9050000 		.4byte	.LASF182
 2707 0ed9 01       		.byte	0x1
 2708 0eda 63       		.byte	0x63
 2709 0edb E90E0000 		.4byte	0xee9
 2710 0edf 20       		.uleb128 0x20
 2711 0ee0 7500     		.ascii	"u\000"
 2712 0ee2 01       		.byte	0x1
 2713 0ee3 64       		.byte	0x64
 2714 0ee4 E00A0000 		.4byte	0xae0
 2715 0ee8 00       		.byte	0
 2716 0ee9 09       		.uleb128 0x9
 2717 0eea 04       		.byte	0x4
 2718 0eeb EF0E0000 		.4byte	0xeef
ARM GAS  /tmp/cc2DpUmI.s 			page 49


 2719 0eef 10       		.uleb128 0x10
 2720 0ef0 2F0A0000 		.4byte	0xa2f
 2721 0ef4 2F       		.uleb128 0x2f
 2722 0ef5 01       		.byte	0x1
 2723 0ef6 34050000 		.4byte	.LASF183
 2724 0efa 01       		.byte	0x1
 2725 0efb A001     		.2byte	0x1a0
 2726 0efd 01       		.byte	0x1
 2727 0efe 00000000 		.4byte	.LFB71
 2728 0f02 A0000000 		.4byte	.LFE71
 2729 0f06 53020000 		.4byte	.LLST21
 2730 0f0a 01       		.byte	0x1
 2731 0f0b 9A0F0000 		.4byte	0xf9a
 2732 0f0f 32       		.uleb128 0x32
 2733 0f10 73647000 		.ascii	"sdp\000"
 2734 0f14 01       		.byte	0x1
 2735 0f15 A001     		.2byte	0x1a0
 2736 0f17 930B0000 		.4byte	0xb93
 2737 0f1b 73020000 		.4byte	.LLST22
 2738 0f1f 33       		.uleb128 0x33
 2739 0f20 E9050000 		.4byte	.LASF182
 2740 0f24 01       		.byte	0x1
 2741 0f25 A001     		.2byte	0x1a0
 2742 0f27 E90E0000 		.4byte	0xee9
 2743 0f2b BD020000 		.4byte	.LLST23
 2744 0f2f 34       		.uleb128 0x34
 2745 0f30 BC0E0000 		.4byte	0xebc
 2746 0f34 12000000 		.4byte	.LBB32
 2747 0f38 54000000 		.4byte	.LBE32
 2748 0f3c 01       		.byte	0x1
 2749 0f3d D101     		.2byte	0x1d1
 2750 0f3f 690F0000 		.4byte	0xf69
 2751 0f43 29       		.uleb128 0x29
 2752 0f44 D40E0000 		.4byte	0xed4
 2753 0f48 DB020000 		.4byte	.LLST24
 2754 0f4c 29       		.uleb128 0x29
 2755 0f4d C90E0000 		.4byte	0xec9
 2756 0f51 EE020000 		.4byte	.LLST25
 2757 0f55 2A       		.uleb128 0x2a
 2758 0f56 12000000 		.4byte	.LBB33
 2759 0f5a 54000000 		.4byte	.LBE33
 2760 0f5e 2B       		.uleb128 0x2b
 2761 0f5f DF0E0000 		.4byte	0xedf
 2762 0f63 01030000 		.4byte	.LLST26
 2763 0f67 00       		.byte	0
 2764 0f68 00       		.byte	0
 2765 0f69 2E       		.uleb128 0x2e
 2766 0f6a 78000000 		.4byte	.LVL67
 2767 0f6e D3100000 		.4byte	0x10d3
 2768 0f72 830F0000 		.4byte	0xf83
 2769 0f76 2D       		.uleb128 0x2d
 2770 0f77 01       		.byte	0x1
 2771 0f78 51       		.byte	0x51
 2772 0f79 02       		.byte	0x2
 2773 0f7a 08       		.byte	0x8
 2774 0f7b C0       		.byte	0xc0
 2775 0f7c 2D       		.uleb128 0x2d
ARM GAS  /tmp/cc2DpUmI.s 			page 50


 2776 0f7d 01       		.byte	0x1
 2777 0f7e 50       		.byte	0x50
 2778 0f7f 02       		.byte	0x2
 2779 0f80 08       		.byte	0x8
 2780 0f81 27       		.byte	0x27
 2781 0f82 00       		.byte	0
 2782 0f83 2C       		.uleb128 0x2c
 2783 0f84 92000000 		.4byte	.LVL70
 2784 0f88 D3100000 		.4byte	0x10d3
 2785 0f8c 2D       		.uleb128 0x2d
 2786 0f8d 01       		.byte	0x1
 2787 0f8e 51       		.byte	0x51
 2788 0f8f 02       		.byte	0x2
 2789 0f90 08       		.byte	0x8
 2790 0f91 C0       		.byte	0xc0
 2791 0f92 2D       		.uleb128 0x2d
 2792 0f93 01       		.byte	0x1
 2793 0f94 50       		.byte	0x50
 2794 0f95 02       		.byte	0x2
 2795 0f96 08       		.byte	0x8
 2796 0f97 25       		.byte	0x25
 2797 0f98 00       		.byte	0
 2798 0f99 00       		.byte	0
 2799 0f9a 35       		.uleb128 0x35
 2800 0f9b 01       		.byte	0x1
 2801 0f9c BD040000 		.4byte	.LASF184
 2802 0fa0 01       		.byte	0x1
 2803 0fa1 DD01     		.2byte	0x1dd
 2804 0fa3 01       		.byte	0x1
 2805 0fa4 00000000 		.4byte	.LFB72
 2806 0fa8 54000000 		.4byte	.LFE72
 2807 0fac 02       		.byte	0x2
 2808 0fad 7D       		.byte	0x7d
 2809 0fae 00       		.sleb128 0
 2810 0faf 01       		.byte	0x1
 2811 0fb0 09100000 		.4byte	0x1009
 2812 0fb4 32       		.uleb128 0x32
 2813 0fb5 73647000 		.ascii	"sdp\000"
 2814 0fb9 01       		.byte	0x1
 2815 0fba DD01     		.2byte	0x1dd
 2816 0fbc 930B0000 		.4byte	0xb93
 2817 0fc0 21030000 		.4byte	.LLST27
 2818 0fc4 34       		.uleb128 0x34
 2819 0fc5 E60A0000 		.4byte	0xae6
 2820 0fc9 0C000000 		.4byte	.LBB34
 2821 0fcd 14000000 		.4byte	.LBE34
 2822 0fd1 01       		.byte	0x1
 2823 0fd2 E001     		.2byte	0x1e0
 2824 0fd4 E20F0000 		.4byte	0xfe2
 2825 0fd8 29       		.uleb128 0x29
 2826 0fd9 F30A0000 		.4byte	0xaf3
 2827 0fdd 5B030000 		.4byte	.LLST28
 2828 0fe1 00       		.byte	0
 2829 0fe2 36       		.uleb128 0x36
 2830 0fe3 36000000 		.4byte	.LVL75
 2831 0fe7 01       		.byte	0x1
 2832 0fe8 ED100000 		.4byte	0x10ed
ARM GAS  /tmp/cc2DpUmI.s 			page 51


 2833 0fec F70F0000 		.4byte	0xff7
 2834 0ff0 2D       		.uleb128 0x2d
 2835 0ff1 01       		.byte	0x1
 2836 0ff2 50       		.byte	0x50
 2837 0ff3 02       		.byte	0x2
 2838 0ff4 08       		.byte	0x8
 2839 0ff5 27       		.byte	0x27
 2840 0ff6 00       		.byte	0
 2841 0ff7 37       		.uleb128 0x37
 2842 0ff8 4C000000 		.4byte	.LVL77
 2843 0ffc 01       		.byte	0x1
 2844 0ffd ED100000 		.4byte	0x10ed
 2845 1001 2D       		.uleb128 0x2d
 2846 1002 01       		.byte	0x1
 2847 1003 50       		.byte	0x50
 2848 1004 02       		.byte	0x2
 2849 1005 08       		.byte	0x8
 2850 1006 25       		.byte	0x25
 2851 1007 00       		.byte	0
 2852 1008 00       		.byte	0
 2853 1009 38       		.uleb128 0x38
 2854 100a FB070000 		.4byte	.LASF185
 2855 100e 01       		.byte	0x1
 2856 100f 50       		.byte	0x50
 2857 1010 EF0E0000 		.4byte	0xeef
 2858 1014 05       		.byte	0x5
 2859 1015 03       		.byte	0x3
 2860 1016 00000000 		.4byte	default_config
 2861 101a 39       		.uleb128 0x39
 2862 101b 88060000 		.4byte	.LASF186
 2863 101f 10       		.byte	0x10
 2864 1020 9404     		.2byte	0x494
 2865 1022 28100000 		.4byte	0x1028
 2866 1026 01       		.byte	0x1
 2867 1027 01       		.byte	0x1
 2868 1028 0D       		.uleb128 0xd
 2869 1029 74000000 		.4byte	0x74
 2870 102d 3A       		.uleb128 0x3a
 2871 102e 53443100 		.ascii	"SD1\000"
 2872 1032 01       		.byte	0x1
 2873 1033 2F       		.byte	0x2f
 2874 1034 58090000 		.4byte	0x958
 2875 1038 01       		.byte	0x1
 2876 1039 05       		.byte	0x5
 2877 103a 03       		.byte	0x3
 2878 103b 00000000 		.4byte	SD1
 2879 103f 3A       		.uleb128 0x3a
 2880 1040 53443300 		.ascii	"SD3\000"
 2881 1044 01       		.byte	0x1
 2882 1045 39       		.byte	0x39
 2883 1046 58090000 		.4byte	0x958
 2884 104a 01       		.byte	0x1
 2885 104b 05       		.byte	0x5
 2886 104c 03       		.byte	0x3
 2887 104d 00000000 		.4byte	SD3
 2888 1051 3B       		.uleb128 0x3b
 2889 1052 01       		.byte	0x1
ARM GAS  /tmp/cc2DpUmI.s 			page 52


 2890 1053 F1030000 		.4byte	.LASF187
 2891 1057 09       		.byte	0x9
 2892 1058 B3       		.byte	0xb3
 2893 1059 01       		.byte	0x1
 2894 105a 01       		.byte	0x1
 2895 105b 6A100000 		.4byte	0x106a
 2896 105f 12       		.uleb128 0x12
 2897 1060 6A100000 		.4byte	0x106a
 2898 1064 12       		.uleb128 0x12
 2899 1065 F3000000 		.4byte	0xf3
 2900 1069 00       		.byte	0
 2901 106a 09       		.uleb128 0x9
 2902 106b 04       		.byte	0x4
 2903 106c FC030000 		.4byte	0x3fc
 2904 1070 3C       		.uleb128 0x3c
 2905 1071 01       		.byte	0x1
 2906 1072 C1010000 		.4byte	.LASF195
 2907 1076 0A       		.byte	0xa
 2908 1077 5A01     		.2byte	0x15a
 2909 1079 01       		.byte	0x1
 2910 107a E8000000 		.4byte	0xe8
 2911 107e 01       		.byte	0x1
 2912 107f 89100000 		.4byte	0x1089
 2913 1083 12       		.uleb128 0x12
 2914 1084 89100000 		.4byte	0x1089
 2915 1088 00       		.byte	0
 2916 1089 09       		.uleb128 0x9
 2917 108a 04       		.byte	0x4
 2918 108b 02050000 		.4byte	0x502
 2919 108f 3D       		.uleb128 0x3d
 2920 1090 01       		.byte	0x1
 2921 1091 68010000 		.4byte	.LASF188
 2922 1095 0D       		.byte	0xd
 2923 1096 3B01     		.2byte	0x13b
 2924 1098 01       		.byte	0x1
 2925 1099 01       		.byte	0x1
 2926 109a A9100000 		.4byte	0x10a9
 2927 109e 12       		.uleb128 0x12
 2928 109f 930B0000 		.4byte	0xb93
 2929 10a3 12       		.uleb128 0x12
 2930 10a4 49000000 		.4byte	0x49
 2931 10a8 00       		.byte	0
 2932 10a9 3E       		.uleb128 0x3e
 2933 10aa 01       		.byte	0x1
 2934 10ab 9D070000 		.4byte	.LASF196
 2935 10af 07       		.byte	0x7
 2936 10b0 F501     		.2byte	0x1f5
 2937 10b2 01       		.byte	0x1
 2938 10b3 01       		.byte	0x1
 2939 10b4 3D       		.uleb128 0x3d
 2940 10b5 01       		.byte	0x1
 2941 10b6 54010000 		.4byte	.LASF189
 2942 10ba 0D       		.byte	0xd
 2943 10bb 3801     		.2byte	0x138
 2944 10bd 01       		.byte	0x1
 2945 10be 01       		.byte	0x1
 2946 10bf D3100000 		.4byte	0x10d3
ARM GAS  /tmp/cc2DpUmI.s 			page 53


 2947 10c3 12       		.uleb128 0x12
 2948 10c4 930B0000 		.4byte	0xb93
 2949 10c8 12       		.uleb128 0x12
 2950 10c9 CE040000 		.4byte	0x4ce
 2951 10cd 12       		.uleb128 0x12
 2952 10ce CE040000 		.4byte	0x4ce
 2953 10d2 00       		.byte	0
 2954 10d3 3D       		.uleb128 0x3d
 2955 10d4 01       		.byte	0x1
 2956 10d5 50080000 		.4byte	.LASF190
 2957 10d9 0F       		.byte	0xf
 2958 10da 2301     		.2byte	0x123
 2959 10dc 01       		.byte	0x1
 2960 10dd 01       		.byte	0x1
 2961 10de ED100000 		.4byte	0x10ed
 2962 10e2 12       		.uleb128 0x12
 2963 10e3 86000000 		.4byte	0x86
 2964 10e7 12       		.uleb128 0x12
 2965 10e8 86000000 		.4byte	0x86
 2966 10ec 00       		.byte	0
 2967 10ed 3F       		.uleb128 0x3f
 2968 10ee 01       		.byte	0x1
 2969 10ef 78010000 		.4byte	.LASF197
 2970 10f3 0F       		.byte	0xf
 2971 10f4 2401     		.2byte	0x124
 2972 10f6 01       		.byte	0x1
 2973 10f7 01       		.byte	0x1
 2974 10f8 12       		.uleb128 0x12
 2975 10f9 86000000 		.4byte	0x86
 2976 10fd 00       		.byte	0
 2977 10fe 00       		.byte	0
 2978              		.section	.debug_abbrev,"",%progbits
 2979              	.Ldebug_abbrev0:
 2980 0000 01       		.uleb128 0x1
 2981 0001 11       		.uleb128 0x11
 2982 0002 01       		.byte	0x1
 2983 0003 25       		.uleb128 0x25
 2984 0004 0E       		.uleb128 0xe
 2985 0005 13       		.uleb128 0x13
 2986 0006 0B       		.uleb128 0xb
 2987 0007 03       		.uleb128 0x3
 2988 0008 0E       		.uleb128 0xe
 2989 0009 1B       		.uleb128 0x1b
 2990 000a 0E       		.uleb128 0xe
 2991 000b 55       		.uleb128 0x55
 2992 000c 06       		.uleb128 0x6
 2993 000d 11       		.uleb128 0x11
 2994 000e 01       		.uleb128 0x1
 2995 000f 52       		.uleb128 0x52
 2996 0010 01       		.uleb128 0x1
 2997 0011 10       		.uleb128 0x10
 2998 0012 06       		.uleb128 0x6
 2999 0013 00       		.byte	0
 3000 0014 00       		.byte	0
 3001 0015 02       		.uleb128 0x2
 3002 0016 24       		.uleb128 0x24
 3003 0017 00       		.byte	0
ARM GAS  /tmp/cc2DpUmI.s 			page 54


 3004 0018 0B       		.uleb128 0xb
 3005 0019 0B       		.uleb128 0xb
 3006 001a 3E       		.uleb128 0x3e
 3007 001b 0B       		.uleb128 0xb
 3008 001c 03       		.uleb128 0x3
 3009 001d 08       		.uleb128 0x8
 3010 001e 00       		.byte	0
 3011 001f 00       		.byte	0
 3012 0020 03       		.uleb128 0x3
 3013 0021 16       		.uleb128 0x16
 3014 0022 00       		.byte	0
 3015 0023 03       		.uleb128 0x3
 3016 0024 0E       		.uleb128 0xe
 3017 0025 3A       		.uleb128 0x3a
 3018 0026 0B       		.uleb128 0xb
 3019 0027 3B       		.uleb128 0x3b
 3020 0028 0B       		.uleb128 0xb
 3021 0029 49       		.uleb128 0x49
 3022 002a 13       		.uleb128 0x13
 3023 002b 00       		.byte	0
 3024 002c 00       		.byte	0
 3025 002d 04       		.uleb128 0x4
 3026 002e 24       		.uleb128 0x24
 3027 002f 00       		.byte	0
 3028 0030 0B       		.uleb128 0xb
 3029 0031 0B       		.uleb128 0xb
 3030 0032 3E       		.uleb128 0x3e
 3031 0033 0B       		.uleb128 0xb
 3032 0034 03       		.uleb128 0x3
 3033 0035 0E       		.uleb128 0xe
 3034 0036 00       		.byte	0
 3035 0037 00       		.byte	0
 3036 0038 05       		.uleb128 0x5
 3037 0039 13       		.uleb128 0x13
 3038 003a 01       		.byte	0x1
 3039 003b 03       		.uleb128 0x3
 3040 003c 0E       		.uleb128 0xe
 3041 003d 0B       		.uleb128 0xb
 3042 003e 0B       		.uleb128 0xb
 3043 003f 3A       		.uleb128 0x3a
 3044 0040 0B       		.uleb128 0xb
 3045 0041 3B       		.uleb128 0x3b
 3046 0042 0B       		.uleb128 0xb
 3047 0043 01       		.uleb128 0x1
 3048 0044 13       		.uleb128 0x13
 3049 0045 00       		.byte	0
 3050 0046 00       		.byte	0
 3051 0047 06       		.uleb128 0x6
 3052 0048 0D       		.uleb128 0xd
 3053 0049 00       		.byte	0
 3054 004a 03       		.uleb128 0x3
 3055 004b 0E       		.uleb128 0xe
 3056 004c 3A       		.uleb128 0x3a
 3057 004d 0B       		.uleb128 0xb
 3058 004e 3B       		.uleb128 0x3b
 3059 004f 0B       		.uleb128 0xb
 3060 0050 49       		.uleb128 0x49
ARM GAS  /tmp/cc2DpUmI.s 			page 55


 3061 0051 13       		.uleb128 0x13
 3062 0052 38       		.uleb128 0x38
 3063 0053 0A       		.uleb128 0xa
 3064 0054 00       		.byte	0
 3065 0055 00       		.byte	0
 3066 0056 07       		.uleb128 0x7
 3067 0057 0D       		.uleb128 0xd
 3068 0058 00       		.byte	0
 3069 0059 03       		.uleb128 0x3
 3070 005a 08       		.uleb128 0x8
 3071 005b 3A       		.uleb128 0x3a
 3072 005c 0B       		.uleb128 0xb
 3073 005d 3B       		.uleb128 0x3b
 3074 005e 0B       		.uleb128 0xb
 3075 005f 49       		.uleb128 0x49
 3076 0060 13       		.uleb128 0x13
 3077 0061 38       		.uleb128 0x38
 3078 0062 0A       		.uleb128 0xa
 3079 0063 00       		.byte	0
 3080 0064 00       		.byte	0
 3081 0065 08       		.uleb128 0x8
 3082 0066 13       		.uleb128 0x13
 3083 0067 01       		.byte	0x1
 3084 0068 0B       		.uleb128 0xb
 3085 0069 0B       		.uleb128 0xb
 3086 006a 3A       		.uleb128 0x3a
 3087 006b 0B       		.uleb128 0xb
 3088 006c 3B       		.uleb128 0x3b
 3089 006d 0B       		.uleb128 0xb
 3090 006e 01       		.uleb128 0x1
 3091 006f 13       		.uleb128 0x13
 3092 0070 00       		.byte	0
 3093 0071 00       		.byte	0
 3094 0072 09       		.uleb128 0x9
 3095 0073 0F       		.uleb128 0xf
 3096 0074 00       		.byte	0
 3097 0075 0B       		.uleb128 0xb
 3098 0076 0B       		.uleb128 0xb
 3099 0077 49       		.uleb128 0x49
 3100 0078 13       		.uleb128 0x13
 3101 0079 00       		.byte	0
 3102 007a 00       		.byte	0
 3103 007b 0A       		.uleb128 0xa
 3104 007c 0F       		.uleb128 0xf
 3105 007d 00       		.byte	0
 3106 007e 0B       		.uleb128 0xb
 3107 007f 0B       		.uleb128 0xb
 3108 0080 00       		.byte	0
 3109 0081 00       		.byte	0
 3110 0082 0B       		.uleb128 0xb
 3111 0083 0D       		.uleb128 0xd
 3112 0084 00       		.byte	0
 3113 0085 03       		.uleb128 0x3
 3114 0086 08       		.uleb128 0x8
 3115 0087 3A       		.uleb128 0x3a
 3116 0088 0B       		.uleb128 0xb
 3117 0089 3B       		.uleb128 0x3b
ARM GAS  /tmp/cc2DpUmI.s 			page 56


 3118 008a 05       		.uleb128 0x5
 3119 008b 49       		.uleb128 0x49
 3120 008c 13       		.uleb128 0x13
 3121 008d 38       		.uleb128 0x38
 3122 008e 0A       		.uleb128 0xa
 3123 008f 00       		.byte	0
 3124 0090 00       		.byte	0
 3125 0091 0C       		.uleb128 0xc
 3126 0092 13       		.uleb128 0x13
 3127 0093 01       		.byte	0x1
 3128 0094 03       		.uleb128 0x3
 3129 0095 0E       		.uleb128 0xe
 3130 0096 0B       		.uleb128 0xb
 3131 0097 0B       		.uleb128 0xb
 3132 0098 3A       		.uleb128 0x3a
 3133 0099 0B       		.uleb128 0xb
 3134 009a 3B       		.uleb128 0x3b
 3135 009b 05       		.uleb128 0x5
 3136 009c 01       		.uleb128 0x1
 3137 009d 13       		.uleb128 0x13
 3138 009e 00       		.byte	0
 3139 009f 00       		.byte	0
 3140 00a0 0D       		.uleb128 0xd
 3141 00a1 35       		.uleb128 0x35
 3142 00a2 00       		.byte	0
 3143 00a3 49       		.uleb128 0x49
 3144 00a4 13       		.uleb128 0x13
 3145 00a5 00       		.byte	0
 3146 00a6 00       		.byte	0
 3147 00a7 0E       		.uleb128 0xe
 3148 00a8 17       		.uleb128 0x17
 3149 00a9 01       		.byte	0x1
 3150 00aa 0B       		.uleb128 0xb
 3151 00ab 0B       		.uleb128 0xb
 3152 00ac 3A       		.uleb128 0x3a
 3153 00ad 0B       		.uleb128 0xb
 3154 00ae 3B       		.uleb128 0x3b
 3155 00af 0B       		.uleb128 0xb
 3156 00b0 01       		.uleb128 0x1
 3157 00b1 13       		.uleb128 0x13
 3158 00b2 00       		.byte	0
 3159 00b3 00       		.byte	0
 3160 00b4 0F       		.uleb128 0xf
 3161 00b5 0D       		.uleb128 0xd
 3162 00b6 00       		.byte	0
 3163 00b7 03       		.uleb128 0x3
 3164 00b8 0E       		.uleb128 0xe
 3165 00b9 3A       		.uleb128 0x3a
 3166 00ba 0B       		.uleb128 0xb
 3167 00bb 3B       		.uleb128 0x3b
 3168 00bc 0B       		.uleb128 0xb
 3169 00bd 49       		.uleb128 0x49
 3170 00be 13       		.uleb128 0x13
 3171 00bf 00       		.byte	0
 3172 00c0 00       		.byte	0
 3173 00c1 10       		.uleb128 0x10
 3174 00c2 26       		.uleb128 0x26
ARM GAS  /tmp/cc2DpUmI.s 			page 57


 3175 00c3 00       		.byte	0
 3176 00c4 49       		.uleb128 0x49
 3177 00c5 13       		.uleb128 0x13
 3178 00c6 00       		.byte	0
 3179 00c7 00       		.byte	0
 3180 00c8 11       		.uleb128 0x11
 3181 00c9 15       		.uleb128 0x15
 3182 00ca 01       		.byte	0x1
 3183 00cb 27       		.uleb128 0x27
 3184 00cc 0C       		.uleb128 0xc
 3185 00cd 01       		.uleb128 0x1
 3186 00ce 13       		.uleb128 0x13
 3187 00cf 00       		.byte	0
 3188 00d0 00       		.byte	0
 3189 00d1 12       		.uleb128 0x12
 3190 00d2 05       		.uleb128 0x5
 3191 00d3 00       		.byte	0
 3192 00d4 49       		.uleb128 0x49
 3193 00d5 13       		.uleb128 0x13
 3194 00d6 00       		.byte	0
 3195 00d7 00       		.byte	0
 3196 00d8 13       		.uleb128 0x13
 3197 00d9 15       		.uleb128 0x15
 3198 00da 01       		.byte	0x1
 3199 00db 27       		.uleb128 0x27
 3200 00dc 0C       		.uleb128 0xc
 3201 00dd 49       		.uleb128 0x49
 3202 00de 13       		.uleb128 0x13
 3203 00df 01       		.uleb128 0x1
 3204 00e0 13       		.uleb128 0x13
 3205 00e1 00       		.byte	0
 3206 00e2 00       		.byte	0
 3207 00e3 14       		.uleb128 0x14
 3208 00e4 16       		.uleb128 0x16
 3209 00e5 00       		.byte	0
 3210 00e6 03       		.uleb128 0x3
 3211 00e7 0E       		.uleb128 0xe
 3212 00e8 3A       		.uleb128 0x3a
 3213 00e9 0B       		.uleb128 0xb
 3214 00ea 3B       		.uleb128 0x3b
 3215 00eb 05       		.uleb128 0x5
 3216 00ec 49       		.uleb128 0x49
 3217 00ed 13       		.uleb128 0x13
 3218 00ee 00       		.byte	0
 3219 00ef 00       		.byte	0
 3220 00f0 15       		.uleb128 0x15
 3221 00f1 04       		.uleb128 0x4
 3222 00f2 01       		.byte	0x1
 3223 00f3 03       		.uleb128 0x3
 3224 00f4 0E       		.uleb128 0xe
 3225 00f5 0B       		.uleb128 0xb
 3226 00f6 0B       		.uleb128 0xb
 3227 00f7 3A       		.uleb128 0x3a
 3228 00f8 0B       		.uleb128 0xb
 3229 00f9 3B       		.uleb128 0x3b
 3230 00fa 0B       		.uleb128 0xb
 3231 00fb 01       		.uleb128 0x1
ARM GAS  /tmp/cc2DpUmI.s 			page 58


 3232 00fc 13       		.uleb128 0x13
 3233 00fd 00       		.byte	0
 3234 00fe 00       		.byte	0
 3235 00ff 16       		.uleb128 0x16
 3236 0100 28       		.uleb128 0x28
 3237 0101 00       		.byte	0
 3238 0102 03       		.uleb128 0x3
 3239 0103 0E       		.uleb128 0xe
 3240 0104 1C       		.uleb128 0x1c
 3241 0105 0D       		.uleb128 0xd
 3242 0106 00       		.byte	0
 3243 0107 00       		.byte	0
 3244 0108 17       		.uleb128 0x17
 3245 0109 13       		.uleb128 0x13
 3246 010a 01       		.byte	0x1
 3247 010b 0B       		.uleb128 0xb
 3248 010c 0B       		.uleb128 0xb
 3249 010d 3A       		.uleb128 0x3a
 3250 010e 0B       		.uleb128 0xb
 3251 010f 3B       		.uleb128 0x3b
 3252 0110 05       		.uleb128 0x5
 3253 0111 01       		.uleb128 0x1
 3254 0112 13       		.uleb128 0x13
 3255 0113 00       		.byte	0
 3256 0114 00       		.byte	0
 3257 0115 18       		.uleb128 0x18
 3258 0116 0D       		.uleb128 0xd
 3259 0117 00       		.byte	0
 3260 0118 03       		.uleb128 0x3
 3261 0119 0E       		.uleb128 0xe
 3262 011a 3A       		.uleb128 0x3a
 3263 011b 0B       		.uleb128 0xb
 3264 011c 3B       		.uleb128 0x3b
 3265 011d 05       		.uleb128 0x5
 3266 011e 49       		.uleb128 0x49
 3267 011f 13       		.uleb128 0x13
 3268 0120 38       		.uleb128 0x38
 3269 0121 0A       		.uleb128 0xa
 3270 0122 00       		.byte	0
 3271 0123 00       		.byte	0
 3272 0124 19       		.uleb128 0x19
 3273 0125 04       		.uleb128 0x4
 3274 0126 01       		.byte	0x1
 3275 0127 0B       		.uleb128 0xb
 3276 0128 0B       		.uleb128 0xb
 3277 0129 3A       		.uleb128 0x3a
 3278 012a 0B       		.uleb128 0xb
 3279 012b 3B       		.uleb128 0x3b
 3280 012c 0B       		.uleb128 0xb
 3281 012d 01       		.uleb128 0x1
 3282 012e 13       		.uleb128 0x13
 3283 012f 00       		.byte	0
 3284 0130 00       		.byte	0
 3285 0131 1A       		.uleb128 0x1a
 3286 0132 01       		.uleb128 0x1
 3287 0133 01       		.byte	0x1
 3288 0134 49       		.uleb128 0x49
ARM GAS  /tmp/cc2DpUmI.s 			page 59


 3289 0135 13       		.uleb128 0x13
 3290 0136 01       		.uleb128 0x1
 3291 0137 13       		.uleb128 0x13
 3292 0138 00       		.byte	0
 3293 0139 00       		.byte	0
 3294 013a 1B       		.uleb128 0x1b
 3295 013b 21       		.uleb128 0x21
 3296 013c 00       		.byte	0
 3297 013d 49       		.uleb128 0x49
 3298 013e 13       		.uleb128 0x13
 3299 013f 2F       		.uleb128 0x2f
 3300 0140 0B       		.uleb128 0xb
 3301 0141 00       		.byte	0
 3302 0142 00       		.byte	0
 3303 0143 1C       		.uleb128 0x1c
 3304 0144 2E       		.uleb128 0x2e
 3305 0145 01       		.byte	0x1
 3306 0146 03       		.uleb128 0x3
 3307 0147 0E       		.uleb128 0xe
 3308 0148 3A       		.uleb128 0x3a
 3309 0149 0B       		.uleb128 0xb
 3310 014a 3B       		.uleb128 0x3b
 3311 014b 0B       		.uleb128 0xb
 3312 014c 27       		.uleb128 0x27
 3313 014d 0C       		.uleb128 0xc
 3314 014e 20       		.uleb128 0x20
 3315 014f 0B       		.uleb128 0xb
 3316 0150 01       		.uleb128 0x1
 3317 0151 13       		.uleb128 0x13
 3318 0152 00       		.byte	0
 3319 0153 00       		.byte	0
 3320 0154 1D       		.uleb128 0x1d
 3321 0155 05       		.uleb128 0x5
 3322 0156 00       		.byte	0
 3323 0157 03       		.uleb128 0x3
 3324 0158 08       		.uleb128 0x8
 3325 0159 3A       		.uleb128 0x3a
 3326 015a 0B       		.uleb128 0xb
 3327 015b 3B       		.uleb128 0x3b
 3328 015c 0B       		.uleb128 0xb
 3329 015d 49       		.uleb128 0x49
 3330 015e 13       		.uleb128 0x13
 3331 015f 00       		.byte	0
 3332 0160 00       		.byte	0
 3333 0161 1E       		.uleb128 0x1e
 3334 0162 2E       		.uleb128 0x2e
 3335 0163 01       		.byte	0x1
 3336 0164 03       		.uleb128 0x3
 3337 0165 0E       		.uleb128 0xe
 3338 0166 3A       		.uleb128 0x3a
 3339 0167 0B       		.uleb128 0xb
 3340 0168 3B       		.uleb128 0x3b
 3341 0169 0B       		.uleb128 0xb
 3342 016a 27       		.uleb128 0x27
 3343 016b 0C       		.uleb128 0xc
 3344 016c 11       		.uleb128 0x11
 3345 016d 01       		.uleb128 0x1
ARM GAS  /tmp/cc2DpUmI.s 			page 60


 3346 016e 12       		.uleb128 0x12
 3347 016f 01       		.uleb128 0x1
 3348 0170 40       		.uleb128 0x40
 3349 0171 0A       		.uleb128 0xa
 3350 0172 9742     		.uleb128 0x2117
 3351 0174 0C       		.uleb128 0xc
 3352 0175 01       		.uleb128 0x1
 3353 0176 13       		.uleb128 0x13
 3354 0177 00       		.byte	0
 3355 0178 00       		.byte	0
 3356 0179 1F       		.uleb128 0x1f
 3357 017a 05       		.uleb128 0x5
 3358 017b 00       		.byte	0
 3359 017c 03       		.uleb128 0x3
 3360 017d 08       		.uleb128 0x8
 3361 017e 3A       		.uleb128 0x3a
 3362 017f 0B       		.uleb128 0xb
 3363 0180 3B       		.uleb128 0x3b
 3364 0181 0B       		.uleb128 0xb
 3365 0182 49       		.uleb128 0x49
 3366 0183 13       		.uleb128 0x13
 3367 0184 02       		.uleb128 0x2
 3368 0185 0A       		.uleb128 0xa
 3369 0186 00       		.byte	0
 3370 0187 00       		.byte	0
 3371 0188 20       		.uleb128 0x20
 3372 0189 34       		.uleb128 0x34
 3373 018a 00       		.byte	0
 3374 018b 03       		.uleb128 0x3
 3375 018c 08       		.uleb128 0x8
 3376 018d 3A       		.uleb128 0x3a
 3377 018e 0B       		.uleb128 0xb
 3378 018f 3B       		.uleb128 0x3b
 3379 0190 0B       		.uleb128 0xb
 3380 0191 49       		.uleb128 0x49
 3381 0192 13       		.uleb128 0x13
 3382 0193 00       		.byte	0
 3383 0194 00       		.byte	0
 3384 0195 21       		.uleb128 0x21
 3385 0196 0B       		.uleb128 0xb
 3386 0197 01       		.byte	0x1
 3387 0198 01       		.uleb128 0x1
 3388 0199 13       		.uleb128 0x13
 3389 019a 00       		.byte	0
 3390 019b 00       		.byte	0
 3391 019c 22       		.uleb128 0x22
 3392 019d 0B       		.uleb128 0xb
 3393 019e 01       		.byte	0x1
 3394 019f 00       		.byte	0
 3395 01a0 00       		.byte	0
 3396 01a1 23       		.uleb128 0x23
 3397 01a2 2E       		.uleb128 0x2e
 3398 01a3 01       		.byte	0x1
 3399 01a4 03       		.uleb128 0x3
 3400 01a5 0E       		.uleb128 0xe
 3401 01a6 3A       		.uleb128 0x3a
 3402 01a7 0B       		.uleb128 0xb
ARM GAS  /tmp/cc2DpUmI.s 			page 61


 3403 01a8 3B       		.uleb128 0x3b
 3404 01a9 0B       		.uleb128 0xb
 3405 01aa 27       		.uleb128 0x27
 3406 01ab 0C       		.uleb128 0xc
 3407 01ac 11       		.uleb128 0x11
 3408 01ad 01       		.uleb128 0x1
 3409 01ae 12       		.uleb128 0x12
 3410 01af 01       		.uleb128 0x1
 3411 01b0 40       		.uleb128 0x40
 3412 01b1 06       		.uleb128 0x6
 3413 01b2 9742     		.uleb128 0x2117
 3414 01b4 0C       		.uleb128 0xc
 3415 01b5 01       		.uleb128 0x1
 3416 01b6 13       		.uleb128 0x13
 3417 01b7 00       		.byte	0
 3418 01b8 00       		.byte	0
 3419 01b9 24       		.uleb128 0x24
 3420 01ba 05       		.uleb128 0x5
 3421 01bb 00       		.byte	0
 3422 01bc 03       		.uleb128 0x3
 3423 01bd 08       		.uleb128 0x8
 3424 01be 3A       		.uleb128 0x3a
 3425 01bf 0B       		.uleb128 0xb
 3426 01c0 3B       		.uleb128 0x3b
 3427 01c1 0B       		.uleb128 0xb
 3428 01c2 49       		.uleb128 0x49
 3429 01c3 13       		.uleb128 0x13
 3430 01c4 02       		.uleb128 0x2
 3431 01c5 06       		.uleb128 0x6
 3432 01c6 00       		.byte	0
 3433 01c7 00       		.byte	0
 3434 01c8 25       		.uleb128 0x25
 3435 01c9 34       		.uleb128 0x34
 3436 01ca 00       		.byte	0
 3437 01cb 03       		.uleb128 0x3
 3438 01cc 08       		.uleb128 0x8
 3439 01cd 3A       		.uleb128 0x3a
 3440 01ce 0B       		.uleb128 0xb
 3441 01cf 3B       		.uleb128 0x3b
 3442 01d0 0B       		.uleb128 0xb
 3443 01d1 49       		.uleb128 0x49
 3444 01d2 13       		.uleb128 0x13
 3445 01d3 02       		.uleb128 0x2
 3446 01d4 0A       		.uleb128 0xa
 3447 01d5 00       		.byte	0
 3448 01d6 00       		.byte	0
 3449 01d7 26       		.uleb128 0x26
 3450 01d8 34       		.uleb128 0x34
 3451 01d9 00       		.byte	0
 3452 01da 03       		.uleb128 0x3
 3453 01db 08       		.uleb128 0x8
 3454 01dc 3A       		.uleb128 0x3a
 3455 01dd 0B       		.uleb128 0xb
 3456 01de 3B       		.uleb128 0x3b
 3457 01df 0B       		.uleb128 0xb
 3458 01e0 49       		.uleb128 0x49
 3459 01e1 13       		.uleb128 0x13
ARM GAS  /tmp/cc2DpUmI.s 			page 62


 3460 01e2 02       		.uleb128 0x2
 3461 01e3 06       		.uleb128 0x6
 3462 01e4 00       		.byte	0
 3463 01e5 00       		.byte	0
 3464 01e6 27       		.uleb128 0x27
 3465 01e7 0B       		.uleb128 0xb
 3466 01e8 01       		.byte	0x1
 3467 01e9 11       		.uleb128 0x11
 3468 01ea 01       		.uleb128 0x1
 3469 01eb 12       		.uleb128 0x12
 3470 01ec 01       		.uleb128 0x1
 3471 01ed 01       		.uleb128 0x1
 3472 01ee 13       		.uleb128 0x13
 3473 01ef 00       		.byte	0
 3474 01f0 00       		.byte	0
 3475 01f1 28       		.uleb128 0x28
 3476 01f2 1D       		.uleb128 0x1d
 3477 01f3 01       		.byte	0x1
 3478 01f4 31       		.uleb128 0x31
 3479 01f5 13       		.uleb128 0x13
 3480 01f6 11       		.uleb128 0x11
 3481 01f7 01       		.uleb128 0x1
 3482 01f8 12       		.uleb128 0x12
 3483 01f9 01       		.uleb128 0x1
 3484 01fa 58       		.uleb128 0x58
 3485 01fb 0B       		.uleb128 0xb
 3486 01fc 59       		.uleb128 0x59
 3487 01fd 0B       		.uleb128 0xb
 3488 01fe 01       		.uleb128 0x1
 3489 01ff 13       		.uleb128 0x13
 3490 0200 00       		.byte	0
 3491 0201 00       		.byte	0
 3492 0202 29       		.uleb128 0x29
 3493 0203 05       		.uleb128 0x5
 3494 0204 00       		.byte	0
 3495 0205 31       		.uleb128 0x31
 3496 0206 13       		.uleb128 0x13
 3497 0207 02       		.uleb128 0x2
 3498 0208 06       		.uleb128 0x6
 3499 0209 00       		.byte	0
 3500 020a 00       		.byte	0
 3501 020b 2A       		.uleb128 0x2a
 3502 020c 0B       		.uleb128 0xb
 3503 020d 01       		.byte	0x1
 3504 020e 11       		.uleb128 0x11
 3505 020f 01       		.uleb128 0x1
 3506 0210 12       		.uleb128 0x12
 3507 0211 01       		.uleb128 0x1
 3508 0212 00       		.byte	0
 3509 0213 00       		.byte	0
 3510 0214 2B       		.uleb128 0x2b
 3511 0215 34       		.uleb128 0x34
 3512 0216 00       		.byte	0
 3513 0217 31       		.uleb128 0x31
 3514 0218 13       		.uleb128 0x13
 3515 0219 02       		.uleb128 0x2
 3516 021a 06       		.uleb128 0x6
ARM GAS  /tmp/cc2DpUmI.s 			page 63


 3517 021b 00       		.byte	0
 3518 021c 00       		.byte	0
 3519 021d 2C       		.uleb128 0x2c
 3520 021e 898201   		.uleb128 0x4109
 3521 0221 01       		.byte	0x1
 3522 0222 11       		.uleb128 0x11
 3523 0223 01       		.uleb128 0x1
 3524 0224 31       		.uleb128 0x31
 3525 0225 13       		.uleb128 0x13
 3526 0226 00       		.byte	0
 3527 0227 00       		.byte	0
 3528 0228 2D       		.uleb128 0x2d
 3529 0229 8A8201   		.uleb128 0x410a
 3530 022c 00       		.byte	0
 3531 022d 02       		.uleb128 0x2
 3532 022e 0A       		.uleb128 0xa
 3533 022f 9142     		.uleb128 0x2111
 3534 0231 0A       		.uleb128 0xa
 3535 0232 00       		.byte	0
 3536 0233 00       		.byte	0
 3537 0234 2E       		.uleb128 0x2e
 3538 0235 898201   		.uleb128 0x4109
 3539 0238 01       		.byte	0x1
 3540 0239 11       		.uleb128 0x11
 3541 023a 01       		.uleb128 0x1
 3542 023b 31       		.uleb128 0x31
 3543 023c 13       		.uleb128 0x13
 3544 023d 01       		.uleb128 0x1
 3545 023e 13       		.uleb128 0x13
 3546 023f 00       		.byte	0
 3547 0240 00       		.byte	0
 3548 0241 2F       		.uleb128 0x2f
 3549 0242 2E       		.uleb128 0x2e
 3550 0243 01       		.byte	0x1
 3551 0244 3F       		.uleb128 0x3f
 3552 0245 0C       		.uleb128 0xc
 3553 0246 03       		.uleb128 0x3
 3554 0247 0E       		.uleb128 0xe
 3555 0248 3A       		.uleb128 0x3a
 3556 0249 0B       		.uleb128 0xb
 3557 024a 3B       		.uleb128 0x3b
 3558 024b 05       		.uleb128 0x5
 3559 024c 27       		.uleb128 0x27
 3560 024d 0C       		.uleb128 0xc
 3561 024e 11       		.uleb128 0x11
 3562 024f 01       		.uleb128 0x1
 3563 0250 12       		.uleb128 0x12
 3564 0251 01       		.uleb128 0x1
 3565 0252 40       		.uleb128 0x40
 3566 0253 06       		.uleb128 0x6
 3567 0254 9742     		.uleb128 0x2117
 3568 0256 0C       		.uleb128 0xc
 3569 0257 01       		.uleb128 0x1
 3570 0258 13       		.uleb128 0x13
 3571 0259 00       		.byte	0
 3572 025a 00       		.byte	0
 3573 025b 30       		.uleb128 0x30
ARM GAS  /tmp/cc2DpUmI.s 			page 64


 3574 025c 898201   		.uleb128 0x4109
 3575 025f 00       		.byte	0
 3576 0260 11       		.uleb128 0x11
 3577 0261 01       		.uleb128 0x1
 3578 0262 9542     		.uleb128 0x2115
 3579 0264 0C       		.uleb128 0xc
 3580 0265 31       		.uleb128 0x31
 3581 0266 13       		.uleb128 0x13
 3582 0267 00       		.byte	0
 3583 0268 00       		.byte	0
 3584 0269 31       		.uleb128 0x31
 3585 026a 05       		.uleb128 0x5
 3586 026b 00       		.byte	0
 3587 026c 03       		.uleb128 0x3
 3588 026d 0E       		.uleb128 0xe
 3589 026e 3A       		.uleb128 0x3a
 3590 026f 0B       		.uleb128 0xb
 3591 0270 3B       		.uleb128 0x3b
 3592 0271 0B       		.uleb128 0xb
 3593 0272 49       		.uleb128 0x49
 3594 0273 13       		.uleb128 0x13
 3595 0274 00       		.byte	0
 3596 0275 00       		.byte	0
 3597 0276 32       		.uleb128 0x32
 3598 0277 05       		.uleb128 0x5
 3599 0278 00       		.byte	0
 3600 0279 03       		.uleb128 0x3
 3601 027a 08       		.uleb128 0x8
 3602 027b 3A       		.uleb128 0x3a
 3603 027c 0B       		.uleb128 0xb
 3604 027d 3B       		.uleb128 0x3b
 3605 027e 05       		.uleb128 0x5
 3606 027f 49       		.uleb128 0x49
 3607 0280 13       		.uleb128 0x13
 3608 0281 02       		.uleb128 0x2
 3609 0282 06       		.uleb128 0x6
 3610 0283 00       		.byte	0
 3611 0284 00       		.byte	0
 3612 0285 33       		.uleb128 0x33
 3613 0286 05       		.uleb128 0x5
 3614 0287 00       		.byte	0
 3615 0288 03       		.uleb128 0x3
 3616 0289 0E       		.uleb128 0xe
 3617 028a 3A       		.uleb128 0x3a
 3618 028b 0B       		.uleb128 0xb
 3619 028c 3B       		.uleb128 0x3b
 3620 028d 05       		.uleb128 0x5
 3621 028e 49       		.uleb128 0x49
 3622 028f 13       		.uleb128 0x13
 3623 0290 02       		.uleb128 0x2
 3624 0291 06       		.uleb128 0x6
 3625 0292 00       		.byte	0
 3626 0293 00       		.byte	0
 3627 0294 34       		.uleb128 0x34
 3628 0295 1D       		.uleb128 0x1d
 3629 0296 01       		.byte	0x1
 3630 0297 31       		.uleb128 0x31
ARM GAS  /tmp/cc2DpUmI.s 			page 65


 3631 0298 13       		.uleb128 0x13
 3632 0299 11       		.uleb128 0x11
 3633 029a 01       		.uleb128 0x1
 3634 029b 12       		.uleb128 0x12
 3635 029c 01       		.uleb128 0x1
 3636 029d 58       		.uleb128 0x58
 3637 029e 0B       		.uleb128 0xb
 3638 029f 59       		.uleb128 0x59
 3639 02a0 05       		.uleb128 0x5
 3640 02a1 01       		.uleb128 0x1
 3641 02a2 13       		.uleb128 0x13
 3642 02a3 00       		.byte	0
 3643 02a4 00       		.byte	0
 3644 02a5 35       		.uleb128 0x35
 3645 02a6 2E       		.uleb128 0x2e
 3646 02a7 01       		.byte	0x1
 3647 02a8 3F       		.uleb128 0x3f
 3648 02a9 0C       		.uleb128 0xc
 3649 02aa 03       		.uleb128 0x3
 3650 02ab 0E       		.uleb128 0xe
 3651 02ac 3A       		.uleb128 0x3a
 3652 02ad 0B       		.uleb128 0xb
 3653 02ae 3B       		.uleb128 0x3b
 3654 02af 05       		.uleb128 0x5
 3655 02b0 27       		.uleb128 0x27
 3656 02b1 0C       		.uleb128 0xc
 3657 02b2 11       		.uleb128 0x11
 3658 02b3 01       		.uleb128 0x1
 3659 02b4 12       		.uleb128 0x12
 3660 02b5 01       		.uleb128 0x1
 3661 02b6 40       		.uleb128 0x40
 3662 02b7 0A       		.uleb128 0xa
 3663 02b8 9742     		.uleb128 0x2117
 3664 02ba 0C       		.uleb128 0xc
 3665 02bb 01       		.uleb128 0x1
 3666 02bc 13       		.uleb128 0x13
 3667 02bd 00       		.byte	0
 3668 02be 00       		.byte	0
 3669 02bf 36       		.uleb128 0x36
 3670 02c0 898201   		.uleb128 0x4109
 3671 02c3 01       		.byte	0x1
 3672 02c4 11       		.uleb128 0x11
 3673 02c5 01       		.uleb128 0x1
 3674 02c6 9542     		.uleb128 0x2115
 3675 02c8 0C       		.uleb128 0xc
 3676 02c9 31       		.uleb128 0x31
 3677 02ca 13       		.uleb128 0x13
 3678 02cb 01       		.uleb128 0x1
 3679 02cc 13       		.uleb128 0x13
 3680 02cd 00       		.byte	0
 3681 02ce 00       		.byte	0
 3682 02cf 37       		.uleb128 0x37
 3683 02d0 898201   		.uleb128 0x4109
 3684 02d3 01       		.byte	0x1
 3685 02d4 11       		.uleb128 0x11
 3686 02d5 01       		.uleb128 0x1
 3687 02d6 9542     		.uleb128 0x2115
ARM GAS  /tmp/cc2DpUmI.s 			page 66


 3688 02d8 0C       		.uleb128 0xc
 3689 02d9 31       		.uleb128 0x31
 3690 02da 13       		.uleb128 0x13
 3691 02db 00       		.byte	0
 3692 02dc 00       		.byte	0
 3693 02dd 38       		.uleb128 0x38
 3694 02de 34       		.uleb128 0x34
 3695 02df 00       		.byte	0
 3696 02e0 03       		.uleb128 0x3
 3697 02e1 0E       		.uleb128 0xe
 3698 02e2 3A       		.uleb128 0x3a
 3699 02e3 0B       		.uleb128 0xb
 3700 02e4 3B       		.uleb128 0x3b
 3701 02e5 0B       		.uleb128 0xb
 3702 02e6 49       		.uleb128 0x49
 3703 02e7 13       		.uleb128 0x13
 3704 02e8 02       		.uleb128 0x2
 3705 02e9 0A       		.uleb128 0xa
 3706 02ea 00       		.byte	0
 3707 02eb 00       		.byte	0
 3708 02ec 39       		.uleb128 0x39
 3709 02ed 34       		.uleb128 0x34
 3710 02ee 00       		.byte	0
 3711 02ef 03       		.uleb128 0x3
 3712 02f0 0E       		.uleb128 0xe
 3713 02f1 3A       		.uleb128 0x3a
 3714 02f2 0B       		.uleb128 0xb
 3715 02f3 3B       		.uleb128 0x3b
 3716 02f4 05       		.uleb128 0x5
 3717 02f5 49       		.uleb128 0x49
 3718 02f6 13       		.uleb128 0x13
 3719 02f7 3F       		.uleb128 0x3f
 3720 02f8 0C       		.uleb128 0xc
 3721 02f9 3C       		.uleb128 0x3c
 3722 02fa 0C       		.uleb128 0xc
 3723 02fb 00       		.byte	0
 3724 02fc 00       		.byte	0
 3725 02fd 3A       		.uleb128 0x3a
 3726 02fe 34       		.uleb128 0x34
 3727 02ff 00       		.byte	0
 3728 0300 03       		.uleb128 0x3
 3729 0301 08       		.uleb128 0x8
 3730 0302 3A       		.uleb128 0x3a
 3731 0303 0B       		.uleb128 0xb
 3732 0304 3B       		.uleb128 0x3b
 3733 0305 0B       		.uleb128 0xb
 3734 0306 49       		.uleb128 0x49
 3735 0307 13       		.uleb128 0x13
 3736 0308 3F       		.uleb128 0x3f
 3737 0309 0C       		.uleb128 0xc
 3738 030a 02       		.uleb128 0x2
 3739 030b 0A       		.uleb128 0xa
 3740 030c 00       		.byte	0
 3741 030d 00       		.byte	0
 3742 030e 3B       		.uleb128 0x3b
 3743 030f 2E       		.uleb128 0x2e
 3744 0310 01       		.byte	0x1
ARM GAS  /tmp/cc2DpUmI.s 			page 67


 3745 0311 3F       		.uleb128 0x3f
 3746 0312 0C       		.uleb128 0xc
 3747 0313 03       		.uleb128 0x3
 3748 0314 0E       		.uleb128 0xe
 3749 0315 3A       		.uleb128 0x3a
 3750 0316 0B       		.uleb128 0xb
 3751 0317 3B       		.uleb128 0x3b
 3752 0318 0B       		.uleb128 0xb
 3753 0319 27       		.uleb128 0x27
 3754 031a 0C       		.uleb128 0xc
 3755 031b 3C       		.uleb128 0x3c
 3756 031c 0C       		.uleb128 0xc
 3757 031d 01       		.uleb128 0x1
 3758 031e 13       		.uleb128 0x13
 3759 031f 00       		.byte	0
 3760 0320 00       		.byte	0
 3761 0321 3C       		.uleb128 0x3c
 3762 0322 2E       		.uleb128 0x2e
 3763 0323 01       		.byte	0x1
 3764 0324 3F       		.uleb128 0x3f
 3765 0325 0C       		.uleb128 0xc
 3766 0326 03       		.uleb128 0x3
 3767 0327 0E       		.uleb128 0xe
 3768 0328 3A       		.uleb128 0x3a
 3769 0329 0B       		.uleb128 0xb
 3770 032a 3B       		.uleb128 0x3b
 3771 032b 05       		.uleb128 0x5
 3772 032c 27       		.uleb128 0x27
 3773 032d 0C       		.uleb128 0xc
 3774 032e 49       		.uleb128 0x49
 3775 032f 13       		.uleb128 0x13
 3776 0330 3C       		.uleb128 0x3c
 3777 0331 0C       		.uleb128 0xc
 3778 0332 01       		.uleb128 0x1
 3779 0333 13       		.uleb128 0x13
 3780 0334 00       		.byte	0
 3781 0335 00       		.byte	0
 3782 0336 3D       		.uleb128 0x3d
 3783 0337 2E       		.uleb128 0x2e
 3784 0338 01       		.byte	0x1
 3785 0339 3F       		.uleb128 0x3f
 3786 033a 0C       		.uleb128 0xc
 3787 033b 03       		.uleb128 0x3
 3788 033c 0E       		.uleb128 0xe
 3789 033d 3A       		.uleb128 0x3a
 3790 033e 0B       		.uleb128 0xb
 3791 033f 3B       		.uleb128 0x3b
 3792 0340 05       		.uleb128 0x5
 3793 0341 27       		.uleb128 0x27
 3794 0342 0C       		.uleb128 0xc
 3795 0343 3C       		.uleb128 0x3c
 3796 0344 0C       		.uleb128 0xc
 3797 0345 01       		.uleb128 0x1
 3798 0346 13       		.uleb128 0x13
 3799 0347 00       		.byte	0
 3800 0348 00       		.byte	0
 3801 0349 3E       		.uleb128 0x3e
ARM GAS  /tmp/cc2DpUmI.s 			page 68


 3802 034a 2E       		.uleb128 0x2e
 3803 034b 00       		.byte	0
 3804 034c 3F       		.uleb128 0x3f
 3805 034d 0C       		.uleb128 0xc
 3806 034e 03       		.uleb128 0x3
 3807 034f 0E       		.uleb128 0xe
 3808 0350 3A       		.uleb128 0x3a
 3809 0351 0B       		.uleb128 0xb
 3810 0352 3B       		.uleb128 0x3b
 3811 0353 05       		.uleb128 0x5
 3812 0354 27       		.uleb128 0x27
 3813 0355 0C       		.uleb128 0xc
 3814 0356 3C       		.uleb128 0x3c
 3815 0357 0C       		.uleb128 0xc
 3816 0358 00       		.byte	0
 3817 0359 00       		.byte	0
 3818 035a 3F       		.uleb128 0x3f
 3819 035b 2E       		.uleb128 0x2e
 3820 035c 01       		.byte	0x1
 3821 035d 3F       		.uleb128 0x3f
 3822 035e 0C       		.uleb128 0xc
 3823 035f 03       		.uleb128 0x3
 3824 0360 0E       		.uleb128 0xe
 3825 0361 3A       		.uleb128 0x3a
 3826 0362 0B       		.uleb128 0xb
 3827 0363 3B       		.uleb128 0x3b
 3828 0364 05       		.uleb128 0x5
 3829 0365 27       		.uleb128 0x27
 3830 0366 0C       		.uleb128 0xc
 3831 0367 3C       		.uleb128 0x3c
 3832 0368 0C       		.uleb128 0xc
 3833 0369 00       		.byte	0
 3834 036a 00       		.byte	0
 3835 036b 00       		.byte	0
 3836              		.section	.debug_loc,"",%progbits
 3837              	.Ldebug_loc0:
 3838              	.LLST0:
 3839 0000 00000000 		.4byte	.LFB65
 3840 0004 04000000 		.4byte	.LCFI0
 3841 0008 0200     		.2byte	0x2
 3842 000a 7D       		.byte	0x7d
 3843 000b 00       		.sleb128 0
 3844 000c 04000000 		.4byte	.LCFI0
 3845 0010 44010000 		.4byte	.LFE65
 3846 0014 0200     		.2byte	0x2
 3847 0016 7D       		.byte	0x7d
 3848 0017 18       		.sleb128 24
 3849 0018 00000000 		.4byte	0
 3850 001c 00000000 		.4byte	0
 3851              	.LLST1:
 3852 0020 00000000 		.4byte	.LVL2
 3853 0024 1C000000 		.4byte	.LVL6
 3854 0028 0100     		.2byte	0x1
 3855 002a 50       		.byte	0x50
 3856 002b 1C000000 		.4byte	.LVL6
 3857 002f BE000000 		.4byte	.LVL33
 3858 0033 0100     		.2byte	0x1
ARM GAS  /tmp/cc2DpUmI.s 			page 69


 3859 0035 56       		.byte	0x56
 3860 0036 BE000000 		.4byte	.LVL33
 3861 003a F6000000 		.4byte	.LVL41
 3862 003e 0100     		.2byte	0x1
 3863 0040 50       		.byte	0x50
 3864 0041 F6000000 		.4byte	.LVL41
 3865 0045 44010000 		.4byte	.LFE65
 3866 0049 0100     		.2byte	0x1
 3867 004b 56       		.byte	0x56
 3868 004c 00000000 		.4byte	0
 3869 0050 00000000 		.4byte	0
 3870              	.LLST2:
 3871 0054 16000000 		.4byte	.LVL4
 3872 0058 44000000 		.4byte	.LVL11
 3873 005c 0100     		.2byte	0x1
 3874 005e 54       		.byte	0x54
 3875 005f 7C000000 		.4byte	.LVL20
 3876 0063 44010000 		.4byte	.LFE65
 3877 0067 0100     		.2byte	0x1
 3878 0069 54       		.byte	0x54
 3879 006a 00000000 		.4byte	0
 3880 006e 00000000 		.4byte	0
 3881              	.LLST3:
 3882 0072 1A000000 		.4byte	.LVL5
 3883 0076 1C000000 		.4byte	.LVL6
 3884 007a 0100     		.2byte	0x1
 3885 007c 51       		.byte	0x51
 3886 007d 1C000000 		.4byte	.LVL6
 3887 0081 BE000000 		.4byte	.LVL33
 3888 0085 0100     		.2byte	0x1
 3889 0087 58       		.byte	0x58
 3890 0088 BE000000 		.4byte	.LVL33
 3891 008c FC000000 		.4byte	.LVL43
 3892 0090 0100     		.2byte	0x1
 3893 0092 51       		.byte	0x51
 3894 0093 FC000000 		.4byte	.LVL43
 3895 0097 44010000 		.4byte	.LFE65
 3896 009b 0100     		.2byte	0x1
 3897 009d 58       		.byte	0x58
 3898 009e 00000000 		.4byte	0
 3899 00a2 00000000 		.4byte	0
 3900              	.LLST4:
 3901 00a6 4E000000 		.4byte	.LVL13
 3902 00aa 50000000 		.4byte	.LVL14
 3903 00ae 0100     		.2byte	0x1
 3904 00b0 53       		.byte	0x53
 3905 00b1 00000000 		.4byte	0
 3906 00b5 00000000 		.4byte	0
 3907              	.LLST5:
 3908 00b9 64000000 		.4byte	.LVL17
 3909 00bd 68000000 		.4byte	.LVL18
 3910 00c1 0100     		.2byte	0x1
 3911 00c3 53       		.byte	0x53
 3912 00c4 00000000 		.4byte	0
 3913 00c8 00000000 		.4byte	0
 3914              	.LLST6:
 3915 00cc 82000000 		.4byte	.LVL22
ARM GAS  /tmp/cc2DpUmI.s 			page 70


 3916 00d0 8B000000 		.4byte	.LVL23-1
 3917 00d4 0100     		.2byte	0x1
 3918 00d6 53       		.byte	0x53
 3919 00d7 00000000 		.4byte	0
 3920 00db 00000000 		.4byte	0
 3921              	.LLST7:
 3922 00df 2E000000 		.4byte	.LVL8
 3923 00e3 32000000 		.4byte	.LVL9
 3924 00e7 0100     		.2byte	0x1
 3925 00e9 53       		.byte	0x53
 3926 00ea 92000000 		.4byte	.LVL24
 3927 00ee 94000000 		.4byte	.LVL25
 3928 00f2 0100     		.2byte	0x1
 3929 00f4 53       		.byte	0x53
 3930 00f5 00000000 		.4byte	0
 3931 00f9 00000000 		.4byte	0
 3932              	.LLST8:
 3933 00fd 9A000000 		.4byte	.LVL27
 3934 0101 9C000000 		.4byte	.LVL28
 3935 0105 0100     		.2byte	0x1
 3936 0107 53       		.byte	0x53
 3937 0108 00000000 		.4byte	0
 3938 010c 00000000 		.4byte	0
 3939              	.LLST9:
 3940 0110 B0000000 		.4byte	.LVL31
 3941 0114 B2000000 		.4byte	.LVL32
 3942 0118 0100     		.2byte	0x1
 3943 011a 53       		.byte	0x53
 3944 011b 00000000 		.4byte	0
 3945 011f 00000000 		.4byte	0
 3946              	.LLST10:
 3947 0123 BE000000 		.4byte	.LVL33
 3948 0127 08010000 		.4byte	.LVL46
 3949 012b 0100     		.2byte	0x1
 3950 012d 54       		.byte	0x54
 3951 012e 00000000 		.4byte	0
 3952 0132 00000000 		.4byte	0
 3953              	.LLST11:
 3954 0136 BE000000 		.4byte	.LVL33
 3955 013a F6000000 		.4byte	.LVL41
 3956 013e 0100     		.2byte	0x1
 3957 0140 50       		.byte	0x50
 3958 0141 F6000000 		.4byte	.LVL41
 3959 0145 08010000 		.4byte	.LVL46
 3960 0149 0100     		.2byte	0x1
 3961 014b 56       		.byte	0x56
 3962 014c 00000000 		.4byte	0
 3963 0150 00000000 		.4byte	0
 3964              	.LLST12:
 3965 0154 BE000000 		.4byte	.LVL33
 3966 0158 CC000000 		.4byte	.LVL34
 3967 015c 0200     		.2byte	0x2
 3968 015e 30       		.byte	0x30
 3969 015f 9F       		.byte	0x9f
 3970 0160 CC000000 		.4byte	.LVL34
 3971 0164 F8000000 		.4byte	.LVL42
 3972 0168 0100     		.2byte	0x1
ARM GAS  /tmp/cc2DpUmI.s 			page 71


 3973 016a 52       		.byte	0x52
 3974 016b 00000000 		.4byte	0
 3975 016f 00000000 		.4byte	0
 3976              	.LLST13:
 3977 0173 F2000000 		.4byte	.LVL39
 3978 0177 F4000000 		.4byte	.LVL40
 3979 017b 0100     		.2byte	0x1
 3980 017d 53       		.byte	0x53
 3981 017e 00000000 		.4byte	0
 3982 0182 00000000 		.4byte	0
 3983              	.LLST14:
 3984 0186 1C000000 		.4byte	.LVL6
 3985 018a 20000000 		.4byte	.LVL7
 3986 018e 0100     		.2byte	0x1
 3987 0190 53       		.byte	0x53
 3988 0191 06010000 		.4byte	.LVL45
 3989 0195 08010000 		.4byte	.LVL46
 3990 0199 0100     		.2byte	0x1
 3991 019b 53       		.byte	0x53
 3992 019c 00000000 		.4byte	0
 3993 01a0 00000000 		.4byte	0
 3994              	.LLST15:
 3995 01a4 16010000 		.4byte	.LVL49
 3996 01a8 1C010000 		.4byte	.LVL50
 3997 01ac 0100     		.2byte	0x1
 3998 01ae 50       		.byte	0x50
 3999 01af 00000000 		.4byte	0
 4000 01b3 00000000 		.4byte	0
 4001              	.LLST16:
 4002 01b7 0E010000 		.4byte	.LVL48
 4003 01bb 15010000 		.4byte	.LVL49-1
 4004 01bf 0100     		.2byte	0x1
 4005 01c1 53       		.byte	0x53
 4006 01c2 00000000 		.4byte	0
 4007 01c6 00000000 		.4byte	0
 4008              	.LLST17:
 4009 01ca 40000000 		.4byte	.LVL10
 4010 01ce 4A000000 		.4byte	.LVL12
 4011 01d2 0100     		.2byte	0x1
 4012 01d4 53       		.byte	0x53
 4013 01d5 78000000 		.4byte	.LVL19
 4014 01d9 7C000000 		.4byte	.LVL20
 4015 01dd 0100     		.2byte	0x1
 4016 01df 53       		.byte	0x53
 4017 01e0 26010000 		.4byte	.LVL51
 4018 01e4 28010000 		.4byte	.LVL52
 4019 01e8 0100     		.2byte	0x1
 4020 01ea 53       		.byte	0x53
 4021 01eb 00000000 		.4byte	0
 4022 01ef 00000000 		.4byte	0
 4023              	.LLST18:
 4024 01f3 00000000 		.4byte	.LFB68
 4025 01f7 06000000 		.4byte	.LCFI1
 4026 01fb 0200     		.2byte	0x2
 4027 01fd 7D       		.byte	0x7d
 4028 01fe 00       		.sleb128 0
 4029 01ff 06000000 		.4byte	.LCFI1
ARM GAS  /tmp/cc2DpUmI.s 			page 72


 4030 0203 16000000 		.4byte	.LFE68
 4031 0207 0200     		.2byte	0x2
 4032 0209 7D       		.byte	0x7d
 4033 020a 08       		.sleb128 8
 4034 020b 00000000 		.4byte	0
 4035 020f 00000000 		.4byte	0
 4036              	.LLST19:
 4037 0213 00000000 		.4byte	.LFB69
 4038 0217 06000000 		.4byte	.LCFI2
 4039 021b 0200     		.2byte	0x2
 4040 021d 7D       		.byte	0x7d
 4041 021e 00       		.sleb128 0
 4042 021f 06000000 		.4byte	.LCFI2
 4043 0223 16000000 		.4byte	.LFE69
 4044 0227 0200     		.2byte	0x2
 4045 0229 7D       		.byte	0x7d
 4046 022a 08       		.sleb128 8
 4047 022b 00000000 		.4byte	0
 4048 022f 00000000 		.4byte	0
 4049              	.LLST20:
 4050 0233 00000000 		.4byte	.LFB70
 4051 0237 02000000 		.4byte	.LCFI3
 4052 023b 0200     		.2byte	0x2
 4053 023d 7D       		.byte	0x7d
 4054 023e 00       		.sleb128 0
 4055 023f 02000000 		.4byte	.LCFI3
 4056 0243 4C000000 		.4byte	.LFE70
 4057 0247 0200     		.2byte	0x2
 4058 0249 7D       		.byte	0x7d
 4059 024a 10       		.sleb128 16
 4060 024b 00000000 		.4byte	0
 4061 024f 00000000 		.4byte	0
 4062              	.LLST21:
 4063 0253 00000000 		.4byte	.LFB71
 4064 0257 02000000 		.4byte	.LCFI4
 4065 025b 0200     		.2byte	0x2
 4066 025d 7D       		.byte	0x7d
 4067 025e 00       		.sleb128 0
 4068 025f 02000000 		.4byte	.LCFI4
 4069 0263 A0000000 		.4byte	.LFE71
 4070 0267 0200     		.2byte	0x2
 4071 0269 7D       		.byte	0x7d
 4072 026a 10       		.sleb128 16
 4073 026b 00000000 		.4byte	0
 4074 026f 00000000 		.4byte	0
 4075              	.LLST22:
 4076 0273 00000000 		.4byte	.LVL60
 4077 0277 12000000 		.4byte	.LVL62
 4078 027b 0100     		.2byte	0x1
 4079 027d 50       		.byte	0x50
 4080 027e 12000000 		.4byte	.LVL62
 4081 0282 54000000 		.4byte	.LVL65
 4082 0286 0100     		.2byte	0x1
 4083 0288 55       		.byte	0x55
 4084 0289 54000000 		.4byte	.LVL65
 4085 028d 6C000000 		.4byte	.LVL66
 4086 0291 0100     		.2byte	0x1
ARM GAS  /tmp/cc2DpUmI.s 			page 73


 4087 0293 50       		.byte	0x50
 4088 0294 6C000000 		.4byte	.LVL66
 4089 0298 7A000000 		.4byte	.LVL68
 4090 029c 0100     		.2byte	0x1
 4091 029e 55       		.byte	0x55
 4092 029f 7A000000 		.4byte	.LVL68
 4093 02a3 86000000 		.4byte	.LVL69
 4094 02a7 0100     		.2byte	0x1
 4095 02a9 50       		.byte	0x50
 4096 02aa 86000000 		.4byte	.LVL69
 4097 02ae A0000000 		.4byte	.LFE71
 4098 02b2 0100     		.2byte	0x1
 4099 02b4 55       		.byte	0x55
 4100 02b5 00000000 		.4byte	0
 4101 02b9 00000000 		.4byte	0
 4102              	.LLST23:
 4103 02bd 00000000 		.4byte	.LVL60
 4104 02c1 0E000000 		.4byte	.LVL61
 4105 02c5 0100     		.2byte	0x1
 4106 02c7 51       		.byte	0x51
 4107 02c8 0E000000 		.4byte	.LVL61
 4108 02cc A0000000 		.4byte	.LFE71
 4109 02d0 0100     		.2byte	0x1
 4110 02d2 54       		.byte	0x54
 4111 02d3 00000000 		.4byte	0
 4112 02d7 00000000 		.4byte	0
 4113              	.LLST24:
 4114 02db 12000000 		.4byte	.LVL62
 4115 02df 54000000 		.4byte	.LVL65
 4116 02e3 0100     		.2byte	0x1
 4117 02e5 54       		.byte	0x54
 4118 02e6 00000000 		.4byte	0
 4119 02ea 00000000 		.4byte	0
 4120              	.LLST25:
 4121 02ee 12000000 		.4byte	.LVL62
 4122 02f2 54000000 		.4byte	.LVL65
 4123 02f6 0100     		.2byte	0x1
 4124 02f8 55       		.byte	0x55
 4125 02f9 00000000 		.4byte	0
 4126 02fd 00000000 		.4byte	0
 4127              	.LLST26:
 4128 0301 20000000 		.4byte	.LVL63
 4129 0305 52000000 		.4byte	.LVL64
 4130 0309 0100     		.2byte	0x1
 4131 030b 53       		.byte	0x53
 4132 030c 52000000 		.4byte	.LVL64
 4133 0310 54000000 		.4byte	.LVL65
 4134 0314 0300     		.2byte	0x3
 4135 0316 75       		.byte	0x75
 4136 0317 D001     		.sleb128 208
 4137 0319 00000000 		.4byte	0
 4138 031d 00000000 		.4byte	0
 4139              	.LLST27:
 4140 0321 00000000 		.4byte	.LVL71
 4141 0325 2C000000 		.4byte	.LVL74
 4142 0329 0100     		.2byte	0x1
 4143 032b 50       		.byte	0x50
ARM GAS  /tmp/cc2DpUmI.s 			page 74


 4144 032c 2C000000 		.4byte	.LVL74
 4145 0330 36000000 		.4byte	.LVL75
 4146 0334 0400     		.2byte	0x4
 4147 0336 F3       		.byte	0xf3
 4148 0337 01       		.uleb128 0x1
 4149 0338 50       		.byte	0x50
 4150 0339 9F       		.byte	0x9f
 4151 033a 36000000 		.4byte	.LVL75
 4152 033e 42000000 		.4byte	.LVL76
 4153 0342 0100     		.2byte	0x1
 4154 0344 50       		.byte	0x50
 4155 0345 42000000 		.4byte	.LVL76
 4156 0349 54000000 		.4byte	.LFE72
 4157 034d 0400     		.2byte	0x4
 4158 034f F3       		.byte	0xf3
 4159 0350 01       		.uleb128 0x1
 4160 0351 50       		.byte	0x50
 4161 0352 9F       		.byte	0x9f
 4162 0353 00000000 		.4byte	0
 4163 0357 00000000 		.4byte	0
 4164              	.LLST28:
 4165 035b 0C000000 		.4byte	.LVL72
 4166 035f 16000000 		.4byte	.LVL73
 4167 0363 0100     		.2byte	0x1
 4168 0365 53       		.byte	0x53
 4169 0366 16000000 		.4byte	.LVL73
 4170 036a 2C000000 		.4byte	.LVL74
 4171 036e 0300     		.2byte	0x3
 4172 0370 70       		.byte	0x70
 4173 0371 D001     		.sleb128 208
 4174 0373 2C000000 		.4byte	.LVL74
 4175 0377 35000000 		.4byte	.LVL75-1
 4176 037b 0600     		.2byte	0x6
 4177 037d F3       		.byte	0xf3
 4178 037e 01       		.uleb128 0x1
 4179 037f 50       		.byte	0x50
 4180 0380 23       		.byte	0x23
 4181 0381 D001     		.uleb128 0xd0
 4182 0383 36000000 		.4byte	.LVL75
 4183 0387 42000000 		.4byte	.LVL76
 4184 038b 0300     		.2byte	0x3
 4185 038d 70       		.byte	0x70
 4186 038e D001     		.sleb128 208
 4187 0390 42000000 		.4byte	.LVL76
 4188 0394 4B000000 		.4byte	.LVL77-1
 4189 0398 0600     		.2byte	0x6
 4190 039a F3       		.byte	0xf3
 4191 039b 01       		.uleb128 0x1
 4192 039c 50       		.byte	0x50
 4193 039d 23       		.byte	0x23
 4194 039e D001     		.uleb128 0xd0
 4195 03a0 00000000 		.4byte	0
 4196 03a4 00000000 		.4byte	0
 4197              		.section	.debug_aranges,"",%progbits
 4198 0000 54000000 		.4byte	0x54
 4199 0004 0200     		.2byte	0x2
 4200 0006 00000000 		.4byte	.Ldebug_info0
ARM GAS  /tmp/cc2DpUmI.s 			page 75


 4201 000a 04       		.byte	0x4
 4202 000b 00       		.byte	0
 4203 000c 0000     		.2byte	0
 4204 000e 0000     		.2byte	0
 4205 0010 00000000 		.4byte	.LFB66
 4206 0014 14000000 		.4byte	.LFE66-.LFB66
 4207 0018 00000000 		.4byte	.LFB67
 4208 001c 14000000 		.4byte	.LFE67-.LFB67
 4209 0020 00000000 		.4byte	.LFB65
 4210 0024 44010000 		.4byte	.LFE65-.LFB65
 4211 0028 00000000 		.4byte	.LFB68
 4212 002c 16000000 		.4byte	.LFE68-.LFB68
 4213 0030 00000000 		.4byte	.LFB69
 4214 0034 16000000 		.4byte	.LFE69-.LFB69
 4215 0038 00000000 		.4byte	.LFB70
 4216 003c 4C000000 		.4byte	.LFE70-.LFB70
 4217 0040 00000000 		.4byte	.LFB71
 4218 0044 A0000000 		.4byte	.LFE71-.LFB71
 4219 0048 00000000 		.4byte	.LFB72
 4220 004c 54000000 		.4byte	.LFE72-.LFB72
 4221 0050 00000000 		.4byte	0
 4222 0054 00000000 		.4byte	0
 4223              		.section	.debug_ranges,"",%progbits
 4224              	.Ldebug_ranges0:
 4225 0000 00000000 		.4byte	.LFB66
 4226 0004 14000000 		.4byte	.LFE66
 4227 0008 00000000 		.4byte	.LFB67
 4228 000c 14000000 		.4byte	.LFE67
 4229 0010 00000000 		.4byte	.LFB65
 4230 0014 44010000 		.4byte	.LFE65
 4231 0018 00000000 		.4byte	.LFB68
 4232 001c 16000000 		.4byte	.LFE68
 4233 0020 00000000 		.4byte	.LFB69
 4234 0024 16000000 		.4byte	.LFE69
 4235 0028 00000000 		.4byte	.LFB70
 4236 002c 4C000000 		.4byte	.LFE70
 4237 0030 00000000 		.4byte	.LFB71
 4238 0034 A0000000 		.4byte	.LFE71
 4239 0038 00000000 		.4byte	.LFB72
 4240 003c 54000000 		.4byte	.LFE72
 4241 0040 00000000 		.4byte	0
 4242 0044 00000000 		.4byte	0
 4243              		.section	.debug_line,"",%progbits
 4244              	.Ldebug_line0:
 4245 0000 C9030000 		.section	.debug_str,"MS",%progbits,1
 4245      02008702 
 4245      00000201 
 4245      FB0E0D00 
 4245      01010101 
 4246              	.LASF14:
 4247 0000 75696E74 		.ascii	"uint_fast16_t\000"
 4247      5F666173 
 4247      7431365F 
 4247      7400
 4248              	.LASF110:
 4249 000e 54494D31 		.ascii	"TIM11_IRQn\000"
 4249      315F4952 
ARM GAS  /tmp/cc2DpUmI.s 			page 76


 4249      516E00
 4250              	.LASF43:
 4251 0019 54687265 		.ascii	"ThreadsList\000"
 4251      6164734C 
 4251      69737400 
 4252              	.LASF35:
 4253 0025 705F7761 		.ascii	"p_waiting\000"
 4253      6974696E 
 4253      6700
 4254              	.LASF153:
 4255 002f 53657269 		.ascii	"SerialDriver\000"
 4255      616C4472 
 4255      69766572 
 4255      00
 4256              	.LASF135:
 4257 003c 41504231 		.ascii	"APB1ENR\000"
 4257      454E5200 
 4258              	.LASF34:
 4259 0044 705F7469 		.ascii	"p_time\000"
 4259      6D6500
 4260              	.LASF44:
 4261 004b 72656761 		.ascii	"regarm_t\000"
 4261      726D5F74 
 4261      00
 4262              	.LASF26:
 4263 0054 705F7072 		.ascii	"p_prio\000"
 4263      696F00
 4264              	.LASF176:
 4265 005b 7365745F 		.ascii	"set_error\000"
 4265      6572726F 
 4265      7200
 4266              	.LASF137:
 4267 0065 41504232 		.ascii	"APB2LPENR\000"
 4267      4C50454E 
 4267      5200
 4268              	.LASF131:
 4269 006f 41504232 		.ascii	"APB2RSTR\000"
 4269      52535452 
 4269      00
 4270              	.LASF108:
 4271 0078 54494D39 		.ascii	"TIM9_IRQn\000"
 4271      5F495251 
 4271      6E00
 4272              	.LASF100:
 4273 0082 444D4131 		.ascii	"DMA1_Channel7_IRQn\000"
 4273      5F436861 
 4273      6E6E656C 
 4273      375F4952 
 4273      516E00
 4274              	.LASF158:
 4275 0095 6F717565 		.ascii	"oqueue\000"
 4275      756500
 4276              	.LASF117:
 4277 009c 49324332 		.ascii	"I2C2_ER_IRQn\000"
 4277      5F45525F 
 4277      4952516E 
 4277      00
ARM GAS  /tmp/cc2DpUmI.s 			page 77


 4278              	.LASF155:
 4279 00a9 666C6167 		.ascii	"flags\000"
 4279      7300
 4280              	.LASF22:
 4281 00af 73797374 		.ascii	"systime_t\000"
 4281      696D655F 
 4281      7400
 4282              	.LASF50:
 4283 00b9 6D5F6F77 		.ascii	"m_owner\000"
 4283      6E657200 
 4284              	.LASF113:
 4285 00c1 54494D34 		.ascii	"TIM4_IRQn\000"
 4285      5F495251 
 4285      6E00
 4286              	.LASF95:
 4287 00cb 444D4131 		.ascii	"DMA1_Channel2_IRQn\000"
 4287      5F436861 
 4287      6E6E656C 
 4287      325F4952 
 4287      516E00
 4288              	.LASF36:
 4289 00de 705F6D73 		.ascii	"p_msgqueue\000"
 4289      67717565 
 4289      756500
 4290              	.LASF0:
 4291 00e9 756E7369 		.ascii	"unsigned int\000"
 4291      676E6564 
 4291      20696E74 
 4291      00
 4292              	.LASF82:
 4293 00f6 53797354 		.ascii	"SysTick_IRQn\000"
 4293      69636B5F 
 4293      4952516E 
 4293      00
 4294              	.LASF69:
 4295 0103 715F7264 		.ascii	"q_rdptr\000"
 4295      70747200 
 4296              	.LASF87:
 4297 010b 464C4153 		.ascii	"FLASH_IRQn\000"
 4297      485F4952 
 4297      516E00
 4298              	.LASF71:
 4299 0116 716E6F74 		.ascii	"qnotify_t\000"
 4299      6966795F 
 4299      7400
 4300              	.LASF55:
 4301 0120 656C5F6D 		.ascii	"el_mask\000"
 4301      61736B00 
 4302              	.LASF89:
 4303 0128 45585449 		.ascii	"EXTI0_IRQn\000"
 4303      305F4952 
 4303      516E00
 4304              	.LASF60:
 4305 0133 77746F62 		.ascii	"wtobjp\000"
 4305      6A7000
 4306              	.LASF181:
 4307 013a 75736172 		.ascii	"usart_init\000"
ARM GAS  /tmp/cc2DpUmI.s 			page 78


 4307      745F696E 
 4307      697400
 4308              	.LASF123:
 4309 0145 45585449 		.ascii	"EXTI15_10_IRQn\000"
 4309      31355F31 
 4309      305F4952 
 4309      516E00
 4310              	.LASF189:
 4311 0154 73644F62 		.ascii	"sdObjectInit\000"
 4311      6A656374 
 4311      496E6974 
 4311      00
 4312              	.LASF61:
 4313 0161 65776D61 		.ascii	"ewmask\000"
 4313      736B00
 4314              	.LASF188:
 4315 0168 7364496E 		.ascii	"sdIncomingDataI\000"
 4315      636F6D69 
 4315      6E674461 
 4315      74614900 
 4316              	.LASF197:
 4317 0178 6E766963 		.ascii	"nvicDisableVector\000"
 4317      44697361 
 4317      626C6556 
 4317      6563746F 
 4317      7200
 4318              	.LASF81:
 4319 018a 50656E64 		.ascii	"PendSV_IRQn\000"
 4319      53565F49 
 4319      52516E00 
 4320              	.LASF170:
 4321 0196 77726974 		.ascii	"writet\000"
 4321      657400
 4322              	.LASF88:
 4323 019d 5243435F 		.ascii	"RCC_IRQn\000"
 4323      4952516E 
 4323      00
 4324              	.LASF146:
 4325 01a6 47545052 		.ascii	"GTPR\000"
 4325      00
 4326              	.LASF76:
 4327 01ab 4D656D6F 		.ascii	"MemoryManagement_IRQn\000"
 4327      72794D61 
 4327      6E616765 
 4327      6D656E74 
 4327      5F495251 
 4328              	.LASF195:
 4329 01c1 63684F51 		.ascii	"chOQGetI\000"
 4329      47657449 
 4329      00
 4330              	.LASF157:
 4331 01ca 69717565 		.ascii	"iqueue\000"
 4331      756500
 4332              	.LASF10:
 4333 01d1 75696E74 		.ascii	"uint32_t\000"
 4333      33325F74 
 4333      00
ARM GAS  /tmp/cc2DpUmI.s 			page 79


 4334              	.LASF85:
 4335 01da 54414D50 		.ascii	"TAMPER_STAMP_IRQn\000"
 4335      45525F53 
 4335      54414D50 
 4335      5F495251 
 4335      6E00
 4336              	.LASF21:
 4337 01ec 6576656E 		.ascii	"eventmask_t\000"
 4337      746D6173 
 4337      6B5F7400 
 4338              	.LASF130:
 4339 01f8 41484252 		.ascii	"AHBRSTR\000"
 4339      53545200 
 4340              	.LASF164:
 4341 0200 53657269 		.ascii	"SerialConfig\000"
 4341      616C436F 
 4341      6E666967 
 4341      00
 4342              	.LASF191:
 4343 020d 474E5520 		.ascii	"GNU C 4.7.2\000"
 4343      4320342E 
 4343      372E3200 
 4344              	.LASF152:
 4345 0219 73647374 		.ascii	"sdstate_t\000"
 4345      6174655F 
 4345      7400
 4346              	.LASF154:
 4347 0223 6576656E 		.ascii	"event\000"
 4347      7400
 4348              	.LASF19:
 4349 0229 74707269 		.ascii	"tprio_t\000"
 4349      6F5F7400 
 4350              	.LASF162:
 4351 0231 73635F63 		.ascii	"sc_cr2\000"
 4351      723200
 4352              	.LASF163:
 4353 0238 73635F63 		.ascii	"sc_cr3\000"
 4353      723300
 4354              	.LASF118:
 4355 023f 53504931 		.ascii	"SPI1_IRQn\000"
 4355      5F495251 
 4355      6E00
 4356              	.LASF126:
 4357 0249 54494D36 		.ascii	"TIM6_IRQn\000"
 4357      5F495251 
 4357      6E00
 4358              	.LASF97:
 4359 0253 444D4131 		.ascii	"DMA1_Channel4_IRQn\000"
 4359      5F436861 
 4359      6E6E656C 
 4359      345F4952 
 4359      516E00
 4360              	.LASF13:
 4361 0266 6C6F6E67 		.ascii	"long long unsigned int\000"
 4361      206C6F6E 
 4361      6720756E 
 4361      7369676E 
ARM GAS  /tmp/cc2DpUmI.s 			page 80


 4361      65642069 
 4362              	.LASF105:
 4363 027d 434F4D50 		.ascii	"COMP_IRQn\000"
 4363      5F495251 
 4363      6E00
 4364              	.LASF160:
 4365 0287 73635F73 		.ascii	"sc_speed\000"
 4365      70656564 
 4365      00
 4366              	.LASF28:
 4367 0290 705F6E65 		.ascii	"p_newer\000"
 4367      77657200 
 4368              	.LASF64:
 4369 0298 715F7761 		.ascii	"q_waiting\000"
 4369      6974696E 
 4369      6700
 4370              	.LASF74:
 4371 02a2 696F666C 		.ascii	"ioflags_t\000"
 4371      6167735F 
 4371      7400
 4372              	.LASF179:
 4373 02ac 56656374 		.ascii	"VectorDC\000"
 4373      6F724443 
 4373      00
 4374              	.LASF56:
 4375 02b5 4576656E 		.ascii	"EventSource\000"
 4375      74536F75 
 4375      72636500 
 4376              	.LASF2:
 4377 02c1 73697A65 		.ascii	"size_t\000"
 4377      5F7400
 4378              	.LASF58:
 4379 02c8 7264796D 		.ascii	"rdymsg\000"
 4379      736700
 4380              	.LASF121:
 4381 02cf 55534152 		.ascii	"USART2_IRQn\000"
 4381      54325F49 
 4381      52516E00 
 4382              	.LASF15:
 4383 02db 626F6F6C 		.ascii	"bool_t\000"
 4383      5F7400
 4384              	.LASF139:
 4385 02e2 5243435F 		.ascii	"RCC_TypeDef\000"
 4385      54797065 
 4385      44656600 
 4386              	.LASF150:
 4387 02ee 53445F53 		.ascii	"SD_STOP\000"
 4387      544F5000 
 4388              	.LASF86:
 4389 02f6 5254435F 		.ascii	"RTC_WKUP_IRQn\000"
 4389      574B5550 
 4389      5F495251 
 4389      6E00
 4390              	.LASF148:
 4391 0304 55534152 		.ascii	"USART_TypeDef\000"
 4391      545F5479 
 4391      70654465 
ARM GAS  /tmp/cc2DpUmI.s 			page 81


 4391      6600
 4392              	.LASF48:
 4393 0312 4D757465 		.ascii	"Mutex\000"
 4393      7800
 4394              	.LASF73:
 4395 0318 4F757470 		.ascii	"OutputQueue\000"
 4395      75745175 
 4395      65756500 
 4396              	.LASF70:
 4397 0324 715F6E6F 		.ascii	"q_notify\000"
 4397      74696679 
 4397      00
 4398              	.LASF192:
 4399 032d 2E2F6F73 		.ascii	"./os/hal/platforms/STM32/serial_lld.c\000"
 4399      2F68616C 
 4399      2F706C61 
 4399      74666F72 
 4399      6D732F53 
 4400              	.LASF91:
 4401 0353 45585449 		.ascii	"EXTI2_IRQn\000"
 4401      325F4952 
 4401      516E00
 4402              	.LASF30:
 4403 035e 705F6E61 		.ascii	"p_name\000"
 4403      6D6500
 4404              	.LASF101:
 4405 0365 41444331 		.ascii	"ADC1_IRQn\000"
 4405      5F495251 
 4405      6E00
 4406              	.LASF132:
 4407 036f 41504231 		.ascii	"APB1RSTR\000"
 4407      52535452 
 4407      00
 4408              	.LASF116:
 4409 0378 49324332 		.ascii	"I2C2_EV_IRQn\000"
 4409      5F45565F 
 4409      4952516E 
 4409      00
 4410              	.LASF161:
 4411 0385 73635F63 		.ascii	"sc_cr1\000"
 4411      723100
 4412              	.LASF72:
 4413 038c 496E7075 		.ascii	"InputQueue\000"
 4413      74517565 
 4413      756500
 4414              	.LASF42:
 4415 0397 54687265 		.ascii	"ThreadsQueue\000"
 4415      61647351 
 4415      75657565 
 4415      00
 4416              	.LASF62:
 4417 03a4 63686172 		.ascii	"char\000"
 4417      00
 4418              	.LASF99:
 4419 03a9 444D4131 		.ascii	"DMA1_Channel6_IRQn\000"
 4419      5F436861 
 4419      6E6E656C 
ARM GAS  /tmp/cc2DpUmI.s 			page 82


 4419      365F4952 
 4419      516E00
 4420              	.LASF68:
 4421 03bc 715F7772 		.ascii	"q_wrptr\000"
 4421      70747200 
 4422              	.LASF112:
 4423 03c4 54494D33 		.ascii	"TIM3_IRQn\000"
 4423      5F495251 
 4423      6E00
 4424              	.LASF94:
 4425 03ce 444D4131 		.ascii	"DMA1_Channel1_IRQn\000"
 4425      5F436861 
 4425      6E6E656C 
 4425      315F4952 
 4425      516E00
 4426              	.LASF23:
 4427 03e1 54687265 		.ascii	"Thread\000"
 4427      616400
 4428              	.LASF17:
 4429 03e8 74737461 		.ascii	"tstate_t\000"
 4429      74655F74 
 4429      00
 4430              	.LASF187:
 4431 03f1 63684576 		.ascii	"chEvtBroadcastFlagsI\000"
 4431      7442726F 
 4431      61646361 
 4431      7374466C 
 4431      61677349 
 4432              	.LASF133:
 4433 0406 41484245 		.ascii	"AHBENR\000"
 4433      4E5200
 4434              	.LASF29:
 4435 040d 705F6F6C 		.ascii	"p_older\000"
 4435      64657200 
 4436              	.LASF31:
 4437 0415 705F7374 		.ascii	"p_state\000"
 4437      61746500 
 4438              	.LASF3:
 4439 041d 75696E74 		.ascii	"uint8_t\000"
 4439      385F7400 
 4440              	.LASF41:
 4441 0425 705F6D70 		.ascii	"p_mpool\000"
 4441      6F6F6C00 
 4442              	.LASF39:
 4443 042d 705F6D74 		.ascii	"p_mtxlist\000"
 4443      786C6973 
 4443      7400
 4444              	.LASF109:
 4445 0437 54494D31 		.ascii	"TIM10_IRQn\000"
 4445      305F4952 
 4445      516E00
 4446              	.LASF136:
 4447 0442 4148424C 		.ascii	"AHBLPENR\000"
 4447      50454E52 
 4447      00
 4448              	.LASF159:
 4449 044b 75736172 		.ascii	"usart\000"
ARM GAS  /tmp/cc2DpUmI.s 			page 83


 4449      7400
 4450              	.LASF12:
 4451 0451 6C6F6E67 		.ascii	"long long int\000"
 4451      206C6F6E 
 4451      6720696E 
 4451      7400
 4452              	.LASF83:
 4453 045f 57574447 		.ascii	"WWDG_IRQn\000"
 4453      5F495251 
 4453      6E00
 4454              	.LASF166:
 4455 0469 77726974 		.ascii	"write\000"
 4455      6500
 4456              	.LASF66:
 4457 046f 715F6275 		.ascii	"q_buffer\000"
 4457      66666572 
 4457      00
 4458              	.LASF138:
 4459 0478 41504231 		.ascii	"APB1LPENR\000"
 4459      4C50454E 
 4459      5200
 4460              	.LASF20:
 4461 0482 6D73675F 		.ascii	"msg_t\000"
 4461      7400
 4462              	.LASF193:
 4463 0488 2F686F6D 		.ascii	"/home/mitchd/Documents/FOX-1/amsat-fox/stm32l1-deve"
 4463      652F6D69 
 4463      74636864 
 4463      2F446F63 
 4463      756D656E 
 4464 04bb 6C00     		.ascii	"l\000"
 4465              	.LASF184:
 4466 04bd 73645F6C 		.ascii	"sd_lld_stop\000"
 4466      6C645F73 
 4466      746F7000 
 4467              	.LASF46:
 4468 04c9 636F6E74 		.ascii	"context\000"
 4468      65787400 
 4469              	.LASF32:
 4470 04d1 705F666C 		.ascii	"p_flags\000"
 4470      61677300 
 4471              	.LASF77:
 4472 04d9 42757346 		.ascii	"BusFault_IRQn\000"
 4472      61756C74 
 4472      5F495251 
 4472      6E00
 4473              	.LASF172:
 4474 04e7 67657466 		.ascii	"getflags\000"
 4474      6C616773 
 4474      00
 4475              	.LASF93:
 4476 04f0 45585449 		.ascii	"EXTI4_IRQn\000"
 4476      345F4952 
 4476      516E00
 4477              	.LASF107:
 4478 04fb 4C43445F 		.ascii	"LCD_IRQn\000"
 4478      4952516E 
ARM GAS  /tmp/cc2DpUmI.s 			page 84


 4478      00
 4479              	.LASF128:
 4480 0504 49435343 		.ascii	"ICSCR\000"
 4480      5200
 4481              	.LASF84:
 4482 050a 5056445F 		.ascii	"PVD_IRQn\000"
 4482      4952516E 
 4482      00
 4483              	.LASF173:
 4484 0513 6E6F7469 		.ascii	"notify1\000"
 4484      66793100 
 4485              	.LASF174:
 4486 051b 6E6F7469 		.ascii	"notify3\000"
 4486      66793300 
 4487              	.LASF134:
 4488 0523 41504232 		.ascii	"APB2ENR\000"
 4488      454E5200 
 4489              	.LASF178:
 4490 052b 56656374 		.ascii	"VectorD4\000"
 4490      6F724434 
 4490      00
 4491              	.LASF183:
 4492 0534 73645F6C 		.ascii	"sd_lld_start\000"
 4492      6C645F73 
 4492      74617274 
 4492      00
 4493              	.LASF96:
 4494 0541 444D4131 		.ascii	"DMA1_Channel3_IRQn\000"
 4494      5F436861 
 4494      6E6E656C 
 4494      335F4952 
 4494      516E00
 4495              	.LASF53:
 4496 0554 656C5F6E 		.ascii	"el_next\000"
 4496      65787400 
 4497              	.LASF37:
 4498 055c 705F6D73 		.ascii	"p_msg\000"
 4498      6700
 4499              	.LASF16:
 4500 0562 746D6F64 		.ascii	"tmode_t\000"
 4500      655F7400 
 4501              	.LASF114:
 4502 056a 49324331 		.ascii	"I2C1_EV_IRQn\000"
 4502      5F45565F 
 4502      4952516E 
 4502      00
 4503              	.LASF63:
 4504 0577 47656E65 		.ascii	"GenericQueue\000"
 4504      72696351 
 4504      75657565 
 4504      00
 4505              	.LASF106:
 4506 0584 45585449 		.ascii	"EXTI9_5_IRQn\000"
 4506      395F355F 
 4506      4952516E 
 4506      00
 4507              	.LASF6:
ARM GAS  /tmp/cc2DpUmI.s 			page 85


 4508 0591 75696E74 		.ascii	"uint16_t\000"
 4508      31365F74 
 4508      00
 4509              	.LASF194:
 4510 059a 4952516E 		.ascii	"IRQn\000"
 4510      00
 4511              	.LASF175:
 4512 059f 75736172 		.ascii	"usart_deinit\000"
 4512      745F6465 
 4512      696E6974 
 4512      00
 4513              	.LASF45:
 4514 05ac 696E7463 		.ascii	"intctx\000"
 4514      747800
 4515              	.LASF151:
 4516 05b3 53445F52 		.ascii	"SD_READY\000"
 4516      45414459 
 4516      00
 4517              	.LASF165:
 4518 05bc 53657269 		.ascii	"SerialDriverVMT\000"
 4518      616C4472 
 4518      69766572 
 4518      564D5400 
 4519              	.LASF169:
 4520 05cc 67657477 		.ascii	"getwouldblock\000"
 4520      6F756C64 
 4520      626C6F63 
 4520      6B00
 4521              	.LASF124:
 4522 05da 5254435F 		.ascii	"RTC_Alarm_IRQn\000"
 4522      416C6172 
 4522      6D5F4952 
 4522      516E00
 4523              	.LASF182:
 4524 05e9 636F6E66 		.ascii	"config\000"
 4524      696700
 4525              	.LASF40:
 4526 05f0 705F7265 		.ascii	"p_realprio\000"
 4526      616C7072 
 4526      696F00
 4527              	.LASF141:
 4528 05fb 52455345 		.ascii	"RESERVED1\000"
 4528      52564544 
 4528      3100
 4529              	.LASF142:
 4530 0605 52455345 		.ascii	"RESERVED2\000"
 4530      52564544 
 4530      3200
 4531              	.LASF143:
 4532 060f 52455345 		.ascii	"RESERVED3\000"
 4532      52564544 
 4532      3300
 4533              	.LASF144:
 4534 0619 52455345 		.ascii	"RESERVED4\000"
 4534      52564544 
 4534      3400
 4535              	.LASF145:
ARM GAS  /tmp/cc2DpUmI.s 			page 86


 4536 0623 52455345 		.ascii	"RESERVED5\000"
 4536      52564544 
 4536      3500
 4537              	.LASF147:
 4538 062d 52455345 		.ascii	"RESERVED6\000"
 4538      52564544 
 4538      3600
 4539              	.LASF5:
 4540 0637 73686F72 		.ascii	"short int\000"
 4540      7420696E 
 4540      7400
 4541              	.LASF125:
 4542 0641 5553425F 		.ascii	"USB_FS_WKUP_IRQn\000"
 4542      46535F57 
 4542      4B55505F 
 4542      4952516E 
 4542      00
 4543              	.LASF38:
 4544 0652 705F6570 		.ascii	"p_epending\000"
 4544      656E6469 
 4544      6E6700
 4545              	.LASF49:
 4546 065d 6D5F7175 		.ascii	"m_queue\000"
 4546      65756500 
 4547              	.LASF9:
 4548 0665 6C6F6E67 		.ascii	"long int\000"
 4548      20696E74 
 4548      00
 4549              	.LASF120:
 4550 066e 55534152 		.ascii	"USART1_IRQn\000"
 4550      54315F49 
 4550      52516E00 
 4551              	.LASF168:
 4552 067a 70757477 		.ascii	"putwouldblock\000"
 4552      6F756C64 
 4552      626C6F63 
 4552      6B00
 4553              	.LASF186:
 4554 0688 49544D5F 		.ascii	"ITM_RxBuffer\000"
 4554      52784275 
 4554      66666572 
 4554      00
 4555              	.LASF75:
 4556 0695 4E6F6E4D 		.ascii	"NonMaskableInt_IRQn\000"
 4556      61736B61 
 4556      626C6549 
 4556      6E745F49 
 4556      52516E00 
 4557              	.LASF24:
 4558 06a9 705F6E65 		.ascii	"p_next\000"
 4558      787400
 4559              	.LASF27:
 4560 06b0 705F6374 		.ascii	"p_ctx\000"
 4560      7800
 4561              	.LASF129:
 4562 06b6 43464752 		.ascii	"CFGR\000"
 4562      00
ARM GAS  /tmp/cc2DpUmI.s 			page 87


 4563              	.LASF90:
 4564 06bb 45585449 		.ascii	"EXTI1_IRQn\000"
 4564      315F4952 
 4564      516E00
 4565              	.LASF167:
 4566 06c6 72656164 		.ascii	"read\000"
 4566      00
 4567              	.LASF54:
 4568 06cb 656C5F6C 		.ascii	"el_listener\000"
 4568      69737465 
 4568      6E657200 
 4569              	.LASF149:
 4570 06d7 53445F55 		.ascii	"SD_UNINIT\000"
 4570      4E494E49 
 4570      5400
 4571              	.LASF115:
 4572 06e1 49324331 		.ascii	"I2C1_ER_IRQn\000"
 4572      5F45525F 
 4572      4952516E 
 4572      00
 4573              	.LASF65:
 4574 06ee 715F636F 		.ascii	"q_counter\000"
 4574      756E7465 
 4574      7200
 4575              	.LASF67:
 4576 06f8 715F746F 		.ascii	"q_top\000"
 4576      7000
 4577              	.LASF25:
 4578 06fe 705F7072 		.ascii	"p_prev\000"
 4578      657600
 4579              	.LASF47:
 4580 0705 73697A65 		.ascii	"sizetype\000"
 4580      74797065 
 4580      00
 4581              	.LASF18:
 4582 070e 74726566 		.ascii	"trefs_t\000"
 4582      735F7400 
 4583              	.LASF52:
 4584 0716 4576656E 		.ascii	"EventListener\000"
 4584      744C6973 
 4584      74656E65 
 4584      7200
 4585              	.LASF11:
 4586 0724 6C6F6E67 		.ascii	"long unsigned int\000"
 4586      20756E73 
 4586      69676E65 
 4586      6420696E 
 4586      7400
 4587              	.LASF111:
 4588 0736 54494D32 		.ascii	"TIM2_IRQn\000"
 4588      5F495251 
 4588      6E00
 4589              	.LASF8:
 4590 0740 696E7433 		.ascii	"int32_t\000"
 4590      325F7400 
 4591              	.LASF156:
 4592 0748 73746174 		.ascii	"state\000"
ARM GAS  /tmp/cc2DpUmI.s 			page 88


 4592      6500
 4593              	.LASF102:
 4594 074e 5553425F 		.ascii	"USB_HP_IRQn\000"
 4594      48505F49 
 4594      52516E00 
 4595              	.LASF80:
 4596 075a 44656275 		.ascii	"DebugMonitor_IRQn\000"
 4596      674D6F6E 
 4596      69746F72 
 4596      5F495251 
 4596      6E00
 4597              	.LASF78:
 4598 076c 55736167 		.ascii	"UsageFault_IRQn\000"
 4598      65466175 
 4598      6C745F49 
 4598      52516E00 
 4599              	.LASF4:
 4600 077c 756E7369 		.ascii	"unsigned char\000"
 4600      676E6564 
 4600      20636861 
 4600      7200
 4601              	.LASF33:
 4602 078a 705F7265 		.ascii	"p_refs\000"
 4602      667300
 4603              	.LASF79:
 4604 0791 53564361 		.ascii	"SVCall_IRQn\000"
 4604      6C6C5F49 
 4604      52516E00 
 4605              	.LASF196:
 4606 079d 5F706F72 		.ascii	"_port_irq_epilogue\000"
 4606      745F6972 
 4606      715F6570 
 4606      696C6F67 
 4606      756500
 4607              	.LASF57:
 4608 07b0 65735F6E 		.ascii	"es_next\000"
 4608      65787400 
 4609              	.LASF119:
 4610 07b8 53504932 		.ascii	"SPI2_IRQn\000"
 4610      5F495251 
 4610      6E00
 4611              	.LASF127:
 4612 07c2 54494D37 		.ascii	"TIM7_IRQn\000"
 4612      5F495251 
 4612      6E00
 4613              	.LASF98:
 4614 07cc 444D4131 		.ascii	"DMA1_Channel5_IRQn\000"
 4614      5F436861 
 4614      6E6E656C 
 4614      355F4952 
 4614      516E00
 4615              	.LASF104:
 4616 07df 4441435F 		.ascii	"DAC_IRQn\000"
 4616      4952516E 
 4616      00
 4617              	.LASF51:
 4618 07e8 6D5F6E65 		.ascii	"m_next\000"
ARM GAS  /tmp/cc2DpUmI.s 			page 89


 4618      787400
 4619              	.LASF1:
 4620 07ef 7369676E 		.ascii	"signed char\000"
 4620      65642063 
 4620      68617200 
 4621              	.LASF185:
 4622 07fb 64656661 		.ascii	"default_config\000"
 4622      756C745F 
 4622      636F6E66 
 4622      696700
 4623              	.LASF171:
 4624 080a 72656164 		.ascii	"readt\000"
 4624      7400
 4625              	.LASF7:
 4626 0810 73686F72 		.ascii	"short unsigned int\000"
 4626      7420756E 
 4626      7369676E 
 4626      65642069 
 4626      6E7400
 4627              	.LASF92:
 4628 0823 45585449 		.ascii	"EXTI3_IRQn\000"
 4628      335F4952 
 4628      516E00
 4629              	.LASF140:
 4630 082e 52455345 		.ascii	"RESERVED0\000"
 4630      52564544 
 4630      3000
 4631              	.LASF122:
 4632 0838 55534152 		.ascii	"USART3_IRQn\000"
 4632      54335F49 
 4632      52516E00 
 4633              	.LASF103:
 4634 0844 5553425F 		.ascii	"USB_LP_IRQn\000"
 4634      4C505F49 
 4634      52516E00 
 4635              	.LASF190:
 4636 0850 6E766963 		.ascii	"nvicEnableVector\000"
 4636      456E6162 
 4636      6C655665 
 4636      63746F72 
 4636      00
 4637              	.LASF180:
 4638 0861 73645F6C 		.ascii	"sd_lld_init\000"
 4638      6C645F69 
 4638      6E697400 
 4639              	.LASF59:
 4640 086d 65786974 		.ascii	"exitcode\000"
 4640      636F6465 
 4640      00
 4641              	.LASF177:
 4642 0876 73657276 		.ascii	"serve_interrupt\000"
 4642      655F696E 
 4642      74657272 
 4642      75707400 
 4643              		.ident	"GCC: (GNU) 4.7.2"
ARM GAS  /tmp/cc2DpUmI.s 			page 90


DEFINED SYMBOLS
                            *ABS*:0000000000000000 serial_lld.c
     /tmp/cc2DpUmI.s:19     .text.notify1:0000000000000000 $t
     /tmp/cc2DpUmI.s:24     .text.notify1:0000000000000000 notify1
     /tmp/cc2DpUmI.s:45     .text.notify3:0000000000000000 $t
     /tmp/cc2DpUmI.s:50     .text.notify3:0000000000000000 notify3
     /tmp/cc2DpUmI.s:70     .text.serve_interrupt:0000000000000000 $t
     /tmp/cc2DpUmI.s:75     .text.serve_interrupt:0000000000000000 serve_interrupt
     /tmp/cc2DpUmI.s:382    .text.VectorD4:0000000000000000 $t
     /tmp/cc2DpUmI.s:388    .text.VectorD4:0000000000000000 VectorD4
     /tmp/cc2DpUmI.s:738    .bss.SD1:0000000000000000 .LANCHOR0
     /tmp/cc2DpUmI.s:415    .text.VectorDC:0000000000000000 $t
     /tmp/cc2DpUmI.s:421    .text.VectorDC:0000000000000000 VectorDC
     /tmp/cc2DpUmI.s:745    .bss.SD3:0000000000000000 .LANCHOR1
     /tmp/cc2DpUmI.s:448    .text.sd_lld_init:0000000000000000 $t
     /tmp/cc2DpUmI.s:454    .text.sd_lld_init:0000000000000000 sd_lld_init
     /tmp/cc2DpUmI.s:505    .text.sd_lld_start:0000000000000000 $t
     /tmp/cc2DpUmI.s:511    .text.sd_lld_start:0000000000000000 sd_lld_start
     /tmp/cc2DpUmI.s:635    .text.sd_lld_start:0000000000000094 $d
     /tmp/cc2DpUmI.s:642    .text.sd_lld_stop:0000000000000000 $t
     /tmp/cc2DpUmI.s:648    .text.sd_lld_stop:0000000000000000 sd_lld_stop
     /tmp/cc2DpUmI.s:718    .text.sd_lld_stop:000000000000004c $d
     /tmp/cc2DpUmI.s:748    .bss.SD3:0000000000000000 SD3
     /tmp/cc2DpUmI.s:741    .bss.SD1:0000000000000000 SD1
     /tmp/cc2DpUmI.s:726    .rodata.default_config:0000000000000000 $d
     /tmp/cc2DpUmI.s:730    .rodata.default_config:0000000000000000 default_config
     /tmp/cc2DpUmI.s:737    .bss.SD1:0000000000000000 $d
     /tmp/cc2DpUmI.s:744    .bss.SD3:0000000000000000 $d
                     .debug_frame:0000000000000010 $d
     /tmp/cc2DpUmI.s:725    .text.sd_lld_stop:0000000000000054 $t

UNDEFINED SYMBOLS
chEvtBroadcastFlagsI
sdIncomingDataI
chOQGetI
_port_irq_epilogue
sdObjectInit
nvicEnableVector
nvicDisableVector
