ARM GAS  /tmp/ccjPgi6s.s 			page 1


   1              		.syntax unified
   2              		.cpu cortex-m3
   3              		.fpu softvfp
   4              		.eabi_attribute 20, 1
   5              		.eabi_attribute 21, 1
   6              		.eabi_attribute 23, 3
   7              		.eabi_attribute 24, 1
   8              		.eabi_attribute 25, 1
   9              		.eabi_attribute 26, 1
  10              		.eabi_attribute 30, 2
  11              		.eabi_attribute 34, 1
  12              		.eabi_attribute 18, 4
  13              		.thumb
  14              		.file	"spi_flash.c"
  15              		.text
  16              	.Ltext0:
  17              		.cfi_sections	.debug_frame
  18              		.section	.text.checkBusy,"ax",%progbits
  19              		.align	2
  20              		.p2align 4,,15
  21              		.thumb
  22              		.thumb_func
  23              		.type	checkBusy, %function
  24              	checkBusy:
  25              	.LFB62:
  26              		.file 1 "./spi_flash/spi_flash.c"
  27              		.loc 1 49 0
  28              		.cfi_startproc
  29              		@ args = 0, pretend = 0, frame = 8
  30              		@ frame_needed = 0, uses_anonymous_args = 0
  31 0000 00B5     		push	{lr}
  32              	.LCFI0:
  33              		.cfi_def_cfa_offset 4
  34              		.cfi_offset 14, -4
  35              		.loc 1 51 0
  36 0002 0023     		movs	r3, #0
  37              		.loc 1 49 0
  38 0004 83B0     		sub	sp, sp, #12
  39              	.LCFI1:
  40              		.cfi_def_cfa_offset 16
  41              		.loc 1 53 0
  42 0006 0E48     		ldr	r0, .L5
  43              		.loc 1 51 0
  44 0008 8DF80730 		strb	r3, [sp, #7]
  45              	.LVL0:
  46              		.loc 1 53 0
  47 000c FFF7FEFF 		bl	spiSelect
  48              	.LVL1:
  49              		.loc 1 55 0
  50 0010 02AA     		add	r2, sp, #8
  51 0012 0523     		movs	r3, #5
  52 0014 02F8023D 		strb	r3, [r2, #-2]!
  53              	.LVL2:
  54              		.loc 1 56 0
  55 0018 0948     		ldr	r0, .L5
  56 001a 0121     		movs	r1, #1
  57 001c FFF7FEFF 		bl	spiSend
ARM GAS  /tmp/ccjPgi6s.s 			page 2


  58              	.LVL3:
  59              	.L2:
  60              		.loc 1 59 0 discriminator 1
  61 0020 0121     		movs	r1, #1
  62 0022 0748     		ldr	r0, .L5
  63 0024 0DF10702 		add	r2, sp, #7
  64 0028 FFF7FEFF 		bl	spiReceive
  65              	.LVL4:
  66              		.loc 1 60 0 discriminator 1
  67 002c 9DF80730 		ldrb	r3, [sp, #7]	@ zero_extendqisi2
  68              	.LVL5:
  69 0030 DB07     		lsls	r3, r3, #31
  70              	.LVL6:
  71 0032 F5D4     		bmi	.L2
  72              		.loc 1 61 0
  73 0034 0248     		ldr	r0, .L5
  74 0036 FFF7FEFF 		bl	spiUnselect
  75              	.LVL7:
  76              		.loc 1 63 0
  77 003a 03B0     		add	sp, sp, #12
  78 003c 00BD     		pop	{pc}
  79              	.L6:
  80 003e 00BF     		.align	2
  81              	.L5:
  82 0040 00000000 		.word	SPID1
  83              		.cfi_endproc
  84              	.LFE62:
  85              		.size	checkBusy, .-checkBusy
  86 0044 AFF30080 		.section	.text.configureSPIFlash,"ax",%progbits
  86      AFF30080 
  86      AFF30080 
  87              		.align	2
  88              		.p2align 4,,15
  89              		.global	configureSPIFlash
  90              		.thumb
  91              		.thumb_func
  92              		.type	configureSPIFlash, %function
  93              	configureSPIFlash:
  94              	.LFB63:
  95              		.loc 1 65 0
  96              		.cfi_startproc
  97              		@ args = 0, pretend = 0, frame = 8
  98              		@ frame_needed = 0, uses_anonymous_args = 0
  99 0000 70B5     		push	{r4, r5, r6, lr}
 100              	.LCFI2:
 101              		.cfi_def_cfa_offset 16
 102              		.cfi_offset 4, -16
 103              		.cfi_offset 5, -12
 104              		.cfi_offset 6, -8
 105              		.cfi_offset 14, -4
 106              		.loc 1 67 0
 107 0002 40F20004 		movw	r4, #:lower16:SPID1
 108 0006 C0F20004 		movt	r4, #:upper16:SPID1
 109 000a 40F20001 		movw	r1, #:lower16:.LANCHOR0
 110              		.loc 1 65 0
 111 000e 82B0     		sub	sp, sp, #8
 112              	.LCFI3:
ARM GAS  /tmp/ccjPgi6s.s 			page 3


 113              		.cfi_def_cfa_offset 24
 114              		.loc 1 67 0
 115 0010 2046     		mov	r0, r4
 116 0012 C0F20001 		movt	r1, #:upper16:.LANCHOR0
 117 0016 FFF7FEFF 		bl	spiStart
 118              	.LVL8:
 119              		.loc 1 72 0
 120 001a 0023     		movs	r3, #0
 121 001c C4F20203 		movt	r3, 16386
 122 0020 4FF40046 		mov	r6, #32768
 123              		.loc 1 77 0
 124 0024 4FF48065 		mov	r5, #1024
 125              		.loc 1 73 0
 126 0028 1846     		mov	r0, r3
 127              		.loc 1 72 0
 128 002a 1E83     		strh	r6, [r3, #24]	@ movhi
 129              		.loc 1 77 0
 130 002c C4F20205 		movt	r5, 16386
 131              		.loc 1 73 0
 132 0030 3146     		mov	r1, r6
 133 0032 1922     		movs	r2, #25
 134 0034 FFF7FEFF 		bl	_pal_lld_setgroupmode
 135              	.LVL9:
 136              		.loc 1 77 0
 137 0038 0821     		movs	r1, #8
 138 003a 2846     		mov	r0, r5
 139 003c 40F29A22 		movw	r2, #666
 140 0040 FFF7FEFF 		bl	_pal_lld_setgroupmode
 141              	.LVL10:
 142              		.loc 1 81 0
 143 0044 2846     		mov	r0, r5
 144 0046 1021     		movs	r1, #16
 145 0048 40F28222 		movw	r2, #642
 146 004c FFF7FEFF 		bl	_pal_lld_setgroupmode
 147              	.LVL11:
 148              		.loc 1 84 0
 149 0050 2021     		movs	r1, #32
 150 0052 40F29A22 		movw	r2, #666
 151 0056 2846     		mov	r0, r5
 152 0058 FFF7FEFF 		bl	_pal_lld_setgroupmode
 153              	.LVL12:
 154              		.loc 1 88 0
 155 005c 02AD     		add	r5, sp, #8
 156 005e 5023     		movs	r3, #80
 157              		.loc 1 89 0
 158 0060 2046     		mov	r0, r4
 159              		.loc 1 88 0
 160 0062 05F8013D 		strb	r3, [r5, #-1]!
 161              	.LVL13:
 162              		.loc 1 89 0
 163 0066 FFF7FEFF 		bl	spiAcquireBus
 164              	.LVL14:
 165              		.loc 1 90 0
 166 006a 2046     		mov	r0, r4
 167 006c FFF7FEFF 		bl	spiSelect
 168              	.LVL15:
 169              		.loc 1 92 0
ARM GAS  /tmp/ccjPgi6s.s 			page 4


 170 0070 0121     		movs	r1, #1
 171 0072 2A46     		mov	r2, r5
 172 0074 2046     		mov	r0, r4
 173 0076 FFF7FEFF 		bl	spiSend
 174              	.LVL16:
 175              		.loc 1 93 0
 176 007a 2046     		mov	r0, r4
 177 007c FFF7FEFF 		bl	spiUnselect
 178              	.LVL17:
 179              		.loc 1 95 0
 180 0080 0126     		movs	r6, #1
 181              		.loc 1 96 0
 182 0082 2046     		mov	r0, r4
 183              		.loc 1 95 0
 184 0084 8DF80760 		strb	r6, [sp, #7]
 185              	.LVL18:
 186              		.loc 1 96 0
 187 0088 FFF7FEFF 		bl	spiSelect
 188              	.LVL19:
 189              		.loc 1 97 0
 190 008c 2046     		mov	r0, r4
 191 008e 3146     		mov	r1, r6
 192 0090 2A46     		mov	r2, r5
 193 0092 FFF7FEFF 		bl	spiSend
 194              	.LVL20:
 195              		.loc 1 99 0
 196 0096 0023     		movs	r3, #0
 197              		.loc 1 100 0
 198 0098 2046     		mov	r0, r4
 199 009a 3146     		mov	r1, r6
 200 009c 2A46     		mov	r2, r5
 201              		.loc 1 99 0
 202 009e 8DF80730 		strb	r3, [sp, #7]
 203              		.loc 1 100 0
 204 00a2 FFF7FEFF 		bl	spiSend
 205              	.LVL21:
 206              		.loc 1 102 0
 207 00a6 0423     		movs	r3, #4
 208              		.loc 1 103 0
 209 00a8 3146     		mov	r1, r6
 210 00aa 2A46     		mov	r2, r5
 211 00ac 2046     		mov	r0, r4
 212              		.loc 1 102 0
 213 00ae 8DF80730 		strb	r3, [sp, #7]
 214              		.loc 1 103 0
 215 00b2 FFF7FEFF 		bl	spiSend
 216              	.LVL22:
 217              		.loc 1 104 0
 218 00b6 2046     		mov	r0, r4
 219 00b8 FFF7FEFF 		bl	spiUnselect
 220              	.LVL23:
 221              		.loc 1 106 0
 222 00bc FFF7FEFF 		bl	checkBusy
 223              	.LVL24:
 224              		.loc 1 107 0
 225 00c0 2046     		mov	r0, r4
 226 00c2 FFF7FEFF 		bl	spiReleaseBus
ARM GAS  /tmp/ccjPgi6s.s 			page 5


 227              	.LVL25:
 228              		.loc 1 108 0
 229 00c6 02B0     		add	sp, sp, #8
 230 00c8 70BD     		pop	{r4, r5, r6, pc}
 231              		.cfi_endproc
 232              	.LFE63:
 233              		.size	configureSPIFlash, .-configureSPIFlash
 234 00ca 00BFAFF3 		.section	.text.flashWriteByte,"ax",%progbits
 234      0080
 235              		.align	2
 236              		.p2align 4,,15
 237              		.global	flashWriteByte
 238              		.thumb
 239              		.thumb_func
 240              		.type	flashWriteByte, %function
 241              	flashWriteByte:
 242              	.LFB64:
 243              		.loc 1 111 0
 244              		.cfi_startproc
 245              		@ args = 0, pretend = 0, frame = 16
 246              		@ frame_needed = 0, uses_anonymous_args = 0
 247              	.LVL26:
 248 0000 70B5     		push	{r4, r5, r6, lr}
 249              	.LCFI4:
 250              		.cfi_def_cfa_offset 16
 251              		.cfi_offset 4, -16
 252              		.cfi_offset 5, -12
 253              		.cfi_offset 6, -8
 254              		.cfi_offset 14, -4
 255              		.loc 1 119 0
 256 0002 40F20004 		movw	r4, #:lower16:SPID1
 257 0006 C0F20004 		movt	r4, #:upper16:SPID1
 258              		.loc 1 111 0
 259 000a 0346     		mov	r3, r0
 260 000c 84B0     		sub	sp, sp, #16
 261              	.LCFI5:
 262              		.cfi_def_cfa_offset 32
 263              		.loc 1 116 0
 264 000e C3F30722 		ubfx	r2, r3, #8, #8
 265              		.loc 1 115 0
 266 0012 C0F30346 		ubfx	r6, r0, #16, #4
 267              		.loc 1 119 0
 268 0016 2046     		mov	r0, r4
 269              	.LVL27:
 270              		.loc 1 111 0
 271 0018 8DF80710 		strb	r1, [sp, #7]
 272              		.loc 1 116 0
 273 001c 8DF80D20 		strb	r2, [sp, #13]
 274              		.loc 1 123 0
 275 0020 04AD     		add	r5, sp, #16
 276              		.loc 1 117 0
 277 0022 8DF80E30 		strb	r3, [sp, #14]
 278              		.loc 1 115 0
 279 0026 8DF80C60 		strb	r6, [sp, #12]
 280              		.loc 1 119 0
 281 002a FFF7FEFF 		bl	spiAcquireBus
 282              	.LVL28:
ARM GAS  /tmp/ccjPgi6s.s 			page 6


 283              		.loc 1 121 0
 284 002e FFF7FEFF 		bl	checkBusy
 285              	.LVL29:
 286              		.loc 1 123 0
 287 0032 0623     		movs	r3, #6
 288 0034 05F8053D 		strb	r3, [r5, #-5]!
 289              	.LVL30:
 290              		.loc 1 125 0
 291 0038 2046     		mov	r0, r4
 292 003a FFF7FEFF 		bl	spiSelect
 293              	.LVL31:
 294              		.loc 1 127 0
 295 003e 0121     		movs	r1, #1
 296 0040 2A46     		mov	r2, r5
 297 0042 2046     		mov	r0, r4
 298 0044 FFF7FEFF 		bl	spiSend
 299              	.LVL32:
 300              		.loc 1 129 0
 301 0048 2046     		mov	r0, r4
 302 004a FFF7FEFF 		bl	spiUnselect
 303              	.LVL33:
 304              		.loc 1 130 0
 305 004e 0223     		movs	r3, #2
 306              		.loc 1 132 0
 307 0050 2046     		mov	r0, r4
 308              		.loc 1 130 0
 309 0052 8DF80B30 		strb	r3, [sp, #11]
 310              	.LVL34:
 311              		.loc 1 132 0
 312 0056 FFF7FEFF 		bl	spiSelect
 313              	.LVL35:
 314              		.loc 1 134 0
 315 005a 2046     		mov	r0, r4
 316 005c 0121     		movs	r1, #1
 317 005e 2A46     		mov	r2, r5
 318 0060 FFF7FEFF 		bl	spiSend
 319              	.LVL36:
 320              		.loc 1 136 0
 321 0064 2046     		mov	r0, r4
 322 0066 0321     		movs	r1, #3
 323 0068 03AA     		add	r2, sp, #12
 324 006a FFF7FEFF 		bl	spiSend
 325              	.LVL37:
 326              		.loc 1 138 0
 327 006e 2046     		mov	r0, r4
 328 0070 0121     		movs	r1, #1
 329 0072 0DF10702 		add	r2, sp, #7
 330 0076 FFF7FEFF 		bl	spiSend
 331              	.LVL38:
 332              		.loc 1 140 0
 333 007a 2046     		mov	r0, r4
 334 007c FFF7FEFF 		bl	spiUnselect
 335              	.LVL39:
 336              		.loc 1 142 0
 337 0080 2046     		mov	r0, r4
 338 0082 FFF7FEFF 		bl	spiReleaseBus
 339              	.LVL40:
ARM GAS  /tmp/ccjPgi6s.s 			page 7


 340              		.loc 1 145 0
 341 0086 04B0     		add	sp, sp, #16
 342 0088 70BD     		pop	{r4, r5, r6, pc}
 343              		.cfi_endproc
 344              	.LFE64:
 345              		.size	flashWriteByte, .-flashWriteByte
 346 008a 00BFAFF3 		.section	.text.flashWriteBytes,"ax",%progbits
 346      0080
 347              		.align	2
 348              		.p2align 4,,15
 349              		.global	flashWriteBytes
 350              		.thumb
 351              		.thumb_func
 352              		.type	flashWriteBytes, %function
 353              	flashWriteBytes:
 354              	.LFB65:
 355              		.loc 1 147 0
 356              		.cfi_startproc
 357              		@ args = 0, pretend = 0, frame = 8
 358              		@ frame_needed = 0, uses_anonymous_args = 0
 359              	.LVL41:
 360 0000 2DE9F041 		push	{r4, r5, r6, r7, r8, lr}
 361              	.LCFI6:
 362              		.cfi_def_cfa_offset 24
 363              		.cfi_offset 4, -24
 364              		.cfi_offset 5, -20
 365              		.cfi_offset 6, -16
 366              		.cfi_offset 7, -12
 367              		.cfi_offset 8, -8
 368              		.cfi_offset 14, -4
 369 0004 1546     		mov	r5, r2
 370              		.loc 1 153 0
 371 0006 C0F58012 		rsb	r2, r0, #1048576
 372              	.LVL42:
 373              		.loc 1 147 0
 374 000a 82B0     		sub	sp, sp, #8
 375              	.LCFI7:
 376              		.cfi_def_cfa_offset 32
 377              		.loc 1 147 0
 378 000c 0346     		mov	r3, r0
 379              		.loc 1 150 0
 380 000e 0020     		movs	r0, #0
 381              	.LVL43:
 382              		.loc 1 153 0
 383 0010 AA42     		cmp	r2, r5
 384              		.loc 1 150 0
 385 0012 8DF80300 		strb	r0, [sp, #3]
 386              	.LVL44:
 387              		.loc 1 147 0
 388 0016 0E46     		mov	r6, r1
 389              		.loc 1 153 0
 390 0018 76D3     		bcc	.L9
 391              		.loc 1 153 0 is_stmt 0 discriminator 1
 392 001a 012D     		cmp	r5, #1
 393 001c 74D9     		bls	.L9
 394              		.loc 1 156 0 is_stmt 1
 395 001e C3F30341 		ubfx	r1, r3, #16, #4
ARM GAS  /tmp/ccjPgi6s.s 			page 8


 396              	.LVL45:
 397              		.loc 1 157 0
 398 0022 C3F30722 		ubfx	r2, r3, #8, #8
 399              		.loc 1 160 0
 400 0026 3A48     		ldr	r0, .L18
 401              		.loc 1 156 0
 402 0028 8DF80410 		strb	r1, [sp, #4]
 403              		.loc 1 157 0
 404 002c 8DF80520 		strb	r2, [sp, #5]
 405              		.loc 1 158 0
 406 0030 8DF80630 		strb	r3, [sp, #6]
 407              		.loc 1 160 0
 408 0034 FFF7FEFF 		bl	spiAcquireBus
 409              	.LVL46:
 410              		.loc 1 162 0
 411 0038 FFF7FEFF 		bl	checkBusy
 412              	.LVL47:
 413              		.loc 1 164 0
 414 003c 3448     		ldr	r0, .L18
 415 003e FFF7FEFF 		bl	spiSelect
 416              	.LVL48:
 417              		.loc 1 166 0
 418 0042 02AF     		add	r7, sp, #8
 419 0044 0623     		movs	r3, #6
 420 0046 07F8063D 		strb	r3, [r7, #-6]!
 421              	.LVL49:
 422              		.loc 1 168 0
 423 004a 0121     		movs	r1, #1
 424 004c 3A46     		mov	r2, r7
 425 004e 3048     		ldr	r0, .L18
 426 0050 FFF7FEFF 		bl	spiSend
 427              	.LVL50:
 428              		.loc 1 169 0
 429 0054 2E48     		ldr	r0, .L18
 430 0056 FFF7FEFF 		bl	spiUnselect
 431              	.LVL51:
 432              		.loc 1 171 0
 433 005a 4FF0AD08 		mov	r8, #173
 434              		.loc 1 172 0
 435 005e 2C48     		ldr	r0, .L18
 436              		.loc 1 171 0
 437 0060 8DF80280 		strb	r8, [sp, #2]
 438              	.LVL52:
 439              		.loc 1 172 0
 440 0064 FFF7FEFF 		bl	spiSelect
 441              	.LVL53:
 442              		.loc 1 174 0
 443 0068 0121     		movs	r1, #1
 444 006a 2948     		ldr	r0, .L18
 445 006c 3A46     		mov	r2, r7
 446 006e FFF7FEFF 		bl	spiSend
 447              	.LVL54:
 448              		.loc 1 176 0
 449 0072 0321     		movs	r1, #3
 450 0074 2648     		ldr	r0, .L18
 451 0076 01AA     		add	r2, sp, #4
 452 0078 FFF7FEFF 		bl	spiSend
ARM GAS  /tmp/ccjPgi6s.s 			page 9


 453              	.LVL55:
 454              		.loc 1 178 0
 455 007c 0221     		movs	r1, #2
 456 007e 2448     		ldr	r0, .L18
 457 0080 3246     		mov	r2, r6
 458 0082 FFF7FEFF 		bl	spiSend
 459              	.LVL56:
 460              		.loc 1 180 0
 461 0086 2248     		ldr	r0, .L18
 462 0088 FFF7FEFF 		bl	spiUnselect
 463              	.LVL57:
 464              		.loc 1 182 0
 465 008c 022D     		cmp	r5, #2
 466 008e 28D0     		beq	.L12
 467 0090 0224     		movs	r4, #2
 468              	.LVL58:
 469              	.L11:
 470              		.loc 1 183 0
 471 0092 FFF7FEFF 		bl	checkBusy
 472              	.LVL59:
 473              		.loc 1 186 0
 474 0096 1E48     		ldr	r0, .L18
 475              		.loc 1 185 0
 476 0098 8DF80280 		strb	r8, [sp, #2]
 477              		.loc 1 186 0
 478 009c FFF7FEFF 		bl	spiSelect
 479              	.LVL60:
 480              		.loc 1 187 0
 481 00a0 0121     		movs	r1, #1
 482 00a2 1B48     		ldr	r0, .L18
 483 00a4 3A46     		mov	r2, r7
 484 00a6 FFF7FEFF 		bl	spiSend
 485              	.LVL61:
 486              		.loc 1 188 0
 487 00aa 631C     		adds	r3, r4, #1
 488              		.loc 1 195 0
 489 00ac 0221     		movs	r1, #2
 490              		.loc 1 188 0
 491 00ae AB42     		cmp	r3, r5
 492              		.loc 1 195 0
 493 00b0 1748     		ldr	r0, .L18
 494 00b2 06EB0402 		add	r2, r6, r4
 495              		.loc 1 188 0
 496 00b6 08D0     		beq	.L17
 497              		.loc 1 195 0
 498 00b8 FFF7FEFF 		bl	spiSend
 499              	.LVL62:
 500              		.loc 1 196 0
 501 00bc 0234     		adds	r4, r4, #2
 502              	.LVL63:
 503              		.loc 1 199 0
 504 00be 1448     		ldr	r0, .L18
 505 00c0 FFF7FEFF 		bl	spiUnselect
 506              	.LVL64:
 507              		.loc 1 182 0
 508 00c4 A542     		cmp	r5, r4
 509 00c6 E4D8     		bhi	.L11
ARM GAS  /tmp/ccjPgi6s.s 			page 10


 510 00c8 0BE0     		b	.L12
 511              	.LVL65:
 512              	.L17:
 513              		.loc 1 190 0
 514 00ca 0121     		movs	r1, #1
 515 00cc FFF7FEFF 		bl	spiSend
 516              	.LVL66:
 517              		.loc 1 192 0
 518 00d0 0F48     		ldr	r0, .L18
 519 00d2 0121     		movs	r1, #1
 520 00d4 0DF10302 		add	r2, sp, #3
 521 00d8 FFF7FEFF 		bl	spiSend
 522              	.LVL67:
 523              		.loc 1 199 0
 524 00dc 0C48     		ldr	r0, .L18
 525 00de FFF7FEFF 		bl	spiUnselect
 526              	.LVL68:
 527              	.L12:
 528              		.loc 1 201 0
 529 00e2 FFF7FEFF 		bl	checkBusy
 530              	.LVL69:
 531              		.loc 1 203 0
 532 00e6 0A48     		ldr	r0, .L18
 533 00e8 FFF7FEFF 		bl	spiSelect
 534              	.LVL70:
 535              		.loc 1 205 0
 536 00ec 0423     		movs	r3, #4
 537              		.loc 1 206 0
 538 00ee 0848     		ldr	r0, .L18
 539 00f0 0121     		movs	r1, #1
 540 00f2 3A46     		mov	r2, r7
 541              		.loc 1 205 0
 542 00f4 8DF80230 		strb	r3, [sp, #2]
 543              		.loc 1 206 0
 544 00f8 FFF7FEFF 		bl	spiSend
 545              	.LVL71:
 546              		.loc 1 208 0
 547 00fc 0448     		ldr	r0, .L18
 548 00fe FFF7FEFF 		bl	spiUnselect
 549              	.LVL72:
 550              		.loc 1 210 0
 551 0102 0348     		ldr	r0, .L18
 552 0104 FFF7FEFF 		bl	spiReleaseBus
 553              	.LVL73:
 554              	.L9:
 555              		.loc 1 212 0
 556 0108 02B0     		add	sp, sp, #8
 557 010a BDE8F081 		pop	{r4, r5, r6, r7, r8, pc}
 558              	.L19:
 559 010e 00BF     		.align	2
 560              	.L18:
 561 0110 00000000 		.word	SPID1
 562              		.cfi_endproc
 563              	.LFE65:
 564              		.size	flashWriteBytes, .-flashWriteBytes
 565 0114 AFF30080 		.section	.text.flashReadByte,"ax",%progbits
 565      AFF30080 
ARM GAS  /tmp/ccjPgi6s.s 			page 11


 565      AFF30080 
 566              		.align	2
 567              		.p2align 4,,15
 568              		.global	flashReadByte
 569              		.thumb
 570              		.thumb_func
 571              		.type	flashReadByte, %function
 572              	flashReadByte:
 573              	.LFB66:
 574              		.loc 1 214 0
 575              		.cfi_startproc
 576              		@ args = 0, pretend = 0, frame = 8
 577              		@ frame_needed = 0, uses_anonymous_args = 0
 578              	.LVL74:
 579 0000 70B5     		push	{r4, r5, r6, lr}
 580              	.LCFI8:
 581              		.cfi_def_cfa_offset 16
 582              		.cfi_offset 4, -16
 583              		.cfi_offset 5, -12
 584              		.cfi_offset 6, -8
 585              		.cfi_offset 14, -4
 586              		.loc 1 225 0
 587 0002 40F20004 		movw	r4, #:lower16:SPID1
 588 0006 C0F20004 		movt	r4, #:upper16:SPID1
 589              		.loc 1 214 0
 590 000a 0346     		mov	r3, r0
 591 000c 82B0     		sub	sp, sp, #8
 592              	.LCFI9:
 593              		.cfi_def_cfa_offset 24
 594              		.loc 1 221 0
 595 000e C0F30341 		ubfx	r1, r0, #16, #4
 596              		.loc 1 222 0
 597 0012 C3F30722 		ubfx	r2, r3, #8, #8
 598              		.loc 1 225 0
 599 0016 2046     		mov	r0, r4
 600              	.LVL75:
 601              		.loc 1 219 0
 602 0018 0026     		movs	r6, #0
 603              		.loc 1 221 0
 604 001a 8DF80410 		strb	r1, [sp, #4]
 605              		.loc 1 222 0
 606 001e 8DF80520 		strb	r2, [sp, #5]
 607              		.loc 1 223 0
 608 0022 8DF80630 		strb	r3, [sp, #6]
 609              		.loc 1 228 0
 610 0026 02AD     		add	r5, sp, #8
 611              		.loc 1 219 0
 612 0028 8DF80360 		strb	r6, [sp, #3]
 613              	.LVL76:
 614              		.loc 1 225 0
 615 002c FFF7FEFF 		bl	spiAcquireBus
 616              	.LVL77:
 617              		.loc 1 227 0
 618 0030 FFF7FEFF 		bl	checkBusy
 619              	.LVL78:
 620              		.loc 1 228 0
 621 0034 0B23     		movs	r3, #11
ARM GAS  /tmp/ccjPgi6s.s 			page 12


 622 0036 05F8073D 		strb	r3, [r5, #-7]!
 623              	.LVL79:
 624              		.loc 1 230 0
 625 003a 2046     		mov	r0, r4
 626 003c FFF7FEFF 		bl	spiSelect
 627              	.LVL80:
 628              		.loc 1 231 0
 629 0040 2046     		mov	r0, r4
 630 0042 0121     		movs	r1, #1
 631 0044 2A46     		mov	r2, r5
 632 0046 FFF7FEFF 		bl	spiSend
 633              	.LVL81:
 634              		.loc 1 233 0
 635 004a 2046     		mov	r0, r4
 636 004c 0321     		movs	r1, #3
 637 004e 01AA     		add	r2, sp, #4
 638 0050 FFF7FEFF 		bl	spiSend
 639              	.LVL82:
 640              		.loc 1 235 0
 641 0054 2046     		mov	r0, r4
 642 0056 0121     		movs	r1, #1
 643 0058 0DF10302 		add	r2, sp, #3
 644 005c FFF7FEFF 		bl	spiSend
 645              	.LVL83:
 646              		.loc 1 237 0
 647 0060 0121     		movs	r1, #1
 648 0062 0DF10202 		add	r2, sp, #2
 649 0066 2046     		mov	r0, r4
 650 0068 FFF7FEFF 		bl	spiReceive
 651              	.LVL84:
 652              		.loc 1 239 0
 653 006c 2046     		mov	r0, r4
 654 006e FFF7FEFF 		bl	spiUnselect
 655              	.LVL85:
 656              		.loc 1 240 0
 657 0072 2046     		mov	r0, r4
 658 0074 FFF7FEFF 		bl	spiReleaseBus
 659              	.LVL86:
 660              		.loc 1 243 0
 661 0078 9DF80200 		ldrb	r0, [sp, #2]	@ zero_extendqisi2
 662 007c 02B0     		add	sp, sp, #8
 663 007e 70BD     		pop	{r4, r5, r6, pc}
 664              		.cfi_endproc
 665              	.LFE66:
 666              		.size	flashReadByte, .-flashReadByte
 667              		.section	.text.flashReadBytes,"ax",%progbits
 668              		.align	2
 669              		.p2align 4,,15
 670              		.global	flashReadBytes
 671              		.thumb
 672              		.thumb_func
 673              		.type	flashReadBytes, %function
 674              	flashReadBytes:
 675              	.LFB67:
 676              		.loc 1 245 0
 677              		.cfi_startproc
 678              		@ args = 0, pretend = 0, frame = 8
ARM GAS  /tmp/ccjPgi6s.s 			page 13


 679              		@ frame_needed = 0, uses_anonymous_args = 0
 680              	.LVL87:
 681 0000 F0B5     		push	{r4, r5, r6, r7, lr}
 682              	.LCFI10:
 683              		.cfi_def_cfa_offset 20
 684              		.cfi_offset 4, -20
 685              		.cfi_offset 5, -16
 686              		.cfi_offset 6, -12
 687              		.cfi_offset 7, -8
 688              		.cfi_offset 14, -4
 689              		.loc 1 255 0
 690 0002 40F20004 		movw	r4, #:lower16:SPID1
 691 0006 C0F20004 		movt	r4, #:upper16:SPID1
 692              		.loc 1 245 0
 693 000a 0346     		mov	r3, r0
 694 000c 83B0     		sub	sp, sp, #12
 695              	.LCFI11:
 696              		.cfi_def_cfa_offset 32
 697              		.loc 1 251 0
 698 000e C0F3034C 		ubfx	ip, r0, #16, #4
 699              		.loc 1 252 0
 700 0012 C3F3072E 		ubfx	lr, r3, #8, #8
 701              		.loc 1 255 0
 702 0016 2046     		mov	r0, r4
 703              	.LVL88:
 704              		.loc 1 245 0
 705 0018 1746     		mov	r7, r2
 706              		.loc 1 249 0
 707 001a 0022     		movs	r2, #0
 708              	.LVL89:
 709              		.loc 1 251 0
 710 001c 8DF804C0 		strb	ip, [sp, #4]
 711              		.loc 1 252 0
 712 0020 8DF805E0 		strb	lr, [sp, #5]
 713              		.loc 1 245 0
 714 0024 0E46     		mov	r6, r1
 715              		.loc 1 249 0
 716 0026 8DF80320 		strb	r2, [sp, #3]
 717              	.LVL90:
 718              		.loc 1 253 0
 719 002a 8DF80630 		strb	r3, [sp, #6]
 720              		.loc 1 259 0
 721 002e 02AD     		add	r5, sp, #8
 722              		.loc 1 255 0
 723 0030 FFF7FEFF 		bl	spiAcquireBus
 724              	.LVL91:
 725              		.loc 1 257 0
 726 0034 FFF7FEFF 		bl	checkBusy
 727              	.LVL92:
 728              		.loc 1 259 0
 729 0038 0B23     		movs	r3, #11
 730 003a 05F8063D 		strb	r3, [r5, #-6]!
 731              	.LVL93:
 732              		.loc 1 261 0
 733 003e 2046     		mov	r0, r4
 734 0040 FFF7FEFF 		bl	spiSelect
 735              	.LVL94:
ARM GAS  /tmp/ccjPgi6s.s 			page 14


 736              		.loc 1 262 0
 737 0044 2046     		mov	r0, r4
 738 0046 0121     		movs	r1, #1
 739 0048 2A46     		mov	r2, r5
 740 004a FFF7FEFF 		bl	spiSend
 741              	.LVL95:
 742              		.loc 1 264 0
 743 004e 2046     		mov	r0, r4
 744 0050 0321     		movs	r1, #3
 745 0052 01AA     		add	r2, sp, #4
 746 0054 FFF7FEFF 		bl	spiSend
 747              	.LVL96:
 748              		.loc 1 266 0
 749 0058 2046     		mov	r0, r4
 750 005a 0121     		movs	r1, #1
 751 005c 0DF10302 		add	r2, sp, #3
 752 0060 FFF7FEFF 		bl	spiSend
 753              	.LVL97:
 754              		.loc 1 268 0
 755 0064 2046     		mov	r0, r4
 756 0066 3946     		mov	r1, r7
 757 0068 3246     		mov	r2, r6
 758 006a FFF7FEFF 		bl	spiReceive
 759              	.LVL98:
 760              		.loc 1 270 0
 761 006e 2046     		mov	r0, r4
 762 0070 FFF7FEFF 		bl	spiUnselect
 763              	.LVL99:
 764              		.loc 1 271 0
 765 0074 2046     		mov	r0, r4
 766 0076 FFF7FEFF 		bl	spiReleaseBus
 767              	.LVL100:
 768              		.loc 1 274 0
 769 007a 03B0     		add	sp, sp, #12
 770 007c F0BD     		pop	{r4, r5, r6, r7, pc}
 771              		.cfi_endproc
 772              	.LFE67:
 773              		.size	flashReadBytes, .-flashReadBytes
 774 007e 00BF     		.section	.text.flashErase,"ax",%progbits
 775              		.align	2
 776              		.p2align 4,,15
 777              		.global	flashErase
 778              		.thumb
 779              		.thumb_func
 780              		.type	flashErase, %function
 781              	flashErase:
 782              	.LFB68:
 783              		.loc 1 276 0
 784              		.cfi_startproc
 785              		@ args = 0, pretend = 0, frame = 8
 786              		@ frame_needed = 0, uses_anonymous_args = 0
 787              	.LVL101:
 788 0000 F0B5     		push	{r4, r5, r6, r7, lr}
 789              	.LCFI12:
 790              		.cfi_def_cfa_offset 20
 791              		.cfi_offset 4, -20
 792              		.cfi_offset 5, -16
ARM GAS  /tmp/ccjPgi6s.s 			page 15


 793              		.cfi_offset 6, -12
 794              		.cfi_offset 7, -8
 795              		.cfi_offset 14, -4
 796 0002 0346     		mov	r3, r0
 797 0004 83B0     		sub	sp, sp, #12
 798              	.LCFI13:
 799              		.cfi_def_cfa_offset 32
 800              		.loc 1 284 0
 801 0006 C3F30724 		ubfx	r4, r3, #8, #8
 802              		.loc 1 283 0
 803 000a C0F30347 		ubfx	r7, r0, #16, #4
 804              		.loc 1 287 0
 805 000e 1D48     		ldr	r0, .L29
 806              	.LVL102:
 807              		.loc 1 276 0
 808 0010 0D46     		mov	r5, r1
 809 0012 1646     		mov	r6, r2
 810              		.loc 1 285 0
 811 0014 8DF80630 		strb	r3, [sp, #6]
 812              		.loc 1 284 0
 813 0018 8DF80540 		strb	r4, [sp, #5]
 814              		.loc 1 283 0
 815 001c 8DF80470 		strb	r7, [sp, #4]
 816              		.loc 1 287 0
 817 0020 FFF7FEFF 		bl	spiAcquireBus
 818              	.LVL103:
 819              		.loc 1 289 0
 820 0024 FFF7FEFF 		bl	checkBusy
 821              	.LVL104:
 822              		.loc 1 291 0
 823 0028 1648     		ldr	r0, .L29
 824 002a FFF7FEFF 		bl	spiSelect
 825              	.LVL105:
 826              		.loc 1 292 0
 827 002e 02AC     		add	r4, sp, #8
 828 0030 0623     		movs	r3, #6
 829 0032 04F8053D 		strb	r3, [r4, #-5]!
 830              	.LVL106:
 831              		.loc 1 294 0
 832 0036 0121     		movs	r1, #1
 833 0038 2246     		mov	r2, r4
 834 003a 1248     		ldr	r0, .L29
 835 003c FFF7FEFF 		bl	spiSend
 836              	.LVL107:
 837              		.loc 1 295 0
 838 0040 1048     		ldr	r0, .L29
 839 0042 FFF7FEFF 		bl	spiUnselect
 840              	.LVL108:
 841              		.loc 1 298 0
 842 0046 0F48     		ldr	r0, .L29
 843              		.loc 1 297 0
 844 0048 8DF80350 		strb	r5, [sp, #3]
 845              	.LVL109:
 846              		.loc 1 298 0
 847 004c FFF7FEFF 		bl	spiSelect
 848              	.LVL110:
 849              		.loc 1 300 0
ARM GAS  /tmp/ccjPgi6s.s 			page 16


 850 0050 0121     		movs	r1, #1
 851 0052 0C48     		ldr	r0, .L29
 852 0054 2246     		mov	r2, r4
 853 0056 FFF7FEFF 		bl	spiSend
 854              	.LVL111:
 855              		.loc 1 301 0
 856 005a 602D     		cmp	r5, #96
 857 005c 04D0     		beq	.L23
 858              		.loc 1 303 0
 859 005e 0948     		ldr	r0, .L29
 860 0060 0321     		movs	r1, #3
 861 0062 01AA     		add	r2, sp, #4
 862 0064 FFF7FEFF 		bl	spiSend
 863              	.LVL112:
 864              	.L23:
 865              		.loc 1 306 0
 866 0068 0648     		ldr	r0, .L29
 867 006a FFF7FEFF 		bl	spiUnselect
 868              	.LVL113:
 869              		.loc 1 307 0
 870 006e 012E     		cmp	r6, #1
 871 0070 04D0     		beq	.L28
 872              	.L24:
 873              		.loc 1 310 0
 874 0072 0448     		ldr	r0, .L29
 875 0074 FFF7FEFF 		bl	spiReleaseBus
 876              	.LVL114:
 877              		.loc 1 313 0
 878 0078 03B0     		add	sp, sp, #12
 879 007a F0BD     		pop	{r4, r5, r6, r7, pc}
 880              	.L28:
 881              		.loc 1 308 0
 882 007c FFF7FEFF 		bl	checkBusy
 883              	.LVL115:
 884 0080 F7E7     		b	.L24
 885              	.L30:
 886 0082 00BF     		.align	2
 887              	.L29:
 888 0084 00000000 		.word	SPID1
 889              		.cfi_endproc
 890              	.LFE68:
 891              		.size	flashErase, .-flashErase
 892 0088 AFF30080 		.section	.rodata.spi1cfg,"a",%progbits
 892      AFF30080 
 893              		.align	2
 894              		.set	.LANCHOR0,. + 0
 895              		.type	spi1cfg, %object
 896              		.size	spi1cfg, 12
 897              	spi1cfg:
 898 0000 00000000 		.word	0
 899 0004 00000240 		.word	1073872896
 900 0008 0F00     		.short	15
 901 000a 0000     		.short	0
 902              		.text
 903              	.Letext0:
 904              		.file 2 "/home/mitchd/Documents/FOX-1/amsat-fox/x86_64-toolchain/arm/bin/../lib/gcc/arm-none-eabi/
 905              		.file 3 "/home/mitchd/Documents/FOX-1/amsat-fox/x86_64-toolchain/arm/bin/../lib/gcc/arm-none-eabi/
ARM GAS  /tmp/ccjPgi6s.s 			page 17


 906              		.file 4 "./os/ports/GCC/ARMCMx/chtypes.h"
 907              		.file 5 "./os/kernel/include/chlists.h"
 908              		.file 6 "./os/kernel/include/chthreads.h"
 909              		.file 7 "./os/ports/GCC/ARMCMx/chcore_v7m.h"
 910              		.file 8 "./os/kernel/include/chmtx.h"
 911              		.file 9 "./os/hal/platforms/STM32L1xx/stm32l1xx.h"
 912              		.file 10 "./os/hal/platforms/STM32L1xx/stm32_dma.h"
 913              		.file 11 "./os/hal/platforms/STM32/GPIOv2/pal_lld.h"
 914              		.file 12 "./os/hal/include/spi.h"
 915              		.file 13 "./os/hal/platforms/STM32/spi_lld.h"
 916              		.file 14 "./os/ports/common/ARMCMx/CMSIS/include/core_cm3.h"