ARM GAS  /tmp/ccjPgi6s.s 			page 1


   1              		.syntax unified
   2              		.cpu cortex-m3
   3              		.fpu softvfp
   4              		.eabi_attribute 20, 1
   5              		.eabi_attribute 21, 1
   6              		.eabi_attribute 23, 3
   7              		.eabi_attribute 24, 1
   8              		.eabi_attribute 25, 1
   9              		.eabi_attribute 26, 1
  10              		.eabi_attribute 30, 2
  11              		.eabi_attribute 34, 1
  12              		.eabi_attribute 18, 4
  13              		.thumb
  14              		.file	"spi_flash.c"
  15              		.text
  16              	.Ltext0:
  17              		.cfi_sections	.debug_frame
  18              		.section	.text.checkBusy,"ax",%progbits
  19              		.align	2
  20              		.p2align 4,,15
  21              		.thumb
  22              		.thumb_func
  23              		.type	checkBusy, %function
  24              	checkBusy:
  25              	.LFB62:
  26              		.file 1 "./spi_flash/spi_flash.c"
  27              		.loc 1 49 0
  28              		.cfi_startproc
  29              		@ args = 0, pretend = 0, frame = 8
  30              		@ frame_needed = 0, uses_anonymous_args = 0
  31 0000 00B5     		push	{lr}
  32              	.LCFI0:
  33              		.cfi_def_cfa_offset 4
  34              		.cfi_offset 14, -4
  35              		.loc 1 51 0
  36 0002 0023     		movs	r3, #0
  37              		.loc 1 49 0
  38 0004 83B0     		sub	sp, sp, #12
  39              	.LCFI1:
  40              		.cfi_def_cfa_offset 16
  41              		.loc 1 53 0
  42 0006 0E48     		ldr	r0, .L5
  43              		.loc 1 51 0
  44 0008 8DF80730 		strb	r3, [sp, #7]
  45              	.LVL0:
  46              		.loc 1 53 0
  47 000c FFF7FEFF 		bl	spiSelect
  48              	.LVL1:
  49              		.loc 1 55 0
  50 0010 02AA     		add	r2, sp, #8
  51 0012 0523     		movs	r3, #5
  52 0014 02F8023D 		strb	r3, [r2, #-2]!
  53              	.LVL2:
  54              		.loc 1 56 0
  55 0018 0948     		ldr	r0, .L5
  56 001a 0121     		movs	r1, #1
  57 001c FFF7FEFF 		bl	spiSend
ARM GAS  /tmp/ccjPgi6s.s 			page 2


  58              	.LVL3:
  59              	.L2:
  60              		.loc 1 59 0 discriminator 1
  61 0020 0121     		movs	r1, #1
  62 0022 0748     		ldr	r0, .L5
  63 0024 0DF10702 		add	r2, sp, #7
  64 0028 FFF7FEFF 		bl	spiReceive
  65              	.LVL4:
  66              		.loc 1 60 0 discriminator 1
  67 002c 9DF80730 		ldrb	r3, [sp, #7]	@ zero_extendqisi2
  68              	.LVL5:
  69 0030 DB07     		lsls	r3, r3, #31
  70              	.LVL6:
  71 0032 F5D4     		bmi	.L2
  72              		.loc 1 61 0
  73 0034 0248     		ldr	r0, .L5
  74 0036 FFF7FEFF 		bl	spiUnselect
  75              	.LVL7:
  76              		.loc 1 63 0
  77 003a 03B0     		add	sp, sp, #12
  78 003c 00BD     		pop	{pc}
  79              	.L6:
  80 003e 00BF     		.align	2
  81              	.L5:
  82 0040 00000000 		.word	SPID1
  83              		.cfi_endproc
  84              	.LFE62:
  85              		.size	checkBusy, .-checkBusy
  86 0044 AFF30080 		.section	.text.configureSPIFlash,"ax",%progbits
  86      AFF30080 
  86      AFF30080 
  87              		.align	2
  88              		.p2align 4,,15
  89              		.global	configureSPIFlash
  90              		.thumb
  91              		.thumb_func
  92              		.type	configureSPIFlash, %function
  93              	configureSPIFlash:
  94              	.LFB63:
  95              		.loc 1 65 0
  96              		.cfi_startproc
  97              		@ args = 0, pretend = 0, frame = 8
  98              		@ frame_needed = 0, uses_anonymous_args = 0
  99 0000 70B5     		push	{r4, r5, r6, lr}
 100              	.LCFI2:
 101              		.cfi_def_cfa_offset 16
 102              		.cfi_offset 4, -16
 103              		.cfi_offset 5, -12
 104              		.cfi_offset 6, -8
 105              		.cfi_offset 14, -4
 106              		.loc 1 67 0
 107 0002 40F20004 		movw	r4, #:lower16:SPID1
 108 0006 C0F20004 		movt	r4, #:upper16:SPID1
 109 000a 40F20001 		movw	r1, #:lower16:.LANCHOR0
 110              		.loc 1 65 0
 111 000e 82B0     		sub	sp, sp, #8
 112              	.LCFI3:
ARM GAS  /tmp/ccjPgi6s.s 			page 3


 113              		.cfi_def_cfa_offset 24
 114              		.loc 1 67 0
 115 0010 2046     		mov	r0, r4
 116 0012 C0F20001 		movt	r1, #:upper16:.LANCHOR0
 117 0016 FFF7FEFF 		bl	spiStart
 118              	.LVL8:
 119              		.loc 1 72 0
 120 001a 0023     		movs	r3, #0
 121 001c C4F20203 		movt	r3, 16386
 122 0020 4FF40046 		mov	r6, #32768
 123              		.loc 1 77 0
 124 0024 4FF48065 		mov	r5, #1024
 125              		.loc 1 73 0
 126 0028 1846     		mov	r0, r3
 127              		.loc 1 72 0
 128 002a 1E83     		strh	r6, [r3, #24]	@ movhi
 129              		.loc 1 77 0
 130 002c C4F20205 		movt	r5, 16386
 131              		.loc 1 73 0
 132 0030 3146     		mov	r1, r6
 133 0032 1922     		movs	r2, #25
 134 0034 FFF7FEFF 		bl	_pal_lld_setgroupmode
 135              	.LVL9:
 136              		.loc 1 77 0
 137 0038 0821     		movs	r1, #8
 138 003a 2846     		mov	r0, r5
 139 003c 40F29A22 		movw	r2, #666
 140 0040 FFF7FEFF 		bl	_pal_lld_setgroupmode
 141              	.LVL10:
 142              		.loc 1 81 0
 143 0044 2846     		mov	r0, r5
 144 0046 1021     		movs	r1, #16
 145 0048 40F28222 		movw	r2, #642
 146 004c FFF7FEFF 		bl	_pal_lld_setgroupmode
 147              	.LVL11:
 148              		.loc 1 84 0
 149 0050 2021     		movs	r1, #32
 150 0052 40F29A22 		movw	r2, #666
 151 0056 2846     		mov	r0, r5
 152 0058 FFF7FEFF 		bl	_pal_lld_setgroupmode
 153              	.LVL12:
 154              		.loc 1 88 0
 155 005c 02AD     		add	r5, sp, #8
 156 005e 5023     		movs	r3, #80
 157              		.loc 1 89 0
 158 0060 2046     		mov	r0, r4
 159              		.loc 1 88 0
 160 0062 05F8013D 		strb	r3, [r5, #-1]!
 161              	.LVL13:
 162              		.loc 1 89 0
 163 0066 FFF7FEFF 		bl	spiAcquireBus
 164              	.LVL14:
 165              		.loc 1 90 0
 166 006a 2046     		mov	r0, r4
 167 006c FFF7FEFF 		bl	spiSelect
 168              	.LVL15:
 169              		.loc 1 92 0
ARM GAS  /tmp/ccjPgi6s.s 			page 4


 170 0070 0121     		movs	r1, #1
 171 0072 2A46     		mov	r2, r5
 172 0074 2046     		mov	r0, r4
 173 0076 FFF7FEFF 		bl	spiSend
 174              	.LVL16:
 175              		.loc 1 93 0
 176 007a 2046     		mov	r0, r4
 177 007c FFF7FEFF 		bl	spiUnselect
 178              	.LVL17:
 179              		.loc 1 95 0
 180 0080 0126     		movs	r6, #1
 181              		.loc 1 96 0
 182 0082 2046     		mov	r0, r4
 183              		.loc 1 95 0
 184 0084 8DF80760 		strb	r6, [sp, #7]
 185              	.LVL18:
 186              		.loc 1 96 0
 187 0088 FFF7FEFF 		bl	spiSelect
 188              	.LVL19:
 189              		.loc 1 97 0
 190 008c 2046     		mov	r0, r4
 191 008e 3146     		mov	r1, r6
 192 0090 2A46     		mov	r2, r5
 193 0092 FFF7FEFF 		bl	spiSend
 194              	.LVL20:
 195              		.loc 1 99 0
 196 0096 0023     		movs	r3, #0
 197              		.loc 1 100 0
 198 0098 2046     		mov	r0, r4
 199 009a 3146     		mov	r1, r6
 200 009c 2A46     		mov	r2, r5
 201              		.loc 1 99 0
 202 009e 8DF80730 		strb	r3, [sp, #7]
 203              		.loc 1 100 0
 204 00a2 FFF7FEFF 		bl	spiSend
 205              	.LVL21:
 206              		.loc 1 102 0
 207 00a6 0423     		movs	r3, #4
 208              		.loc 1 103 0
 209 00a8 3146     		mov	r1, r6
 210 00aa 2A46     		mov	r2, r5
 211 00ac 2046     		mov	r0, r4
 212              		.loc 1 102 0
 213 00ae 8DF80730 		strb	r3, [sp, #7]
 214              		.loc 1 103 0
 215 00b2 FFF7FEFF 		bl	spiSend
 216              	.LVL22:
 217              		.loc 1 104 0
 218 00b6 2046     		mov	r0, r4
 219 00b8 FFF7FEFF 		bl	spiUnselect
 220              	.LVL23:
 221              		.loc 1 106 0
 222 00bc FFF7FEFF 		bl	checkBusy
 223              	.LVL24:
 224              		.loc 1 107 0
 225 00c0 2046     		mov	r0, r4
 226 00c2 FFF7FEFF 		bl	spiReleaseBus
ARM GAS  /tmp/ccjPgi6s.s 			page 5


 227              	.LVL25:
 228              		.loc 1 108 0
 229 00c6 02B0     		add	sp, sp, #8
 230 00c8 70BD     		pop	{r4, r5, r6, pc}
 231              		.cfi_endproc
 232              	.LFE63:
 233              		.size	configureSPIFlash, .-configureSPIFlash
 234 00ca 00BFAFF3 		.section	.text.flashWriteByte,"ax",%progbits
 234      0080
 235              		.align	2
 236              		.p2align 4,,15
 237              		.global	flashWriteByte
 238              		.thumb
 239              		.thumb_func
 240              		.type	flashWriteByte, %function
 241              	flashWriteByte:
 242              	.LFB64:
 243              		.loc 1 111 0
 244              		.cfi_startproc
 245              		@ args = 0, pretend = 0, frame = 16
 246              		@ frame_needed = 0, uses_anonymous_args = 0
 247              	.LVL26:
 248 0000 70B5     		push	{r4, r5, r6, lr}
 249              	.LCFI4:
 250              		.cfi_def_cfa_offset 16
 251              		.cfi_offset 4, -16
 252              		.cfi_offset 5, -12
 253              		.cfi_offset 6, -8
 254              		.cfi_offset 14, -4
 255              		.loc 1 119 0
 256 0002 40F20004 		movw	r4, #:lower16:SPID1
 257 0006 C0F20004 		movt	r4, #:upper16:SPID1
 258              		.loc 1 111 0
 259 000a 0346     		mov	r3, r0
 260 000c 84B0     		sub	sp, sp, #16
 261              	.LCFI5:
 262              		.cfi_def_cfa_offset 32
 263              		.loc 1 116 0
 264 000e C3F30722 		ubfx	r2, r3, #8, #8
 265              		.loc 1 115 0
 266 0012 C0F30346 		ubfx	r6, r0, #16, #4
 267              		.loc 1 119 0
 268 0016 2046     		mov	r0, r4
 269              	.LVL27:
 270              		.loc 1 111 0
 271 0018 8DF80710 		strb	r1, [sp, #7]
 272              		.loc 1 116 0
 273 001c 8DF80D20 		strb	r2, [sp, #13]
 274              		.loc 1 123 0
 275 0020 04AD     		add	r5, sp, #16
 276              		.loc 1 117 0
 277 0022 8DF80E30 		strb	r3, [sp, #14]
 278              		.loc 1 115 0
 279 0026 8DF80C60 		strb	r6, [sp, #12]
 280              		.loc 1 119 0
 281 002a FFF7FEFF 		bl	spiAcquireBus
 282              	.LVL28:
ARM GAS  /tmp/ccjPgi6s.s 			page 6


 283              		.loc 1 121 0
 284 002e FFF7FEFF 		bl	checkBusy
 285              	.LVL29:
 286              		.loc 1 123 0
 287 0032 0623     		movs	r3, #6
 288 0034 05F8053D 		strb	r3, [r5, #-5]!
 289              	.LVL30:
 290              		.loc 1 125 0
 291 0038 2046     		mov	r0, r4
 292 003a FFF7FEFF 		bl	spiSelect
 293              	.LVL31:
 294              		.loc 1 127 0
 295 003e 0121     		movs	r1, #1
 296 0040 2A46     		mov	r2, r5
 297 0042 2046     		mov	r0, r4
 298 0044 FFF7FEFF 		bl	spiSend
 299              	.LVL32:
 300              		.loc 1 129 0
 301 0048 2046     		mov	r0, r4
 302 004a FFF7FEFF 		bl	spiUnselect
 303              	.LVL33:
 304              		.loc 1 130 0
 305 004e 0223     		movs	r3, #2
 306              		.loc 1 132 0
 307 0050 2046     		mov	r0, r4
 308              		.loc 1 130 0
 309 0052 8DF80B30 		strb	r3, [sp, #11]
 310              	.LVL34:
 311              		.loc 1 132 0
 312 0056 FFF7FEFF 		bl	spiSelect
 313              	.LVL35:
 314              		.loc 1 134 0
 315 005a 2046     		mov	r0, r4
 316 005c 0121     		movs	r1, #1
 317 005e 2A46     		mov	r2, r5
 318 0060 FFF7FEFF 		bl	spiSend
 319              	.LVL36:
 320              		.loc 1 136 0
 321 0064 2046     		mov	r0, r4
 322 0066 0321     		movs	r1, #3
 323 0068 03AA     		add	r2, sp, #12
 324 006a FFF7FEFF 		bl	spiSend
 325              	.LVL37:
 326              		.loc 1 138 0
 327 006e 2046     		mov	r0, r4
 328 0070 0121     		movs	r1, #1
 329 0072 0DF10702 		add	r2, sp, #7
 330 0076 FFF7FEFF 		bl	spiSend
 331              	.LVL38:
 332              		.loc 1 140 0
 333 007a 2046     		mov	r0, r4
 334 007c FFF7FEFF 		bl	spiUnselect
 335              	.LVL39:
 336              		.loc 1 142 0
 337 0080 2046     		mov	r0, r4
 338 0082 FFF7FEFF 		bl	spiReleaseBus
 339              	.LVL40:
ARM GAS  /tmp/ccjPgi6s.s 			page 7


 340              		.loc 1 145 0
 341 0086 04B0     		add	sp, sp, #16
 342 0088 70BD     		pop	{r4, r5, r6, pc}
 343              		.cfi_endproc
 344              	.LFE64:
 345              		.size	flashWriteByte, .-flashWriteByte
 346 008a 00BFAFF3 		.section	.text.flashWriteBytes,"ax",%progbits
 346      0080
 347              		.align	2
 348              		.p2align 4,,15
 349              		.global	flashWriteBytes
 350              		.thumb
 351              		.thumb_func
 352              		.type	flashWriteBytes, %function
 353              	flashWriteBytes:
 354              	.LFB65:
 355              		.loc 1 147 0
 356              		.cfi_startproc
 357              		@ args = 0, pretend = 0, frame = 8
 358              		@ frame_needed = 0, uses_anonymous_args = 0
 359              	.LVL41:
 360 0000 2DE9F041 		push	{r4, r5, r6, r7, r8, lr}
 361              	.LCFI6:
 362              		.cfi_def_cfa_offset 24
 363              		.cfi_offset 4, -24
 364              		.cfi_offset 5, -20
 365              		.cfi_offset 6, -16
 366              		.cfi_offset 7, -12
 367              		.cfi_offset 8, -8
 368              		.cfi_offset 14, -4
 369 0004 1546     		mov	r5, r2
 370              		.loc 1 153 0
 371 0006 C0F58012 		rsb	r2, r0, #1048576
 372              	.LVL42:
 373              		.loc 1 147 0
 374 000a 82B0     		sub	sp, sp, #8
 375              	.LCFI7:
 376              		.cfi_def_cfa_offset 32
 377              		.loc 1 147 0
 378 000c 0346     		mov	r3, r0
 379              		.loc 1 150 0
 380 000e 0020     		movs	r0, #0
 381              	.LVL43:
 382              		.loc 1 153 0
 383 0010 AA42     		cmp	r2, r5
 384              		.loc 1 150 0
 385 0012 8DF80300 		strb	r0, [sp, #3]
 386              	.LVL44:
 387              		.loc 1 147 0
 388 0016 0E46     		mov	r6, r1
 389              		.loc 1 153 0
 390 0018 76D3     		bcc	.L9
 391              		.loc 1 153 0 is_stmt 0 discriminator 1
 392 001a 012D     		cmp	r5, #1
 393 001c 74D9     		bls	.L9
 394              		.loc 1 156 0 is_stmt 1
 395 001e C3F30341 		ubfx	r1, r3, #16, #4
ARM GAS  /tmp/ccjPgi6s.s 			page 8


 396              	.LVL45:
 397              		.loc 1 157 0
 398 0022 C3F30722 		ubfx	r2, r3, #8, #8
 399              		.loc 1 160 0
 400 0026 3A48     		ldr	r0, .L18
 401              		.loc 1 156 0
 402 0028 8DF80410 		strb	r1, [sp, #4]
 403              		.loc 1 157 0
 404 002c 8DF80520 		strb	r2, [sp, #5]
 405              		.loc 1 158 0
 406 0030 8DF80630 		strb	r3, [sp, #6]
 407              		.loc 1 160 0
 408 0034 FFF7FEFF 		bl	spiAcquireBus
 409              	.LVL46:
 410              		.loc 1 162 0
 411 0038 FFF7FEFF 		bl	checkBusy
 412              	.LVL47:
 413              		.loc 1 164 0
 414 003c 3448     		ldr	r0, .L18
 415 003e FFF7FEFF 		bl	spiSelect
 416              	.LVL48:
 417              		.loc 1 166 0
 418 0042 02AF     		add	r7, sp, #8
 419 0044 0623     		movs	r3, #6
 420 0046 07F8063D 		strb	r3, [r7, #-6]!
 421              	.LVL49:
 422              		.loc 1 168 0
 423 004a 0121     		movs	r1, #1
 424 004c 3A46     		mov	r2, r7
 425 004e 3048     		ldr	r0, .L18
 426 0050 FFF7FEFF 		bl	spiSend
 427              	.LVL50:
 428              		.loc 1 169 0
 429 0054 2E48     		ldr	r0, .L18
 430 0056 FFF7FEFF 		bl	spiUnselect
 431              	.LVL51:
 432              		.loc 1 171 0
 433 005a 4FF0AD08 		mov	r8, #173
 434              		.loc 1 172 0
 435 005e 2C48     		ldr	r0, .L18
 436              		.loc 1 171 0
 437 0060 8DF80280 		strb	r8, [sp, #2]
 438              	.LVL52:
 439              		.loc 1 172 0
 440 0064 FFF7FEFF 		bl	spiSelect
 441              	.LVL53:
 442              		.loc 1 174 0
 443 0068 0121     		movs	r1, #1
 444 006a 2948     		ldr	r0, .L18
 445 006c 3A46     		mov	r2, r7
 446 006e FFF7FEFF 		bl	spiSend
 447              	.LVL54:
 448              		.loc 1 176 0
 449 0072 0321     		movs	r1, #3
 450 0074 2648     		ldr	r0, .L18
 451 0076 01AA     		add	r2, sp, #4
 452 0078 FFF7FEFF 		bl	spiSend
ARM GAS  /tmp/ccjPgi6s.s 			page 9


 453              	.LVL55:
 454              		.loc 1 178 0
 455 007c 0221     		movs	r1, #2
 456 007e 2448     		ldr	r0, .L18
 457 0080 3246     		mov	r2, r6
 458 0082 FFF7FEFF 		bl	spiSend
 459              	.LVL56:
 460              		.loc 1 180 0
 461 0086 2248     		ldr	r0, .L18
 462 0088 FFF7FEFF 		bl	spiUnselect
 463              	.LVL57:
 464              		.loc 1 182 0
 465 008c 022D     		cmp	r5, #2
 466 008e 28D0     		beq	.L12
 467 0090 0224     		movs	r4, #2
 468              	.LVL58:
 469              	.L11:
 470              		.loc 1 183 0
 471 0092 FFF7FEFF 		bl	checkBusy
 472              	.LVL59:
 473              		.loc 1 186 0
 474 0096 1E48     		ldr	r0, .L18
 475              		.loc 1 185 0
 476 0098 8DF80280 		strb	r8, [sp, #2]
 477              		.loc 1 186 0
 478 009c FFF7FEFF 		bl	spiSelect
 479              	.LVL60:
 480              		.loc 1 187 0
 481 00a0 0121     		movs	r1, #1
 482 00a2 1B48     		ldr	r0, .L18
 483 00a4 3A46     		mov	r2, r7
 484 00a6 FFF7FEFF 		bl	spiSend
 485              	.LVL61:
 486              		.loc 1 188 0
 487 00aa 631C     		adds	r3, r4, #1
 488              		.loc 1 195 0
 489 00ac 0221     		movs	r1, #2
 490              		.loc 1 188 0
 491 00ae AB42     		cmp	r3, r5
 492              		.loc 1 195 0
 493 00b0 1748     		ldr	r0, .L18
 494 00b2 06EB0402 		add	r2, r6, r4
 495              		.loc 1 188 0
 496 00b6 08D0     		beq	.L17
 497              		.loc 1 195 0
 498 00b8 FFF7FEFF 		bl	spiSend
 499              	.LVL62:
 500              		.loc 1 196 0
 501 00bc 0234     		adds	r4, r4, #2
 502              	.LVL63:
 503              		.loc 1 199 0
 504 00be 1448     		ldr	r0, .L18
 505 00c0 FFF7FEFF 		bl	spiUnselect
 506              	.LVL64:
 507              		.loc 1 182 0
 508 00c4 A542     		cmp	r5, r4
 509 00c6 E4D8     		bhi	.L11
ARM GAS  /tmp/ccjPgi6s.s 			page 10


 510 00c8 0BE0     		b	.L12
 511              	.LVL65:
 512              	.L17:
 513              		.loc 1 190 0
 514 00ca 0121     		movs	r1, #1
 515 00cc FFF7FEFF 		bl	spiSend
 516              	.LVL66:
 517              		.loc 1 192 0
 518 00d0 0F48     		ldr	r0, .L18
 519 00d2 0121     		movs	r1, #1
 520 00d4 0DF10302 		add	r2, sp, #3
 521 00d8 FFF7FEFF 		bl	spiSend
 522              	.LVL67:
 523              		.loc 1 199 0
 524 00dc 0C48     		ldr	r0, .L18
 525 00de FFF7FEFF 		bl	spiUnselect
 526              	.LVL68:
 527              	.L12:
 528              		.loc 1 201 0
 529 00e2 FFF7FEFF 		bl	checkBusy
 530              	.LVL69:
 531              		.loc 1 203 0
 532 00e6 0A48     		ldr	r0, .L18
 533 00e8 FFF7FEFF 		bl	spiSelect
 534              	.LVL70:
 535              		.loc 1 205 0
 536 00ec 0423     		movs	r3, #4
 537              		.loc 1 206 0
 538 00ee 0848     		ldr	r0, .L18
 539 00f0 0121     		movs	r1, #1
 540 00f2 3A46     		mov	r2, r7
 541              		.loc 1 205 0
 542 00f4 8DF80230 		strb	r3, [sp, #2]
 543              		.loc 1 206 0
 544 00f8 FFF7FEFF 		bl	spiSend
 545              	.LVL71:
 546              		.loc 1 208 0
 547 00fc 0448     		ldr	r0, .L18
 548 00fe FFF7FEFF 		bl	spiUnselect
 549              	.LVL72:
 550              		.loc 1 210 0
 551 0102 0348     		ldr	r0, .L18
 552 0104 FFF7FEFF 		bl	spiReleaseBus
 553              	.LVL73:
 554              	.L9:
 555              		.loc 1 212 0
 556 0108 02B0     		add	sp, sp, #8
 557 010a BDE8F081 		pop	{r4, r5, r6, r7, r8, pc}
 558              	.L19:
 559 010e 00BF     		.align	2
 560              	.L18:
 561 0110 00000000 		.word	SPID1
 562              		.cfi_endproc
 563              	.LFE65:
 564              		.size	flashWriteBytes, .-flashWriteBytes
 565 0114 AFF30080 		.section	.text.flashReadByte,"ax",%progbits
 565      AFF30080 
ARM GAS  /tmp/ccjPgi6s.s 			page 11


 565      AFF30080 
 566              		.align	2
 567              		.p2align 4,,15
 568              		.global	flashReadByte
 569              		.thumb
 570              		.thumb_func
 571              		.type	flashReadByte, %function
 572              	flashReadByte:
 573              	.LFB66:
 574              		.loc 1 214 0
 575              		.cfi_startproc
 576              		@ args = 0, pretend = 0, frame = 8
 577              		@ frame_needed = 0, uses_anonymous_args = 0
 578              	.LVL74:
 579 0000 70B5     		push	{r4, r5, r6, lr}
 580              	.LCFI8:
 581              		.cfi_def_cfa_offset 16
 582              		.cfi_offset 4, -16
 583              		.cfi_offset 5, -12
 584              		.cfi_offset 6, -8
 585              		.cfi_offset 14, -4
 586              		.loc 1 225 0
 587 0002 40F20004 		movw	r4, #:lower16:SPID1
 588 0006 C0F20004 		movt	r4, #:upper16:SPID1
 589              		.loc 1 214 0
 590 000a 0346     		mov	r3, r0
 591 000c 82B0     		sub	sp, sp, #8
 592              	.LCFI9:
 593              		.cfi_def_cfa_offset 24
 594              		.loc 1 221 0
 595 000e C0F30341 		ubfx	r1, r0, #16, #4
 596              		.loc 1 222 0
 597 0012 C3F30722 		ubfx	r2, r3, #8, #8
 598              		.loc 1 225 0
 599 0016 2046     		mov	r0, r4
 600              	.LVL75:
 601              		.loc 1 219 0
 602 0018 0026     		movs	r6, #0
 603              		.loc 1 221 0
 604 001a 8DF80410 		strb	r1, [sp, #4]
 605              		.loc 1 222 0
 606 001e 8DF80520 		strb	r2, [sp, #5]
 607              		.loc 1 223 0
 608 0022 8DF80630 		strb	r3, [sp, #6]
 609              		.loc 1 228 0
 610 0026 02AD     		add	r5, sp, #8
 611              		.loc 1 219 0
 612 0028 8DF80360 		strb	r6, [sp, #3]
 613              	.LVL76:
 614              		.loc 1 225 0
 615 002c FFF7FEFF 		bl	spiAcquireBus
 616              	.LVL77:
 617              		.loc 1 227 0
 618 0030 FFF7FEFF 		bl	checkBusy
 619              	.LVL78:
 620              		.loc 1 228 0
 621 0034 0B23     		movs	r3, #11
ARM GAS  /tmp/ccjPgi6s.s 			page 12


 622 0036 05F8073D 		strb	r3, [r5, #-7]!
 623              	.LVL79:
 624              		.loc 1 230 0
 625 003a 2046     		mov	r0, r4
 626 003c FFF7FEFF 		bl	spiSelect
 627              	.LVL80:
 628              		.loc 1 231 0
 629 0040 2046     		mov	r0, r4
 630 0042 0121     		movs	r1, #1
 631 0044 2A46     		mov	r2, r5
 632 0046 FFF7FEFF 		bl	spiSend
 633              	.LVL81:
 634              		.loc 1 233 0
 635 004a 2046     		mov	r0, r4
 636 004c 0321     		movs	r1, #3
 637 004e 01AA     		add	r2, sp, #4
 638 0050 FFF7FEFF 		bl	spiSend
 639              	.LVL82:
 640              		.loc 1 235 0
 641 0054 2046     		mov	r0, r4
 642 0056 0121     		movs	r1, #1
 643 0058 0DF10302 		add	r2, sp, #3
 644 005c FFF7FEFF 		bl	spiSend
 645              	.LVL83:
 646              		.loc 1 237 0
 647 0060 0121     		movs	r1, #1
 648 0062 0DF10202 		add	r2, sp, #2
 649 0066 2046     		mov	r0, r4
 650 0068 FFF7FEFF 		bl	spiReceive
 651              	.LVL84:
 652              		.loc 1 239 0
 653 006c 2046     		mov	r0, r4
 654 006e FFF7FEFF 		bl	spiUnselect
 655              	.LVL85:
 656              		.loc 1 240 0
 657 0072 2046     		mov	r0, r4
 658 0074 FFF7FEFF 		bl	spiReleaseBus
 659              	.LVL86:
 660              		.loc 1 243 0
 661 0078 9DF80200 		ldrb	r0, [sp, #2]	@ zero_extendqisi2
 662 007c 02B0     		add	sp, sp, #8
 663 007e 70BD     		pop	{r4, r5, r6, pc}
 664              		.cfi_endproc
 665              	.LFE66:
 666              		.size	flashReadByte, .-flashReadByte
 667              		.section	.text.flashReadBytes,"ax",%progbits
 668              		.align	2
 669              		.p2align 4,,15
 670              		.global	flashReadBytes
 671              		.thumb
 672              		.thumb_func
 673              		.type	flashReadBytes, %function
 674              	flashReadBytes:
 675              	.LFB67:
 676              		.loc 1 245 0
 677              		.cfi_startproc
 678              		@ args = 0, pretend = 0, frame = 8
ARM GAS  /tmp/ccjPgi6s.s 			page 13


 679              		@ frame_needed = 0, uses_anonymous_args = 0
 680              	.LVL87:
 681 0000 F0B5     		push	{r4, r5, r6, r7, lr}
 682              	.LCFI10:
 683              		.cfi_def_cfa_offset 20
 684              		.cfi_offset 4, -20
 685              		.cfi_offset 5, -16
 686              		.cfi_offset 6, -12
 687              		.cfi_offset 7, -8
 688              		.cfi_offset 14, -4
 689              		.loc 1 255 0
 690 0002 40F20004 		movw	r4, #:lower16:SPID1
 691 0006 C0F20004 		movt	r4, #:upper16:SPID1
 692              		.loc 1 245 0
 693 000a 0346     		mov	r3, r0
 694 000c 83B0     		sub	sp, sp, #12
 695              	.LCFI11:
 696              		.cfi_def_cfa_offset 32
 697              		.loc 1 251 0
 698 000e C0F3034C 		ubfx	ip, r0, #16, #4
 699              		.loc 1 252 0
 700 0012 C3F3072E 		ubfx	lr, r3, #8, #8
 701              		.loc 1 255 0
 702 0016 2046     		mov	r0, r4
 703              	.LVL88:
 704              		.loc 1 245 0
 705 0018 1746     		mov	r7, r2
 706              		.loc 1 249 0
 707 001a 0022     		movs	r2, #0
 708              	.LVL89:
 709              		.loc 1 251 0
 710 001c 8DF804C0 		strb	ip, [sp, #4]
 711              		.loc 1 252 0
 712 0020 8DF805E0 		strb	lr, [sp, #5]
 713              		.loc 1 245 0
 714 0024 0E46     		mov	r6, r1
 715              		.loc 1 249 0
 716 0026 8DF80320 		strb	r2, [sp, #3]
 717              	.LVL90:
 718              		.loc 1 253 0
 719 002a 8DF80630 		strb	r3, [sp, #6]
 720              		.loc 1 259 0
 721 002e 02AD     		add	r5, sp, #8
 722              		.loc 1 255 0
 723 0030 FFF7FEFF 		bl	spiAcquireBus
 724              	.LVL91:
 725              		.loc 1 257 0
 726 0034 FFF7FEFF 		bl	checkBusy
 727              	.LVL92:
 728              		.loc 1 259 0
 729 0038 0B23     		movs	r3, #11
 730 003a 05F8063D 		strb	r3, [r5, #-6]!
 731              	.LVL93:
 732              		.loc 1 261 0
 733 003e 2046     		mov	r0, r4
 734 0040 FFF7FEFF 		bl	spiSelect
 735              	.LVL94:
ARM GAS  /tmp/ccjPgi6s.s 			page 14


 736              		.loc 1 262 0
 737 0044 2046     		mov	r0, r4
 738 0046 0121     		movs	r1, #1
 739 0048 2A46     		mov	r2, r5
 740 004a FFF7FEFF 		bl	spiSend
 741              	.LVL95:
 742              		.loc 1 264 0
 743 004e 2046     		mov	r0, r4
 744 0050 0321     		movs	r1, #3
 745 0052 01AA     		add	r2, sp, #4
 746 0054 FFF7FEFF 		bl	spiSend
 747              	.LVL96:
 748              		.loc 1 266 0
 749 0058 2046     		mov	r0, r4
 750 005a 0121     		movs	r1, #1
 751 005c 0DF10302 		add	r2, sp, #3
 752 0060 FFF7FEFF 		bl	spiSend
 753              	.LVL97:
 754              		.loc 1 268 0
 755 0064 2046     		mov	r0, r4
 756 0066 3946     		mov	r1, r7
 757 0068 3246     		mov	r2, r6
 758 006a FFF7FEFF 		bl	spiReceive
 759              	.LVL98:
 760              		.loc 1 270 0
 761 006e 2046     		mov	r0, r4
 762 0070 FFF7FEFF 		bl	spiUnselect
 763              	.LVL99:
 764              		.loc 1 271 0
 765 0074 2046     		mov	r0, r4
 766 0076 FFF7FEFF 		bl	spiReleaseBus
 767              	.LVL100:
 768              		.loc 1 274 0
 769 007a 03B0     		add	sp, sp, #12
 770 007c F0BD     		pop	{r4, r5, r6, r7, pc}
 771              		.cfi_endproc
 772              	.LFE67:
 773              		.size	flashReadBytes, .-flashReadBytes
 774 007e 00BF     		.section	.text.flashErase,"ax",%progbits
 775              		.align	2
 776              		.p2align 4,,15
 777              		.global	flashErase
 778              		.thumb
 779              		.thumb_func
 780              		.type	flashErase, %function
 781              	flashErase:
 782              	.LFB68:
 783              		.loc 1 276 0
 784              		.cfi_startproc
 785              		@ args = 0, pretend = 0, frame = 8
 786              		@ frame_needed = 0, uses_anonymous_args = 0
 787              	.LVL101:
 788 0000 F0B5     		push	{r4, r5, r6, r7, lr}
 789              	.LCFI12:
 790              		.cfi_def_cfa_offset 20
 791              		.cfi_offset 4, -20
 792              		.cfi_offset 5, -16
ARM GAS  /tmp/ccjPgi6s.s 			page 15


 793              		.cfi_offset 6, -12
 794              		.cfi_offset 7, -8
 795              		.cfi_offset 14, -4
 796 0002 0346     		mov	r3, r0
 797 0004 83B0     		sub	sp, sp, #12
 798              	.LCFI13:
 799              		.cfi_def_cfa_offset 32
 800              		.loc 1 284 0
 801 0006 C3F30724 		ubfx	r4, r3, #8, #8
 802              		.loc 1 283 0
 803 000a C0F30347 		ubfx	r7, r0, #16, #4
 804              		.loc 1 287 0
 805 000e 1D48     		ldr	r0, .L29
 806              	.LVL102:
 807              		.loc 1 276 0
 808 0010 0D46     		mov	r5, r1
 809 0012 1646     		mov	r6, r2
 810              		.loc 1 285 0
 811 0014 8DF80630 		strb	r3, [sp, #6]
 812              		.loc 1 284 0
 813 0018 8DF80540 		strb	r4, [sp, #5]
 814              		.loc 1 283 0
 815 001c 8DF80470 		strb	r7, [sp, #4]
 816              		.loc 1 287 0
 817 0020 FFF7FEFF 		bl	spiAcquireBus
 818              	.LVL103:
 819              		.loc 1 289 0
 820 0024 FFF7FEFF 		bl	checkBusy
 821              	.LVL104:
 822              		.loc 1 291 0
 823 0028 1648     		ldr	r0, .L29
 824 002a FFF7FEFF 		bl	spiSelect
 825              	.LVL105:
 826              		.loc 1 292 0
 827 002e 02AC     		add	r4, sp, #8
 828 0030 0623     		movs	r3, #6
 829 0032 04F8053D 		strb	r3, [r4, #-5]!
 830              	.LVL106:
 831              		.loc 1 294 0
 832 0036 0121     		movs	r1, #1
 833 0038 2246     		mov	r2, r4
 834 003a 1248     		ldr	r0, .L29
 835 003c FFF7FEFF 		bl	spiSend
 836              	.LVL107:
 837              		.loc 1 295 0
 838 0040 1048     		ldr	r0, .L29
 839 0042 FFF7FEFF 		bl	spiUnselect
 840              	.LVL108:
 841              		.loc 1 298 0
 842 0046 0F48     		ldr	r0, .L29
 843              		.loc 1 297 0
 844 0048 8DF80350 		strb	r5, [sp, #3]
 845              	.LVL109:
 846              		.loc 1 298 0
 847 004c FFF7FEFF 		bl	spiSelect
 848              	.LVL110:
 849              		.loc 1 300 0
ARM GAS  /tmp/ccjPgi6s.s 			page 16


 850 0050 0121     		movs	r1, #1
 851 0052 0C48     		ldr	r0, .L29
 852 0054 2246     		mov	r2, r4
 853 0056 FFF7FEFF 		bl	spiSend
 854              	.LVL111:
 855              		.loc 1 301 0
 856 005a 602D     		cmp	r5, #96
 857 005c 04D0     		beq	.L23
 858              		.loc 1 303 0
 859 005e 0948     		ldr	r0, .L29
 860 0060 0321     		movs	r1, #3
 861 0062 01AA     		add	r2, sp, #4
 862 0064 FFF7FEFF 		bl	spiSend
 863              	.LVL112:
 864              	.L23:
 865              		.loc 1 306 0
 866 0068 0648     		ldr	r0, .L29
 867 006a FFF7FEFF 		bl	spiUnselect
 868              	.LVL113:
 869              		.loc 1 307 0
 870 006e 012E     		cmp	r6, #1
 871 0070 04D0     		beq	.L28
 872              	.L24:
 873              		.loc 1 310 0
 874 0072 0448     		ldr	r0, .L29
 875 0074 FFF7FEFF 		bl	spiReleaseBus
 876              	.LVL114:
 877              		.loc 1 313 0
 878 0078 03B0     		add	sp, sp, #12
 879 007a F0BD     		pop	{r4, r5, r6, r7, pc}
 880              	.L28:
 881              		.loc 1 308 0
 882 007c FFF7FEFF 		bl	checkBusy
 883              	.LVL115:
 884 0080 F7E7     		b	.L24
 885              	.L30:
 886 0082 00BF     		.align	2
 887              	.L29:
 888 0084 00000000 		.word	SPID1
 889              		.cfi_endproc
 890              	.LFE68:
 891              		.size	flashErase, .-flashErase
 892 0088 AFF30080 		.section	.rodata.spi1cfg,"a",%progbits
 892      AFF30080 
 893              		.align	2
 894              		.set	.LANCHOR0,. + 0
 895              		.type	spi1cfg, %object
 896              		.size	spi1cfg, 12
 897              	spi1cfg:
 898 0000 00000000 		.word	0
 899 0004 00000240 		.word	1073872896
 900 0008 0F00     		.short	15
 901 000a 0000     		.short	0
 902              		.text
 903              	.Letext0:
 904              		.file 2 "/home/mitchd/Documents/FOX-1/amsat-fox/x86_64-toolchain/arm/bin/../lib/gcc/arm-none-eabi/
 905              		.file 3 "/home/mitchd/Documents/FOX-1/amsat-fox/x86_64-toolchain/arm/bin/../lib/gcc/arm-none-eabi/
ARM GAS  /tmp/ccjPgi6s.s 			page 17


 906              		.file 4 "./os/ports/GCC/ARMCMx/chtypes.h"
 907              		.file 5 "./os/kernel/include/chlists.h"
 908              		.file 6 "./os/kernel/include/chthreads.h"
 909              		.file 7 "./os/ports/GCC/ARMCMx/chcore_v7m.h"
 910              		.file 8 "./os/kernel/include/chmtx.h"
 911              		.file 9 "./os/hal/platforms/STM32L1xx/stm32l1xx.h"
 912              		.file 10 "./os/hal/platforms/STM32L1xx/stm32_dma.h"
 913              		.file 11 "./os/hal/platforms/STM32/GPIOv2/pal_lld.h"
 914              		.file 12 "./os/hal/include/spi.h"
 915              		.file 13 "./os/hal/platforms/STM32/spi_lld.h"
 916              		.file 14 "./os/ports/common/ARMCMx/CMSIS/include/core_cm3.h"
 917              		.section	.debug_info,"",%progbits
 918              	.Ldebug_info0:
 919 0000 D6110000 		.4byte	0x11d6
 920 0004 0200     		.2byte	0x2
 921 0006 00000000 		.4byte	.Ldebug_abbrev0
 922 000a 04       		.byte	0x4
 923 000b 01       		.uleb128 0x1
 924 000c 19010000 		.4byte	.LASF136
 925 0010 01       		.byte	0x1
 926 0011 A1010000 		.4byte	.LASF137
 927 0015 EB020000 		.4byte	.LASF138
 928 0019 00000000 		.4byte	.Ldebug_ranges0+0
 929 001d 00000000 		.4byte	0
 930 0021 00000000 		.4byte	0
 931 0025 00000000 		.4byte	.Ldebug_line0
 932 0029 02       		.uleb128 0x2
 933 002a 04       		.byte	0x4
 934 002b 05       		.byte	0x5
 935 002c 696E7400 		.ascii	"int\000"
 936 0030 03       		.uleb128 0x3
 937 0031 CC010000 		.4byte	.LASF2
 938 0035 02       		.byte	0x2
 939 0036 D5       		.byte	0xd5
 940 0037 3B000000 		.4byte	0x3b
 941 003b 04       		.uleb128 0x4
 942 003c 04       		.byte	0x4
 943 003d 07       		.byte	0x7
 944 003e 5E000000 		.4byte	.LASF0
 945 0042 04       		.uleb128 0x4
 946 0043 01       		.byte	0x1
 947 0044 06       		.byte	0x6
 948 0045 14050000 		.4byte	.LASF1
 949 0049 03       		.uleb128 0x3
 950 004a 9B020000 		.4byte	.LASF3
 951 004e 03       		.byte	0x3
 952 004f 2A       		.byte	0x2a
 953 0050 54000000 		.4byte	0x54
 954 0054 04       		.uleb128 0x4
 955 0055 01       		.byte	0x1
 956 0056 08       		.byte	0x8
 957 0057 A1040000 		.4byte	.LASF4
 958 005b 04       		.uleb128 0x4
 959 005c 02       		.byte	0x2
 960 005d 05       		.byte	0x5
 961 005e E5030000 		.4byte	.LASF5
 962 0062 03       		.uleb128 0x3
ARM GAS  /tmp/ccjPgi6s.s 			page 18


 963 0063 6E030000 		.4byte	.LASF6
 964 0067 03       		.byte	0x3
 965 0068 36       		.byte	0x36
 966 0069 6D000000 		.4byte	0x6d
 967 006d 04       		.uleb128 0x4
 968 006e 02       		.byte	0x2
 969 006f 07       		.byte	0x7
 970 0070 20050000 		.4byte	.LASF7
 971 0074 03       		.uleb128 0x3
 972 0075 8C040000 		.4byte	.LASF8
 973 0079 03       		.byte	0x3
 974 007a 4F       		.byte	0x4f
 975 007b 7F000000 		.4byte	0x7f
 976 007f 04       		.uleb128 0x4
 977 0080 04       		.byte	0x4
 978 0081 05       		.byte	0x5
 979 0082 02040000 		.4byte	.LASF9
 980 0086 03       		.uleb128 0x3
 981 0087 04010000 		.4byte	.LASF10
 982 008b 03       		.byte	0x3
 983 008c 50       		.byte	0x50
 984 008d 91000000 		.4byte	0x91
 985 0091 04       		.uleb128 0x4
 986 0092 04       		.byte	0x4
 987 0093 07       		.byte	0x7
 988 0094 71040000 		.4byte	.LASF11
 989 0098 04       		.uleb128 0x4
 990 0099 08       		.byte	0x8
 991 009a 05       		.byte	0x5
 992 009b BB020000 		.4byte	.LASF12
 993 009f 04       		.uleb128 0x4
 994 00a0 08       		.byte	0x8
 995 00a1 07       		.byte	0x7
 996 00a2 45010000 		.4byte	.LASF13
 997 00a6 03       		.uleb128 0x3
 998 00a7 5E030000 		.4byte	.LASF14
 999 00ab 04       		.byte	0x4
 1000 00ac 2F       		.byte	0x2f
 1001 00ad 49000000 		.4byte	0x49
 1002 00b1 03       		.uleb128 0x3
 1003 00b2 58020000 		.4byte	.LASF15
 1004 00b6 04       		.byte	0x4
 1005 00b7 30       		.byte	0x30
 1006 00b8 49000000 		.4byte	0x49
 1007 00bc 03       		.uleb128 0x3
 1008 00bd 69040000 		.4byte	.LASF16
 1009 00c1 04       		.byte	0x4
 1010 00c2 31       		.byte	0x31
 1011 00c3 49000000 		.4byte	0x49
 1012 00c7 03       		.uleb128 0x3
 1013 00c8 2B010000 		.4byte	.LASF17
 1014 00cc 04       		.byte	0x4
 1015 00cd 32       		.byte	0x32
 1016 00ce 86000000 		.4byte	0x86
 1017 00d2 03       		.uleb128 0x3
 1018 00d3 E5020000 		.4byte	.LASF18
 1019 00d7 04       		.byte	0x4
ARM GAS  /tmp/ccjPgi6s.s 			page 19


 1020 00d8 33       		.byte	0x33
 1021 00d9 74000000 		.4byte	0x74
 1022 00dd 03       		.uleb128 0x3
 1023 00de 0D010000 		.4byte	.LASF19
 1024 00e2 04       		.byte	0x4
 1025 00e3 35       		.byte	0x35
 1026 00e4 86000000 		.4byte	0x86
 1027 00e8 03       		.uleb128 0x3
 1028 00e9 32000000 		.4byte	.LASF20
 1029 00ed 04       		.byte	0x4
 1030 00ee 36       		.byte	0x36
 1031 00ef 86000000 		.4byte	0x86
 1032 00f3 03       		.uleb128 0x3
 1033 00f4 43020000 		.4byte	.LASF21
 1034 00f8 05       		.byte	0x5
 1035 00f9 2A       		.byte	0x2a
 1036 00fa FE000000 		.4byte	0xfe
 1037 00fe 05       		.uleb128 0x5
 1038 00ff 43020000 		.4byte	.LASF21
 1039 0103 48       		.byte	0x48
 1040 0104 06       		.byte	0x6
 1041 0105 5E       		.byte	0x5e
 1042 0106 15020000 		.4byte	0x215
 1043 010a 06       		.uleb128 0x6
 1044 010b 2A040000 		.4byte	.LASF22
 1045 010f 06       		.byte	0x6
 1046 0110 5F       		.byte	0x5f
 1047 0111 3A020000 		.4byte	0x23a
 1048 0115 02       		.byte	0x2
 1049 0116 23       		.byte	0x23
 1050 0117 00       		.uleb128 0
 1051 0118 06       		.uleb128 0x6
 1052 0119 59040000 		.4byte	.LASF23
 1053 011d 06       		.byte	0x6
 1054 011e 61       		.byte	0x61
 1055 011f 3A020000 		.4byte	0x23a
 1056 0123 02       		.byte	0x2
 1057 0124 23       		.byte	0x23
 1058 0125 04       		.uleb128 0x4
 1059 0126 06       		.uleb128 0x6
 1060 0127 2B000000 		.4byte	.LASF24
 1061 012b 06       		.byte	0x6
 1062 012c 63       		.byte	0x63
 1063 012d C7000000 		.4byte	0xc7
 1064 0131 02       		.byte	0x2
 1065 0132 23       		.byte	0x23
 1066 0133 08       		.uleb128 0x8
 1067 0134 06       		.uleb128 0x6
 1068 0135 31040000 		.4byte	.LASF25
 1069 0139 06       		.byte	0x6
 1070 013a 64       		.byte	0x64
 1071 013b 07030000 		.4byte	0x307
 1072 013f 02       		.byte	0x2
 1073 0140 23       		.byte	0x23
 1074 0141 0C       		.uleb128 0xc
 1075 0142 06       		.uleb128 0x6
 1076 0143 8E010000 		.4byte	.LASF26
ARM GAS  /tmp/ccjPgi6s.s 			page 20


 1077 0147 06       		.byte	0x6
 1078 0148 66       		.byte	0x66
 1079 0149 3A020000 		.4byte	0x23a
 1080 014d 02       		.byte	0x2
 1081 014e 23       		.byte	0x23
 1082 014f 10       		.uleb128 0x10
 1083 0150 06       		.uleb128 0x6
 1084 0151 79020000 		.4byte	.LASF27
 1085 0155 06       		.byte	0x6
 1086 0156 67       		.byte	0x67
 1087 0157 3A020000 		.4byte	0x23a
 1088 015b 02       		.byte	0x2
 1089 015c 23       		.byte	0x23
 1090 015d 14       		.uleb128 0x14
 1091 015e 06       		.uleb128 0x6
 1092 015f 19020000 		.4byte	.LASF28
 1093 0163 06       		.byte	0x6
 1094 0164 6E       		.byte	0x6e
 1095 0165 B8030000 		.4byte	0x3b8
 1096 0169 02       		.byte	0x2
 1097 016a 23       		.byte	0x23
 1098 016b 18       		.uleb128 0x18
 1099 016c 06       		.uleb128 0x6
 1100 016d 81020000 		.4byte	.LASF29
 1101 0171 06       		.byte	0x6
 1102 0172 79       		.byte	0x79
 1103 0173 B1000000 		.4byte	0xb1
 1104 0177 02       		.byte	0x2
 1105 0178 23       		.byte	0x23
 1106 0179 1C       		.uleb128 0x1c
 1107 017a 06       		.uleb128 0x6
 1108 017b 28030000 		.4byte	.LASF30
 1109 017f 06       		.byte	0x6
 1110 0180 7D       		.byte	0x7d
 1111 0181 A6000000 		.4byte	0xa6
 1112 0185 02       		.byte	0x2
 1113 0186 23       		.byte	0x23
 1114 0187 1D       		.uleb128 0x1d
 1115 0188 06       		.uleb128 0x6
 1116 0189 AF040000 		.4byte	.LASF31
 1117 018d 06       		.byte	0x6
 1118 018e 82       		.byte	0x82
 1119 018f BC000000 		.4byte	0xbc
 1120 0193 02       		.byte	0x2
 1121 0194 23       		.byte	0x23
 1122 0195 1E       		.uleb128 0x1e
 1123 0196 06       		.uleb128 0x6
 1124 0197 16000000 		.4byte	.LASF32
 1125 019b 06       		.byte	0x6
 1126 019c 89       		.byte	0x89
 1127 019d 36030000 		.4byte	0x336
 1128 01a1 02       		.byte	0x2
 1129 01a2 23       		.byte	0x23
 1130 01a3 20       		.uleb128 0x20
 1131 01a4 07       		.uleb128 0x7
 1132 01a5 705F7500 		.ascii	"p_u\000"
 1133 01a9 06       		.byte	0x6
ARM GAS  /tmp/ccjPgi6s.s 			page 21


 1134 01aa AE       		.byte	0xae
 1135 01ab 83030000 		.4byte	0x383
 1136 01af 02       		.byte	0x2
 1137 01b0 23       		.byte	0x23
 1138 01b1 24       		.uleb128 0x24
 1139 01b2 06       		.uleb128 0x6
 1140 01b3 0C000000 		.4byte	.LASF33
 1141 01b7 06       		.byte	0x6
 1142 01b8 B3       		.byte	0xb3
 1143 01b9 62020000 		.4byte	0x262
 1144 01bd 02       		.byte	0x2
 1145 01be 23       		.byte	0x23
 1146 01bf 28       		.uleb128 0x28
 1147 01c0 06       		.uleb128 0x6
 1148 01c1 53000000 		.4byte	.LASF34
 1149 01c5 06       		.byte	0x6
 1150 01c6 B9       		.byte	0xb9
 1151 01c7 40020000 		.4byte	0x240
 1152 01cb 02       		.byte	0x2
 1153 01cc 23       		.byte	0x23
 1154 01cd 2C       		.uleb128 0x2c
 1155 01ce 06       		.uleb128 0x6
 1156 01cf 58030000 		.4byte	.LASF35
 1157 01d3 06       		.byte	0x6
 1158 01d4 BD       		.byte	0xbd
 1159 01d5 D2000000 		.4byte	0xd2
 1160 01d9 02       		.byte	0x2
 1161 01da 23       		.byte	0x23
 1162 01db 34       		.uleb128 0x34
 1163 01dc 06       		.uleb128 0x6
 1164 01dd EF030000 		.4byte	.LASF36
 1165 01e1 06       		.byte	0x6
 1166 01e2 C3       		.byte	0xc3
 1167 01e3 DD000000 		.4byte	0xdd
 1168 01e7 02       		.byte	0x2
 1169 01e8 23       		.byte	0x23
 1170 01e9 38       		.uleb128 0x38
 1171 01ea 06       		.uleb128 0x6
 1172 01eb B1020000 		.4byte	.LASF37
 1173 01ef 06       		.byte	0x6
 1174 01f0 CA       		.byte	0xca
 1175 01f1 CA030000 		.4byte	0x3ca
 1176 01f5 02       		.byte	0x2
 1177 01f6 23       		.byte	0x23
 1178 01f7 3C       		.uleb128 0x3c
 1179 01f8 06       		.uleb128 0x6
 1180 01f9 9E030000 		.4byte	.LASF38
 1181 01fd 06       		.byte	0x6
 1182 01fe CE       		.byte	0xce
 1183 01ff C7000000 		.4byte	0xc7
 1184 0203 02       		.byte	0x2
 1185 0204 23       		.byte	0x23
 1186 0205 40       		.uleb128 0x40
 1187 0206 06       		.uleb128 0x6
 1188 0207 A9020000 		.4byte	.LASF39
 1189 020b 06       		.byte	0x6
 1190 020c D4       		.byte	0xd4
ARM GAS  /tmp/ccjPgi6s.s 			page 22


 1191 020d 78020000 		.4byte	0x278
 1192 0211 02       		.byte	0x2
 1193 0212 23       		.byte	0x23
 1194 0213 44       		.uleb128 0x44
 1195 0214 00       		.byte	0
 1196 0215 08       		.uleb128 0x8
 1197 0216 08       		.byte	0x8
 1198 0217 05       		.byte	0x5
 1199 0218 61       		.byte	0x61
 1200 0219 3A020000 		.4byte	0x23a
 1201 021d 06       		.uleb128 0x6
 1202 021e 2A040000 		.4byte	.LASF22
 1203 0222 05       		.byte	0x5
 1204 0223 62       		.byte	0x62
 1205 0224 3A020000 		.4byte	0x23a
 1206 0228 02       		.byte	0x2
 1207 0229 23       		.byte	0x23
 1208 022a 00       		.uleb128 0
 1209 022b 06       		.uleb128 0x6
 1210 022c 59040000 		.4byte	.LASF23
 1211 0230 05       		.byte	0x5
 1212 0231 64       		.byte	0x64
 1213 0232 3A020000 		.4byte	0x23a
 1214 0236 02       		.byte	0x2
 1215 0237 23       		.byte	0x23
 1216 0238 04       		.uleb128 0x4
 1217 0239 00       		.byte	0
 1218 023a 09       		.uleb128 0x9
 1219 023b 04       		.byte	0x4
 1220 023c F3000000 		.4byte	0xf3
 1221 0240 03       		.uleb128 0x3
 1222 0241 20020000 		.4byte	.LASF40
 1223 0245 05       		.byte	0x5
 1224 0246 66       		.byte	0x66
 1225 0247 15020000 		.4byte	0x215
 1226 024b 08       		.uleb128 0x8
 1227 024c 04       		.byte	0x4
 1228 024d 05       		.byte	0x5
 1229 024e 6B       		.byte	0x6b
 1230 024f 62020000 		.4byte	0x262
 1231 0253 06       		.uleb128 0x6
 1232 0254 2A040000 		.4byte	.LASF22
 1233 0258 05       		.byte	0x5
 1234 0259 6D       		.byte	0x6d
 1235 025a 3A020000 		.4byte	0x23a
 1236 025e 02       		.byte	0x2
 1237 025f 23       		.byte	0x23
 1238 0260 00       		.uleb128 0
 1239 0261 00       		.byte	0
 1240 0262 03       		.uleb128 0x3
 1241 0263 00000000 		.4byte	.LASF41
 1242 0267 05       		.byte	0x5
 1243 0268 70       		.byte	0x70
 1244 0269 4B020000 		.4byte	0x24b
 1245 026d 03       		.uleb128 0x3
 1246 026e 22000000 		.4byte	.LASF42
 1247 0272 07       		.byte	0x7
ARM GAS  /tmp/ccjPgi6s.s 			page 23


 1248 0273 D7       		.byte	0xd7
 1249 0274 78020000 		.4byte	0x278
 1250 0278 0A       		.uleb128 0xa
 1251 0279 04       		.byte	0x4
 1252 027a 05       		.uleb128 0x5
 1253 027b 77030000 		.4byte	.LASF43
 1254 027f 24       		.byte	0x24
 1255 0280 07       		.byte	0x7
 1256 0281 FE       		.byte	0xfe
 1257 0282 07030000 		.4byte	0x307
 1258 0286 0B       		.uleb128 0xb
 1259 0287 723400   		.ascii	"r4\000"
 1260 028a 07       		.byte	0x7
 1261 028b 1101     		.2byte	0x111
 1262 028d 6D020000 		.4byte	0x26d
 1263 0291 02       		.byte	0x2
 1264 0292 23       		.byte	0x23
 1265 0293 00       		.uleb128 0
 1266 0294 0B       		.uleb128 0xb
 1267 0295 723500   		.ascii	"r5\000"
 1268 0298 07       		.byte	0x7
 1269 0299 1201     		.2byte	0x112
 1270 029b 6D020000 		.4byte	0x26d
 1271 029f 02       		.byte	0x2
 1272 02a0 23       		.byte	0x23
 1273 02a1 04       		.uleb128 0x4
 1274 02a2 0B       		.uleb128 0xb
 1275 02a3 723600   		.ascii	"r6\000"
 1276 02a6 07       		.byte	0x7
 1277 02a7 1301     		.2byte	0x113
 1278 02a9 6D020000 		.4byte	0x26d
 1279 02ad 02       		.byte	0x2
 1280 02ae 23       		.byte	0x23
 1281 02af 08       		.uleb128 0x8
 1282 02b0 0B       		.uleb128 0xb
 1283 02b1 723700   		.ascii	"r7\000"
 1284 02b4 07       		.byte	0x7
 1285 02b5 1401     		.2byte	0x114
 1286 02b7 6D020000 		.4byte	0x26d
 1287 02bb 02       		.byte	0x2
 1288 02bc 23       		.byte	0x23
 1289 02bd 0C       		.uleb128 0xc
 1290 02be 0B       		.uleb128 0xb
 1291 02bf 723800   		.ascii	"r8\000"
 1292 02c2 07       		.byte	0x7
 1293 02c3 1501     		.2byte	0x115
 1294 02c5 6D020000 		.4byte	0x26d
 1295 02c9 02       		.byte	0x2
 1296 02ca 23       		.byte	0x23
 1297 02cb 10       		.uleb128 0x10
 1298 02cc 0B       		.uleb128 0xb
 1299 02cd 723900   		.ascii	"r9\000"
 1300 02d0 07       		.byte	0x7
 1301 02d1 1601     		.2byte	0x116
 1302 02d3 6D020000 		.4byte	0x26d
 1303 02d7 02       		.byte	0x2
 1304 02d8 23       		.byte	0x23
ARM GAS  /tmp/ccjPgi6s.s 			page 24


 1305 02d9 14       		.uleb128 0x14
 1306 02da 0B       		.uleb128 0xb
 1307 02db 72313000 		.ascii	"r10\000"
 1308 02df 07       		.byte	0x7
 1309 02e0 1701     		.2byte	0x117
 1310 02e2 6D020000 		.4byte	0x26d
 1311 02e6 02       		.byte	0x2
 1312 02e7 23       		.byte	0x23
 1313 02e8 18       		.uleb128 0x18
 1314 02e9 0B       		.uleb128 0xb
 1315 02ea 72313100 		.ascii	"r11\000"
 1316 02ee 07       		.byte	0x7
 1317 02ef 1801     		.2byte	0x118
 1318 02f1 6D020000 		.4byte	0x26d
 1319 02f5 02       		.byte	0x2
 1320 02f6 23       		.byte	0x23
 1321 02f7 1C       		.uleb128 0x1c
 1322 02f8 0B       		.uleb128 0xb
 1323 02f9 6C7200   		.ascii	"lr\000"
 1324 02fc 07       		.byte	0x7
 1325 02fd 1901     		.2byte	0x119
 1326 02ff 6D020000 		.4byte	0x26d
 1327 0303 02       		.byte	0x2
 1328 0304 23       		.byte	0x23
 1329 0305 20       		.uleb128 0x20
 1330 0306 00       		.byte	0
 1331 0307 0C       		.uleb128 0xc
 1332 0308 20030000 		.4byte	.LASF44
 1333 030c 04       		.byte	0x4
 1334 030d 07       		.byte	0x7
 1335 030e 2301     		.2byte	0x123
 1336 0310 24030000 		.4byte	0x324
 1337 0314 0B       		.uleb128 0xb
 1338 0315 72313300 		.ascii	"r13\000"
 1339 0319 07       		.byte	0x7
 1340 031a 2401     		.2byte	0x124
 1341 031c 24030000 		.4byte	0x324
 1342 0320 02       		.byte	0x2
 1343 0321 23       		.byte	0x23
 1344 0322 00       		.uleb128 0
 1345 0323 00       		.byte	0
 1346 0324 09       		.uleb128 0x9
 1347 0325 04       		.byte	0x4
 1348 0326 7A020000 		.4byte	0x27a
 1349 032a 0D       		.uleb128 0xd
 1350 032b 86000000 		.4byte	0x86
 1351 032f 04       		.uleb128 0x4
 1352 0330 04       		.byte	0x4
 1353 0331 07       		.byte	0x7
 1354 0332 60040000 		.4byte	.LASF45
 1355 0336 0D       		.uleb128 0xd
 1356 0337 E8000000 		.4byte	0xe8
 1357 033b 05       		.uleb128 0x5
 1358 033c FE010000 		.4byte	.LASF46
 1359 0340 10       		.byte	0x10
 1360 0341 08       		.byte	0x8
 1361 0342 2C       		.byte	0x2c
ARM GAS  /tmp/ccjPgi6s.s 			page 25


 1362 0343 72030000 		.4byte	0x372
 1363 0347 06       		.uleb128 0x6
 1364 0348 FA030000 		.4byte	.LASF47
 1365 034c 08       		.byte	0x8
 1366 034d 2D       		.byte	0x2d
 1367 034e 40020000 		.4byte	0x240
 1368 0352 02       		.byte	0x2
 1369 0353 23       		.byte	0x23
 1370 0354 00       		.uleb128 0
 1371 0355 06       		.uleb128 0x6
 1372 0356 4B000000 		.4byte	.LASF48
 1373 035a 08       		.byte	0x8
 1374 035b 2F       		.byte	0x2f
 1375 035c 3A020000 		.4byte	0x23a
 1376 0360 02       		.byte	0x2
 1377 0361 23       		.byte	0x23
 1378 0362 08       		.uleb128 0x8
 1379 0363 06       		.uleb128 0x6
 1380 0364 0D050000 		.4byte	.LASF49
 1381 0368 08       		.byte	0x8
 1382 0369 31       		.byte	0x31
 1383 036a 72030000 		.4byte	0x372
 1384 036e 02       		.byte	0x2
 1385 036f 23       		.byte	0x23
 1386 0370 0C       		.uleb128 0xc
 1387 0371 00       		.byte	0
 1388 0372 09       		.uleb128 0x9
 1389 0373 04       		.byte	0x4
 1390 0374 3B030000 		.4byte	0x33b
 1391 0378 03       		.uleb128 0x3
 1392 0379 FE010000 		.4byte	.LASF46
 1393 037d 08       		.byte	0x8
 1394 037e 33       		.byte	0x33
 1395 037f 3B030000 		.4byte	0x33b
 1396 0383 0E       		.uleb128 0xe
 1397 0384 04       		.byte	0x4
 1398 0385 06       		.byte	0x6
 1399 0386 90       		.byte	0x90
 1400 0387 B8030000 		.4byte	0x3b8
 1401 038b 0F       		.uleb128 0xf
 1402 038c D3010000 		.4byte	.LASF50
 1403 0390 06       		.byte	0x6
 1404 0391 97       		.byte	0x97
 1405 0392 D2000000 		.4byte	0xd2
 1406 0396 0F       		.uleb128 0xf
 1407 0397 57050000 		.4byte	.LASF51
 1408 039b 06       		.byte	0x6
 1409 039c 9E       		.byte	0x9e
 1410 039d D2000000 		.4byte	0xd2
 1411 03a1 0F       		.uleb128 0xf
 1412 03a2 96000000 		.4byte	.LASF52
 1413 03a6 06       		.byte	0x6
 1414 03a7 A5       		.byte	0xa5
 1415 03a8 78020000 		.4byte	0x278
 1416 03ac 0F       		.uleb128 0xf
 1417 03ad B9000000 		.4byte	.LASF53
 1418 03b1 06       		.byte	0x6
ARM GAS  /tmp/ccjPgi6s.s 			page 26


 1419 03b2 AC       		.byte	0xac
 1420 03b3 DD000000 		.4byte	0xdd
 1421 03b7 00       		.byte	0
 1422 03b8 09       		.uleb128 0x9
 1423 03b9 04       		.byte	0x4
 1424 03ba BE030000 		.4byte	0x3be
 1425 03be 10       		.uleb128 0x10
 1426 03bf C3030000 		.4byte	0x3c3
 1427 03c3 04       		.uleb128 0x4
 1428 03c4 01       		.byte	0x1
 1429 03c5 08       		.byte	0x8
 1430 03c6 2D020000 		.4byte	.LASF54
 1431 03ca 09       		.uleb128 0x9
 1432 03cb 04       		.byte	0x4
 1433 03cc 78030000 		.4byte	0x378
 1434 03d0 09       		.uleb128 0x9
 1435 03d1 04       		.byte	0x4
 1436 03d2 49000000 		.4byte	0x49
 1437 03d6 10       		.uleb128 0x10
 1438 03d7 49000000 		.4byte	0x49
 1439 03db 0D       		.uleb128 0xd
 1440 03dc 62000000 		.4byte	0x62
 1441 03e0 11       		.uleb128 0x11
 1442 03e1 10       		.byte	0x10
 1443 03e2 09       		.byte	0x9
 1444 03e3 6301     		.2byte	0x163
 1445 03e5 26040000 		.4byte	0x426
 1446 03e9 0B       		.uleb128 0xb
 1447 03ea 43435200 		.ascii	"CCR\000"
 1448 03ee 09       		.byte	0x9
 1449 03ef 6501     		.2byte	0x165
 1450 03f1 2A030000 		.4byte	0x32a
 1451 03f5 02       		.byte	0x2
 1452 03f6 23       		.byte	0x23
 1453 03f7 00       		.uleb128 0
 1454 03f8 12       		.uleb128 0x12
 1455 03f9 D8000000 		.4byte	.LASF55
 1456 03fd 09       		.byte	0x9
 1457 03fe 6601     		.2byte	0x166
 1458 0400 2A030000 		.4byte	0x32a
 1459 0404 02       		.byte	0x2
 1460 0405 23       		.byte	0x23
 1461 0406 04       		.uleb128 0x4
 1462 0407 12       		.uleb128 0x12
 1463 0408 9C010000 		.4byte	.LASF56
 1464 040c 09       		.byte	0x9
 1465 040d 6701     		.2byte	0x167
 1466 040f 2A030000 		.4byte	0x32a
 1467 0413 02       		.byte	0x2
 1468 0414 23       		.byte	0x23
 1469 0415 08       		.uleb128 0x8
 1470 0416 12       		.uleb128 0x12
 1471 0417 87000000 		.4byte	.LASF57
 1472 041b 09       		.byte	0x9
 1473 041c 6801     		.2byte	0x168
 1474 041e 2A030000 		.4byte	0x32a
 1475 0422 02       		.byte	0x2
ARM GAS  /tmp/ccjPgi6s.s 			page 27


 1476 0423 23       		.byte	0x23
 1477 0424 0C       		.uleb128 0xc
 1478 0425 00       		.byte	0
 1479 0426 13       		.uleb128 0x13
 1480 0427 A5000000 		.4byte	.LASF58
 1481 042b 09       		.byte	0x9
 1482 042c 6901     		.2byte	0x169
 1483 042e E0030000 		.4byte	0x3e0
 1484 0432 11       		.uleb128 0x11
 1485 0433 1C       		.byte	0x1c
 1486 0434 09       		.byte	0x9
 1487 0435 5502     		.2byte	0x255
 1488 0437 0C050000 		.4byte	0x50c
 1489 043b 0B       		.uleb128 0xb
 1490 043c 43523100 		.ascii	"CR1\000"
 1491 0440 09       		.byte	0x9
 1492 0441 5702     		.2byte	0x257
 1493 0443 DB030000 		.4byte	0x3db
 1494 0447 02       		.byte	0x2
 1495 0448 23       		.byte	0x23
 1496 0449 00       		.uleb128 0
 1497 044a 12       		.uleb128 0x12
 1498 044b 33050000 		.4byte	.LASF59
 1499 044f 09       		.byte	0x9
 1500 0450 5802     		.2byte	0x258
 1501 0452 62000000 		.4byte	0x62
 1502 0456 02       		.byte	0x2
 1503 0457 23       		.byte	0x23
 1504 0458 02       		.uleb128 0x2
 1505 0459 0B       		.uleb128 0xb
 1506 045a 43523200 		.ascii	"CR2\000"
 1507 045e 09       		.byte	0x9
 1508 045f 5902     		.2byte	0x259
 1509 0461 DB030000 		.4byte	0x3db
 1510 0465 02       		.byte	0x2
 1511 0466 23       		.byte	0x23
 1512 0467 04       		.uleb128 0x4
 1513 0468 12       		.uleb128 0x12
 1514 0469 A9030000 		.4byte	.LASF60
 1515 046d 09       		.byte	0x9
 1516 046e 5A02     		.2byte	0x25a
 1517 0470 62000000 		.4byte	0x62
 1518 0474 02       		.byte	0x2
 1519 0475 23       		.byte	0x23
 1520 0476 06       		.uleb128 0x6
 1521 0477 0B       		.uleb128 0xb
 1522 0478 535200   		.ascii	"SR\000"
 1523 047b 09       		.byte	0x9
 1524 047c 5B02     		.2byte	0x25b
 1525 047e DB030000 		.4byte	0x3db
 1526 0482 02       		.byte	0x2
 1527 0483 23       		.byte	0x23
 1528 0484 08       		.uleb128 0x8
 1529 0485 12       		.uleb128 0x12
 1530 0486 B3030000 		.4byte	.LASF61
 1531 048a 09       		.byte	0x9
 1532 048b 5C02     		.2byte	0x25c
ARM GAS  /tmp/ccjPgi6s.s 			page 28


 1533 048d 62000000 		.4byte	0x62
 1534 0491 02       		.byte	0x2
 1535 0492 23       		.byte	0x23
 1536 0493 0A       		.uleb128 0xa
 1537 0494 0B       		.uleb128 0xb
 1538 0495 445200   		.ascii	"DR\000"
 1539 0498 09       		.byte	0x9
 1540 0499 5D02     		.2byte	0x25d
 1541 049b DB030000 		.4byte	0x3db
 1542 049f 02       		.byte	0x2
 1543 04a0 23       		.byte	0x23
 1544 04a1 0C       		.uleb128 0xc
 1545 04a2 12       		.uleb128 0x12
 1546 04a3 BD030000 		.4byte	.LASF62
 1547 04a7 09       		.byte	0x9
 1548 04a8 5E02     		.2byte	0x25e
 1549 04aa 62000000 		.4byte	0x62
 1550 04ae 02       		.byte	0x2
 1551 04af 23       		.byte	0x23
 1552 04b0 0E       		.uleb128 0xe
 1553 04b1 12       		.uleb128 0x12
 1554 04b2 9B040000 		.4byte	.LASF63
 1555 04b6 09       		.byte	0x9
 1556 04b7 5F02     		.2byte	0x25f
 1557 04b9 DB030000 		.4byte	0x3db
 1558 04bd 02       		.byte	0x2
 1559 04be 23       		.byte	0x23
 1560 04bf 10       		.uleb128 0x10
 1561 04c0 12       		.uleb128 0x12
 1562 04c1 C7030000 		.4byte	.LASF64
 1563 04c5 09       		.byte	0x9
 1564 04c6 6002     		.2byte	0x260
 1565 04c8 62000000 		.4byte	0x62
 1566 04cc 02       		.byte	0x2
 1567 04cd 23       		.byte	0x23
 1568 04ce 12       		.uleb128 0x12
 1569 04cf 12       		.uleb128 0x12
 1570 04d0 80000000 		.4byte	.LASF65
 1571 04d4 09       		.byte	0x9
 1572 04d5 6102     		.2byte	0x261
 1573 04d7 DB030000 		.4byte	0x3db
 1574 04db 02       		.byte	0x2
 1575 04dc 23       		.byte	0x23
 1576 04dd 14       		.uleb128 0x14
 1577 04de 12       		.uleb128 0x12
 1578 04df D1030000 		.4byte	.LASF66
 1579 04e3 09       		.byte	0x9
 1580 04e4 6202     		.2byte	0x262
 1581 04e6 62000000 		.4byte	0x62
 1582 04ea 02       		.byte	0x2
 1583 04eb 23       		.byte	0x23
 1584 04ec 16       		.uleb128 0x16
 1585 04ed 12       		.uleb128 0x12
 1586 04ee F7010000 		.4byte	.LASF67
 1587 04f2 09       		.byte	0x9
 1588 04f3 6302     		.2byte	0x263
 1589 04f5 DB030000 		.4byte	0x3db
ARM GAS  /tmp/ccjPgi6s.s 			page 29


 1590 04f9 02       		.byte	0x2
 1591 04fa 23       		.byte	0x23
 1592 04fb 18       		.uleb128 0x18
 1593 04fc 12       		.uleb128 0x12
 1594 04fd DB030000 		.4byte	.LASF68
 1595 0501 09       		.byte	0x9
 1596 0502 6402     		.2byte	0x264
 1597 0504 62000000 		.4byte	0x62
 1598 0508 02       		.byte	0x2
 1599 0509 23       		.byte	0x23
 1600 050a 1A       		.uleb128 0x1a
 1601 050b 00       		.byte	0
 1602 050c 13       		.uleb128 0x13
 1603 050d D6040000 		.4byte	.LASF69
 1604 0511 09       		.byte	0x9
 1605 0512 6502     		.2byte	0x265
 1606 0514 32040000 		.4byte	0x432
 1607 0518 08       		.uleb128 0x8
 1608 0519 0C       		.byte	0xc
 1609 051a 0A       		.byte	0xa
 1610 051b B9       		.byte	0xb9
 1611 051c 67050000 		.4byte	0x567
 1612 0520 06       		.uleb128 0x6
 1613 0521 89030000 		.4byte	.LASF70
 1614 0525 0A       		.byte	0xa
 1615 0526 BA       		.byte	0xba
 1616 0527 67050000 		.4byte	0x567
 1617 052b 02       		.byte	0x2
 1618 052c 23       		.byte	0x23
 1619 052d 00       		.uleb128 0
 1620 052e 06       		.uleb128 0x6
 1621 052f 6B000000 		.4byte	.LASF71
 1622 0533 0A       		.byte	0xa
 1623 0534 BB       		.byte	0xbb
 1624 0535 6D050000 		.4byte	0x56d
 1625 0539 02       		.byte	0x2
 1626 053a 23       		.byte	0x23
 1627 053b 04       		.uleb128 0x4
 1628 053c 06       		.uleb128 0x6
 1629 053d 3C020000 		.4byte	.LASF72
 1630 0541 0A       		.byte	0xa
 1631 0542 BC       		.byte	0xbc
 1632 0543 49000000 		.4byte	0x49
 1633 0547 02       		.byte	0x2
 1634 0548 23       		.byte	0x23
 1635 0549 08       		.uleb128 0x8
 1636 054a 06       		.uleb128 0x6
 1637 054b 60050000 		.4byte	.LASF73
 1638 054f 0A       		.byte	0xa
 1639 0550 BE       		.byte	0xbe
 1640 0551 49000000 		.4byte	0x49
 1641 0555 02       		.byte	0x2
 1642 0556 23       		.byte	0x23
 1643 0557 09       		.uleb128 0x9
 1644 0558 06       		.uleb128 0x6
 1645 0559 66010000 		.4byte	.LASF74
 1646 055d 0A       		.byte	0xa
ARM GAS  /tmp/ccjPgi6s.s 			page 30


 1647 055e BF       		.byte	0xbf
 1648 055f 49000000 		.4byte	0x49
 1649 0563 02       		.byte	0x2
 1650 0564 23       		.byte	0x23
 1651 0565 0A       		.uleb128 0xa
 1652 0566 00       		.byte	0
 1653 0567 09       		.uleb128 0x9
 1654 0568 04       		.byte	0x4
 1655 0569 26040000 		.4byte	0x426
 1656 056d 09       		.uleb128 0x9
 1657 056e 04       		.byte	0x4
 1658 056f 2A030000 		.4byte	0x32a
 1659 0573 03       		.uleb128 0x3
 1660 0574 66020000 		.4byte	.LASF75
 1661 0578 0A       		.byte	0xa
 1662 0579 C0       		.byte	0xc0
 1663 057a 18050000 		.4byte	0x518
 1664 057e 08       		.uleb128 0x8
 1665 057f 04       		.byte	0x4
 1666 0580 0B       		.byte	0xb
 1667 0581 9D       		.byte	0x9d
 1668 0582 A3050000 		.4byte	0x5a3
 1669 0586 07       		.uleb128 0x7
 1670 0587 73657400 		.ascii	"set\000"
 1671 058b 0B       		.byte	0xb
 1672 058c 9E       		.byte	0x9e
 1673 058d 62000000 		.4byte	0x62
 1674 0591 02       		.byte	0x2
 1675 0592 23       		.byte	0x23
 1676 0593 00       		.uleb128 0
 1677 0594 06       		.uleb128 0x6
 1678 0595 96010000 		.4byte	.LASF76
 1679 0599 0B       		.byte	0xb
 1680 059a 9F       		.byte	0x9f
 1681 059b 62000000 		.4byte	0x62
 1682 059f 02       		.byte	0x2
 1683 05a0 23       		.byte	0x23
 1684 05a1 02       		.uleb128 0x2
 1685 05a2 00       		.byte	0
 1686 05a3 0E       		.uleb128 0xe
 1687 05a4 04       		.byte	0x4
 1688 05a5 0B       		.byte	0xb
 1689 05a6 9B       		.byte	0x9b
 1690 05a7 BE050000 		.4byte	0x5be
 1691 05ab 14       		.uleb128 0x14
 1692 05ac 5700     		.ascii	"W\000"
 1693 05ae 0B       		.byte	0xb
 1694 05af 9C       		.byte	0x9c
 1695 05b0 86000000 		.4byte	0x86
 1696 05b4 14       		.uleb128 0x14
 1697 05b5 4800     		.ascii	"H\000"
 1698 05b7 0B       		.byte	0xb
 1699 05b8 A0       		.byte	0xa0
 1700 05b9 7E050000 		.4byte	0x57e
 1701 05bd 00       		.byte	0
 1702 05be 08       		.uleb128 0x8
 1703 05bf 28       		.byte	0x28
ARM GAS  /tmp/ccjPgi6s.s 			page 31


 1704 05c0 0B       		.byte	0xb
 1705 05c1 93       		.byte	0x93
 1706 05c2 53060000 		.4byte	0x653
 1707 05c6 06       		.uleb128 0x6
 1708 05c7 77010000 		.4byte	.LASF77
 1709 05cb 0B       		.byte	0xb
 1710 05cc 95       		.byte	0x95
 1711 05cd 2A030000 		.4byte	0x32a
 1712 05d1 02       		.byte	0x2
 1713 05d2 23       		.byte	0x23
 1714 05d3 00       		.uleb128 0
 1715 05d4 06       		.uleb128 0x6
 1716 05d5 23040000 		.4byte	.LASF78
 1717 05d9 0B       		.byte	0xb
 1718 05da 96       		.byte	0x96
 1719 05db 2A030000 		.4byte	0x32a
 1720 05df 02       		.byte	0x2
 1721 05e0 23       		.byte	0x23
 1722 05e1 04       		.uleb128 0x4
 1723 05e2 06       		.uleb128 0x6
 1724 05e3 66030000 		.4byte	.LASF79
 1725 05e7 0B       		.byte	0xb
 1726 05e8 97       		.byte	0x97
 1727 05e9 2A030000 		.4byte	0x32a
 1728 05ed 02       		.byte	0x2
 1729 05ee 23       		.byte	0x23
 1730 05ef 08       		.uleb128 0x8
 1731 05f0 06       		.uleb128 0x6
 1732 05f1 13020000 		.4byte	.LASF80
 1733 05f5 0B       		.byte	0xb
 1734 05f6 98       		.byte	0x98
 1735 05f7 2A030000 		.4byte	0x32a
 1736 05fb 02       		.byte	0x2
 1737 05fc 23       		.byte	0x23
 1738 05fd 0C       		.uleb128 0xc
 1739 05fe 07       		.uleb128 0x7
 1740 05ff 49445200 		.ascii	"IDR\000"
 1741 0603 0B       		.byte	0xb
 1742 0604 99       		.byte	0x99
 1743 0605 2A030000 		.4byte	0x32a
 1744 0609 02       		.byte	0x2
 1745 060a 23       		.byte	0x23
 1746 060b 10       		.uleb128 0x10
 1747 060c 07       		.uleb128 0x7
 1748 060d 4F445200 		.ascii	"ODR\000"
 1749 0611 0B       		.byte	0xb
 1750 0612 9A       		.byte	0x9a
 1751 0613 2A030000 		.4byte	0x32a
 1752 0617 02       		.byte	0x2
 1753 0618 23       		.byte	0x23
 1754 0619 14       		.uleb128 0x14
 1755 061a 06       		.uleb128 0x6
 1756 061b 1D000000 		.4byte	.LASF81
 1757 061f 0B       		.byte	0xb
 1758 0620 A1       		.byte	0xa1
 1759 0621 53060000 		.4byte	0x653
 1760 0625 02       		.byte	0x2
ARM GAS  /tmp/ccjPgi6s.s 			page 32


 1761 0626 23       		.byte	0x23
 1762 0627 18       		.uleb128 0x18
 1763 0628 06       		.uleb128 0x6
 1764 0629 6A050000 		.4byte	.LASF82
 1765 062d 0B       		.byte	0xb
 1766 062e A2       		.byte	0xa2
 1767 062f 2A030000 		.4byte	0x32a
 1768 0633 02       		.byte	0x2
 1769 0634 23       		.byte	0x23
 1770 0635 1C       		.uleb128 0x1c
 1771 0636 06       		.uleb128 0x6
 1772 0637 89010000 		.4byte	.LASF83
 1773 063b 0B       		.byte	0xb
 1774 063c A3       		.byte	0xa3
 1775 063d 2A030000 		.4byte	0x32a
 1776 0641 02       		.byte	0x2
 1777 0642 23       		.byte	0x23
 1778 0643 20       		.uleb128 0x20
 1779 0644 06       		.uleb128 0x6
 1780 0645 84010000 		.4byte	.LASF84
 1781 0649 0B       		.byte	0xb
 1782 064a A4       		.byte	0xa4
 1783 064b 2A030000 		.4byte	0x32a
 1784 064f 02       		.byte	0x2
 1785 0650 23       		.byte	0x23
 1786 0651 24       		.uleb128 0x24
 1787 0652 00       		.byte	0
 1788 0653 0D       		.uleb128 0xd
 1789 0654 A3050000 		.4byte	0x5a3
 1790 0658 03       		.uleb128 0x3
 1791 0659 4C040000 		.4byte	.LASF85
 1792 065d 0B       		.byte	0xb
 1793 065e A5       		.byte	0xa5
 1794 065f BE050000 		.4byte	0x5be
 1795 0663 03       		.uleb128 0x3
 1796 0664 30030000 		.4byte	.LASF86
 1797 0668 0B       		.byte	0xb
 1798 0669 EF       		.byte	0xef
 1799 066a 86000000 		.4byte	0x86
 1800 066e 03       		.uleb128 0x3
 1801 066f 04050000 		.4byte	.LASF87
 1802 0673 0B       		.byte	0xb
 1803 0674 F4       		.byte	0xf4
 1804 0675 86000000 		.4byte	0x86
 1805 0679 03       		.uleb128 0x3
 1806 067a 41040000 		.4byte	.LASF88
 1807 067e 0B       		.byte	0xb
 1808 067f FC       		.byte	0xfc
 1809 0680 84060000 		.4byte	0x684
 1810 0684 09       		.uleb128 0x9
 1811 0685 04       		.byte	0x4
 1812 0686 58060000 		.4byte	0x658
 1813 068a 15       		.uleb128 0x15
 1814 068b 01       		.byte	0x1
 1815 068c 0C       		.byte	0xc
 1816 068d 55       		.byte	0x55
 1817 068e B1060000 		.4byte	0x6b1
ARM GAS  /tmp/ccjPgi6s.s 			page 33


 1818 0692 16       		.uleb128 0x16
 1819 0693 7E030000 		.4byte	.LASF89
 1820 0697 00       		.sleb128 0
 1821 0698 16       		.uleb128 0x16
 1822 0699 83040000 		.4byte	.LASF90
 1823 069d 01       		.sleb128 1
 1824 069e 16       		.uleb128 0x16
 1825 069f 37040000 		.4byte	.LASF91
 1826 06a3 02       		.sleb128 2
 1827 06a4 16       		.uleb128 0x16
 1828 06a5 3D030000 		.4byte	.LASF92
 1829 06a9 03       		.sleb128 3
 1830 06aa 16       		.uleb128 0x16
 1831 06ab 4A050000 		.4byte	.LASF93
 1832 06af 04       		.sleb128 4
 1833 06b0 00       		.byte	0
 1834 06b1 03       		.uleb128 0x3
 1835 06b2 0B040000 		.4byte	.LASF94
 1836 06b6 0C       		.byte	0xc
 1837 06b7 5B       		.byte	0x5b
 1838 06b8 8A060000 		.4byte	0x68a
 1839 06bc 13       		.uleb128 0x13
 1840 06bd CE000000 		.4byte	.LASF95
 1841 06c1 0D       		.byte	0xd
 1842 06c2 0701     		.2byte	0x107
 1843 06c4 C8060000 		.4byte	0x6c8
 1844 06c8 0C       		.uleb128 0xc
 1845 06c9 CE000000 		.4byte	.LASF95
 1846 06cd 30       		.byte	0x30
 1847 06ce 0D       		.byte	0xd
 1848 06cf 2B01     		.2byte	0x12b
 1849 06d1 5D070000 		.4byte	0x75d
 1850 06d5 12       		.uleb128 0x12
 1851 06d6 D0040000 		.4byte	.LASF96
 1852 06da 0D       		.byte	0xd
 1853 06db 2F01     		.2byte	0x12f
 1854 06dd B1060000 		.4byte	0x6b1
 1855 06e1 02       		.byte	0x2
 1856 06e2 23       		.byte	0x23
 1857 06e3 00       		.uleb128 0
 1858 06e4 12       		.uleb128 0x12
 1859 06e5 97030000 		.4byte	.LASF97
 1860 06e9 0D       		.byte	0xd
 1861 06ea 3301     		.2byte	0x133
 1862 06ec D3070000 		.4byte	0x7d3
 1863 06f0 02       		.byte	0x2
 1864 06f1 23       		.byte	0x23
 1865 06f2 04       		.uleb128 0x4
 1866 06f3 12       		.uleb128 0x12
 1867 06f4 94040000 		.4byte	.LASF98
 1868 06f8 0D       		.byte	0xd
 1869 06f9 3801     		.2byte	0x138
 1870 06fb 3A020000 		.4byte	0x23a
 1871 06ff 02       		.byte	0x2
 1872 0700 23       		.byte	0x23
 1873 0701 08       		.uleb128 0x8
 1874 0702 12       		.uleb128 0x12
ARM GAS  /tmp/ccjPgi6s.s 			page 34


 1875 0703 25010000 		.4byte	.LASF99
 1876 0707 0D       		.byte	0xd
 1877 0708 3F01     		.2byte	0x13f
 1878 070a 78030000 		.4byte	0x378
 1879 070e 02       		.byte	0x2
 1880 070f 23       		.byte	0x23
 1881 0710 0C       		.uleb128 0xc
 1882 0711 0B       		.uleb128 0xb
 1883 0712 73706900 		.ascii	"spi\000"
 1884 0716 0D       		.byte	0xd
 1885 0717 4B01     		.2byte	0x14b
 1886 0719 DE070000 		.4byte	0x7de
 1887 071d 02       		.byte	0x2
 1888 071e 23       		.byte	0x23
 1889 071f 1C       		.uleb128 0x1c
 1890 0720 12       		.uleb128 0x12
 1891 0721 A3020000 		.4byte	.LASF100
 1892 0725 0D       		.byte	0xd
 1893 0726 4F01     		.2byte	0x14f
 1894 0728 E4070000 		.4byte	0x7e4
 1895 072c 02       		.byte	0x2
 1896 072d 23       		.byte	0x23
 1897 072e 20       		.uleb128 0x20
 1898 072f 12       		.uleb128 0x12
 1899 0730 FE000000 		.4byte	.LASF101
 1900 0734 0D       		.byte	0xd
 1901 0735 5301     		.2byte	0x153
 1902 0737 E4070000 		.4byte	0x7e4
 1903 073b 02       		.byte	0x2
 1904 073c 23       		.byte	0x23
 1905 073d 24       		.uleb128 0x24
 1906 073e 12       		.uleb128 0x12
 1907 073f B6040000 		.4byte	.LASF102
 1908 0743 0D       		.byte	0xd
 1909 0744 5701     		.2byte	0x157
 1910 0746 86000000 		.4byte	0x86
 1911 074a 02       		.byte	0x2
 1912 074b 23       		.byte	0x23
 1913 074c 28       		.uleb128 0x28
 1914 074d 12       		.uleb128 0x12
 1915 074e 32020000 		.4byte	.LASF103
 1916 0752 0D       		.byte	0xd
 1917 0753 5B01     		.2byte	0x15b
 1918 0755 86000000 		.4byte	0x86
 1919 0759 02       		.byte	0x2
 1920 075a 23       		.byte	0x23
 1921 075b 2C       		.uleb128 0x2c
 1922 075c 00       		.byte	0
 1923 075d 13       		.uleb128 0x13
 1924 075e C9020000 		.4byte	.LASF104
 1925 0762 0D       		.byte	0xd
 1926 0763 0F01     		.2byte	0x10f
 1927 0765 69070000 		.4byte	0x769
 1928 0769 09       		.uleb128 0x9
 1929 076a 04       		.byte	0x4
 1930 076b 6F070000 		.4byte	0x76f
 1931 076f 17       		.uleb128 0x17
ARM GAS  /tmp/ccjPgi6s.s 			page 35


 1932 0770 01       		.byte	0x1
 1933 0771 7B070000 		.4byte	0x77b
 1934 0775 18       		.uleb128 0x18
 1935 0776 7B070000 		.4byte	0x77b
 1936 077a 00       		.byte	0
 1937 077b 09       		.uleb128 0x9
 1938 077c 04       		.byte	0x4
 1939 077d BC060000 		.4byte	0x6bc
 1940 0781 11       		.uleb128 0x11
 1941 0782 0C       		.byte	0xc
 1942 0783 0D       		.byte	0xd
 1943 0784 1401     		.2byte	0x114
 1944 0786 C7070000 		.4byte	0x7c7
 1945 078a 12       		.uleb128 0x12
 1946 078b 3E010000 		.4byte	.LASF105
 1947 078f 0D       		.byte	0xd
 1948 0790 1801     		.2byte	0x118
 1949 0792 5D070000 		.4byte	0x75d
 1950 0796 02       		.byte	0x2
 1951 0797 23       		.byte	0x23
 1952 0798 00       		.uleb128 0
 1953 0799 12       		.uleb128 0x12
 1954 079a 7D010000 		.4byte	.LASF106
 1955 079e 0D       		.byte	0xd
 1956 079f 1D01     		.2byte	0x11d
 1957 07a1 79060000 		.4byte	0x679
 1958 07a5 02       		.byte	0x2
 1959 07a6 23       		.byte	0x23
 1960 07a7 04       		.uleb128 0x4
 1961 07a8 12       		.uleb128 0x12
 1962 07a9 6F050000 		.4byte	.LASF107
 1963 07ad 0D       		.byte	0xd
 1964 07ae 2101     		.2byte	0x121
 1965 07b0 62000000 		.4byte	0x62
 1966 07b4 02       		.byte	0x2
 1967 07b5 23       		.byte	0x23
 1968 07b6 08       		.uleb128 0x8
 1969 07b7 0B       		.uleb128 0xb
 1970 07b8 63723100 		.ascii	"cr1\000"
 1971 07bc 0D       		.byte	0xd
 1972 07bd 2501     		.2byte	0x125
 1973 07bf 62000000 		.4byte	0x62
 1974 07c3 02       		.byte	0x2
 1975 07c4 23       		.byte	0x23
 1976 07c5 0A       		.uleb128 0xa
 1977 07c6 00       		.byte	0
 1978 07c7 13       		.uleb128 0x13
 1979 07c8 ED010000 		.4byte	.LASF108
 1980 07cc 0D       		.byte	0xd
 1981 07cd 2601     		.2byte	0x126
 1982 07cf 81070000 		.4byte	0x781
 1983 07d3 09       		.uleb128 0x9
 1984 07d4 04       		.byte	0x4
 1985 07d5 D9070000 		.4byte	0x7d9
 1986 07d9 10       		.uleb128 0x10
 1987 07da C7070000 		.4byte	0x7c7
 1988 07de 09       		.uleb128 0x9
ARM GAS  /tmp/ccjPgi6s.s 			page 36


 1989 07df 04       		.byte	0x4
 1990 07e0 0C050000 		.4byte	0x50c
 1991 07e4 09       		.uleb128 0x9
 1992 07e5 04       		.byte	0x4
 1993 07e6 EA070000 		.4byte	0x7ea
 1994 07ea 10       		.uleb128 0x10
 1995 07eb 73050000 		.4byte	0x573
 1996 07ef 19       		.uleb128 0x19
 1997 07f0 DA010000 		.4byte	.LASF139
 1998 07f4 01       		.byte	0x1
 1999 07f5 31       		.byte	0x31
 2000 07f6 01       		.byte	0x1
 2001 07f7 00000000 		.4byte	.LFB62
 2002 07fb 44000000 		.4byte	.LFE62
 2003 07ff 00000000 		.4byte	.LLST0
 2004 0803 01       		.byte	0x1
 2005 0804 6A080000 		.4byte	0x86a
 2006 0808 1A       		.uleb128 0x1a
 2007 0809 5C010000 		.4byte	.LASF109
 2008 080d 01       		.byte	0x1
 2009 080e 32       		.byte	0x32
 2010 080f 49000000 		.4byte	0x49
 2011 0813 02       		.byte	0x2
 2012 0814 72       		.byte	0x72
 2013 0815 7E       		.sleb128 -2
 2014 0816 1B       		.uleb128 0x1b
 2015 0817 3D050000 		.4byte	.LASF110
 2016 081b 01       		.byte	0x1
 2017 081c 33       		.byte	0x33
 2018 081d 49000000 		.4byte	0x49
 2019 0821 2C000000 		.4byte	.LLST1
 2020 0825 1C       		.uleb128 0x1c
 2021 0826 10000000 		.4byte	.LVL1
 2022 082a 0B110000 		.4byte	0x110b
 2023 082e 1D       		.uleb128 0x1d
 2024 082f 20000000 		.4byte	.LVL3
 2025 0833 20110000 		.4byte	0x1120
 2026 0837 47080000 		.4byte	0x847
 2027 083b 1E       		.uleb128 0x1e
 2028 083c 01       		.byte	0x1
 2029 083d 52       		.byte	0x52
 2030 083e 02       		.byte	0x2
 2031 083f 91       		.byte	0x91
 2032 0840 76       		.sleb128 -10
 2033 0841 1E       		.uleb128 0x1e
 2034 0842 01       		.byte	0x1
 2035 0843 51       		.byte	0x51
 2036 0844 01       		.byte	0x1
 2037 0845 31       		.byte	0x31
 2038 0846 00       		.byte	0
 2039 0847 1D       		.uleb128 0x1d
 2040 0848 2C000000 		.4byte	.LVL4
 2041 084c 46110000 		.4byte	0x1146
 2042 0850 60080000 		.4byte	0x860
 2043 0854 1E       		.uleb128 0x1e
 2044 0855 01       		.byte	0x1
 2045 0856 52       		.byte	0x52
ARM GAS  /tmp/ccjPgi6s.s 			page 37


 2046 0857 02       		.byte	0x2
 2047 0858 91       		.byte	0x91
 2048 0859 77       		.sleb128 -9
 2049 085a 1E       		.uleb128 0x1e
 2050 085b 01       		.byte	0x1
 2051 085c 51       		.byte	0x51
 2052 085d 01       		.byte	0x1
 2053 085e 31       		.byte	0x31
 2054 085f 00       		.byte	0
 2055 0860 1C       		.uleb128 0x1c
 2056 0861 3A000000 		.4byte	.LVL7
 2057 0865 65110000 		.4byte	0x1165
 2058 0869 00       		.byte	0
 2059 086a 1F       		.uleb128 0x1f
 2060 086b 01       		.byte	0x1
 2061 086c 89020000 		.4byte	.LASF112
 2062 0870 01       		.byte	0x1
 2063 0871 41       		.byte	0x41
 2064 0872 01       		.byte	0x1
 2065 0873 00000000 		.4byte	.LFB63
 2066 0877 CA000000 		.4byte	.LFE63
 2067 087b 40000000 		.4byte	.LLST2
 2068 087f 01       		.byte	0x1
 2069 0880 270A0000 		.4byte	0xa27
 2070 0884 1B       		.uleb128 0x1b
 2071 0885 DE000000 		.4byte	.LASF111
 2072 0889 01       		.byte	0x1
 2073 088a 58       		.byte	0x58
 2074 088b 49000000 		.4byte	0x49
 2075 088f 6C000000 		.4byte	.LLST3
 2076 0893 1D       		.uleb128 0x1d
 2077 0894 1A000000 		.4byte	.LVL8
 2078 0898 7A110000 		.4byte	0x117a
 2079 089c B0080000 		.4byte	0x8b0
 2080 08a0 1E       		.uleb128 0x1e
 2081 08a1 01       		.byte	0x1
 2082 08a2 51       		.byte	0x51
 2083 08a3 05       		.byte	0x5
 2084 08a4 03       		.byte	0x3
 2085 08a5 00000000 		.4byte	.LANCHOR0
 2086 08a9 1E       		.uleb128 0x1e
 2087 08aa 01       		.byte	0x1
 2088 08ab 50       		.byte	0x50
 2089 08ac 02       		.byte	0x2
 2090 08ad 74       		.byte	0x74
 2091 08ae 00       		.sleb128 0
 2092 08af 00       		.byte	0
 2093 08b0 1D       		.uleb128 0x1d
 2094 08b1 38000000 		.4byte	.LVL9
 2095 08b5 94110000 		.4byte	0x1194
 2096 08b9 C9080000 		.4byte	0x8c9
 2097 08bd 1E       		.uleb128 0x1e
 2098 08be 01       		.byte	0x1
 2099 08bf 52       		.byte	0x52
 2100 08c0 01       		.byte	0x1
 2101 08c1 49       		.byte	0x49
 2102 08c2 1E       		.uleb128 0x1e
ARM GAS  /tmp/ccjPgi6s.s 			page 38


 2103 08c3 01       		.byte	0x1
 2104 08c4 51       		.byte	0x51
 2105 08c5 02       		.byte	0x2
 2106 08c6 76       		.byte	0x76
 2107 08c7 00       		.sleb128 0
 2108 08c8 00       		.byte	0
 2109 08c9 1D       		.uleb128 0x1d
 2110 08ca 44000000 		.4byte	.LVL10
 2111 08ce 94110000 		.4byte	0x1194
 2112 08d2 E9080000 		.4byte	0x8e9
 2113 08d6 1E       		.uleb128 0x1e
 2114 08d7 01       		.byte	0x1
 2115 08d8 52       		.byte	0x52
 2116 08d9 03       		.byte	0x3
 2117 08da 0A       		.byte	0xa
 2118 08db 9A02     		.2byte	0x29a
 2119 08dd 1E       		.uleb128 0x1e
 2120 08de 01       		.byte	0x1
 2121 08df 51       		.byte	0x51
 2122 08e0 01       		.byte	0x1
 2123 08e1 38       		.byte	0x38
 2124 08e2 1E       		.uleb128 0x1e
 2125 08e3 01       		.byte	0x1
 2126 08e4 50       		.byte	0x50
 2127 08e5 02       		.byte	0x2
 2128 08e6 75       		.byte	0x75
 2129 08e7 00       		.sleb128 0
 2130 08e8 00       		.byte	0
 2131 08e9 1D       		.uleb128 0x1d
 2132 08ea 50000000 		.4byte	.LVL11
 2133 08ee 94110000 		.4byte	0x1194
 2134 08f2 09090000 		.4byte	0x909
 2135 08f6 1E       		.uleb128 0x1e
 2136 08f7 01       		.byte	0x1
 2137 08f8 52       		.byte	0x52
 2138 08f9 03       		.byte	0x3
 2139 08fa 0A       		.byte	0xa
 2140 08fb 8202     		.2byte	0x282
 2141 08fd 1E       		.uleb128 0x1e
 2142 08fe 01       		.byte	0x1
 2143 08ff 51       		.byte	0x51
 2144 0900 01       		.byte	0x1
 2145 0901 40       		.byte	0x40
 2146 0902 1E       		.uleb128 0x1e
 2147 0903 01       		.byte	0x1
 2148 0904 50       		.byte	0x50
 2149 0905 02       		.byte	0x2
 2150 0906 75       		.byte	0x75
 2151 0907 00       		.sleb128 0
 2152 0908 00       		.byte	0
 2153 0909 1D       		.uleb128 0x1d
 2154 090a 5C000000 		.4byte	.LVL12
 2155 090e 94110000 		.4byte	0x1194
 2156 0912 2A090000 		.4byte	0x92a
 2157 0916 1E       		.uleb128 0x1e
 2158 0917 01       		.byte	0x1
 2159 0918 52       		.byte	0x52
ARM GAS  /tmp/ccjPgi6s.s 			page 39


 2160 0919 03       		.byte	0x3
 2161 091a 0A       		.byte	0xa
 2162 091b 9A02     		.2byte	0x29a
 2163 091d 1E       		.uleb128 0x1e
 2164 091e 01       		.byte	0x1
 2165 091f 51       		.byte	0x51
 2166 0920 02       		.byte	0x2
 2167 0921 08       		.byte	0x8
 2168 0922 20       		.byte	0x20
 2169 0923 1E       		.uleb128 0x1e
 2170 0924 01       		.byte	0x1
 2171 0925 50       		.byte	0x50
 2172 0926 02       		.byte	0x2
 2173 0927 75       		.byte	0x75
 2174 0928 00       		.sleb128 0
 2175 0929 00       		.byte	0
 2176 092a 1D       		.uleb128 0x1d
 2177 092b 6A000000 		.4byte	.LVL14
 2178 092f B3110000 		.4byte	0x11b3
 2179 0933 3E090000 		.4byte	0x93e
 2180 0937 1E       		.uleb128 0x1e
 2181 0938 01       		.byte	0x1
 2182 0939 50       		.byte	0x50
 2183 093a 02       		.byte	0x2
 2184 093b 74       		.byte	0x74
 2185 093c 00       		.sleb128 0
 2186 093d 00       		.byte	0
 2187 093e 1D       		.uleb128 0x1d
 2188 093f 70000000 		.4byte	.LVL15
 2189 0943 0B110000 		.4byte	0x110b
 2190 0947 52090000 		.4byte	0x952
 2191 094b 1E       		.uleb128 0x1e
 2192 094c 01       		.byte	0x1
 2193 094d 50       		.byte	0x50
 2194 094e 02       		.byte	0x2
 2195 094f 74       		.byte	0x74
 2196 0950 00       		.sleb128 0
 2197 0951 00       		.byte	0
 2198 0952 1D       		.uleb128 0x1d
 2199 0953 7A000000 		.4byte	.LVL16
 2200 0957 20110000 		.4byte	0x1120
 2201 095b 71090000 		.4byte	0x971
 2202 095f 1E       		.uleb128 0x1e
 2203 0960 01       		.byte	0x1
 2204 0961 52       		.byte	0x52
 2205 0962 02       		.byte	0x2
 2206 0963 75       		.byte	0x75
 2207 0964 00       		.sleb128 0
 2208 0965 1E       		.uleb128 0x1e
 2209 0966 01       		.byte	0x1
 2210 0967 51       		.byte	0x51
 2211 0968 01       		.byte	0x1
 2212 0969 31       		.byte	0x31
 2213 096a 1E       		.uleb128 0x1e
 2214 096b 01       		.byte	0x1
 2215 096c 50       		.byte	0x50
 2216 096d 02       		.byte	0x2
ARM GAS  /tmp/ccjPgi6s.s 			page 40


 2217 096e 74       		.byte	0x74
 2218 096f 00       		.sleb128 0
 2219 0970 00       		.byte	0
 2220 0971 1D       		.uleb128 0x1d
 2221 0972 80000000 		.4byte	.LVL17
 2222 0976 65110000 		.4byte	0x1165
 2223 097a 85090000 		.4byte	0x985
 2224 097e 1E       		.uleb128 0x1e
 2225 097f 01       		.byte	0x1
 2226 0980 50       		.byte	0x50
 2227 0981 02       		.byte	0x2
 2228 0982 74       		.byte	0x74
 2229 0983 00       		.sleb128 0
 2230 0984 00       		.byte	0
 2231 0985 1D       		.uleb128 0x1d
 2232 0986 8C000000 		.4byte	.LVL19
 2233 098a 0B110000 		.4byte	0x110b
 2234 098e 99090000 		.4byte	0x999
 2235 0992 1E       		.uleb128 0x1e
 2236 0993 01       		.byte	0x1
 2237 0994 50       		.byte	0x50
 2238 0995 02       		.byte	0x2
 2239 0996 74       		.byte	0x74
 2240 0997 00       		.sleb128 0
 2241 0998 00       		.byte	0
 2242 0999 1D       		.uleb128 0x1d
 2243 099a 96000000 		.4byte	.LVL20
 2244 099e 20110000 		.4byte	0x1120
 2245 09a2 B9090000 		.4byte	0x9b9
 2246 09a6 1E       		.uleb128 0x1e
 2247 09a7 01       		.byte	0x1
 2248 09a8 52       		.byte	0x52
 2249 09a9 02       		.byte	0x2
 2250 09aa 75       		.byte	0x75
 2251 09ab 00       		.sleb128 0
 2252 09ac 1E       		.uleb128 0x1e
 2253 09ad 01       		.byte	0x1
 2254 09ae 51       		.byte	0x51
 2255 09af 02       		.byte	0x2
 2256 09b0 76       		.byte	0x76
 2257 09b1 00       		.sleb128 0
 2258 09b2 1E       		.uleb128 0x1e
 2259 09b3 01       		.byte	0x1
 2260 09b4 50       		.byte	0x50
 2261 09b5 02       		.byte	0x2
 2262 09b6 74       		.byte	0x74
 2263 09b7 00       		.sleb128 0
 2264 09b8 00       		.byte	0
 2265 09b9 1D       		.uleb128 0x1d
 2266 09ba A6000000 		.4byte	.LVL21
 2267 09be 20110000 		.4byte	0x1120
 2268 09c2 D9090000 		.4byte	0x9d9
 2269 09c6 1E       		.uleb128 0x1e
 2270 09c7 01       		.byte	0x1
 2271 09c8 52       		.byte	0x52
 2272 09c9 02       		.byte	0x2
 2273 09ca 75       		.byte	0x75
ARM GAS  /tmp/ccjPgi6s.s 			page 41


 2274 09cb 00       		.sleb128 0
 2275 09cc 1E       		.uleb128 0x1e
 2276 09cd 01       		.byte	0x1
 2277 09ce 51       		.byte	0x51
 2278 09cf 02       		.byte	0x2
 2279 09d0 76       		.byte	0x76
 2280 09d1 00       		.sleb128 0
 2281 09d2 1E       		.uleb128 0x1e
 2282 09d3 01       		.byte	0x1
 2283 09d4 50       		.byte	0x50
 2284 09d5 02       		.byte	0x2
 2285 09d6 74       		.byte	0x74
 2286 09d7 00       		.sleb128 0
 2287 09d8 00       		.byte	0
 2288 09d9 1D       		.uleb128 0x1d
 2289 09da B6000000 		.4byte	.LVL22
 2290 09de 20110000 		.4byte	0x1120
 2291 09e2 F9090000 		.4byte	0x9f9
 2292 09e6 1E       		.uleb128 0x1e
 2293 09e7 01       		.byte	0x1
 2294 09e8 52       		.byte	0x52
 2295 09e9 02       		.byte	0x2
 2296 09ea 75       		.byte	0x75
 2297 09eb 00       		.sleb128 0
 2298 09ec 1E       		.uleb128 0x1e
 2299 09ed 01       		.byte	0x1
 2300 09ee 51       		.byte	0x51
 2301 09ef 02       		.byte	0x2
 2302 09f0 76       		.byte	0x76
 2303 09f1 00       		.sleb128 0
 2304 09f2 1E       		.uleb128 0x1e
 2305 09f3 01       		.byte	0x1
 2306 09f4 50       		.byte	0x50
 2307 09f5 02       		.byte	0x2
 2308 09f6 74       		.byte	0x74
 2309 09f7 00       		.sleb128 0
 2310 09f8 00       		.byte	0
 2311 09f9 1D       		.uleb128 0x1d
 2312 09fa BC000000 		.4byte	.LVL23
 2313 09fe 65110000 		.4byte	0x1165
 2314 0a02 0D0A0000 		.4byte	0xa0d
 2315 0a06 1E       		.uleb128 0x1e
 2316 0a07 01       		.byte	0x1
 2317 0a08 50       		.byte	0x50
 2318 0a09 02       		.byte	0x2
 2319 0a0a 74       		.byte	0x74
 2320 0a0b 00       		.sleb128 0
 2321 0a0c 00       		.byte	0
 2322 0a0d 1C       		.uleb128 0x1c
 2323 0a0e C0000000 		.4byte	.LVL24
 2324 0a12 EF070000 		.4byte	0x7ef
 2325 0a16 20       		.uleb128 0x20
 2326 0a17 C6000000 		.4byte	.LVL25
 2327 0a1b C8110000 		.4byte	0x11c8
 2328 0a1f 1E       		.uleb128 0x1e
 2329 0a20 01       		.byte	0x1
 2330 0a21 50       		.byte	0x50
ARM GAS  /tmp/ccjPgi6s.s 			page 42


 2331 0a22 02       		.byte	0x2
 2332 0a23 74       		.byte	0x74
 2333 0a24 00       		.sleb128 0
 2334 0a25 00       		.byte	0
 2335 0a26 00       		.byte	0
 2336 0a27 1F       		.uleb128 0x1f
 2337 0a28 01       		.byte	0x1
 2338 0a29 04020000 		.4byte	.LASF113
 2339 0a2d 01       		.byte	0x1
 2340 0a2e 6F       		.byte	0x6f
 2341 0a2f 01       		.byte	0x1
 2342 0a30 00000000 		.4byte	.LFB64
 2343 0a34 8A000000 		.4byte	.LFE64
 2344 0a38 8C000000 		.4byte	.LLST4
 2345 0a3c 01       		.byte	0x1
 2346 0a3d 760B0000 		.4byte	0xb76
 2347 0a41 21       		.uleb128 0x21
 2348 0a42 CB040000 		.4byte	.LASF114
 2349 0a46 01       		.byte	0x1
 2350 0a47 6F       		.byte	0x6f
 2351 0a48 86000000 		.4byte	0x86
 2352 0a4c B8000000 		.4byte	.LLST5
 2353 0a50 21       		.uleb128 0x21
 2354 0a51 61020000 		.4byte	.LASF115
 2355 0a55 01       		.byte	0x1
 2356 0a56 6F       		.byte	0x6f
 2357 0a57 49000000 		.4byte	0x49
 2358 0a5b E4000000 		.4byte	.LLST6
 2359 0a5f 1A       		.uleb128 0x1a
 2360 0a60 33010000 		.4byte	.LASF116
 2361 0a64 01       		.byte	0x1
 2362 0a65 70       		.byte	0x70
 2363 0a66 760B0000 		.4byte	0xb76
 2364 0a6a 02       		.byte	0x2
 2365 0a6b 91       		.byte	0x91
 2366 0a6c 6C       		.sleb128 -20
 2367 0a6d 1B       		.uleb128 0x1b
 2368 0a6e 5C010000 		.4byte	.LASF109
 2369 0a72 01       		.byte	0x1
 2370 0a73 71       		.byte	0x71
 2371 0a74 49000000 		.4byte	0x49
 2372 0a78 03010000 		.4byte	.LLST7
 2373 0a7c 1D       		.uleb128 0x1d
 2374 0a7d 2E000000 		.4byte	.LVL28
 2375 0a81 B3110000 		.4byte	0x11b3
 2376 0a85 900A0000 		.4byte	0xa90
 2377 0a89 1E       		.uleb128 0x1e
 2378 0a8a 01       		.byte	0x1
 2379 0a8b 50       		.byte	0x50
 2380 0a8c 02       		.byte	0x2
 2381 0a8d 74       		.byte	0x74
 2382 0a8e 00       		.sleb128 0
 2383 0a8f 00       		.byte	0
 2384 0a90 1C       		.uleb128 0x1c
 2385 0a91 32000000 		.4byte	.LVL29
 2386 0a95 EF070000 		.4byte	0x7ef
 2387 0a99 1D       		.uleb128 0x1d
ARM GAS  /tmp/ccjPgi6s.s 			page 43


 2388 0a9a 3E000000 		.4byte	.LVL31
 2389 0a9e 0B110000 		.4byte	0x110b
 2390 0aa2 AD0A0000 		.4byte	0xaad
 2391 0aa6 1E       		.uleb128 0x1e
 2392 0aa7 01       		.byte	0x1
 2393 0aa8 50       		.byte	0x50
 2394 0aa9 02       		.byte	0x2
 2395 0aaa 74       		.byte	0x74
 2396 0aab 00       		.sleb128 0
 2397 0aac 00       		.byte	0
 2398 0aad 1D       		.uleb128 0x1d
 2399 0aae 48000000 		.4byte	.LVL32
 2400 0ab2 20110000 		.4byte	0x1120
 2401 0ab6 CC0A0000 		.4byte	0xacc
 2402 0aba 1E       		.uleb128 0x1e
 2403 0abb 01       		.byte	0x1
 2404 0abc 52       		.byte	0x52
 2405 0abd 02       		.byte	0x2
 2406 0abe 75       		.byte	0x75
 2407 0abf 00       		.sleb128 0
 2408 0ac0 1E       		.uleb128 0x1e
 2409 0ac1 01       		.byte	0x1
 2410 0ac2 51       		.byte	0x51
 2411 0ac3 01       		.byte	0x1
 2412 0ac4 31       		.byte	0x31
 2413 0ac5 1E       		.uleb128 0x1e
 2414 0ac6 01       		.byte	0x1
 2415 0ac7 50       		.byte	0x50
 2416 0ac8 02       		.byte	0x2
 2417 0ac9 74       		.byte	0x74
 2418 0aca 00       		.sleb128 0
 2419 0acb 00       		.byte	0
 2420 0acc 1D       		.uleb128 0x1d
 2421 0acd 4E000000 		.4byte	.LVL33
 2422 0ad1 65110000 		.4byte	0x1165
 2423 0ad5 E00A0000 		.4byte	0xae0
 2424 0ad9 1E       		.uleb128 0x1e
 2425 0ada 01       		.byte	0x1
 2426 0adb 50       		.byte	0x50
 2427 0adc 02       		.byte	0x2
 2428 0add 74       		.byte	0x74
 2429 0ade 00       		.sleb128 0
 2430 0adf 00       		.byte	0
 2431 0ae0 1D       		.uleb128 0x1d
 2432 0ae1 5A000000 		.4byte	.LVL35
 2433 0ae5 0B110000 		.4byte	0x110b
 2434 0ae9 F40A0000 		.4byte	0xaf4
 2435 0aed 1E       		.uleb128 0x1e
 2436 0aee 01       		.byte	0x1
 2437 0aef 50       		.byte	0x50
 2438 0af0 02       		.byte	0x2
 2439 0af1 74       		.byte	0x74
 2440 0af2 00       		.sleb128 0
 2441 0af3 00       		.byte	0
 2442 0af4 1D       		.uleb128 0x1d
 2443 0af5 64000000 		.4byte	.LVL36
 2444 0af9 20110000 		.4byte	0x1120
ARM GAS  /tmp/ccjPgi6s.s 			page 44


 2445 0afd 130B0000 		.4byte	0xb13
 2446 0b01 1E       		.uleb128 0x1e
 2447 0b02 01       		.byte	0x1
 2448 0b03 52       		.byte	0x52
 2449 0b04 02       		.byte	0x2
 2450 0b05 75       		.byte	0x75
 2451 0b06 00       		.sleb128 0
 2452 0b07 1E       		.uleb128 0x1e
 2453 0b08 01       		.byte	0x1
 2454 0b09 51       		.byte	0x51
 2455 0b0a 01       		.byte	0x1
 2456 0b0b 31       		.byte	0x31
 2457 0b0c 1E       		.uleb128 0x1e
 2458 0b0d 01       		.byte	0x1
 2459 0b0e 50       		.byte	0x50
 2460 0b0f 02       		.byte	0x2
 2461 0b10 74       		.byte	0x74
 2462 0b11 00       		.sleb128 0
 2463 0b12 00       		.byte	0
 2464 0b13 1D       		.uleb128 0x1d
 2465 0b14 6E000000 		.4byte	.LVL37
 2466 0b18 20110000 		.4byte	0x1120
 2467 0b1c 320B0000 		.4byte	0xb32
 2468 0b20 1E       		.uleb128 0x1e
 2469 0b21 01       		.byte	0x1
 2470 0b22 52       		.byte	0x52
 2471 0b23 02       		.byte	0x2
 2472 0b24 91       		.byte	0x91
 2473 0b25 6C       		.sleb128 -20
 2474 0b26 1E       		.uleb128 0x1e
 2475 0b27 01       		.byte	0x1
 2476 0b28 51       		.byte	0x51
 2477 0b29 01       		.byte	0x1
 2478 0b2a 33       		.byte	0x33
 2479 0b2b 1E       		.uleb128 0x1e
 2480 0b2c 01       		.byte	0x1
 2481 0b2d 50       		.byte	0x50
 2482 0b2e 02       		.byte	0x2
 2483 0b2f 74       		.byte	0x74
 2484 0b30 00       		.sleb128 0
 2485 0b31 00       		.byte	0
 2486 0b32 1D       		.uleb128 0x1d
 2487 0b33 7A000000 		.4byte	.LVL38
 2488 0b37 20110000 		.4byte	0x1120
 2489 0b3b 510B0000 		.4byte	0xb51
 2490 0b3f 1E       		.uleb128 0x1e
 2491 0b40 01       		.byte	0x1
 2492 0b41 52       		.byte	0x52
 2493 0b42 02       		.byte	0x2
 2494 0b43 91       		.byte	0x91
 2495 0b44 67       		.sleb128 -25
 2496 0b45 1E       		.uleb128 0x1e
 2497 0b46 01       		.byte	0x1
 2498 0b47 51       		.byte	0x51
 2499 0b48 01       		.byte	0x1
 2500 0b49 31       		.byte	0x31
 2501 0b4a 1E       		.uleb128 0x1e
ARM GAS  /tmp/ccjPgi6s.s 			page 45


 2502 0b4b 01       		.byte	0x1
 2503 0b4c 50       		.byte	0x50
 2504 0b4d 02       		.byte	0x2
 2505 0b4e 74       		.byte	0x74
 2506 0b4f 00       		.sleb128 0
 2507 0b50 00       		.byte	0
 2508 0b51 1D       		.uleb128 0x1d
 2509 0b52 80000000 		.4byte	.LVL39
 2510 0b56 65110000 		.4byte	0x1165
 2511 0b5a 650B0000 		.4byte	0xb65
 2512 0b5e 1E       		.uleb128 0x1e
 2513 0b5f 01       		.byte	0x1
 2514 0b60 50       		.byte	0x50
 2515 0b61 02       		.byte	0x2
 2516 0b62 74       		.byte	0x74
 2517 0b63 00       		.sleb128 0
 2518 0b64 00       		.byte	0
 2519 0b65 20       		.uleb128 0x20
 2520 0b66 86000000 		.4byte	.LVL40
 2521 0b6a C8110000 		.4byte	0x11c8
 2522 0b6e 1E       		.uleb128 0x1e
 2523 0b6f 01       		.byte	0x1
 2524 0b70 50       		.byte	0x50
 2525 0b71 02       		.byte	0x2
 2526 0b72 74       		.byte	0x74
 2527 0b73 00       		.sleb128 0
 2528 0b74 00       		.byte	0
 2529 0b75 00       		.byte	0
 2530 0b76 22       		.uleb128 0x22
 2531 0b77 49000000 		.4byte	0x49
 2532 0b7b 860B0000 		.4byte	0xb86
 2533 0b7f 23       		.uleb128 0x23
 2534 0b80 2F030000 		.4byte	0x32f
 2535 0b84 02       		.byte	0x2
 2536 0b85 00       		.byte	0
 2537 0b86 1F       		.uleb128 0x1f
 2538 0b87 01       		.byte	0x1
 2539 0b88 E6000000 		.4byte	.LASF117
 2540 0b8c 01       		.byte	0x1
 2541 0b8d 93       		.byte	0x93
 2542 0b8e 01       		.byte	0x1
 2543 0b8f 00000000 		.4byte	.LFB65
 2544 0b93 14010000 		.4byte	.LFE65
 2545 0b97 23010000 		.4byte	.LLST8
 2546 0b9b 01       		.byte	0x1
 2547 0b9c 620D0000 		.4byte	0xd62
 2548 0ba0 21       		.uleb128 0x21
 2549 0ba1 CB040000 		.4byte	.LASF114
 2550 0ba5 01       		.byte	0x1
 2551 0ba6 93       		.byte	0x93
 2552 0ba7 86000000 		.4byte	0x86
 2553 0bab 4F010000 		.4byte	.LLST9
 2554 0baf 21       		.uleb128 0x21
 2555 0bb0 61020000 		.4byte	.LASF115
 2556 0bb4 01       		.byte	0x1
 2557 0bb5 93       		.byte	0x93
 2558 0bb6 D0030000 		.4byte	0x3d0
ARM GAS  /tmp/ccjPgi6s.s 			page 46


 2559 0bba 7B010000 		.4byte	.LLST10
 2560 0bbe 24       		.uleb128 0x24
 2561 0bbf 6E00     		.ascii	"n\000"
 2562 0bc1 01       		.byte	0x1
 2563 0bc2 93       		.byte	0x93
 2564 0bc3 86000000 		.4byte	0x86
 2565 0bc7 99010000 		.4byte	.LLST11
 2566 0bcb 1A       		.uleb128 0x1a
 2567 0bcc 33010000 		.4byte	.LASF116
 2568 0bd0 01       		.byte	0x1
 2569 0bd1 94       		.byte	0x94
 2570 0bd2 760B0000 		.4byte	0xb76
 2571 0bd6 02       		.byte	0x2
 2572 0bd7 91       		.byte	0x91
 2573 0bd8 64       		.sleb128 -28
 2574 0bd9 1B       		.uleb128 0x1b
 2575 0bda 5C010000 		.4byte	.LASF109
 2576 0bde 01       		.byte	0x1
 2577 0bdf 95       		.byte	0x95
 2578 0be0 49000000 		.4byte	0x49
 2579 0be4 B7010000 		.4byte	.LLST12
 2580 0be8 1A       		.uleb128 0x1a
 2581 0be9 8C000000 		.4byte	.LASF118
 2582 0bed 01       		.byte	0x1
 2583 0bee 96       		.byte	0x96
 2584 0bef D6030000 		.4byte	0x3d6
 2585 0bf3 02       		.byte	0x2
 2586 0bf4 91       		.byte	0x91
 2587 0bf5 63       		.sleb128 -29
 2588 0bf6 1B       		.uleb128 0x1b
 2589 0bf7 E4010000 		.4byte	.LASF119
 2590 0bfb 01       		.byte	0x1
 2591 0bfc 97       		.byte	0x97
 2592 0bfd 86000000 		.4byte	0x86
 2593 0c01 D7010000 		.4byte	.LLST13
 2594 0c05 1C       		.uleb128 0x1c
 2595 0c06 38000000 		.4byte	.LVL46
 2596 0c0a B3110000 		.4byte	0x11b3
 2597 0c0e 1C       		.uleb128 0x1c
 2598 0c0f 3C000000 		.4byte	.LVL47
 2599 0c13 EF070000 		.4byte	0x7ef
 2600 0c17 1C       		.uleb128 0x1c
 2601 0c18 42000000 		.4byte	.LVL48
 2602 0c1c 0B110000 		.4byte	0x110b
 2603 0c20 1D       		.uleb128 0x1d
 2604 0c21 54000000 		.4byte	.LVL50
 2605 0c25 20110000 		.4byte	0x1120
 2606 0c29 390C0000 		.4byte	0xc39
 2607 0c2d 1E       		.uleb128 0x1e
 2608 0c2e 01       		.byte	0x1
 2609 0c2f 52       		.byte	0x52
 2610 0c30 02       		.byte	0x2
 2611 0c31 77       		.byte	0x77
 2612 0c32 00       		.sleb128 0
 2613 0c33 1E       		.uleb128 0x1e
 2614 0c34 01       		.byte	0x1
 2615 0c35 51       		.byte	0x51
ARM GAS  /tmp/ccjPgi6s.s 			page 47


 2616 0c36 01       		.byte	0x1
 2617 0c37 31       		.byte	0x31
 2618 0c38 00       		.byte	0
 2619 0c39 1C       		.uleb128 0x1c
 2620 0c3a 5A000000 		.4byte	.LVL51
 2621 0c3e 65110000 		.4byte	0x1165
 2622 0c42 1C       		.uleb128 0x1c
 2623 0c43 68000000 		.4byte	.LVL53
 2624 0c47 0B110000 		.4byte	0x110b
 2625 0c4b 1D       		.uleb128 0x1d
 2626 0c4c 72000000 		.4byte	.LVL54
 2627 0c50 20110000 		.4byte	0x1120
 2628 0c54 640C0000 		.4byte	0xc64
 2629 0c58 1E       		.uleb128 0x1e
 2630 0c59 01       		.byte	0x1
 2631 0c5a 52       		.byte	0x52
 2632 0c5b 02       		.byte	0x2
 2633 0c5c 77       		.byte	0x77
 2634 0c5d 00       		.sleb128 0
 2635 0c5e 1E       		.uleb128 0x1e
 2636 0c5f 01       		.byte	0x1
 2637 0c60 51       		.byte	0x51
 2638 0c61 01       		.byte	0x1
 2639 0c62 31       		.byte	0x31
 2640 0c63 00       		.byte	0
 2641 0c64 1D       		.uleb128 0x1d
 2642 0c65 7C000000 		.4byte	.LVL55
 2643 0c69 20110000 		.4byte	0x1120
 2644 0c6d 7D0C0000 		.4byte	0xc7d
 2645 0c71 1E       		.uleb128 0x1e
 2646 0c72 01       		.byte	0x1
 2647 0c73 52       		.byte	0x52
 2648 0c74 02       		.byte	0x2
 2649 0c75 91       		.byte	0x91
 2650 0c76 64       		.sleb128 -28
 2651 0c77 1E       		.uleb128 0x1e
 2652 0c78 01       		.byte	0x1
 2653 0c79 51       		.byte	0x51
 2654 0c7a 01       		.byte	0x1
 2655 0c7b 33       		.byte	0x33
 2656 0c7c 00       		.byte	0
 2657 0c7d 1D       		.uleb128 0x1d
 2658 0c7e 86000000 		.4byte	.LVL56
 2659 0c82 20110000 		.4byte	0x1120
 2660 0c86 960C0000 		.4byte	0xc96
 2661 0c8a 1E       		.uleb128 0x1e
 2662 0c8b 01       		.byte	0x1
 2663 0c8c 52       		.byte	0x52
 2664 0c8d 02       		.byte	0x2
 2665 0c8e 76       		.byte	0x76
 2666 0c8f 00       		.sleb128 0
 2667 0c90 1E       		.uleb128 0x1e
 2668 0c91 01       		.byte	0x1
 2669 0c92 51       		.byte	0x51
 2670 0c93 01       		.byte	0x1
 2671 0c94 32       		.byte	0x32
 2672 0c95 00       		.byte	0
ARM GAS  /tmp/ccjPgi6s.s 			page 48


 2673 0c96 1C       		.uleb128 0x1c
 2674 0c97 8C000000 		.4byte	.LVL57
 2675 0c9b 65110000 		.4byte	0x1165
 2676 0c9f 1C       		.uleb128 0x1c
 2677 0ca0 96000000 		.4byte	.LVL59
 2678 0ca4 EF070000 		.4byte	0x7ef
 2679 0ca8 1C       		.uleb128 0x1c
 2680 0ca9 A0000000 		.4byte	.LVL60
 2681 0cad 0B110000 		.4byte	0x110b
 2682 0cb1 1D       		.uleb128 0x1d
 2683 0cb2 AA000000 		.4byte	.LVL61
 2684 0cb6 20110000 		.4byte	0x1120
 2685 0cba CA0C0000 		.4byte	0xcca
 2686 0cbe 1E       		.uleb128 0x1e
 2687 0cbf 01       		.byte	0x1
 2688 0cc0 52       		.byte	0x52
 2689 0cc1 02       		.byte	0x2
 2690 0cc2 77       		.byte	0x77
 2691 0cc3 00       		.sleb128 0
 2692 0cc4 1E       		.uleb128 0x1e
 2693 0cc5 01       		.byte	0x1
 2694 0cc6 51       		.byte	0x51
 2695 0cc7 01       		.byte	0x1
 2696 0cc8 31       		.byte	0x31
 2697 0cc9 00       		.byte	0
 2698 0cca 1D       		.uleb128 0x1d
 2699 0ccb BC000000 		.4byte	.LVL62
 2700 0ccf 20110000 		.4byte	0x1120
 2701 0cd3 E60C0000 		.4byte	0xce6
 2702 0cd7 1E       		.uleb128 0x1e
 2703 0cd8 01       		.byte	0x1
 2704 0cd9 52       		.byte	0x52
 2705 0cda 05       		.byte	0x5
 2706 0cdb 76       		.byte	0x76
 2707 0cdc 00       		.sleb128 0
 2708 0cdd 74       		.byte	0x74
 2709 0cde 00       		.sleb128 0
 2710 0cdf 22       		.byte	0x22
 2711 0ce0 1E       		.uleb128 0x1e
 2712 0ce1 01       		.byte	0x1
 2713 0ce2 51       		.byte	0x51
 2714 0ce3 01       		.byte	0x1
 2715 0ce4 32       		.byte	0x32
 2716 0ce5 00       		.byte	0
 2717 0ce6 1C       		.uleb128 0x1c
 2718 0ce7 C4000000 		.4byte	.LVL64
 2719 0ceb 65110000 		.4byte	0x1165
 2720 0cef 1D       		.uleb128 0x1d
 2721 0cf0 D0000000 		.4byte	.LVL66
 2722 0cf4 20110000 		.4byte	0x1120
 2723 0cf8 020D0000 		.4byte	0xd02
 2724 0cfc 1E       		.uleb128 0x1e
 2725 0cfd 01       		.byte	0x1
 2726 0cfe 51       		.byte	0x51
 2727 0cff 01       		.byte	0x1
 2728 0d00 31       		.byte	0x31
 2729 0d01 00       		.byte	0
ARM GAS  /tmp/ccjPgi6s.s 			page 49


 2730 0d02 1D       		.uleb128 0x1d
 2731 0d03 DC000000 		.4byte	.LVL67
 2732 0d07 20110000 		.4byte	0x1120
 2733 0d0b 1B0D0000 		.4byte	0xd1b
 2734 0d0f 1E       		.uleb128 0x1e
 2735 0d10 01       		.byte	0x1
 2736 0d11 52       		.byte	0x52
 2737 0d12 02       		.byte	0x2
 2738 0d13 91       		.byte	0x91
 2739 0d14 63       		.sleb128 -29
 2740 0d15 1E       		.uleb128 0x1e
 2741 0d16 01       		.byte	0x1
 2742 0d17 51       		.byte	0x51
 2743 0d18 01       		.byte	0x1
 2744 0d19 31       		.byte	0x31
 2745 0d1a 00       		.byte	0
 2746 0d1b 1C       		.uleb128 0x1c
 2747 0d1c E2000000 		.4byte	.LVL68
 2748 0d20 65110000 		.4byte	0x1165
 2749 0d24 1C       		.uleb128 0x1c
 2750 0d25 E6000000 		.4byte	.LVL69
 2751 0d29 EF070000 		.4byte	0x7ef
 2752 0d2d 1C       		.uleb128 0x1c
 2753 0d2e EC000000 		.4byte	.LVL70
 2754 0d32 0B110000 		.4byte	0x110b
 2755 0d36 1D       		.uleb128 0x1d
 2756 0d37 FC000000 		.4byte	.LVL71
 2757 0d3b 20110000 		.4byte	0x1120
 2758 0d3f 4F0D0000 		.4byte	0xd4f
 2759 0d43 1E       		.uleb128 0x1e
 2760 0d44 01       		.byte	0x1
 2761 0d45 52       		.byte	0x52
 2762 0d46 02       		.byte	0x2
 2763 0d47 77       		.byte	0x77
 2764 0d48 00       		.sleb128 0
 2765 0d49 1E       		.uleb128 0x1e
 2766 0d4a 01       		.byte	0x1
 2767 0d4b 51       		.byte	0x51
 2768 0d4c 01       		.byte	0x1
 2769 0d4d 31       		.byte	0x31
 2770 0d4e 00       		.byte	0
 2771 0d4f 1C       		.uleb128 0x1c
 2772 0d50 02010000 		.4byte	.LVL72
 2773 0d54 65110000 		.4byte	0x1165
 2774 0d58 1C       		.uleb128 0x1c
 2775 0d59 08010000 		.4byte	.LVL73
 2776 0d5d C8110000 		.4byte	0x11c8
 2777 0d61 00       		.byte	0
 2778 0d62 25       		.uleb128 0x25
 2779 0d63 01       		.byte	0x1
 2780 0d64 D7020000 		.4byte	.LASF140
 2781 0d68 01       		.byte	0x1
 2782 0d69 D6       		.byte	0xd6
 2783 0d6a 01       		.byte	0x1
 2784 0d6b 49000000 		.4byte	0x49
 2785 0d6f 00000000 		.4byte	.LFB66
 2786 0d73 80000000 		.4byte	.LFE66
ARM GAS  /tmp/ccjPgi6s.s 			page 50


 2787 0d77 F6010000 		.4byte	.LLST14
 2788 0d7b 01       		.byte	0x1
 2789 0d7c 990E0000 		.4byte	0xe99
 2790 0d80 21       		.uleb128 0x21
 2791 0d81 CB040000 		.4byte	.LASF114
 2792 0d85 01       		.byte	0x1
 2793 0d86 D6       		.byte	0xd6
 2794 0d87 86000000 		.4byte	0x86
 2795 0d8b 22020000 		.4byte	.LLST15
 2796 0d8f 1A       		.uleb128 0x1a
 2797 0d90 33010000 		.4byte	.LASF116
 2798 0d94 01       		.byte	0x1
 2799 0d95 D7       		.byte	0xd7
 2800 0d96 760B0000 		.4byte	0xb76
 2801 0d9a 02       		.byte	0x2
 2802 0d9b 91       		.byte	0x91
 2803 0d9c 6C       		.sleb128 -20
 2804 0d9d 1A       		.uleb128 0x1a
 2805 0d9e 5C010000 		.4byte	.LASF109
 2806 0da2 01       		.byte	0x1
 2807 0da3 D8       		.byte	0xd8
 2808 0da4 49000000 		.4byte	0x49
 2809 0da8 02       		.byte	0x2
 2810 0da9 75       		.byte	0x75
 2811 0daa 79       		.sleb128 -7
 2812 0dab 1A       		.uleb128 0x1a
 2813 0dac 75000000 		.4byte	.LASF120
 2814 0db0 01       		.byte	0x1
 2815 0db1 DA       		.byte	0xda
 2816 0db2 49000000 		.4byte	0x49
 2817 0db6 02       		.byte	0x2
 2818 0db7 91       		.byte	0x91
 2819 0db8 6A       		.sleb128 -22
 2820 0db9 1A       		.uleb128 0x1a
 2821 0dba 70000000 		.4byte	.LASF121
 2822 0dbe 01       		.byte	0x1
 2823 0dbf DB       		.byte	0xdb
 2824 0dc0 49000000 		.4byte	0x49
 2825 0dc4 02       		.byte	0x2
 2826 0dc5 91       		.byte	0x91
 2827 0dc6 6B       		.sleb128 -21
 2828 0dc7 1D       		.uleb128 0x1d
 2829 0dc8 30000000 		.4byte	.LVL77
 2830 0dcc B3110000 		.4byte	0x11b3
 2831 0dd0 DB0D0000 		.4byte	0xddb
 2832 0dd4 1E       		.uleb128 0x1e
 2833 0dd5 01       		.byte	0x1
 2834 0dd6 50       		.byte	0x50
 2835 0dd7 02       		.byte	0x2
 2836 0dd8 74       		.byte	0x74
 2837 0dd9 00       		.sleb128 0
 2838 0dda 00       		.byte	0
 2839 0ddb 1C       		.uleb128 0x1c
 2840 0ddc 34000000 		.4byte	.LVL78
 2841 0de0 EF070000 		.4byte	0x7ef
 2842 0de4 1D       		.uleb128 0x1d
 2843 0de5 40000000 		.4byte	.LVL80
ARM GAS  /tmp/ccjPgi6s.s 			page 51


 2844 0de9 0B110000 		.4byte	0x110b
 2845 0ded F80D0000 		.4byte	0xdf8
 2846 0df1 1E       		.uleb128 0x1e
 2847 0df2 01       		.byte	0x1
 2848 0df3 50       		.byte	0x50
 2849 0df4 02       		.byte	0x2
 2850 0df5 74       		.byte	0x74
 2851 0df6 00       		.sleb128 0
 2852 0df7 00       		.byte	0
 2853 0df8 1D       		.uleb128 0x1d
 2854 0df9 4A000000 		.4byte	.LVL81
 2855 0dfd 20110000 		.4byte	0x1120
 2856 0e01 170E0000 		.4byte	0xe17
 2857 0e05 1E       		.uleb128 0x1e
 2858 0e06 01       		.byte	0x1
 2859 0e07 52       		.byte	0x52
 2860 0e08 02       		.byte	0x2
 2861 0e09 75       		.byte	0x75
 2862 0e0a 00       		.sleb128 0
 2863 0e0b 1E       		.uleb128 0x1e
 2864 0e0c 01       		.byte	0x1
 2865 0e0d 51       		.byte	0x51
 2866 0e0e 01       		.byte	0x1
 2867 0e0f 31       		.byte	0x31
 2868 0e10 1E       		.uleb128 0x1e
 2869 0e11 01       		.byte	0x1
 2870 0e12 50       		.byte	0x50
 2871 0e13 02       		.byte	0x2
 2872 0e14 74       		.byte	0x74
 2873 0e15 00       		.sleb128 0
 2874 0e16 00       		.byte	0
 2875 0e17 1D       		.uleb128 0x1d
 2876 0e18 54000000 		.4byte	.LVL82
 2877 0e1c 20110000 		.4byte	0x1120
 2878 0e20 360E0000 		.4byte	0xe36
 2879 0e24 1E       		.uleb128 0x1e
 2880 0e25 01       		.byte	0x1
 2881 0e26 52       		.byte	0x52
 2882 0e27 02       		.byte	0x2
 2883 0e28 91       		.byte	0x91
 2884 0e29 6C       		.sleb128 -20
 2885 0e2a 1E       		.uleb128 0x1e
 2886 0e2b 01       		.byte	0x1
 2887 0e2c 51       		.byte	0x51
 2888 0e2d 01       		.byte	0x1
 2889 0e2e 33       		.byte	0x33
 2890 0e2f 1E       		.uleb128 0x1e
 2891 0e30 01       		.byte	0x1
 2892 0e31 50       		.byte	0x50
 2893 0e32 02       		.byte	0x2
 2894 0e33 74       		.byte	0x74
 2895 0e34 00       		.sleb128 0
 2896 0e35 00       		.byte	0
 2897 0e36 1D       		.uleb128 0x1d
 2898 0e37 60000000 		.4byte	.LVL83
 2899 0e3b 20110000 		.4byte	0x1120
 2900 0e3f 550E0000 		.4byte	0xe55
ARM GAS  /tmp/ccjPgi6s.s 			page 52


 2901 0e43 1E       		.uleb128 0x1e
 2902 0e44 01       		.byte	0x1
 2903 0e45 52       		.byte	0x52
 2904 0e46 02       		.byte	0x2
 2905 0e47 91       		.byte	0x91
 2906 0e48 6B       		.sleb128 -21
 2907 0e49 1E       		.uleb128 0x1e
 2908 0e4a 01       		.byte	0x1
 2909 0e4b 51       		.byte	0x51
 2910 0e4c 01       		.byte	0x1
 2911 0e4d 31       		.byte	0x31
 2912 0e4e 1E       		.uleb128 0x1e
 2913 0e4f 01       		.byte	0x1
 2914 0e50 50       		.byte	0x50
 2915 0e51 02       		.byte	0x2
 2916 0e52 74       		.byte	0x74
 2917 0e53 00       		.sleb128 0
 2918 0e54 00       		.byte	0
 2919 0e55 1D       		.uleb128 0x1d
 2920 0e56 6C000000 		.4byte	.LVL84
 2921 0e5a 46110000 		.4byte	0x1146
 2922 0e5e 740E0000 		.4byte	0xe74
 2923 0e62 1E       		.uleb128 0x1e
 2924 0e63 01       		.byte	0x1
 2925 0e64 52       		.byte	0x52
 2926 0e65 02       		.byte	0x2
 2927 0e66 91       		.byte	0x91
 2928 0e67 6A       		.sleb128 -22
 2929 0e68 1E       		.uleb128 0x1e
 2930 0e69 01       		.byte	0x1
 2931 0e6a 51       		.byte	0x51
 2932 0e6b 01       		.byte	0x1
 2933 0e6c 31       		.byte	0x31
 2934 0e6d 1E       		.uleb128 0x1e
 2935 0e6e 01       		.byte	0x1
 2936 0e6f 50       		.byte	0x50
 2937 0e70 02       		.byte	0x2
 2938 0e71 74       		.byte	0x74
 2939 0e72 00       		.sleb128 0
 2940 0e73 00       		.byte	0
 2941 0e74 1D       		.uleb128 0x1d
 2942 0e75 72000000 		.4byte	.LVL85
 2943 0e79 65110000 		.4byte	0x1165
 2944 0e7d 880E0000 		.4byte	0xe88
 2945 0e81 1E       		.uleb128 0x1e
 2946 0e82 01       		.byte	0x1
 2947 0e83 50       		.byte	0x50
 2948 0e84 02       		.byte	0x2
 2949 0e85 74       		.byte	0x74
 2950 0e86 00       		.sleb128 0
 2951 0e87 00       		.byte	0
 2952 0e88 20       		.uleb128 0x20
 2953 0e89 78000000 		.4byte	.LVL86
 2954 0e8d C8110000 		.4byte	0x11c8
 2955 0e91 1E       		.uleb128 0x1e
 2956 0e92 01       		.byte	0x1
 2957 0e93 50       		.byte	0x50
ARM GAS  /tmp/ccjPgi6s.s 			page 53


 2958 0e94 02       		.byte	0x2
 2959 0e95 74       		.byte	0x74
 2960 0e96 00       		.sleb128 0
 2961 0e97 00       		.byte	0
 2962 0e98 00       		.byte	0
 2963 0e99 1F       		.uleb128 0x1f
 2964 0e9a 01       		.byte	0x1
 2965 0e9b 3C000000 		.4byte	.LASF122
 2966 0e9f 01       		.byte	0x1
 2967 0ea0 F5       		.byte	0xf5
 2968 0ea1 01       		.byte	0x1
 2969 0ea2 00000000 		.4byte	.LFB67
 2970 0ea6 7E000000 		.4byte	.LFE67
 2971 0eaa 4E020000 		.4byte	.LLST16
 2972 0eae 01       		.byte	0x1
 2973 0eaf DB0F0000 		.4byte	0xfdb
 2974 0eb3 21       		.uleb128 0x21
 2975 0eb4 CB040000 		.4byte	.LASF114
 2976 0eb8 01       		.byte	0x1
 2977 0eb9 F5       		.byte	0xf5
 2978 0eba 86000000 		.4byte	0x86
 2979 0ebe 7A020000 		.4byte	.LLST17
 2980 0ec2 21       		.uleb128 0x21
 2981 0ec3 61020000 		.4byte	.LASF115
 2982 0ec7 01       		.byte	0x1
 2983 0ec8 F5       		.byte	0xf5
 2984 0ec9 D0030000 		.4byte	0x3d0
 2985 0ecd A6020000 		.4byte	.LLST18
 2986 0ed1 24       		.uleb128 0x24
 2987 0ed2 6E00     		.ascii	"n\000"
 2988 0ed4 01       		.byte	0x1
 2989 0ed5 F5       		.byte	0xf5
 2990 0ed6 86000000 		.4byte	0x86
 2991 0eda C4020000 		.4byte	.LLST19
 2992 0ede 1A       		.uleb128 0x1a
 2993 0edf 33010000 		.4byte	.LASF116
 2994 0ee3 01       		.byte	0x1
 2995 0ee4 F6       		.byte	0xf6
 2996 0ee5 760B0000 		.4byte	0xb76
 2997 0ee9 02       		.byte	0x2
 2998 0eea 91       		.byte	0x91
 2999 0eeb 64       		.sleb128 -28
 3000 0eec 1A       		.uleb128 0x1a
 3001 0eed 5C010000 		.4byte	.LASF109
 3002 0ef1 01       		.byte	0x1
 3003 0ef2 F7       		.byte	0xf7
 3004 0ef3 49000000 		.4byte	0x49
 3005 0ef7 02       		.byte	0x2
 3006 0ef8 75       		.byte	0x75
 3007 0ef9 7A       		.sleb128 -6
 3008 0efa 1A       		.uleb128 0x1a
 3009 0efb 70000000 		.4byte	.LASF121
 3010 0eff 01       		.byte	0x1
 3011 0f00 F9       		.byte	0xf9
 3012 0f01 D6030000 		.4byte	0x3d6
 3013 0f05 02       		.byte	0x2
 3014 0f06 91       		.byte	0x91
ARM GAS  /tmp/ccjPgi6s.s 			page 54


 3015 0f07 63       		.sleb128 -29
 3016 0f08 1D       		.uleb128 0x1d
 3017 0f09 34000000 		.4byte	.LVL91
 3018 0f0d B3110000 		.4byte	0x11b3
 3019 0f11 1C0F0000 		.4byte	0xf1c
 3020 0f15 1E       		.uleb128 0x1e
 3021 0f16 01       		.byte	0x1
 3022 0f17 50       		.byte	0x50
 3023 0f18 02       		.byte	0x2
 3024 0f19 74       		.byte	0x74
 3025 0f1a 00       		.sleb128 0
 3026 0f1b 00       		.byte	0
 3027 0f1c 1C       		.uleb128 0x1c
 3028 0f1d 38000000 		.4byte	.LVL92
 3029 0f21 EF070000 		.4byte	0x7ef
 3030 0f25 1D       		.uleb128 0x1d
 3031 0f26 44000000 		.4byte	.LVL94
 3032 0f2a 0B110000 		.4byte	0x110b
 3033 0f2e 390F0000 		.4byte	0xf39
 3034 0f32 1E       		.uleb128 0x1e
 3035 0f33 01       		.byte	0x1
 3036 0f34 50       		.byte	0x50
 3037 0f35 02       		.byte	0x2
 3038 0f36 74       		.byte	0x74
 3039 0f37 00       		.sleb128 0
 3040 0f38 00       		.byte	0
 3041 0f39 1D       		.uleb128 0x1d
 3042 0f3a 4E000000 		.4byte	.LVL95
 3043 0f3e 20110000 		.4byte	0x1120
 3044 0f42 580F0000 		.4byte	0xf58
 3045 0f46 1E       		.uleb128 0x1e
 3046 0f47 01       		.byte	0x1
 3047 0f48 52       		.byte	0x52
 3048 0f49 02       		.byte	0x2
 3049 0f4a 75       		.byte	0x75
 3050 0f4b 00       		.sleb128 0
 3051 0f4c 1E       		.uleb128 0x1e
 3052 0f4d 01       		.byte	0x1
 3053 0f4e 51       		.byte	0x51
 3054 0f4f 01       		.byte	0x1
 3055 0f50 31       		.byte	0x31
 3056 0f51 1E       		.uleb128 0x1e
 3057 0f52 01       		.byte	0x1
 3058 0f53 50       		.byte	0x50
 3059 0f54 02       		.byte	0x2
 3060 0f55 74       		.byte	0x74
 3061 0f56 00       		.sleb128 0
 3062 0f57 00       		.byte	0
 3063 0f58 1D       		.uleb128 0x1d
 3064 0f59 58000000 		.4byte	.LVL96
 3065 0f5d 20110000 		.4byte	0x1120
 3066 0f61 770F0000 		.4byte	0xf77
 3067 0f65 1E       		.uleb128 0x1e
 3068 0f66 01       		.byte	0x1
 3069 0f67 52       		.byte	0x52
 3070 0f68 02       		.byte	0x2
 3071 0f69 91       		.byte	0x91
ARM GAS  /tmp/ccjPgi6s.s 			page 55


 3072 0f6a 64       		.sleb128 -28
 3073 0f6b 1E       		.uleb128 0x1e
 3074 0f6c 01       		.byte	0x1
 3075 0f6d 51       		.byte	0x51
 3076 0f6e 01       		.byte	0x1
 3077 0f6f 33       		.byte	0x33
 3078 0f70 1E       		.uleb128 0x1e
 3079 0f71 01       		.byte	0x1
 3080 0f72 50       		.byte	0x50
 3081 0f73 02       		.byte	0x2
 3082 0f74 74       		.byte	0x74
 3083 0f75 00       		.sleb128 0
 3084 0f76 00       		.byte	0
 3085 0f77 1D       		.uleb128 0x1d
 3086 0f78 64000000 		.4byte	.LVL97
 3087 0f7c 20110000 		.4byte	0x1120
 3088 0f80 960F0000 		.4byte	0xf96
 3089 0f84 1E       		.uleb128 0x1e
 3090 0f85 01       		.byte	0x1
 3091 0f86 52       		.byte	0x52
 3092 0f87 02       		.byte	0x2
 3093 0f88 91       		.byte	0x91
 3094 0f89 63       		.sleb128 -29
 3095 0f8a 1E       		.uleb128 0x1e
 3096 0f8b 01       		.byte	0x1
 3097 0f8c 51       		.byte	0x51
 3098 0f8d 01       		.byte	0x1
 3099 0f8e 31       		.byte	0x31
 3100 0f8f 1E       		.uleb128 0x1e
 3101 0f90 01       		.byte	0x1
 3102 0f91 50       		.byte	0x50
 3103 0f92 02       		.byte	0x2
 3104 0f93 74       		.byte	0x74
 3105 0f94 00       		.sleb128 0
 3106 0f95 00       		.byte	0
 3107 0f96 1D       		.uleb128 0x1d
 3108 0f97 6E000000 		.4byte	.LVL98
 3109 0f9b 46110000 		.4byte	0x1146
 3110 0f9f B60F0000 		.4byte	0xfb6
 3111 0fa3 1E       		.uleb128 0x1e
 3112 0fa4 01       		.byte	0x1
 3113 0fa5 52       		.byte	0x52
 3114 0fa6 02       		.byte	0x2
 3115 0fa7 76       		.byte	0x76
 3116 0fa8 00       		.sleb128 0
 3117 0fa9 1E       		.uleb128 0x1e
 3118 0faa 01       		.byte	0x1
 3119 0fab 51       		.byte	0x51
 3120 0fac 02       		.byte	0x2
 3121 0fad 77       		.byte	0x77
 3122 0fae 00       		.sleb128 0
 3123 0faf 1E       		.uleb128 0x1e
 3124 0fb0 01       		.byte	0x1
 3125 0fb1 50       		.byte	0x50
 3126 0fb2 02       		.byte	0x2
 3127 0fb3 74       		.byte	0x74
 3128 0fb4 00       		.sleb128 0
ARM GAS  /tmp/ccjPgi6s.s 			page 56


 3129 0fb5 00       		.byte	0
 3130 0fb6 1D       		.uleb128 0x1d
 3131 0fb7 74000000 		.4byte	.LVL99
 3132 0fbb 65110000 		.4byte	0x1165
 3133 0fbf CA0F0000 		.4byte	0xfca
 3134 0fc3 1E       		.uleb128 0x1e
 3135 0fc4 01       		.byte	0x1
 3136 0fc5 50       		.byte	0x50
 3137 0fc6 02       		.byte	0x2
 3138 0fc7 74       		.byte	0x74
 3139 0fc8 00       		.sleb128 0
 3140 0fc9 00       		.byte	0
 3141 0fca 20       		.uleb128 0x20
 3142 0fcb 7A000000 		.4byte	.LVL100
 3143 0fcf C8110000 		.4byte	0x11c8
 3144 0fd3 1E       		.uleb128 0x1e
 3145 0fd4 01       		.byte	0x1
 3146 0fd5 50       		.byte	0x50
 3147 0fd6 02       		.byte	0x2
 3148 0fd7 74       		.byte	0x74
 3149 0fd8 00       		.sleb128 0
 3150 0fd9 00       		.byte	0
 3151 0fda 00       		.byte	0
 3152 0fdb 26       		.uleb128 0x26
 3153 0fdc 01       		.byte	0x1
 3154 0fdd 48030000 		.4byte	.LASF123
 3155 0fe1 01       		.byte	0x1
 3156 0fe2 1401     		.2byte	0x114
 3157 0fe4 01       		.byte	0x1
 3158 0fe5 00000000 		.4byte	.LFB68
 3159 0fe9 88000000 		.4byte	.LFE68
 3160 0fed E2020000 		.4byte	.LLST20
 3161 0ff1 01       		.byte	0x1
 3162 0ff2 D9100000 		.4byte	0x10d9
 3163 0ff6 27       		.uleb128 0x27
 3164 0ff7 CB040000 		.4byte	.LASF114
 3165 0ffb 01       		.byte	0x1
 3166 0ffc 1401     		.2byte	0x114
 3167 0ffe 86000000 		.4byte	0x86
 3168 1002 0E030000 		.4byte	.LLST21
 3169 1006 27       		.uleb128 0x27
 3170 1007 6D010000 		.4byte	.LASF124
 3171 100b 01       		.byte	0x1
 3172 100c 1401     		.2byte	0x114
 3173 100e 49000000 		.4byte	0x49
 3174 1012 3A030000 		.4byte	.LLST22
 3175 1016 27       		.uleb128 0x27
 3176 1017 53030000 		.4byte	.LASF125
 3177 101b 01       		.byte	0x1
 3178 101c 1401     		.2byte	0x114
 3179 101e 49000000 		.4byte	0x49
 3180 1022 5B030000 		.4byte	.LLST23
 3181 1026 28       		.uleb128 0x28
 3182 1027 33010000 		.4byte	.LASF116
 3183 102b 01       		.byte	0x1
 3184 102c 1501     		.2byte	0x115
 3185 102e 760B0000 		.4byte	0xb76
ARM GAS  /tmp/ccjPgi6s.s 			page 57


 3186 1032 02       		.byte	0x2
 3187 1033 91       		.byte	0x91
 3188 1034 64       		.sleb128 -28
 3189 1035 29       		.uleb128 0x29
 3190 1036 5C010000 		.4byte	.LASF109
 3191 103a 01       		.byte	0x1
 3192 103b 1601     		.2byte	0x116
 3193 103d 49000000 		.4byte	0x49
 3194 1041 7C030000 		.4byte	.LLST24
 3195 1045 1C       		.uleb128 0x1c
 3196 1046 24000000 		.4byte	.LVL103
 3197 104a B3110000 		.4byte	0x11b3
 3198 104e 1C       		.uleb128 0x1c
 3199 104f 28000000 		.4byte	.LVL104
 3200 1053 EF070000 		.4byte	0x7ef
 3201 1057 1C       		.uleb128 0x1c
 3202 1058 2E000000 		.4byte	.LVL105
 3203 105c 0B110000 		.4byte	0x110b
 3204 1060 1D       		.uleb128 0x1d
 3205 1061 40000000 		.4byte	.LVL107
 3206 1065 20110000 		.4byte	0x1120
 3207 1069 79100000 		.4byte	0x1079
 3208 106d 1E       		.uleb128 0x1e
 3209 106e 01       		.byte	0x1
 3210 106f 52       		.byte	0x52
 3211 1070 02       		.byte	0x2
 3212 1071 74       		.byte	0x74
 3213 1072 00       		.sleb128 0
 3214 1073 1E       		.uleb128 0x1e
 3215 1074 01       		.byte	0x1
 3216 1075 51       		.byte	0x51
 3217 1076 01       		.byte	0x1
 3218 1077 31       		.byte	0x31
 3219 1078 00       		.byte	0
 3220 1079 1C       		.uleb128 0x1c
 3221 107a 46000000 		.4byte	.LVL108
 3222 107e 65110000 		.4byte	0x1165
 3223 1082 1C       		.uleb128 0x1c
 3224 1083 50000000 		.4byte	.LVL110
 3225 1087 0B110000 		.4byte	0x110b
 3226 108b 1D       		.uleb128 0x1d
 3227 108c 5A000000 		.4byte	.LVL111
 3228 1090 20110000 		.4byte	0x1120
 3229 1094 A4100000 		.4byte	0x10a4
 3230 1098 1E       		.uleb128 0x1e
 3231 1099 01       		.byte	0x1
 3232 109a 52       		.byte	0x52
 3233 109b 02       		.byte	0x2
 3234 109c 74       		.byte	0x74
 3235 109d 00       		.sleb128 0
 3236 109e 1E       		.uleb128 0x1e
 3237 109f 01       		.byte	0x1
 3238 10a0 51       		.byte	0x51
 3239 10a1 01       		.byte	0x1
 3240 10a2 31       		.byte	0x31
 3241 10a3 00       		.byte	0
 3242 10a4 1D       		.uleb128 0x1d
ARM GAS  /tmp/ccjPgi6s.s 			page 58


 3243 10a5 68000000 		.4byte	.LVL112
 3244 10a9 20110000 		.4byte	0x1120
 3245 10ad BD100000 		.4byte	0x10bd
 3246 10b1 1E       		.uleb128 0x1e
 3247 10b2 01       		.byte	0x1
 3248 10b3 52       		.byte	0x52
 3249 10b4 02       		.byte	0x2
 3250 10b5 91       		.byte	0x91
 3251 10b6 64       		.sleb128 -28
 3252 10b7 1E       		.uleb128 0x1e
 3253 10b8 01       		.byte	0x1
 3254 10b9 51       		.byte	0x51
 3255 10ba 01       		.byte	0x1
 3256 10bb 33       		.byte	0x33
 3257 10bc 00       		.byte	0
 3258 10bd 1C       		.uleb128 0x1c
 3259 10be 6E000000 		.4byte	.LVL113
 3260 10c2 65110000 		.4byte	0x1165
 3261 10c6 1C       		.uleb128 0x1c
 3262 10c7 78000000 		.4byte	.LVL114
 3263 10cb C8110000 		.4byte	0x11c8
 3264 10cf 1C       		.uleb128 0x1c
 3265 10d0 80000000 		.4byte	.LVL115
 3266 10d4 EF070000 		.4byte	0x7ef
 3267 10d8 00       		.byte	0
 3268 10d9 1A       		.uleb128 0x1a
 3269 10da F6000000 		.4byte	.LASF126
 3270 10de 01       		.byte	0x1
 3271 10df 2A       		.byte	0x2a
 3272 10e0 D9070000 		.4byte	0x7d9
 3273 10e4 05       		.byte	0x5
 3274 10e5 03       		.byte	0x3
 3275 10e6 00000000 		.4byte	spi1cfg
 3276 10ea 2A       		.uleb128 0x2a
 3277 10eb 16040000 		.4byte	.LASF127
 3278 10ef 0E       		.byte	0xe
 3279 10f0 9404     		.2byte	0x494
 3280 10f2 F8100000 		.4byte	0x10f8
 3281 10f6 01       		.byte	0x1
 3282 10f7 01       		.byte	0x1
 3283 10f8 0D       		.uleb128 0xd
 3284 10f9 74000000 		.4byte	0x74
 3285 10fd 2A       		.uleb128 0x2a
 3286 10fe 91030000 		.4byte	.LASF128
 3287 1102 0D       		.byte	0xd
 3288 1103 6701     		.2byte	0x167
 3289 1105 BC060000 		.4byte	0x6bc
 3290 1109 01       		.byte	0x1
 3291 110a 01       		.byte	0x1
 3292 110b 2B       		.uleb128 0x2b
 3293 110c 01       		.byte	0x1
 3294 110d C2010000 		.4byte	.LASF129
 3295 1111 0C       		.byte	0xc
 3296 1112 3101     		.2byte	0x131
 3297 1114 01       		.byte	0x1
 3298 1115 01       		.byte	0x1
 3299 1116 20110000 		.4byte	0x1120
ARM GAS  /tmp/ccjPgi6s.s 			page 59


 3300 111a 18       		.uleb128 0x18
 3301 111b 7B070000 		.4byte	0x77b
 3302 111f 00       		.byte	0
 3303 1120 2B       		.uleb128 0x2b
 3304 1121 01       		.byte	0x1
 3305 1122 9D000000 		.4byte	.LASF130
 3306 1126 0C       		.byte	0xc
 3307 1127 3B01     		.2byte	0x13b
 3308 1129 01       		.byte	0x1
 3309 112a 01       		.byte	0x1
 3310 112b 3F110000 		.4byte	0x113f
 3311 112f 18       		.uleb128 0x18
 3312 1130 7B070000 		.4byte	0x77b
 3313 1134 18       		.uleb128 0x18
 3314 1135 30000000 		.4byte	0x30
 3315 1139 18       		.uleb128 0x18
 3316 113a 3F110000 		.4byte	0x113f
 3317 113e 00       		.byte	0
 3318 113f 09       		.uleb128 0x9
 3319 1140 04       		.byte	0x4
 3320 1141 45110000 		.4byte	0x1145
 3321 1145 2C       		.uleb128 0x2c
 3322 1146 2B       		.uleb128 0x2b
 3323 1147 01       		.byte	0x1
 3324 1148 C0040000 		.4byte	.LASF131
 3325 114c 0C       		.byte	0xc
 3326 114d 3C01     		.2byte	0x13c
 3327 114f 01       		.byte	0x1
 3328 1150 01       		.byte	0x1
 3329 1151 65110000 		.4byte	0x1165
 3330 1155 18       		.uleb128 0x18
 3331 1156 7B070000 		.4byte	0x77b
 3332 115a 18       		.uleb128 0x18
 3333 115b 30000000 		.4byte	0x30
 3334 115f 18       		.uleb128 0x18
 3335 1160 78020000 		.4byte	0x278
 3336 1164 00       		.byte	0
 3337 1165 2B       		.uleb128 0x2b
 3338 1166 01       		.byte	0x1
 3339 1167 E2040000 		.4byte	.LASF132
 3340 116b 0C       		.byte	0xc
 3341 116c 3201     		.2byte	0x132
 3342 116e 01       		.byte	0x1
 3343 116f 01       		.byte	0x1
 3344 1170 7A110000 		.4byte	0x117a
 3345 1174 18       		.uleb128 0x18
 3346 1175 7B070000 		.4byte	0x77b
 3347 1179 00       		.byte	0
 3348 117a 2B       		.uleb128 0x2b
 3349 117b 01       		.byte	0x1
 3350 117c B9010000 		.4byte	.LASF133
 3351 1180 0C       		.byte	0xc
 3352 1181 2F01     		.2byte	0x12f
 3353 1183 01       		.byte	0x1
 3354 1184 01       		.byte	0x1
 3355 1185 94110000 		.4byte	0x1194
 3356 1189 18       		.uleb128 0x18
ARM GAS  /tmp/ccjPgi6s.s 			page 60


 3357 118a 7B070000 		.4byte	0x77b
 3358 118e 18       		.uleb128 0x18
 3359 118f D3070000 		.4byte	0x7d3
 3360 1193 00       		.byte	0
 3361 1194 2B       		.uleb128 0x2b
 3362 1195 01       		.byte	0x1
 3363 1196 EE040000 		.4byte	.LASF134
 3364 119a 0B       		.byte	0xb
 3365 119b C101     		.2byte	0x1c1
 3366 119d 01       		.byte	0x1
 3367 119e 01       		.byte	0x1
 3368 119f B3110000 		.4byte	0x11b3
 3369 11a3 18       		.uleb128 0x18
 3370 11a4 79060000 		.4byte	0x679
 3371 11a8 18       		.uleb128 0x18
 3372 11a9 63060000 		.4byte	0x663
 3373 11ad 18       		.uleb128 0x18
 3374 11ae 6E060000 		.4byte	0x66e
 3375 11b2 00       		.byte	0
 3376 11b3 2B       		.uleb128 0x2b
 3377 11b4 01       		.byte	0x1
 3378 11b5 4A020000 		.4byte	.LASF135
 3379 11b9 0C       		.byte	0xc
 3380 11ba 3F01     		.2byte	0x13f
 3381 11bc 01       		.byte	0x1
 3382 11bd 01       		.byte	0x1
 3383 11be C8110000 		.4byte	0x11c8
 3384 11c2 18       		.uleb128 0x18
 3385 11c3 7B070000 		.4byte	0x77b
 3386 11c7 00       		.byte	0
 3387 11c8 2D       		.uleb128 0x2d
 3388 11c9 01       		.byte	0x1
 3389 11ca C0000000 		.4byte	.LASF141
 3390 11ce 0C       		.byte	0xc
 3391 11cf 4001     		.2byte	0x140
 3392 11d1 01       		.byte	0x1
 3393 11d2 01       		.byte	0x1
 3394 11d3 18       		.uleb128 0x18
 3395 11d4 7B070000 		.4byte	0x77b
 3396 11d8 00       		.byte	0
 3397 11d9 00       		.byte	0
 3398              		.section	.debug_abbrev,"",%progbits
 3399              	.Ldebug_abbrev0:
 3400 0000 01       		.uleb128 0x1
 3401 0001 11       		.uleb128 0x11
 3402 0002 01       		.byte	0x1
 3403 0003 25       		.uleb128 0x25
 3404 0004 0E       		.uleb128 0xe
 3405 0005 13       		.uleb128 0x13
 3406 0006 0B       		.uleb128 0xb
 3407 0007 03       		.uleb128 0x3
 3408 0008 0E       		.uleb128 0xe
 3409 0009 1B       		.uleb128 0x1b
 3410 000a 0E       		.uleb128 0xe
 3411 000b 55       		.uleb128 0x55
 3412 000c 06       		.uleb128 0x6
 3413 000d 11       		.uleb128 0x11
ARM GAS  /tmp/ccjPgi6s.s 			page 61


 3414 000e 01       		.uleb128 0x1
 3415 000f 52       		.uleb128 0x52
 3416 0010 01       		.uleb128 0x1
 3417 0011 10       		.uleb128 0x10
 3418 0012 06       		.uleb128 0x6
 3419 0013 00       		.byte	0
 3420 0014 00       		.byte	0
 3421 0015 02       		.uleb128 0x2
 3422 0016 24       		.uleb128 0x24
 3423 0017 00       		.byte	0
 3424 0018 0B       		.uleb128 0xb
 3425 0019 0B       		.uleb128 0xb
 3426 001a 3E       		.uleb128 0x3e
 3427 001b 0B       		.uleb128 0xb
 3428 001c 03       		.uleb128 0x3
 3429 001d 08       		.uleb128 0x8
 3430 001e 00       		.byte	0
 3431 001f 00       		.byte	0
 3432 0020 03       		.uleb128 0x3
 3433 0021 16       		.uleb128 0x16
 3434 0022 00       		.byte	0
 3435 0023 03       		.uleb128 0x3
 3436 0024 0E       		.uleb128 0xe
 3437 0025 3A       		.uleb128 0x3a
 3438 0026 0B       		.uleb128 0xb
 3439 0027 3B       		.uleb128 0x3b
 3440 0028 0B       		.uleb128 0xb
 3441 0029 49       		.uleb128 0x49
 3442 002a 13       		.uleb128 0x13
 3443 002b 00       		.byte	0
 3444 002c 00       		.byte	0
 3445 002d 04       		.uleb128 0x4
 3446 002e 24       		.uleb128 0x24
 3447 002f 00       		.byte	0
 3448 0030 0B       		.uleb128 0xb
 3449 0031 0B       		.uleb128 0xb
 3450 0032 3E       		.uleb128 0x3e
 3451 0033 0B       		.uleb128 0xb
 3452 0034 03       		.uleb128 0x3
 3453 0035 0E       		.uleb128 0xe
 3454 0036 00       		.byte	0
 3455 0037 00       		.byte	0
 3456 0038 05       		.uleb128 0x5
 3457 0039 13       		.uleb128 0x13
 3458 003a 01       		.byte	0x1
 3459 003b 03       		.uleb128 0x3
 3460 003c 0E       		.uleb128 0xe
 3461 003d 0B       		.uleb128 0xb
 3462 003e 0B       		.uleb128 0xb
 3463 003f 3A       		.uleb128 0x3a
 3464 0040 0B       		.uleb128 0xb
 3465 0041 3B       		.uleb128 0x3b
 3466 0042 0B       		.uleb128 0xb
 3467 0043 01       		.uleb128 0x1
 3468 0044 13       		.uleb128 0x13
 3469 0045 00       		.byte	0
 3470 0046 00       		.byte	0
ARM GAS  /tmp/ccjPgi6s.s 			page 62


 3471 0047 06       		.uleb128 0x6
 3472 0048 0D       		.uleb128 0xd
 3473 0049 00       		.byte	0
 3474 004a 03       		.uleb128 0x3
 3475 004b 0E       		.uleb128 0xe
 3476 004c 3A       		.uleb128 0x3a
 3477 004d 0B       		.uleb128 0xb
 3478 004e 3B       		.uleb128 0x3b
 3479 004f 0B       		.uleb128 0xb
 3480 0050 49       		.uleb128 0x49
 3481 0051 13       		.uleb128 0x13
 3482 0052 38       		.uleb128 0x38
 3483 0053 0A       		.uleb128 0xa
 3484 0054 00       		.byte	0
 3485 0055 00       		.byte	0
 3486 0056 07       		.uleb128 0x7
 3487 0057 0D       		.uleb128 0xd
 3488 0058 00       		.byte	0
 3489 0059 03       		.uleb128 0x3
 3490 005a 08       		.uleb128 0x8
 3491 005b 3A       		.uleb128 0x3a
 3492 005c 0B       		.uleb128 0xb
 3493 005d 3B       		.uleb128 0x3b
 3494 005e 0B       		.uleb128 0xb
 3495 005f 49       		.uleb128 0x49
 3496 0060 13       		.uleb128 0x13
 3497 0061 38       		.uleb128 0x38
 3498 0062 0A       		.uleb128 0xa
 3499 0063 00       		.byte	0
 3500 0064 00       		.byte	0
 3501 0065 08       		.uleb128 0x8
 3502 0066 13       		.uleb128 0x13
 3503 0067 01       		.byte	0x1
 3504 0068 0B       		.uleb128 0xb
 3505 0069 0B       		.uleb128 0xb
 3506 006a 3A       		.uleb128 0x3a
 3507 006b 0B       		.uleb128 0xb
 3508 006c 3B       		.uleb128 0x3b
 3509 006d 0B       		.uleb128 0xb
 3510 006e 01       		.uleb128 0x1
 3511 006f 13       		.uleb128 0x13
 3512 0070 00       		.byte	0
 3513 0071 00       		.byte	0
 3514 0072 09       		.uleb128 0x9
 3515 0073 0F       		.uleb128 0xf
 3516 0074 00       		.byte	0
 3517 0075 0B       		.uleb128 0xb
 3518 0076 0B       		.uleb128 0xb
 3519 0077 49       		.uleb128 0x49
 3520 0078 13       		.uleb128 0x13
 3521 0079 00       		.byte	0
 3522 007a 00       		.byte	0
 3523 007b 0A       		.uleb128 0xa
 3524 007c 0F       		.uleb128 0xf
 3525 007d 00       		.byte	0
 3526 007e 0B       		.uleb128 0xb
 3527 007f 0B       		.uleb128 0xb
ARM GAS  /tmp/ccjPgi6s.s 			page 63


 3528 0080 00       		.byte	0
 3529 0081 00       		.byte	0
 3530 0082 0B       		.uleb128 0xb
 3531 0083 0D       		.uleb128 0xd
 3532 0084 00       		.byte	0
 3533 0085 03       		.uleb128 0x3
 3534 0086 08       		.uleb128 0x8
 3535 0087 3A       		.uleb128 0x3a
 3536 0088 0B       		.uleb128 0xb
 3537 0089 3B       		.uleb128 0x3b
 3538 008a 05       		.uleb128 0x5
 3539 008b 49       		.uleb128 0x49
 3540 008c 13       		.uleb128 0x13
 3541 008d 38       		.uleb128 0x38
 3542 008e 0A       		.uleb128 0xa
 3543 008f 00       		.byte	0
 3544 0090 00       		.byte	0
 3545 0091 0C       		.uleb128 0xc
 3546 0092 13       		.uleb128 0x13
 3547 0093 01       		.byte	0x1
 3548 0094 03       		.uleb128 0x3
 3549 0095 0E       		.uleb128 0xe
 3550 0096 0B       		.uleb128 0xb
 3551 0097 0B       		.uleb128 0xb
 3552 0098 3A       		.uleb128 0x3a
 3553 0099 0B       		.uleb128 0xb
 3554 009a 3B       		.uleb128 0x3b
 3555 009b 05       		.uleb128 0x5
 3556 009c 01       		.uleb128 0x1
 3557 009d 13       		.uleb128 0x13
 3558 009e 00       		.byte	0
 3559 009f 00       		.byte	0
 3560 00a0 0D       		.uleb128 0xd
 3561 00a1 35       		.uleb128 0x35
 3562 00a2 00       		.byte	0
 3563 00a3 49       		.uleb128 0x49
 3564 00a4 13       		.uleb128 0x13
 3565 00a5 00       		.byte	0
 3566 00a6 00       		.byte	0
 3567 00a7 0E       		.uleb128 0xe
 3568 00a8 17       		.uleb128 0x17
 3569 00a9 01       		.byte	0x1
 3570 00aa 0B       		.uleb128 0xb
 3571 00ab 0B       		.uleb128 0xb
 3572 00ac 3A       		.uleb128 0x3a
 3573 00ad 0B       		.uleb128 0xb
 3574 00ae 3B       		.uleb128 0x3b
 3575 00af 0B       		.uleb128 0xb
 3576 00b0 01       		.uleb128 0x1
 3577 00b1 13       		.uleb128 0x13
 3578 00b2 00       		.byte	0
 3579 00b3 00       		.byte	0
 3580 00b4 0F       		.uleb128 0xf
 3581 00b5 0D       		.uleb128 0xd
 3582 00b6 00       		.byte	0
 3583 00b7 03       		.uleb128 0x3
 3584 00b8 0E       		.uleb128 0xe
ARM GAS  /tmp/ccjPgi6s.s 			page 64


 3585 00b9 3A       		.uleb128 0x3a
 3586 00ba 0B       		.uleb128 0xb
 3587 00bb 3B       		.uleb128 0x3b
 3588 00bc 0B       		.uleb128 0xb
 3589 00bd 49       		.uleb128 0x49
 3590 00be 13       		.uleb128 0x13
 3591 00bf 00       		.byte	0
 3592 00c0 00       		.byte	0
 3593 00c1 10       		.uleb128 0x10
 3594 00c2 26       		.uleb128 0x26
 3595 00c3 00       		.byte	0
 3596 00c4 49       		.uleb128 0x49
 3597 00c5 13       		.uleb128 0x13
 3598 00c6 00       		.byte	0
 3599 00c7 00       		.byte	0
 3600 00c8 11       		.uleb128 0x11
 3601 00c9 13       		.uleb128 0x13
 3602 00ca 01       		.byte	0x1
 3603 00cb 0B       		.uleb128 0xb
 3604 00cc 0B       		.uleb128 0xb
 3605 00cd 3A       		.uleb128 0x3a
 3606 00ce 0B       		.uleb128 0xb
 3607 00cf 3B       		.uleb128 0x3b
 3608 00d0 05       		.uleb128 0x5
 3609 00d1 01       		.uleb128 0x1
 3610 00d2 13       		.uleb128 0x13
 3611 00d3 00       		.byte	0
 3612 00d4 00       		.byte	0
 3613 00d5 12       		.uleb128 0x12
 3614 00d6 0D       		.uleb128 0xd
 3615 00d7 00       		.byte	0
 3616 00d8 03       		.uleb128 0x3
 3617 00d9 0E       		.uleb128 0xe
 3618 00da 3A       		.uleb128 0x3a
 3619 00db 0B       		.uleb128 0xb
 3620 00dc 3B       		.uleb128 0x3b
 3621 00dd 05       		.uleb128 0x5
 3622 00de 49       		.uleb128 0x49
 3623 00df 13       		.uleb128 0x13
 3624 00e0 38       		.uleb128 0x38
 3625 00e1 0A       		.uleb128 0xa
 3626 00e2 00       		.byte	0
 3627 00e3 00       		.byte	0
 3628 00e4 13       		.uleb128 0x13
 3629 00e5 16       		.uleb128 0x16
 3630 00e6 00       		.byte	0
 3631 00e7 03       		.uleb128 0x3
 3632 00e8 0E       		.uleb128 0xe
 3633 00e9 3A       		.uleb128 0x3a
 3634 00ea 0B       		.uleb128 0xb
 3635 00eb 3B       		.uleb128 0x3b
 3636 00ec 05       		.uleb128 0x5
 3637 00ed 49       		.uleb128 0x49
 3638 00ee 13       		.uleb128 0x13
 3639 00ef 00       		.byte	0
 3640 00f0 00       		.byte	0
 3641 00f1 14       		.uleb128 0x14
ARM GAS  /tmp/ccjPgi6s.s 			page 65


 3642 00f2 0D       		.uleb128 0xd
 3643 00f3 00       		.byte	0
 3644 00f4 03       		.uleb128 0x3
 3645 00f5 08       		.uleb128 0x8
 3646 00f6 3A       		.uleb128 0x3a
 3647 00f7 0B       		.uleb128 0xb
 3648 00f8 3B       		.uleb128 0x3b
 3649 00f9 0B       		.uleb128 0xb
 3650 00fa 49       		.uleb128 0x49
 3651 00fb 13       		.uleb128 0x13
 3652 00fc 00       		.byte	0
 3653 00fd 00       		.byte	0
 3654 00fe 15       		.uleb128 0x15
 3655 00ff 04       		.uleb128 0x4
 3656 0100 01       		.byte	0x1
 3657 0101 0B       		.uleb128 0xb
 3658 0102 0B       		.uleb128 0xb
 3659 0103 3A       		.uleb128 0x3a
 3660 0104 0B       		.uleb128 0xb
 3661 0105 3B       		.uleb128 0x3b
 3662 0106 0B       		.uleb128 0xb
 3663 0107 01       		.uleb128 0x1
 3664 0108 13       		.uleb128 0x13
 3665 0109 00       		.byte	0
 3666 010a 00       		.byte	0
 3667 010b 16       		.uleb128 0x16
 3668 010c 28       		.uleb128 0x28
 3669 010d 00       		.byte	0
 3670 010e 03       		.uleb128 0x3
 3671 010f 0E       		.uleb128 0xe
 3672 0110 1C       		.uleb128 0x1c
 3673 0111 0D       		.uleb128 0xd
 3674 0112 00       		.byte	0
 3675 0113 00       		.byte	0
 3676 0114 17       		.uleb128 0x17
 3677 0115 15       		.uleb128 0x15
 3678 0116 01       		.byte	0x1
 3679 0117 27       		.uleb128 0x27
 3680 0118 0C       		.uleb128 0xc
 3681 0119 01       		.uleb128 0x1
 3682 011a 13       		.uleb128 0x13
 3683 011b 00       		.byte	0
 3684 011c 00       		.byte	0
 3685 011d 18       		.uleb128 0x18
 3686 011e 05       		.uleb128 0x5
 3687 011f 00       		.byte	0
 3688 0120 49       		.uleb128 0x49
 3689 0121 13       		.uleb128 0x13
 3690 0122 00       		.byte	0
 3691 0123 00       		.byte	0
 3692 0124 19       		.uleb128 0x19
 3693 0125 2E       		.uleb128 0x2e
 3694 0126 01       		.byte	0x1
 3695 0127 03       		.uleb128 0x3
 3696 0128 0E       		.uleb128 0xe
 3697 0129 3A       		.uleb128 0x3a
 3698 012a 0B       		.uleb128 0xb
ARM GAS  /tmp/ccjPgi6s.s 			page 66


 3699 012b 3B       		.uleb128 0x3b
 3700 012c 0B       		.uleb128 0xb
 3701 012d 27       		.uleb128 0x27
 3702 012e 0C       		.uleb128 0xc
 3703 012f 11       		.uleb128 0x11
 3704 0130 01       		.uleb128 0x1
 3705 0131 12       		.uleb128 0x12
 3706 0132 01       		.uleb128 0x1
 3707 0133 40       		.uleb128 0x40
 3708 0134 06       		.uleb128 0x6
 3709 0135 9742     		.uleb128 0x2117
 3710 0137 0C       		.uleb128 0xc
 3711 0138 01       		.uleb128 0x1
 3712 0139 13       		.uleb128 0x13
 3713 013a 00       		.byte	0
 3714 013b 00       		.byte	0
 3715 013c 1A       		.uleb128 0x1a
 3716 013d 34       		.uleb128 0x34
 3717 013e 00       		.byte	0
 3718 013f 03       		.uleb128 0x3
 3719 0140 0E       		.uleb128 0xe
 3720 0141 3A       		.uleb128 0x3a
 3721 0142 0B       		.uleb128 0xb
 3722 0143 3B       		.uleb128 0x3b
 3723 0144 0B       		.uleb128 0xb
 3724 0145 49       		.uleb128 0x49
 3725 0146 13       		.uleb128 0x13
 3726 0147 02       		.uleb128 0x2
 3727 0148 0A       		.uleb128 0xa
 3728 0149 00       		.byte	0
 3729 014a 00       		.byte	0
 3730 014b 1B       		.uleb128 0x1b
 3731 014c 34       		.uleb128 0x34
 3732 014d 00       		.byte	0
 3733 014e 03       		.uleb128 0x3
 3734 014f 0E       		.uleb128 0xe
 3735 0150 3A       		.uleb128 0x3a
 3736 0151 0B       		.uleb128 0xb
 3737 0152 3B       		.uleb128 0x3b
 3738 0153 0B       		.uleb128 0xb
 3739 0154 49       		.uleb128 0x49
 3740 0155 13       		.uleb128 0x13
 3741 0156 02       		.uleb128 0x2
 3742 0157 06       		.uleb128 0x6
 3743 0158 00       		.byte	0
 3744 0159 00       		.byte	0
 3745 015a 1C       		.uleb128 0x1c
 3746 015b 898201   		.uleb128 0x4109
 3747 015e 00       		.byte	0
 3748 015f 11       		.uleb128 0x11
 3749 0160 01       		.uleb128 0x1
 3750 0161 31       		.uleb128 0x31
 3751 0162 13       		.uleb128 0x13
 3752 0163 00       		.byte	0
 3753 0164 00       		.byte	0
 3754 0165 1D       		.uleb128 0x1d
 3755 0166 898201   		.uleb128 0x4109
ARM GAS  /tmp/ccjPgi6s.s 			page 67


 3756 0169 01       		.byte	0x1
 3757 016a 11       		.uleb128 0x11
 3758 016b 01       		.uleb128 0x1
 3759 016c 31       		.uleb128 0x31
 3760 016d 13       		.uleb128 0x13
 3761 016e 01       		.uleb128 0x1
 3762 016f 13       		.uleb128 0x13
 3763 0170 00       		.byte	0
 3764 0171 00       		.byte	0
 3765 0172 1E       		.uleb128 0x1e
 3766 0173 8A8201   		.uleb128 0x410a
 3767 0176 00       		.byte	0
 3768 0177 02       		.uleb128 0x2
 3769 0178 0A       		.uleb128 0xa
 3770 0179 9142     		.uleb128 0x2111
 3771 017b 0A       		.uleb128 0xa
 3772 017c 00       		.byte	0
 3773 017d 00       		.byte	0
 3774 017e 1F       		.uleb128 0x1f
 3775 017f 2E       		.uleb128 0x2e
 3776 0180 01       		.byte	0x1
 3777 0181 3F       		.uleb128 0x3f
 3778 0182 0C       		.uleb128 0xc
 3779 0183 03       		.uleb128 0x3
 3780 0184 0E       		.uleb128 0xe
 3781 0185 3A       		.uleb128 0x3a
 3782 0186 0B       		.uleb128 0xb
 3783 0187 3B       		.uleb128 0x3b
 3784 0188 0B       		.uleb128 0xb
 3785 0189 27       		.uleb128 0x27
 3786 018a 0C       		.uleb128 0xc
 3787 018b 11       		.uleb128 0x11
 3788 018c 01       		.uleb128 0x1
 3789 018d 12       		.uleb128 0x12
 3790 018e 01       		.uleb128 0x1
 3791 018f 40       		.uleb128 0x40
 3792 0190 06       		.uleb128 0x6
 3793 0191 9742     		.uleb128 0x2117
 3794 0193 0C       		.uleb128 0xc
 3795 0194 01       		.uleb128 0x1
 3796 0195 13       		.uleb128 0x13
 3797 0196 00       		.byte	0
 3798 0197 00       		.byte	0
 3799 0198 20       		.uleb128 0x20
 3800 0199 898201   		.uleb128 0x4109
 3801 019c 01       		.byte	0x1
 3802 019d 11       		.uleb128 0x11
 3803 019e 01       		.uleb128 0x1
 3804 019f 31       		.uleb128 0x31
 3805 01a0 13       		.uleb128 0x13
 3806 01a1 00       		.byte	0
 3807 01a2 00       		.byte	0
 3808 01a3 21       		.uleb128 0x21
 3809 01a4 05       		.uleb128 0x5
 3810 01a5 00       		.byte	0
 3811 01a6 03       		.uleb128 0x3
 3812 01a7 0E       		.uleb128 0xe
ARM GAS  /tmp/ccjPgi6s.s 			page 68


 3813 01a8 3A       		.uleb128 0x3a
 3814 01a9 0B       		.uleb128 0xb
 3815 01aa 3B       		.uleb128 0x3b
 3816 01ab 0B       		.uleb128 0xb
 3817 01ac 49       		.uleb128 0x49
 3818 01ad 13       		.uleb128 0x13
 3819 01ae 02       		.uleb128 0x2
 3820 01af 06       		.uleb128 0x6
 3821 01b0 00       		.byte	0
 3822 01b1 00       		.byte	0
 3823 01b2 22       		.uleb128 0x22
 3824 01b3 01       		.uleb128 0x1
 3825 01b4 01       		.byte	0x1
 3826 01b5 49       		.uleb128 0x49
 3827 01b6 13       		.uleb128 0x13
 3828 01b7 01       		.uleb128 0x1
 3829 01b8 13       		.uleb128 0x13
 3830 01b9 00       		.byte	0
 3831 01ba 00       		.byte	0
 3832 01bb 23       		.uleb128 0x23
 3833 01bc 21       		.uleb128 0x21
 3834 01bd 00       		.byte	0
 3835 01be 49       		.uleb128 0x49
 3836 01bf 13       		.uleb128 0x13
 3837 01c0 2F       		.uleb128 0x2f
 3838 01c1 0B       		.uleb128 0xb
 3839 01c2 00       		.byte	0
 3840 01c3 00       		.byte	0
 3841 01c4 24       		.uleb128 0x24
 3842 01c5 05       		.uleb128 0x5
 3843 01c6 00       		.byte	0
 3844 01c7 03       		.uleb128 0x3
 3845 01c8 08       		.uleb128 0x8
 3846 01c9 3A       		.uleb128 0x3a
 3847 01ca 0B       		.uleb128 0xb
 3848 01cb 3B       		.uleb128 0x3b
 3849 01cc 0B       		.uleb128 0xb
 3850 01cd 49       		.uleb128 0x49
 3851 01ce 13       		.uleb128 0x13
 3852 01cf 02       		.uleb128 0x2
 3853 01d0 06       		.uleb128 0x6
 3854 01d1 00       		.byte	0
 3855 01d2 00       		.byte	0
 3856 01d3 25       		.uleb128 0x25
 3857 01d4 2E       		.uleb128 0x2e
 3858 01d5 01       		.byte	0x1
 3859 01d6 3F       		.uleb128 0x3f
 3860 01d7 0C       		.uleb128 0xc
 3861 01d8 03       		.uleb128 0x3
 3862 01d9 0E       		.uleb128 0xe
 3863 01da 3A       		.uleb128 0x3a
 3864 01db 0B       		.uleb128 0xb
 3865 01dc 3B       		.uleb128 0x3b
 3866 01dd 0B       		.uleb128 0xb
 3867 01de 27       		.uleb128 0x27
 3868 01df 0C       		.uleb128 0xc
 3869 01e0 49       		.uleb128 0x49
ARM GAS  /tmp/ccjPgi6s.s 			page 69


 3870 01e1 13       		.uleb128 0x13
 3871 01e2 11       		.uleb128 0x11
 3872 01e3 01       		.uleb128 0x1
 3873 01e4 12       		.uleb128 0x12
 3874 01e5 01       		.uleb128 0x1
 3875 01e6 40       		.uleb128 0x40
 3876 01e7 06       		.uleb128 0x6
 3877 01e8 9742     		.uleb128 0x2117
 3878 01ea 0C       		.uleb128 0xc
 3879 01eb 01       		.uleb128 0x1
 3880 01ec 13       		.uleb128 0x13
 3881 01ed 00       		.byte	0
 3882 01ee 00       		.byte	0
 3883 01ef 26       		.uleb128 0x26
 3884 01f0 2E       		.uleb128 0x2e
 3885 01f1 01       		.byte	0x1
 3886 01f2 3F       		.uleb128 0x3f
 3887 01f3 0C       		.uleb128 0xc
 3888 01f4 03       		.uleb128 0x3
 3889 01f5 0E       		.uleb128 0xe
 3890 01f6 3A       		.uleb128 0x3a
 3891 01f7 0B       		.uleb128 0xb
 3892 01f8 3B       		.uleb128 0x3b
 3893 01f9 05       		.uleb128 0x5
 3894 01fa 27       		.uleb128 0x27
 3895 01fb 0C       		.uleb128 0xc
 3896 01fc 11       		.uleb128 0x11
 3897 01fd 01       		.uleb128 0x1
 3898 01fe 12       		.uleb128 0x12
 3899 01ff 01       		.uleb128 0x1
 3900 0200 40       		.uleb128 0x40
 3901 0201 06       		.uleb128 0x6
 3902 0202 9742     		.uleb128 0x2117
 3903 0204 0C       		.uleb128 0xc
 3904 0205 01       		.uleb128 0x1
 3905 0206 13       		.uleb128 0x13
 3906 0207 00       		.byte	0
 3907 0208 00       		.byte	0
 3908 0209 27       		.uleb128 0x27
 3909 020a 05       		.uleb128 0x5
 3910 020b 00       		.byte	0
 3911 020c 03       		.uleb128 0x3
 3912 020d 0E       		.uleb128 0xe
 3913 020e 3A       		.uleb128 0x3a
 3914 020f 0B       		.uleb128 0xb
 3915 0210 3B       		.uleb128 0x3b
 3916 0211 05       		.uleb128 0x5
 3917 0212 49       		.uleb128 0x49
 3918 0213 13       		.uleb128 0x13
 3919 0214 02       		.uleb128 0x2
 3920 0215 06       		.uleb128 0x6
 3921 0216 00       		.byte	0
 3922 0217 00       		.byte	0
 3923 0218 28       		.uleb128 0x28
 3924 0219 34       		.uleb128 0x34
 3925 021a 00       		.byte	0
 3926 021b 03       		.uleb128 0x3
ARM GAS  /tmp/ccjPgi6s.s 			page 70


 3927 021c 0E       		.uleb128 0xe
 3928 021d 3A       		.uleb128 0x3a
 3929 021e 0B       		.uleb128 0xb
 3930 021f 3B       		.uleb128 0x3b
 3931 0220 05       		.uleb128 0x5
 3932 0221 49       		.uleb128 0x49
 3933 0222 13       		.uleb128 0x13
 3934 0223 02       		.uleb128 0x2
 3935 0224 0A       		.uleb128 0xa
 3936 0225 00       		.byte	0
 3937 0226 00       		.byte	0
 3938 0227 29       		.uleb128 0x29
 3939 0228 34       		.uleb128 0x34
 3940 0229 00       		.byte	0
 3941 022a 03       		.uleb128 0x3
 3942 022b 0E       		.uleb128 0xe
 3943 022c 3A       		.uleb128 0x3a
 3944 022d 0B       		.uleb128 0xb
 3945 022e 3B       		.uleb128 0x3b
 3946 022f 05       		.uleb128 0x5
 3947 0230 49       		.uleb128 0x49
 3948 0231 13       		.uleb128 0x13
 3949 0232 02       		.uleb128 0x2
 3950 0233 06       		.uleb128 0x6
 3951 0234 00       		.byte	0
 3952 0235 00       		.byte	0
 3953 0236 2A       		.uleb128 0x2a
 3954 0237 34       		.uleb128 0x34
 3955 0238 00       		.byte	0
 3956 0239 03       		.uleb128 0x3
 3957 023a 0E       		.uleb128 0xe
 3958 023b 3A       		.uleb128 0x3a
 3959 023c 0B       		.uleb128 0xb
 3960 023d 3B       		.uleb128 0x3b
 3961 023e 05       		.uleb128 0x5
 3962 023f 49       		.uleb128 0x49
 3963 0240 13       		.uleb128 0x13
 3964 0241 3F       		.uleb128 0x3f
 3965 0242 0C       		.uleb128 0xc
 3966 0243 3C       		.uleb128 0x3c
 3967 0244 0C       		.uleb128 0xc
 3968 0245 00       		.byte	0
 3969 0246 00       		.byte	0
 3970 0247 2B       		.uleb128 0x2b
 3971 0248 2E       		.uleb128 0x2e
 3972 0249 01       		.byte	0x1
 3973 024a 3F       		.uleb128 0x3f
 3974 024b 0C       		.uleb128 0xc
 3975 024c 03       		.uleb128 0x3
 3976 024d 0E       		.uleb128 0xe
 3977 024e 3A       		.uleb128 0x3a
 3978 024f 0B       		.uleb128 0xb
 3979 0250 3B       		.uleb128 0x3b
 3980 0251 05       		.uleb128 0x5
 3981 0252 27       		.uleb128 0x27
 3982 0253 0C       		.uleb128 0xc
 3983 0254 3C       		.uleb128 0x3c
ARM GAS  /tmp/ccjPgi6s.s 			page 71


 3984 0255 0C       		.uleb128 0xc
 3985 0256 01       		.uleb128 0x1
 3986 0257 13       		.uleb128 0x13
 3987 0258 00       		.byte	0
 3988 0259 00       		.byte	0
 3989 025a 2C       		.uleb128 0x2c
 3990 025b 26       		.uleb128 0x26
 3991 025c 00       		.byte	0
 3992 025d 00       		.byte	0
 3993 025e 00       		.byte	0
 3994 025f 2D       		.uleb128 0x2d
 3995 0260 2E       		.uleb128 0x2e
 3996 0261 01       		.byte	0x1
 3997 0262 3F       		.uleb128 0x3f
 3998 0263 0C       		.uleb128 0xc
 3999 0264 03       		.uleb128 0x3
 4000 0265 0E       		.uleb128 0xe
 4001 0266 3A       		.uleb128 0x3a
 4002 0267 0B       		.uleb128 0xb
 4003 0268 3B       		.uleb128 0x3b
 4004 0269 05       		.uleb128 0x5
 4005 026a 27       		.uleb128 0x27
 4006 026b 0C       		.uleb128 0xc
 4007 026c 3C       		.uleb128 0x3c
 4008 026d 0C       		.uleb128 0xc
 4009 026e 00       		.byte	0
 4010 026f 00       		.byte	0
 4011 0270 00       		.byte	0
 4012              		.section	.debug_loc,"",%progbits
 4013              	.Ldebug_loc0:
 4014              	.LLST0:
 4015 0000 00000000 		.4byte	.LFB62
 4016 0004 02000000 		.4byte	.LCFI0
 4017 0008 0200     		.2byte	0x2
 4018 000a 7D       		.byte	0x7d
 4019 000b 00       		.sleb128 0
 4020 000c 02000000 		.4byte	.LCFI0
 4021 0010 06000000 		.4byte	.LCFI1
 4022 0014 0200     		.2byte	0x2
 4023 0016 7D       		.byte	0x7d
 4024 0017 04       		.sleb128 4
 4025 0018 06000000 		.4byte	.LCFI1
 4026 001c 44000000 		.4byte	.LFE62
 4027 0020 0200     		.2byte	0x2
 4028 0022 7D       		.byte	0x7d
 4029 0023 10       		.sleb128 16
 4030 0024 00000000 		.4byte	0
 4031 0028 00000000 		.4byte	0
 4032              	.LLST1:
 4033 002c 0C000000 		.4byte	.LVL0
 4034 0030 30000000 		.4byte	.LVL5
 4035 0034 0200     		.2byte	0x2
 4036 0036 91       		.byte	0x91
 4037 0037 77       		.sleb128 -9
 4038 0038 00000000 		.4byte	0
 4039 003c 00000000 		.4byte	0
 4040              	.LLST2:
ARM GAS  /tmp/ccjPgi6s.s 			page 72


 4041 0040 00000000 		.4byte	.LFB63
 4042 0044 02000000 		.4byte	.LCFI2
 4043 0048 0200     		.2byte	0x2
 4044 004a 7D       		.byte	0x7d
 4045 004b 00       		.sleb128 0
 4046 004c 02000000 		.4byte	.LCFI2
 4047 0050 10000000 		.4byte	.LCFI3
 4048 0054 0200     		.2byte	0x2
 4049 0056 7D       		.byte	0x7d
 4050 0057 10       		.sleb128 16
 4051 0058 10000000 		.4byte	.LCFI3
 4052 005c CA000000 		.4byte	.LFE63
 4053 0060 0200     		.2byte	0x2
 4054 0062 7D       		.byte	0x7d
 4055 0063 18       		.sleb128 24
 4056 0064 00000000 		.4byte	0
 4057 0068 00000000 		.4byte	0
 4058              	.LLST3:
 4059 006c 66000000 		.4byte	.LVL13
 4060 0070 88000000 		.4byte	.LVL18
 4061 0074 0200     		.2byte	0x2
 4062 0076 75       		.byte	0x75
 4063 0077 7F       		.sleb128 -1
 4064 0078 88000000 		.4byte	.LVL18
 4065 007c CA000000 		.4byte	.LFE63
 4066 0080 0200     		.2byte	0x2
 4067 0082 91       		.byte	0x91
 4068 0083 6F       		.sleb128 -17
 4069 0084 00000000 		.4byte	0
 4070 0088 00000000 		.4byte	0
 4071              	.LLST4:
 4072 008c 00000000 		.4byte	.LFB64
 4073 0090 02000000 		.4byte	.LCFI4
 4074 0094 0200     		.2byte	0x2
 4075 0096 7D       		.byte	0x7d
 4076 0097 00       		.sleb128 0
 4077 0098 02000000 		.4byte	.LCFI4
 4078 009c 0E000000 		.4byte	.LCFI5
 4079 00a0 0200     		.2byte	0x2
 4080 00a2 7D       		.byte	0x7d
 4081 00a3 10       		.sleb128 16
 4082 00a4 0E000000 		.4byte	.LCFI5
 4083 00a8 8A000000 		.4byte	.LFE64
 4084 00ac 0200     		.2byte	0x2
 4085 00ae 7D       		.byte	0x7d
 4086 00af 20       		.sleb128 32
 4087 00b0 00000000 		.4byte	0
 4088 00b4 00000000 		.4byte	0
 4089              	.LLST5:
 4090 00b8 00000000 		.4byte	.LVL26
 4091 00bc 18000000 		.4byte	.LVL27
 4092 00c0 0100     		.2byte	0x1
 4093 00c2 50       		.byte	0x50
 4094 00c3 18000000 		.4byte	.LVL27
 4095 00c7 2D000000 		.4byte	.LVL28-1
 4096 00cb 0100     		.2byte	0x1
 4097 00cd 53       		.byte	0x53
ARM GAS  /tmp/ccjPgi6s.s 			page 73


 4098 00ce 2D000000 		.4byte	.LVL28-1
 4099 00d2 8A000000 		.4byte	.LFE64
 4100 00d6 0400     		.2byte	0x4
 4101 00d8 F3       		.byte	0xf3
 4102 00d9 01       		.uleb128 0x1
 4103 00da 50       		.byte	0x50
 4104 00db 9F       		.byte	0x9f
 4105 00dc 00000000 		.4byte	0
 4106 00e0 00000000 		.4byte	0
 4107              	.LLST6:
 4108 00e4 00000000 		.4byte	.LVL26
 4109 00e8 2D000000 		.4byte	.LVL28-1
 4110 00ec 0100     		.2byte	0x1
 4111 00ee 51       		.byte	0x51
 4112 00ef 2D000000 		.4byte	.LVL28-1
 4113 00f3 8A000000 		.4byte	.LFE64
 4114 00f7 0200     		.2byte	0x2
 4115 00f9 91       		.byte	0x91
 4116 00fa 67       		.sleb128 -25
 4117 00fb 00000000 		.4byte	0
 4118 00ff 00000000 		.4byte	0
 4119              	.LLST7:
 4120 0103 38000000 		.4byte	.LVL30
 4121 0107 56000000 		.4byte	.LVL34
 4122 010b 0200     		.2byte	0x2
 4123 010d 75       		.byte	0x75
 4124 010e 7B       		.sleb128 -5
 4125 010f 56000000 		.4byte	.LVL34
 4126 0113 8A000000 		.4byte	.LFE64
 4127 0117 0200     		.2byte	0x2
 4128 0119 91       		.byte	0x91
 4129 011a 6B       		.sleb128 -21
 4130 011b 00000000 		.4byte	0
 4131 011f 00000000 		.4byte	0
 4132              	.LLST8:
 4133 0123 00000000 		.4byte	.LFB65
 4134 0127 04000000 		.4byte	.LCFI6
 4135 012b 0200     		.2byte	0x2
 4136 012d 7D       		.byte	0x7d
 4137 012e 00       		.sleb128 0
 4138 012f 04000000 		.4byte	.LCFI6
 4139 0133 0C000000 		.4byte	.LCFI7
 4140 0137 0200     		.2byte	0x2
 4141 0139 7D       		.byte	0x7d
 4142 013a 18       		.sleb128 24
 4143 013b 0C000000 		.4byte	.LCFI7
 4144 013f 14010000 		.4byte	.LFE65
 4145 0143 0200     		.2byte	0x2
 4146 0145 7D       		.byte	0x7d
 4147 0146 20       		.sleb128 32
 4148 0147 00000000 		.4byte	0
 4149 014b 00000000 		.4byte	0
 4150              	.LLST9:
 4151 014f 00000000 		.4byte	.LVL41
 4152 0153 10000000 		.4byte	.LVL43
 4153 0157 0100     		.2byte	0x1
 4154 0159 50       		.byte	0x50
ARM GAS  /tmp/ccjPgi6s.s 			page 74


 4155 015a 10000000 		.4byte	.LVL43
 4156 015e 37000000 		.4byte	.LVL46-1
 4157 0162 0100     		.2byte	0x1
 4158 0164 53       		.byte	0x53
 4159 0165 37000000 		.4byte	.LVL46-1
 4160 0169 14010000 		.4byte	.LFE65
 4161 016d 0400     		.2byte	0x4
 4162 016f F3       		.byte	0xf3
 4163 0170 01       		.uleb128 0x1
 4164 0171 50       		.byte	0x50
 4165 0172 9F       		.byte	0x9f
 4166 0173 00000000 		.4byte	0
 4167 0177 00000000 		.4byte	0
 4168              	.LLST10:
 4169 017b 00000000 		.4byte	.LVL41
 4170 017f 22000000 		.4byte	.LVL45
 4171 0183 0100     		.2byte	0x1
 4172 0185 51       		.byte	0x51
 4173 0186 22000000 		.4byte	.LVL45
 4174 018a 14010000 		.4byte	.LFE65
 4175 018e 0100     		.2byte	0x1
 4176 0190 56       		.byte	0x56
 4177 0191 00000000 		.4byte	0
 4178 0195 00000000 		.4byte	0
 4179              	.LLST11:
 4180 0199 00000000 		.4byte	.LVL41
 4181 019d 0A000000 		.4byte	.LVL42
 4182 01a1 0100     		.2byte	0x1
 4183 01a3 52       		.byte	0x52
 4184 01a4 0A000000 		.4byte	.LVL42
 4185 01a8 14010000 		.4byte	.LFE65
 4186 01ac 0100     		.2byte	0x1
 4187 01ae 55       		.byte	0x55
 4188 01af 00000000 		.4byte	0
 4189 01b3 00000000 		.4byte	0
 4190              	.LLST12:
 4191 01b7 4A000000 		.4byte	.LVL49
 4192 01bb 64000000 		.4byte	.LVL52
 4193 01bf 0200     		.2byte	0x2
 4194 01c1 77       		.byte	0x77
 4195 01c2 7A       		.sleb128 -6
 4196 01c3 64000000 		.4byte	.LVL52
 4197 01c7 14010000 		.4byte	.LFE65
 4198 01cb 0200     		.2byte	0x2
 4199 01cd 91       		.byte	0x91
 4200 01ce 62       		.sleb128 -30
 4201 01cf 00000000 		.4byte	0
 4202 01d3 00000000 		.4byte	0
 4203              	.LLST13:
 4204 01d7 16000000 		.4byte	.LVL44
 4205 01db 92000000 		.4byte	.LVL58
 4206 01df 0200     		.2byte	0x2
 4207 01e1 32       		.byte	0x32
 4208 01e2 9F       		.byte	0x9f
 4209 01e3 BE000000 		.4byte	.LVL63
 4210 01e7 CA000000 		.4byte	.LVL65
 4211 01eb 0100     		.2byte	0x1
ARM GAS  /tmp/ccjPgi6s.s 			page 75


 4212 01ed 54       		.byte	0x54
 4213 01ee 00000000 		.4byte	0
 4214 01f2 00000000 		.4byte	0
 4215              	.LLST14:
 4216 01f6 00000000 		.4byte	.LFB66
 4217 01fa 02000000 		.4byte	.LCFI8
 4218 01fe 0200     		.2byte	0x2
 4219 0200 7D       		.byte	0x7d
 4220 0201 00       		.sleb128 0
 4221 0202 02000000 		.4byte	.LCFI8
 4222 0206 0E000000 		.4byte	.LCFI9
 4223 020a 0200     		.2byte	0x2
 4224 020c 7D       		.byte	0x7d
 4225 020d 10       		.sleb128 16
 4226 020e 0E000000 		.4byte	.LCFI9
 4227 0212 80000000 		.4byte	.LFE66
 4228 0216 0200     		.2byte	0x2
 4229 0218 7D       		.byte	0x7d
 4230 0219 18       		.sleb128 24
 4231 021a 00000000 		.4byte	0
 4232 021e 00000000 		.4byte	0
 4233              	.LLST15:
 4234 0222 00000000 		.4byte	.LVL74
 4235 0226 18000000 		.4byte	.LVL75
 4236 022a 0100     		.2byte	0x1
 4237 022c 50       		.byte	0x50
 4238 022d 18000000 		.4byte	.LVL75
 4239 0231 2F000000 		.4byte	.LVL77-1
 4240 0235 0100     		.2byte	0x1
 4241 0237 53       		.byte	0x53
 4242 0238 2F000000 		.4byte	.LVL77-1
 4243 023c 80000000 		.4byte	.LFE66
 4244 0240 0400     		.2byte	0x4
 4245 0242 F3       		.byte	0xf3
 4246 0243 01       		.uleb128 0x1
 4247 0244 50       		.byte	0x50
 4248 0245 9F       		.byte	0x9f
 4249 0246 00000000 		.4byte	0
 4250 024a 00000000 		.4byte	0
 4251              	.LLST16:
 4252 024e 00000000 		.4byte	.LFB67
 4253 0252 02000000 		.4byte	.LCFI10
 4254 0256 0200     		.2byte	0x2
 4255 0258 7D       		.byte	0x7d
 4256 0259 00       		.sleb128 0
 4257 025a 02000000 		.4byte	.LCFI10
 4258 025e 0E000000 		.4byte	.LCFI11
 4259 0262 0200     		.2byte	0x2
 4260 0264 7D       		.byte	0x7d
 4261 0265 14       		.sleb128 20
 4262 0266 0E000000 		.4byte	.LCFI11
 4263 026a 7E000000 		.4byte	.LFE67
 4264 026e 0200     		.2byte	0x2
 4265 0270 7D       		.byte	0x7d
 4266 0271 20       		.sleb128 32
 4267 0272 00000000 		.4byte	0
 4268 0276 00000000 		.4byte	0
ARM GAS  /tmp/ccjPgi6s.s 			page 76


 4269              	.LLST17:
 4270 027a 00000000 		.4byte	.LVL87
 4271 027e 18000000 		.4byte	.LVL88
 4272 0282 0100     		.2byte	0x1
 4273 0284 50       		.byte	0x50
 4274 0285 18000000 		.4byte	.LVL88
 4275 0289 33000000 		.4byte	.LVL91-1
 4276 028d 0100     		.2byte	0x1
 4277 028f 53       		.byte	0x53
 4278 0290 33000000 		.4byte	.LVL91-1
 4279 0294 7E000000 		.4byte	.LFE67
 4280 0298 0400     		.2byte	0x4
 4281 029a F3       		.byte	0xf3
 4282 029b 01       		.uleb128 0x1
 4283 029c 50       		.byte	0x50
 4284 029d 9F       		.byte	0x9f
 4285 029e 00000000 		.4byte	0
 4286 02a2 00000000 		.4byte	0
 4287              	.LLST18:
 4288 02a6 00000000 		.4byte	.LVL87
 4289 02aa 33000000 		.4byte	.LVL91-1
 4290 02ae 0100     		.2byte	0x1
 4291 02b0 51       		.byte	0x51
 4292 02b1 33000000 		.4byte	.LVL91-1
 4293 02b5 7E000000 		.4byte	.LFE67
 4294 02b9 0100     		.2byte	0x1
 4295 02bb 56       		.byte	0x56
 4296 02bc 00000000 		.4byte	0
 4297 02c0 00000000 		.4byte	0
 4298              	.LLST19:
 4299 02c4 00000000 		.4byte	.LVL87
 4300 02c8 1C000000 		.4byte	.LVL89
 4301 02cc 0100     		.2byte	0x1
 4302 02ce 52       		.byte	0x52
 4303 02cf 1C000000 		.4byte	.LVL89
 4304 02d3 7E000000 		.4byte	.LFE67
 4305 02d7 0100     		.2byte	0x1
 4306 02d9 57       		.byte	0x57
 4307 02da 00000000 		.4byte	0
 4308 02de 00000000 		.4byte	0
 4309              	.LLST20:
 4310 02e2 00000000 		.4byte	.LFB68
 4311 02e6 02000000 		.4byte	.LCFI12
 4312 02ea 0200     		.2byte	0x2
 4313 02ec 7D       		.byte	0x7d
 4314 02ed 00       		.sleb128 0
 4315 02ee 02000000 		.4byte	.LCFI12
 4316 02f2 06000000 		.4byte	.LCFI13
 4317 02f6 0200     		.2byte	0x2
 4318 02f8 7D       		.byte	0x7d
 4319 02f9 14       		.sleb128 20
 4320 02fa 06000000 		.4byte	.LCFI13
 4321 02fe 88000000 		.4byte	.LFE68
 4322 0302 0200     		.2byte	0x2
 4323 0304 7D       		.byte	0x7d
 4324 0305 20       		.sleb128 32
 4325 0306 00000000 		.4byte	0
ARM GAS  /tmp/ccjPgi6s.s 			page 77


 4326 030a 00000000 		.4byte	0
 4327              	.LLST21:
 4328 030e 00000000 		.4byte	.LVL101
 4329 0312 10000000 		.4byte	.LVL102
 4330 0316 0100     		.2byte	0x1
 4331 0318 50       		.byte	0x50
 4332 0319 10000000 		.4byte	.LVL102
 4333 031d 23000000 		.4byte	.LVL103-1
 4334 0321 0100     		.2byte	0x1
 4335 0323 53       		.byte	0x53
 4336 0324 23000000 		.4byte	.LVL103-1
 4337 0328 88000000 		.4byte	.LFE68
 4338 032c 0400     		.2byte	0x4
 4339 032e F3       		.byte	0xf3
 4340 032f 01       		.uleb128 0x1
 4341 0330 50       		.byte	0x50
 4342 0331 9F       		.byte	0x9f
 4343 0332 00000000 		.4byte	0
 4344 0336 00000000 		.4byte	0
 4345              	.LLST22:
 4346 033a 00000000 		.4byte	.LVL101
 4347 033e 23000000 		.4byte	.LVL103-1
 4348 0342 0100     		.2byte	0x1
 4349 0344 51       		.byte	0x51
 4350 0345 23000000 		.4byte	.LVL103-1
 4351 0349 88000000 		.4byte	.LFE68
 4352 034d 0400     		.2byte	0x4
 4353 034f F3       		.byte	0xf3
 4354 0350 01       		.uleb128 0x1
 4355 0351 51       		.byte	0x51
 4356 0352 9F       		.byte	0x9f
 4357 0353 00000000 		.4byte	0
 4358 0357 00000000 		.4byte	0
 4359              	.LLST23:
 4360 035b 00000000 		.4byte	.LVL101
 4361 035f 23000000 		.4byte	.LVL103-1
 4362 0363 0100     		.2byte	0x1
 4363 0365 52       		.byte	0x52
 4364 0366 23000000 		.4byte	.LVL103-1
 4365 036a 88000000 		.4byte	.LFE68
 4366 036e 0400     		.2byte	0x4
 4367 0370 F3       		.byte	0xf3
 4368 0371 01       		.uleb128 0x1
 4369 0372 52       		.byte	0x52
 4370 0373 9F       		.byte	0x9f
 4371 0374 00000000 		.4byte	0
 4372 0378 00000000 		.4byte	0
 4373              	.LLST24:
 4374 037c 36000000 		.4byte	.LVL106
 4375 0380 4C000000 		.4byte	.LVL109
 4376 0384 0200     		.2byte	0x2
 4377 0386 74       		.byte	0x74
 4378 0387 7B       		.sleb128 -5
 4379 0388 4C000000 		.4byte	.LVL109
 4380 038c 88000000 		.4byte	.LFE68
 4381 0390 0200     		.2byte	0x2
 4382 0392 91       		.byte	0x91
ARM GAS  /tmp/ccjPgi6s.s 			page 78


 4383 0393 63       		.sleb128 -29
 4384 0394 00000000 		.4byte	0
 4385 0398 00000000 		.4byte	0
 4386              		.section	.debug_aranges,"",%progbits
 4387 0000 4C000000 		.4byte	0x4c
 4388 0004 0200     		.2byte	0x2
 4389 0006 00000000 		.4byte	.Ldebug_info0
 4390 000a 04       		.byte	0x4
 4391 000b 00       		.byte	0
 4392 000c 0000     		.2byte	0
 4393 000e 0000     		.2byte	0
 4394 0010 00000000 		.4byte	.LFB62
 4395 0014 44000000 		.4byte	.LFE62-.LFB62
 4396 0018 00000000 		.4byte	.LFB63
 4397 001c CA000000 		.4byte	.LFE63-.LFB63
 4398 0020 00000000 		.4byte	.LFB64
 4399 0024 8A000000 		.4byte	.LFE64-.LFB64
 4400 0028 00000000 		.4byte	.LFB65
 4401 002c 14010000 		.4byte	.LFE65-.LFB65
 4402 0030 00000000 		.4byte	.LFB66
 4403 0034 80000000 		.4byte	.LFE66-.LFB66
 4404 0038 00000000 		.4byte	.LFB67
 4405 003c 7E000000 		.4byte	.LFE67-.LFB67
 4406 0040 00000000 		.4byte	.LFB68
 4407 0044 88000000 		.4byte	.LFE68-.LFB68
 4408 0048 00000000 		.4byte	0
 4409 004c 00000000 		.4byte	0
 4410              		.section	.debug_ranges,"",%progbits
 4411              	.Ldebug_ranges0:
 4412 0000 00000000 		.4byte	.LFB62
 4413 0004 44000000 		.4byte	.LFE62
 4414 0008 00000000 		.4byte	.LFB63
 4415 000c CA000000 		.4byte	.LFE63
 4416 0010 00000000 		.4byte	.LFB64
 4417 0014 8A000000 		.4byte	.LFE64
 4418 0018 00000000 		.4byte	.LFB65
 4419 001c 14010000 		.4byte	.LFE65
 4420 0020 00000000 		.4byte	.LFB66
 4421 0024 80000000 		.4byte	.LFE66
 4422 0028 00000000 		.4byte	.LFB67
 4423 002c 7E000000 		.4byte	.LFE67
 4424 0030 00000000 		.4byte	.LFB68
 4425 0034 88000000 		.4byte	.LFE68
 4426 0038 00000000 		.4byte	0
 4427 003c 00000000 		.4byte	0
 4428              		.section	.debug_line,"",%progbits
 4429              	.Ldebug_line0:
 4430 0000 E9030000 		.section	.debug_str,"MS",%progbits,1
 4430      02007D02 
 4430      00000201 
 4430      FB0E0D00 
 4430      01010101 
 4431              	.LASF41:
 4432 0000 54687265 		.ascii	"ThreadsList\000"
 4432      6164734C 
 4432      69737400 
 4433              	.LASF33:
ARM GAS  /tmp/ccjPgi6s.s 			page 79


 4434 000c 705F7761 		.ascii	"p_waiting\000"
 4434      6974696E 
 4434      6700
 4435              	.LASF32:
 4436 0016 705F7469 		.ascii	"p_time\000"
 4436      6D6500
 4437              	.LASF81:
 4438 001d 42535252 		.ascii	"BSRR\000"
 4438      00
 4439              	.LASF42:
 4440 0022 72656761 		.ascii	"regarm_t\000"
 4440      726D5F74 
 4440      00
 4441              	.LASF24:
 4442 002b 705F7072 		.ascii	"p_prio\000"
 4442      696F00
 4443              	.LASF20:
 4444 0032 73797374 		.ascii	"systime_t\000"
 4444      696D655F 
 4444      7400
 4445              	.LASF122:
 4446 003c 666C6173 		.ascii	"flashReadBytes\000"
 4446      68526561 
 4446      64427974 
 4446      657300
 4447              	.LASF48:
 4448 004b 6D5F6F77 		.ascii	"m_owner\000"
 4448      6E657200 
 4449              	.LASF34:
 4450 0053 705F6D73 		.ascii	"p_msgqueue\000"
 4450      67717565 
 4450      756500
 4451              	.LASF0:
 4452 005e 756E7369 		.ascii	"unsigned int\000"
 4452      676E6564 
 4452      20696E74 
 4452      00
 4453              	.LASF71:
 4454 006b 69666372 		.ascii	"ifcr\000"
 4454      00
 4455              	.LASF121:
 4456 0070 7A65726F 		.ascii	"zero\000"
 4456      00
 4457              	.LASF120:
 4458 0075 72657475 		.ascii	"returnByte\000"
 4458      726E4279 
 4458      746500
 4459              	.LASF65:
 4460 0080 52584352 		.ascii	"RXCRCR\000"
 4460      435200
 4461              	.LASF57:
 4462 0087 434D4152 		.ascii	"CMAR\000"
 4462      00
 4463              	.LASF118:
 4464 008c 7A65726F 		.ascii	"zero_fill\000"
 4464      5F66696C 
 4464      6C00
ARM GAS  /tmp/ccjPgi6s.s 			page 80


 4465              	.LASF52:
 4466 0096 77746F62 		.ascii	"wtobjp\000"
 4466      6A7000
 4467              	.LASF130:
 4468 009d 73706953 		.ascii	"spiSend\000"
 4468      656E6400 
 4469              	.LASF58:
 4470 00a5 444D415F 		.ascii	"DMA_Channel_TypeDef\000"
 4470      4368616E 
 4470      6E656C5F 
 4470      54797065 
 4470      44656600 
 4471              	.LASF53:
 4472 00b9 65776D61 		.ascii	"ewmask\000"
 4472      736B00
 4473              	.LASF141:
 4474 00c0 73706952 		.ascii	"spiReleaseBus\000"
 4474      656C6561 
 4474      73654275 
 4474      7300
 4475              	.LASF95:
 4476 00ce 53504944 		.ascii	"SPIDriver\000"
 4476      72697665 
 4476      7200
 4477              	.LASF55:
 4478 00d8 434E4454 		.ascii	"CNDTR\000"
 4478      5200
 4479              	.LASF111:
 4480 00de 7370695F 		.ascii	"spi_cmd\000"
 4480      636D6400 
 4481              	.LASF117:
 4482 00e6 666C6173 		.ascii	"flashWriteBytes\000"
 4482      68577269 
 4482      74654279 
 4482      74657300 
 4483              	.LASF126:
 4484 00f6 73706931 		.ascii	"spi1cfg\000"
 4484      63666700 
 4485              	.LASF101:
 4486 00fe 646D6174 		.ascii	"dmatx\000"
 4486      7800
 4487              	.LASF10:
 4488 0104 75696E74 		.ascii	"uint32_t\000"
 4488      33325F74 
 4488      00
 4489              	.LASF19:
 4490 010d 6576656E 		.ascii	"eventmask_t\000"
 4490      746D6173 
 4490      6B5F7400 
 4491              	.LASF136:
 4492 0119 474E5520 		.ascii	"GNU C 4.7.2\000"
 4492      4320342E 
 4492      372E3200 
 4493              	.LASF99:
 4494 0125 6D757465 		.ascii	"mutex\000"
 4494      7800
 4495              	.LASF17:
ARM GAS  /tmp/ccjPgi6s.s 			page 81


 4496 012b 74707269 		.ascii	"tprio_t\000"
 4496      6F5F7400 
 4497              	.LASF116:
 4498 0133 666C6173 		.ascii	"flash_addr\000"
 4498      685F6164 
 4498      647200
 4499              	.LASF105:
 4500 013e 656E645F 		.ascii	"end_cb\000"
 4500      636200
 4501              	.LASF13:
 4502 0145 6C6F6E67 		.ascii	"long long unsigned int\000"
 4502      206C6F6E 
 4502      6720756E 
 4502      7369676E 
 4502      65642069 
 4503              	.LASF109:
 4504 015c 666C6173 		.ascii	"flash_cmd\000"
 4504      685F636D 
 4504      6400
 4505              	.LASF74:
 4506 0166 76656374 		.ascii	"vector\000"
 4506      6F7200
 4507              	.LASF124:
 4508 016d 65726173 		.ascii	"erase_cmd\000"
 4508      655F636D 
 4508      6400
 4509              	.LASF77:
 4510 0177 4D4F4445 		.ascii	"MODER\000"
 4510      5200
 4511              	.LASF106:
 4512 017d 7373706F 		.ascii	"ssport\000"
 4512      727400
 4513              	.LASF84:
 4514 0184 41465248 		.ascii	"AFRH\000"
 4514      00
 4515              	.LASF83:
 4516 0189 4146524C 		.ascii	"AFRL\000"
 4516      00
 4517              	.LASF26:
 4518 018e 705F6E65 		.ascii	"p_newer\000"
 4518      77657200 
 4519              	.LASF76:
 4520 0196 636C6561 		.ascii	"clear\000"
 4520      7200
 4521              	.LASF56:
 4522 019c 43504152 		.ascii	"CPAR\000"
 4522      00
 4523              	.LASF137:
 4524 01a1 2E2F7370 		.ascii	"./spi_flash/spi_flash.c\000"
 4524      695F666C 
 4524      6173682F 
 4524      7370695F 
 4524      666C6173 
 4525              	.LASF133:
 4526 01b9 73706953 		.ascii	"spiStart\000"
 4526      74617274 
 4526      00
ARM GAS  /tmp/ccjPgi6s.s 			page 82


 4527              	.LASF129:
 4528 01c2 73706953 		.ascii	"spiSelect\000"
 4528      656C6563 
 4528      7400
 4529              	.LASF2:
 4530 01cc 73697A65 		.ascii	"size_t\000"
 4530      5F7400
 4531              	.LASF50:
 4532 01d3 7264796D 		.ascii	"rdymsg\000"
 4532      736700
 4533              	.LASF139:
 4534 01da 63686563 		.ascii	"checkBusy\000"
 4534      6B427573 
 4534      7900
 4535              	.LASF119:
 4536 01e4 74785F62 		.ascii	"tx_bytes\000"
 4536      79746573 
 4536      00
 4537              	.LASF108:
 4538 01ed 53504943 		.ascii	"SPIConfig\000"
 4538      6F6E6669 
 4538      6700
 4539              	.LASF67:
 4540 01f7 54584352 		.ascii	"TXCRCR\000"
 4540      435200
 4541              	.LASF46:
 4542 01fe 4D757465 		.ascii	"Mutex\000"
 4542      7800
 4543              	.LASF113:
 4544 0204 666C6173 		.ascii	"flashWriteByte\000"
 4544      68577269 
 4544      74654279 
 4544      746500
 4545              	.LASF80:
 4546 0213 50555044 		.ascii	"PUPDR\000"
 4546      5200
 4547              	.LASF28:
 4548 0219 705F6E61 		.ascii	"p_name\000"
 4548      6D6500
 4549              	.LASF40:
 4550 0220 54687265 		.ascii	"ThreadsQueue\000"
 4550      61647351 
 4550      75657565 
 4550      00
 4551              	.LASF54:
 4552 022d 63686172 		.ascii	"char\000"
 4552      00
 4553              	.LASF103:
 4554 0232 7478646D 		.ascii	"txdmamode\000"
 4554      616D6F64 
 4554      6500
 4555              	.LASF72:
 4556 023c 69736869 		.ascii	"ishift\000"
 4556      667400
 4557              	.LASF21:
 4558 0243 54687265 		.ascii	"Thread\000"
 4558      616400
ARM GAS  /tmp/ccjPgi6s.s 			page 83


 4559              	.LASF135:
 4560 024a 73706941 		.ascii	"spiAcquireBus\000"
 4560      63717569 
 4560      72654275 
 4560      7300
 4561              	.LASF15:
 4562 0258 74737461 		.ascii	"tstate_t\000"
 4562      74655F74 
 4562      00
 4563              	.LASF115:
 4564 0261 64617461 		.ascii	"data\000"
 4564      00
 4565              	.LASF75:
 4566 0266 73746D33 		.ascii	"stm32_dma_stream_t\000"
 4566      325F646D 
 4566      615F7374 
 4566      7265616D 
 4566      5F7400
 4567              	.LASF27:
 4568 0279 705F6F6C 		.ascii	"p_older\000"
 4568      64657200 
 4569              	.LASF29:
 4570 0281 705F7374 		.ascii	"p_state\000"
 4570      61746500 
 4571              	.LASF112:
 4572 0289 636F6E66 		.ascii	"configureSPIFlash\000"
 4572      69677572 
 4572      65535049 
 4572      466C6173 
 4572      6800
 4573              	.LASF3:
 4574 029b 75696E74 		.ascii	"uint8_t\000"
 4574      385F7400 
 4575              	.LASF100:
 4576 02a3 646D6172 		.ascii	"dmarx\000"
 4576      7800
 4577              	.LASF39:
 4578 02a9 705F6D70 		.ascii	"p_mpool\000"
 4578      6F6F6C00 
 4579              	.LASF37:
 4580 02b1 705F6D74 		.ascii	"p_mtxlist\000"
 4580      786C6973 
 4580      7400
 4581              	.LASF12:
 4582 02bb 6C6F6E67 		.ascii	"long long int\000"
 4582      206C6F6E 
 4582      6720696E 
 4582      7400
 4583              	.LASF104:
 4584 02c9 73706963 		.ascii	"spicallback_t\000"
 4584      616C6C62 
 4584      61636B5F 
 4584      7400
 4585              	.LASF140:
 4586 02d7 666C6173 		.ascii	"flashReadByte\000"
 4586      68526561 
 4586      64427974 
ARM GAS  /tmp/ccjPgi6s.s 			page 84


 4586      6500
 4587              	.LASF18:
 4588 02e5 6D73675F 		.ascii	"msg_t\000"
 4588      7400
 4589              	.LASF138:
 4590 02eb 2F686F6D 		.ascii	"/home/mitchd/Documents/FOX-1/amsat-fox/stm32l1-deve"
 4590      652F6D69 
 4590      74636864 
 4590      2F446F63 
 4590      756D656E 
 4591 031e 6C00     		.ascii	"l\000"
 4592              	.LASF44:
 4593 0320 636F6E74 		.ascii	"context\000"
 4593      65787400 
 4594              	.LASF30:
 4595 0328 705F666C 		.ascii	"p_flags\000"
 4595      61677300 
 4596              	.LASF86:
 4597 0330 696F706F 		.ascii	"ioportmask_t\000"
 4597      72746D61 
 4597      736B5F74 
 4597      00
 4598              	.LASF92:
 4599 033d 5350495F 		.ascii	"SPI_ACTIVE\000"
 4599      41435449 
 4599      564500
 4600              	.LASF123:
 4601 0348 666C6173 		.ascii	"flashErase\000"
 4601      68457261 
 4601      736500
 4602              	.LASF125:
 4603 0353 77616974 		.ascii	"wait\000"
 4603      00
 4604              	.LASF35:
 4605 0358 705F6D73 		.ascii	"p_msg\000"
 4605      6700
 4606              	.LASF14:
 4607 035e 746D6F64 		.ascii	"tmode_t\000"
 4607      655F7400 
 4608              	.LASF79:
 4609 0366 4F535045 		.ascii	"OSPEEDR\000"
 4609      45445200 
 4610              	.LASF6:
 4611 036e 75696E74 		.ascii	"uint16_t\000"
 4611      31365F74 
 4611      00
 4612              	.LASF43:
 4613 0377 696E7463 		.ascii	"intctx\000"
 4613      747800
 4614              	.LASF89:
 4615 037e 5350495F 		.ascii	"SPI_UNINIT\000"
 4615      554E494E 
 4615      495400
 4616              	.LASF70:
 4617 0389 6368616E 		.ascii	"channel\000"
 4617      6E656C00 
 4618              	.LASF128:
ARM GAS  /tmp/ccjPgi6s.s 			page 85


 4619 0391 53504944 		.ascii	"SPID1\000"
 4619      3100
 4620              	.LASF97:
 4621 0397 636F6E66 		.ascii	"config\000"
 4621      696700
 4622              	.LASF38:
 4623 039e 705F7265 		.ascii	"p_realprio\000"
 4623      616C7072 
 4623      696F00
 4624              	.LASF60:
 4625 03a9 52455345 		.ascii	"RESERVED1\000"
 4625      52564544 
 4625      3100
 4626              	.LASF61:
 4627 03b3 52455345 		.ascii	"RESERVED2\000"
 4627      52564544 
 4627      3200
 4628              	.LASF62:
 4629 03bd 52455345 		.ascii	"RESERVED3\000"
 4629      52564544 
 4629      3300
 4630              	.LASF64:
 4631 03c7 52455345 		.ascii	"RESERVED4\000"
 4631      52564544 
 4631      3400
 4632              	.LASF66:
 4633 03d1 52455345 		.ascii	"RESERVED5\000"
 4633      52564544 
 4633      3500
 4634              	.LASF68:
 4635 03db 52455345 		.ascii	"RESERVED6\000"
 4635      52564544 
 4635      3600
 4636              	.LASF5:
 4637 03e5 73686F72 		.ascii	"short int\000"
 4637      7420696E 
 4637      7400
 4638              	.LASF36:
 4639 03ef 705F6570 		.ascii	"p_epending\000"
 4639      656E6469 
 4639      6E6700
 4640              	.LASF47:
 4641 03fa 6D5F7175 		.ascii	"m_queue\000"
 4641      65756500 
 4642              	.LASF9:
 4643 0402 6C6F6E67 		.ascii	"long int\000"
 4643      20696E74 
 4643      00
 4644              	.LASF94:
 4645 040b 73706973 		.ascii	"spistate_t\000"
 4645      74617465 
 4645      5F7400
 4646              	.LASF127:
 4647 0416 49544D5F 		.ascii	"ITM_RxBuffer\000"
 4647      52784275 
 4647      66666572 
 4647      00
ARM GAS  /tmp/ccjPgi6s.s 			page 86


 4648              	.LASF78:
 4649 0423 4F545950 		.ascii	"OTYPER\000"
 4649      455200
 4650              	.LASF22:
 4651 042a 705F6E65 		.ascii	"p_next\000"
 4651      787400
 4652              	.LASF25:
 4653 0431 705F6374 		.ascii	"p_ctx\000"
 4653      7800
 4654              	.LASF91:
 4655 0437 5350495F 		.ascii	"SPI_READY\000"
 4655      52454144 
 4655      5900
 4656              	.LASF88:
 4657 0441 696F706F 		.ascii	"ioportid_t\000"
 4657      72746964 
 4657      5F7400
 4658              	.LASF85:
 4659 044c 4750494F 		.ascii	"GPIO_TypeDef\000"
 4659      5F547970 
 4659      65446566 
 4659      00
 4660              	.LASF23:
 4661 0459 705F7072 		.ascii	"p_prev\000"
 4661      657600
 4662              	.LASF45:
 4663 0460 73697A65 		.ascii	"sizetype\000"
 4663      74797065 
 4663      00
 4664              	.LASF16:
 4665 0469 74726566 		.ascii	"trefs_t\000"
 4665      735F7400 
 4666              	.LASF11:
 4667 0471 6C6F6E67 		.ascii	"long unsigned int\000"
 4667      20756E73 
 4667      69676E65 
 4667      6420696E 
 4667      7400
 4668              	.LASF90:
 4669 0483 5350495F 		.ascii	"SPI_STOP\000"
 4669      53544F50 
 4669      00
 4670              	.LASF8:
 4671 048c 696E7433 		.ascii	"int32_t\000"
 4671      325F7400 
 4672              	.LASF98:
 4673 0494 74687265 		.ascii	"thread\000"
 4673      616400
 4674              	.LASF63:
 4675 049b 43524350 		.ascii	"CRCPR\000"
 4675      5200
 4676              	.LASF4:
 4677 04a1 756E7369 		.ascii	"unsigned char\000"
 4677      676E6564 
 4677      20636861 
 4677      7200
 4678              	.LASF31:
ARM GAS  /tmp/ccjPgi6s.s 			page 87


 4679 04af 705F7265 		.ascii	"p_refs\000"
 4679      667300
 4680              	.LASF102:
 4681 04b6 7278646D 		.ascii	"rxdmamode\000"
 4681      616D6F64 
 4681      6500
 4682              	.LASF131:
 4683 04c0 73706952 		.ascii	"spiReceive\000"
 4683      65636569 
 4683      766500
 4684              	.LASF114:
 4685 04cb 61646472 		.ascii	"addr\000"
 4685      00
 4686              	.LASF96:
 4687 04d0 73746174 		.ascii	"state\000"
 4687      6500
 4688              	.LASF69:
 4689 04d6 5350495F 		.ascii	"SPI_TypeDef\000"
 4689      54797065 
 4689      44656600 
 4690              	.LASF132:
 4691 04e2 73706955 		.ascii	"spiUnselect\000"
 4691      6E73656C 
 4691      65637400 
 4692              	.LASF134:
 4693 04ee 5F70616C 		.ascii	"_pal_lld_setgroupmode\000"
 4693      5F6C6C64 
 4693      5F736574 
 4693      67726F75 
 4693      706D6F64 
 4694              	.LASF87:
 4695 0504 696F6D6F 		.ascii	"iomode_t\000"
 4695      64655F74 
 4695      00
 4696              	.LASF49:
 4697 050d 6D5F6E65 		.ascii	"m_next\000"
 4697      787400
 4698              	.LASF1:
 4699 0514 7369676E 		.ascii	"signed char\000"
 4699      65642063 
 4699      68617200 
 4700              	.LASF7:
 4701 0520 73686F72 		.ascii	"short unsigned int\000"
 4701      7420756E 
 4701      7369676E 
 4701      65642069 
 4701      6E7400
 4702              	.LASF59:
 4703 0533 52455345 		.ascii	"RESERVED0\000"
 4703      52564544 
 4703      3000
 4704              	.LASF110:
 4705 053d 666C6173 		.ascii	"flash_status\000"
 4705      685F7374 
 4705      61747573 
 4705      00
 4706              	.LASF93:
ARM GAS  /tmp/ccjPgi6s.s 			page 88


 4707 054a 5350495F 		.ascii	"SPI_COMPLETE\000"
 4707      434F4D50 
 4707      4C455445 
 4707      00
 4708              	.LASF51:
 4709 0557 65786974 		.ascii	"exitcode\000"
 4709      636F6465 
 4709      00
 4710              	.LASF73:
 4711 0560 73656C66 		.ascii	"selfindex\000"
 4711      696E6465 
 4711      7800
 4712              	.LASF82:
 4713 056a 4C434B52 		.ascii	"LCKR\000"
 4713      00
 4714              	.LASF107:
 4715 056f 73737061 		.ascii	"sspad\000"
 4715      6400
 4716              		.ident	"GCC: (GNU) 4.7.2"
ARM GAS  /tmp/ccjPgi6s.s 			page 89


DEFINED SYMBOLS
                            *ABS*:0000000000000000 spi_flash.c
     /tmp/ccjPgi6s.s:19     .text.checkBusy:0000000000000000 $t
     /tmp/ccjPgi6s.s:24     .text.checkBusy:0000000000000000 checkBusy
     /tmp/ccjPgi6s.s:82     .text.checkBusy:0000000000000040 $d
     /tmp/ccjPgi6s.s:87     .text.configureSPIFlash:0000000000000000 $t
     /tmp/ccjPgi6s.s:93     .text.configureSPIFlash:0000000000000000 configureSPIFlash
     /tmp/ccjPgi6s.s:894    .rodata.spi1cfg:0000000000000000 .LANCHOR0
     /tmp/ccjPgi6s.s:235    .text.flashWriteByte:0000000000000000 $t
     /tmp/ccjPgi6s.s:241    .text.flashWriteByte:0000000000000000 flashWriteByte
     /tmp/ccjPgi6s.s:347    .text.flashWriteBytes:0000000000000000 $t
     /tmp/ccjPgi6s.s:353    .text.flashWriteBytes:0000000000000000 flashWriteBytes
     /tmp/ccjPgi6s.s:561    .text.flashWriteBytes:0000000000000110 $d
     /tmp/ccjPgi6s.s:566    .text.flashReadByte:0000000000000000 $t
     /tmp/ccjPgi6s.s:572    .text.flashReadByte:0000000000000000 flashReadByte
     /tmp/ccjPgi6s.s:668    .text.flashReadBytes:0000000000000000 $t
     /tmp/ccjPgi6s.s:674    .text.flashReadBytes:0000000000000000 flashReadBytes
     /tmp/ccjPgi6s.s:775    .text.flashErase:0000000000000000 $t
     /tmp/ccjPgi6s.s:781    .text.flashErase:0000000000000000 flashErase
     /tmp/ccjPgi6s.s:888    .text.flashErase:0000000000000084 $d
     /tmp/ccjPgi6s.s:893    .rodata.spi1cfg:0000000000000000 $d
     /tmp/ccjPgi6s.s:897    .rodata.spi1cfg:0000000000000000 spi1cfg
                     .debug_frame:0000000000000010 $d
     /tmp/ccjPgi6s.s:86     .text.checkBusy:0000000000000044 $t
     /tmp/ccjPgi6s.s:565    .text.flashWriteBytes:0000000000000114 $t
     /tmp/ccjPgi6s.s:892    .text.flashErase:0000000000000088 $t

UNDEFINED SYMBOLS
spiSelect
spiSend
spiReceive
spiUnselect
SPID1
spiStart
_pal_lld_setgroupmode
spiAcquireBus
spiReleaseBus
