ARM GAS  /tmp/ccDpEQHe.s 			page 1


   1              		.syntax unified
   2              		.cpu cortex-m3
   3              		.fpu softvfp
   4              		.eabi_attribute 20, 1
   5              		.eabi_attribute 21, 1
   6              		.eabi_attribute 23, 3
   7              		.eabi_attribute 24, 1
   8              		.eabi_attribute 25, 1
   9              		.eabi_attribute 26, 1
  10              		.eabi_attribute 30, 2
  11              		.eabi_attribute 34, 1
  12              		.eabi_attribute 18, 4
  13              		.thumb
  14              		.file	"stm32_dma.c"
  15              		.text
  16              	.Ltext0:
  17              		.cfi_sections	.debug_frame
  18              		.section	.text.Vector6C,"ax",%progbits
  19              		.align	2
  20              		.p2align 4,,15
  21              		.global	Vector6C
  22              		.thumb
  23              		.thumb_func
  24              		.type	Vector6C, %function
  25              	Vector6C:
  26              	.LFB62:
  27              		.file 1 "./os/hal/platforms/STM32L1xx/stm32_dma.c"
  28              		.loc 1 125 0
  29              		.cfi_startproc
  30              		@ args = 0, pretend = 0, frame = 0
  31              		@ frame_needed = 0, uses_anonymous_args = 0
  32              		.loc 1 130 0
  33 0000 4FF4C043 		mov	r3, #24576
  34              		.loc 1 132 0
  35 0004 0848     		ldr	r0, .L7
  36              		.loc 1 130 0
  37 0006 C4F20203 		movt	r3, 16386
  38 000a 1968     		ldr	r1, [r3, #0]
  39              		.loc 1 132 0
  40 000c 0268     		ldr	r2, [r0, #0]
  41              		.loc 1 125 0
  42 000e 10B5     		push	{r4, lr}
  43              	.LCFI0:
  44              		.cfi_def_cfa_offset 8
  45              		.cfi_offset 4, -8
  46              		.cfi_offset 14, -4
  47              		.loc 1 131 0
  48 0010 0F24     		movs	r4, #15
  49              		.loc 1 130 0
  50 0012 01F00F01 		and	r1, r1, #15
  51              	.LVL0:
  52              		.loc 1 131 0
  53 0016 5C60     		str	r4, [r3, #4]
  54              		.loc 1 132 0
  55 0018 0AB1     		cbz	r2, .L2
  56              		.loc 1 133 0
  57 001a 4068     		ldr	r0, [r0, #4]
ARM GAS  /tmp/ccDpEQHe.s 			page 2


  58 001c 9047     		blx	r2
  59              	.LVL1:
  60              	.L2:
  61              		.loc 1 136 0
  62 001e BDE81040 		pop	{r4, lr}
  63              		.loc 1 135 0
  64 0022 FFF7FEBF 		b	_port_irq_epilogue
  65              	.LVL2:
  66              	.L8:
  67 0026 00BF     		.align	2
  68              	.L7:
  69 0028 00000000 		.word	.LANCHOR0
  70              		.cfi_endproc
  71              	.LFE62:
  72              		.size	Vector6C, .-Vector6C
  73 002c AFF30080 		.section	.text.Vector70,"ax",%progbits
  74              		.align	2
  75              		.p2align 4,,15
  76              		.global	Vector70
  77              		.thumb
  78              		.thumb_func
  79              		.type	Vector70, %function
  80              	Vector70:
  81              	.LFB63:
  82              		.loc 1 143 0
  83              		.cfi_startproc
  84              		@ args = 0, pretend = 0, frame = 0
  85              		@ frame_needed = 0, uses_anonymous_args = 0
  86              		.loc 1 148 0
  87 0000 4FF4C043 		mov	r3, #24576
  88              		.loc 1 150 0
  89 0004 0848     		ldr	r0, .L14
  90              		.loc 1 148 0
  91 0006 C4F20203 		movt	r3, 16386
  92 000a 1968     		ldr	r1, [r3, #0]
  93              		.loc 1 150 0
  94 000c 8268     		ldr	r2, [r0, #8]
  95              		.loc 1 143 0
  96 000e 10B5     		push	{r4, lr}
  97              	.LCFI1:
  98              		.cfi_def_cfa_offset 8
  99              		.cfi_offset 4, -8
 100              		.cfi_offset 14, -4
 101              		.loc 1 149 0
 102 0010 F024     		movs	r4, #240
 103              		.loc 1 148 0
 104 0012 C1F30311 		ubfx	r1, r1, #4, #4
 105              	.LVL3:
 106              		.loc 1 149 0
 107 0016 5C60     		str	r4, [r3, #4]
 108              		.loc 1 150 0
 109 0018 0AB1     		cbz	r2, .L10
 110              		.loc 1 151 0
 111 001a C068     		ldr	r0, [r0, #12]
 112 001c 9047     		blx	r2
 113              	.LVL4:
 114              	.L10:
ARM GAS  /tmp/ccDpEQHe.s 			page 3


 115              		.loc 1 154 0
 116 001e BDE81040 		pop	{r4, lr}
 117              		.loc 1 153 0
 118 0022 FFF7FEBF 		b	_port_irq_epilogue
 119              	.LVL5:
 120              	.L15:
 121 0026 00BF     		.align	2
 122              	.L14:
 123 0028 00000000 		.word	.LANCHOR0
 124              		.cfi_endproc
 125              	.LFE63:
 126              		.size	Vector70, .-Vector70
 127 002c AFF30080 		.section	.text.Vector74,"ax",%progbits
 128              		.align	2
 129              		.p2align 4,,15
 130              		.global	Vector74
 131              		.thumb
 132              		.thumb_func
 133              		.type	Vector74, %function
 134              	Vector74:
 135              	.LFB64:
 136              		.loc 1 161 0
 137              		.cfi_startproc
 138              		@ args = 0, pretend = 0, frame = 0
 139              		@ frame_needed = 0, uses_anonymous_args = 0
 140              		.loc 1 166 0
 141 0000 4FF4C043 		mov	r3, #24576
 142              		.loc 1 168 0
 143 0004 0848     		ldr	r0, .L21
 144              		.loc 1 166 0
 145 0006 C4F20203 		movt	r3, 16386
 146 000a 1968     		ldr	r1, [r3, #0]
 147              		.loc 1 168 0
 148 000c 0269     		ldr	r2, [r0, #16]
 149              		.loc 1 161 0
 150 000e 10B5     		push	{r4, lr}
 151              	.LCFI2:
 152              		.cfi_def_cfa_offset 8
 153              		.cfi_offset 4, -8
 154              		.cfi_offset 14, -4
 155              		.loc 1 167 0
 156 0010 4FF47064 		mov	r4, #3840
 157              		.loc 1 166 0
 158 0014 C1F30321 		ubfx	r1, r1, #8, #4
 159              	.LVL6:
 160              		.loc 1 167 0
 161 0018 5C60     		str	r4, [r3, #4]
 162              		.loc 1 168 0
 163 001a 0AB1     		cbz	r2, .L17
 164              		.loc 1 169 0
 165 001c 4069     		ldr	r0, [r0, #20]
 166 001e 9047     		blx	r2
 167              	.LVL7:
 168              	.L17:
 169              		.loc 1 172 0
 170 0020 BDE81040 		pop	{r4, lr}
 171              		.loc 1 171 0
ARM GAS  /tmp/ccDpEQHe.s 			page 4


 172 0024 FFF7FEBF 		b	_port_irq_epilogue
 173              	.LVL8:
 174              	.L22:
 175              		.align	2
 176              	.L21:
 177 0028 00000000 		.word	.LANCHOR0
 178              		.cfi_endproc
 179              	.LFE64:
 180              		.size	Vector74, .-Vector74
 181 002c AFF30080 		.section	.text.Vector78,"ax",%progbits
 182              		.align	2
 183              		.p2align 4,,15
 184              		.global	Vector78
 185              		.thumb
 186              		.thumb_func
 187              		.type	Vector78, %function
 188              	Vector78:
 189              	.LFB65:
 190              		.loc 1 179 0
 191              		.cfi_startproc
 192              		@ args = 0, pretend = 0, frame = 0
 193              		@ frame_needed = 0, uses_anonymous_args = 0
 194              		.loc 1 184 0
 195 0000 4FF4C043 		mov	r3, #24576
 196              		.loc 1 186 0
 197 0004 0848     		ldr	r0, .L28
 198              		.loc 1 184 0
 199 0006 C4F20203 		movt	r3, 16386
 200 000a 1968     		ldr	r1, [r3, #0]
 201              		.loc 1 186 0
 202 000c 8269     		ldr	r2, [r0, #24]
 203              		.loc 1 179 0
 204 000e 10B5     		push	{r4, lr}
 205              	.LCFI3:
 206              		.cfi_def_cfa_offset 8
 207              		.cfi_offset 4, -8
 208              		.cfi_offset 14, -4
 209              		.loc 1 185 0
 210 0010 4FF47044 		mov	r4, #61440
 211              		.loc 1 184 0
 212 0014 C1F30331 		ubfx	r1, r1, #12, #4
 213              	.LVL9:
 214              		.loc 1 185 0
 215 0018 5C60     		str	r4, [r3, #4]
 216              		.loc 1 186 0
 217 001a 0AB1     		cbz	r2, .L24
 218              		.loc 1 187 0
 219 001c C069     		ldr	r0, [r0, #28]
 220 001e 9047     		blx	r2
 221              	.LVL10:
 222              	.L24:
 223              		.loc 1 190 0
 224 0020 BDE81040 		pop	{r4, lr}
 225              		.loc 1 189 0
 226 0024 FFF7FEBF 		b	_port_irq_epilogue
 227              	.LVL11:
 228              	.L29:
ARM GAS  /tmp/ccDpEQHe.s 			page 5


 229              		.align	2
 230              	.L28:
 231 0028 00000000 		.word	.LANCHOR0
 232              		.cfi_endproc
 233              	.LFE65:
 234              		.size	Vector78, .-Vector78
 235 002c AFF30080 		.section	.text.Vector7C,"ax",%progbits
 236              		.align	2
 237              		.p2align 4,,15
 238              		.global	Vector7C
 239              		.thumb
 240              		.thumb_func
 241              		.type	Vector7C, %function
 242              	Vector7C:
 243              	.LFB66:
 244              		.loc 1 197 0
 245              		.cfi_startproc
 246              		@ args = 0, pretend = 0, frame = 0
 247              		@ frame_needed = 0, uses_anonymous_args = 0
 248              		.loc 1 202 0
 249 0000 4FF4C043 		mov	r3, #24576
 250              		.loc 1 204 0
 251 0004 0848     		ldr	r0, .L35
 252              		.loc 1 202 0
 253 0006 C4F20203 		movt	r3, 16386
 254 000a 1968     		ldr	r1, [r3, #0]
 255              		.loc 1 204 0
 256 000c 026A     		ldr	r2, [r0, #32]
 257              		.loc 1 197 0
 258 000e 10B5     		push	{r4, lr}
 259              	.LCFI4:
 260              		.cfi_def_cfa_offset 8
 261              		.cfi_offset 4, -8
 262              		.cfi_offset 14, -4
 263              		.loc 1 203 0
 264 0010 4FF47024 		mov	r4, #983040
 265              		.loc 1 202 0
 266 0014 C1F30341 		ubfx	r1, r1, #16, #4
 267              	.LVL12:
 268              		.loc 1 203 0
 269 0018 5C60     		str	r4, [r3, #4]
 270              		.loc 1 204 0
 271 001a 0AB1     		cbz	r2, .L31
 272              		.loc 1 205 0
 273 001c 406A     		ldr	r0, [r0, #36]
 274 001e 9047     		blx	r2
 275              	.LVL13:
 276              	.L31:
 277              		.loc 1 208 0
 278 0020 BDE81040 		pop	{r4, lr}
 279              		.loc 1 207 0
 280 0024 FFF7FEBF 		b	_port_irq_epilogue
 281              	.LVL14:
 282              	.L36:
 283              		.align	2
 284              	.L35:
 285 0028 00000000 		.word	.LANCHOR0
ARM GAS  /tmp/ccDpEQHe.s 			page 6


 286              		.cfi_endproc
 287              	.LFE66:
 288              		.size	Vector7C, .-Vector7C
 289 002c AFF30080 		.section	.text.Vector80,"ax",%progbits
 290              		.align	2
 291              		.p2align 4,,15
 292              		.global	Vector80
 293              		.thumb
 294              		.thumb_func
 295              		.type	Vector80, %function
 296              	Vector80:
 297              	.LFB67:
 298              		.loc 1 215 0
 299              		.cfi_startproc
 300              		@ args = 0, pretend = 0, frame = 0
 301              		@ frame_needed = 0, uses_anonymous_args = 0
 302              		.loc 1 220 0
 303 0000 4FF4C043 		mov	r3, #24576
 304              		.loc 1 222 0
 305 0004 0848     		ldr	r0, .L42
 306              		.loc 1 220 0
 307 0006 C4F20203 		movt	r3, 16386
 308 000a 1968     		ldr	r1, [r3, #0]
 309              		.loc 1 222 0
 310 000c 826A     		ldr	r2, [r0, #40]
 311              		.loc 1 215 0
 312 000e 10B5     		push	{r4, lr}
 313              	.LCFI5:
 314              		.cfi_def_cfa_offset 8
 315              		.cfi_offset 4, -8
 316              		.cfi_offset 14, -4
 317              		.loc 1 221 0
 318 0010 4FF47004 		mov	r4, #15728640
 319              		.loc 1 220 0
 320 0014 C1F30351 		ubfx	r1, r1, #20, #4
 321              	.LVL15:
 322              		.loc 1 221 0
 323 0018 5C60     		str	r4, [r3, #4]
 324              		.loc 1 222 0
 325 001a 0AB1     		cbz	r2, .L38
 326              		.loc 1 223 0
 327 001c C06A     		ldr	r0, [r0, #44]
 328 001e 9047     		blx	r2
 329              	.LVL16:
 330              	.L38:
 331              		.loc 1 226 0
 332 0020 BDE81040 		pop	{r4, lr}
 333              		.loc 1 225 0
 334 0024 FFF7FEBF 		b	_port_irq_epilogue
 335              	.LVL17:
 336              	.L43:
 337              		.align	2
 338              	.L42:
 339 0028 00000000 		.word	.LANCHOR0
 340              		.cfi_endproc
 341              	.LFE67:
 342              		.size	Vector80, .-Vector80
ARM GAS  /tmp/ccDpEQHe.s 			page 7


 343 002c AFF30080 		.section	.text.Vector84,"ax",%progbits
 344              		.align	2
 345              		.p2align 4,,15
 346              		.global	Vector84
 347              		.thumb
 348              		.thumb_func
 349              		.type	Vector84, %function
 350              	Vector84:
 351              	.LFB68:
 352              		.loc 1 233 0
 353              		.cfi_startproc
 354              		@ args = 0, pretend = 0, frame = 0
 355              		@ frame_needed = 0, uses_anonymous_args = 0
 356              		.loc 1 238 0
 357 0000 4FF4C043 		mov	r3, #24576
 358              		.loc 1 240 0
 359 0004 0848     		ldr	r0, .L49
 360              		.loc 1 238 0
 361 0006 C4F20203 		movt	r3, 16386
 362 000a 1968     		ldr	r1, [r3, #0]
 363              		.loc 1 240 0
 364 000c 026B     		ldr	r2, [r0, #48]
 365              		.loc 1 233 0
 366 000e 10B5     		push	{r4, lr}
 367              	.LCFI6:
 368              		.cfi_def_cfa_offset 8
 369              		.cfi_offset 4, -8
 370              		.cfi_offset 14, -4
 371              		.loc 1 239 0
 372 0010 4FF07064 		mov	r4, #251658240
 373              		.loc 1 238 0
 374 0014 C1F30361 		ubfx	r1, r1, #24, #4
 375              	.LVL18:
 376              		.loc 1 239 0
 377 0018 5C60     		str	r4, [r3, #4]
 378              		.loc 1 240 0
 379 001a 0AB1     		cbz	r2, .L45
 380              		.loc 1 241 0
 381 001c 406B     		ldr	r0, [r0, #52]
 382 001e 9047     		blx	r2
 383              	.LVL19:
 384              	.L45:
 385              		.loc 1 244 0
 386 0020 BDE81040 		pop	{r4, lr}
 387              		.loc 1 243 0
 388 0024 FFF7FEBF 		b	_port_irq_epilogue
 389              	.LVL20:
 390              	.L50:
 391              		.align	2
 392              	.L49:
 393 0028 00000000 		.word	.LANCHOR0
 394              		.cfi_endproc
 395              	.LFE68:
 396              		.size	Vector84, .-Vector84
 397 002c AFF30080 		.section	.text.dmaInit,"ax",%progbits
 398              		.align	2
 399              		.p2align 4,,15
ARM GAS  /tmp/ccDpEQHe.s 			page 8


 400              		.global	dmaInit
 401              		.thumb
 402              		.thumb_func
 403              		.type	dmaInit, %function
 404              	dmaInit:
 405              	.LFB69:
 406              		.loc 1 255 0
 407              		.cfi_startproc
 408              		@ args = 0, pretend = 0, frame = 0
 409              		@ frame_needed = 0, uses_anonymous_args = 0
 410              		@ link register save eliminated.
 411              		.loc 1 258 0
 412 0000 0B49     		ldr	r1, .L54
 413              		.loc 1 255 0
 414 0002 30B4     		push	{r4, r5}
 415              	.LCFI7:
 416              		.cfi_def_cfa_offset 8
 417              		.cfi_offset 4, -8
 418              		.cfi_offset 5, -4
 419              		.loc 1 258 0
 420 0004 0023     		movs	r3, #0
 421 0006 0B4D     		ldr	r5, .L54+4
 422 0008 0B4C     		ldr	r4, .L54+8
 423 000a 0B60     		str	r3, [r1, #0]
 424              	.LVL21:
 425 000c 1A46     		mov	r2, r3
 426              		.loc 1 260 0
 427 000e 1946     		mov	r1, r3
 428              	.LVL22:
 429              	.L52:
 430              		.loc 1 260 0 is_stmt 0 discriminator 2
 431 0010 E858     		ldr	r0, [r5, r3]
 432 0012 0C33     		adds	r3, r3, #12
 433 0014 0160     		str	r1, [r0, #0]
 434              		.loc 1 261 0 is_stmt 1 discriminator 2
 435 0016 A150     		str	r1, [r4, r2]
 436 0018 0832     		adds	r2, r2, #8
 437              		.loc 1 259 0 discriminator 2
 438 001a 542B     		cmp	r3, #84
 439 001c F8D1     		bne	.L52
 440              		.loc 1 263 0
 441 001e 4FF4C043 		mov	r3, #24576
 442 0022 C4F20203 		movt	r3, 16386
 443 0026 4FF0FF32 		mov	r2, #-1
 444 002a 5A60     		str	r2, [r3, #4]
 445              		.loc 1 264 0
 446 002c 30BC     		pop	{r4, r5}
 447 002e 7047     		bx	lr
 448              	.L55:
 449              		.align	2
 450              	.L54:
 451 0030 00000000 		.word	.LANCHOR1
 452 0034 00000000 		.word	.LANCHOR2
 453 0038 00000000 		.word	.LANCHOR0
 454              		.cfi_endproc
 455              	.LFE69:
 456              		.size	dmaInit, .-dmaInit
ARM GAS  /tmp/ccDpEQHe.s 			page 9


 457 003c AFF30080 		.section	.text.dmaStreamAllocate,"ax",%progbits
 458              		.align	2
 459              		.p2align 4,,15
 460              		.global	dmaStreamAllocate
 461              		.thumb
 462              		.thumb_func
 463              		.type	dmaStreamAllocate, %function
 464              	dmaStreamAllocate:
 465              	.LFB70:
 466              		.loc 1 293 0
 467              		.cfi_startproc
 468              		@ args = 0, pretend = 0, frame = 0
 469              		@ frame_needed = 0, uses_anonymous_args = 0
 470              	.LVL23:
 471 0000 F8B5     		push	{r3, r4, r5, r6, r7, lr}
 472              	.LCFI8:
 473              		.cfi_def_cfa_offset 24
 474              		.cfi_offset 3, -24
 475              		.cfi_offset 4, -20
 476              		.cfi_offset 5, -16
 477              		.cfi_offset 6, -12
 478              		.cfi_offset 7, -8
 479              		.cfi_offset 14, -4
 480              		.loc 1 298 0
 481 0002 447A     		ldrb	r4, [r0, #9]	@ zero_extendqisi2
 482 0004 4FF0010C 		mov	ip, #1
 483 0008 0CFA04F6 		lsl	r6, ip, r4
 484 000c 184D     		ldr	r5, .L64
 485 000e 2F68     		ldr	r7, [r5, #0]
 486 0010 3E42     		tst	r6, r7
 487 0012 29D1     		bne	.L59
 488              		.loc 1 302 0
 489 0014 DFF85CC0 		ldr	ip, .L64+4
 490              		.loc 1 304 0
 491 0018 3E43     		orrs	r6, r6, r7
 492              		.loc 1 303 0
 493 001a 0CEBC407 		add	r7, ip, r4, lsl #3
 494 001e 7B60     		str	r3, [r7, #4]
 495              		.loc 1 307 0
 496 0020 7306     		lsls	r3, r6, #25
 497              	.LVL24:
 498              		.loc 1 308 0
 499 0022 18BF     		it	ne
 500 0024 4FF46053 		movne	r3, #14336
 501              		.loc 1 304 0
 502 0028 2E60     		str	r6, [r5, #0]
 503              		.loc 1 308 0
 504 002a 18BF     		it	ne
 505 002c C4F20203 		movtne	r3, 16386
 506              		.loc 1 302 0
 507 0030 4CF83420 		str	r2, [ip, r4, lsl #3]
 508              		.loc 1 308 0
 509 0034 18BF     		it	ne
 510 0036 DC69     		ldrne	r4, [r3, #28]
 511              		.loc 1 311 0
 512 0038 4568     		ldr	r5, [r0, #4]
 513              		.loc 1 308 0
ARM GAS  /tmp/ccDpEQHe.s 			page 10


 514 003a 1CBF     		itt	ne
 515 003c 44F08074 		orrne	r4, r4, #16777216
 516 0040 DC61     		strne	r4, [r3, #28]
 517              		.loc 1 311 0
 518 0042 0368     		ldr	r3, [r0, #0]
 519 0044 0F27     		movs	r7, #15
 520              	.LVL25:
 521 0046 1C68     		ldr	r4, [r3, #0]
 522 0048 24F00104 		bic	r4, r4, #1
 523 004c 1C60     		str	r4, [r3, #0]
 524 004e 067A     		ldrb	r6, [r0, #8]	@ zero_extendqisi2
 525              		.loc 1 312 0
 526 0050 0024     		movs	r4, #0
 527              		.loc 1 311 0
 528 0052 07FA06F6 		lsl	r6, r7, r6
 529 0056 2E60     		str	r6, [r5, #0]
 530              		.loc 1 312 0
 531 0058 1C60     		str	r4, [r3, #0]
 532              		.loc 1 315 0
 533 005a 3AB1     		cbz	r2, .L60
 534              		.loc 1 316 0
 535 005c 807A     		ldrb	r0, [r0, #10]	@ zero_extendqisi2
 536              	.LVL26:
 537 005e 0901     		lsls	r1, r1, #4
 538              	.LVL27:
 539 0060 FFF7FEFF 		bl	nvicEnableVector
 540              	.LVL28:
 541              		.loc 1 318 0
 542 0064 2046     		mov	r0, r4
 543 0066 F8BD     		pop	{r3, r4, r5, r6, r7, pc}
 544              	.LVL29:
 545              	.L59:
 546              		.loc 1 299 0
 547 0068 6046     		mov	r0, ip
 548              	.LVL30:
 549 006a F8BD     		pop	{r3, r4, r5, r6, r7, pc}
 550              	.LVL31:
 551              	.L60:
 552              		.loc 1 318 0
 553 006c 1046     		mov	r0, r2
 554              	.LVL32:
 555              		.loc 1 319 0
 556 006e F8BD     		pop	{r3, r4, r5, r6, r7, pc}
 557              	.L65:
 558              		.align	2
 559              	.L64:
 560 0070 00000000 		.word	.LANCHOR1
 561 0074 00000000 		.word	.LANCHOR0
 562              		.cfi_endproc
 563              	.LFE70:
 564              		.size	dmaStreamAllocate, .-dmaStreamAllocate
 565 0078 AFF30080 		.section	.text.dmaStreamRelease,"ax",%progbits
 565      AFF30080 
 566              		.align	2
 567              		.p2align 4,,15
 568              		.global	dmaStreamRelease
 569              		.thumb
ARM GAS  /tmp/ccDpEQHe.s 			page 11


 570              		.thumb_func
 571              		.type	dmaStreamRelease, %function
 572              	dmaStreamRelease:
 573              	.LFB71:
 574              		.loc 1 334 0
 575              		.cfi_startproc
 576              		@ args = 0, pretend = 0, frame = 0
 577              		@ frame_needed = 0, uses_anonymous_args = 0
 578              	.LVL33:
 579 0000 10B5     		push	{r4, lr}
 580              	.LCFI9:
 581              		.cfi_def_cfa_offset 8
 582              		.cfi_offset 4, -8
 583              		.cfi_offset 14, -4
 584              		.loc 1 334 0
 585 0002 0446     		mov	r4, r0
 586              		.loc 1 343 0
 587 0004 807A     		ldrb	r0, [r0, #10]	@ zero_extendqisi2
 588              	.LVL34:
 589 0006 FFF7FEFF 		bl	nvicDisableVector
 590              	.LVL35:
 591              		.loc 1 346 0
 592 000a 637A     		ldrb	r3, [r4, #9]	@ zero_extendqisi2
 593 000c 0122     		movs	r2, #1
 594 000e 02FA03F3 		lsl	r3, r2, r3
 595 0012 084A     		ldr	r2, .L68
 596 0014 1168     		ldr	r1, [r2, #0]
 597 0016 21EA0303 		bic	r3, r1, r3
 598 001a 1360     		str	r3, [r2, #0]
 599              		.loc 1 349 0
 600 001c 5A06     		lsls	r2, r3, #25
 601              		.loc 1 350 0
 602 001e 01BF     		itttt	eq
 603 0020 4FF46053 		moveq	r3, #14336
 604 0024 C4F20203 		movteq	r3, 16386
 605 0028 DA69     		ldreq	r2, [r3, #28]
 606 002a 22F08072 		biceq	r2, r2, #16777216
 607 002e 08BF     		it	eq
 608 0030 DA61     		streq	r2, [r3, #28]
 609 0032 10BD     		pop	{r4, pc}
 610              	.L69:
 611              		.align	2
 612              	.L68:
 613 0034 00000000 		.word	.LANCHOR1
 614              		.cfi_endproc
 615              	.LFE71:
 616              		.size	dmaStreamRelease, .-dmaStreamRelease
 617              		.global	_stm32_dma_streams
 618 0038 AFF30080 		.section	.bss.dma_isr_redir,"aw",%nobits
 618      AFF30080 
 619              		.align	2
 620              		.set	.LANCHOR0,. + 0
 621              		.type	dma_isr_redir, %object
 622              		.size	dma_isr_redir, 56
 623              	dma_isr_redir:
 624 0000 00000000 		.space	56
 624      00000000 
ARM GAS  /tmp/ccDpEQHe.s 			page 12


 624      00000000 
 624      00000000 
 624      00000000 
 625              		.section	.rodata._stm32_dma_streams,"a",%progbits
 626              		.align	2
 627              		.set	.LANCHOR2,. + 0
 628              		.type	_stm32_dma_streams, %object
 629              		.size	_stm32_dma_streams, 84
 630              	_stm32_dma_streams:
 631 0000 08600240 		.word	1073897480
 632 0004 04600240 		.word	1073897476
 633 0008 00       		.byte	0
 634 0009 00       		.byte	0
 635 000a 0B       		.byte	11
 636 000b 00       		.space	1
 637 000c 1C600240 		.word	1073897500
 638 0010 04600240 		.word	1073897476
 639 0014 04       		.byte	4
 640 0015 01       		.byte	1
 641 0016 0C       		.byte	12
 642 0017 00       		.space	1
 643 0018 30600240 		.word	1073897520
 644 001c 04600240 		.word	1073897476
 645 0020 08       		.byte	8
 646 0021 02       		.byte	2
 647 0022 0D       		.byte	13
 648 0023 00       		.space	1
 649 0024 44600240 		.word	1073897540
 650 0028 04600240 		.word	1073897476
 651 002c 0C       		.byte	12
 652 002d 03       		.byte	3
 653 002e 0E       		.byte	14
 654 002f 00       		.space	1
 655 0030 58600240 		.word	1073897560
 656 0034 04600240 		.word	1073897476
 657 0038 10       		.byte	16
 658 0039 04       		.byte	4
 659 003a 0F       		.byte	15
 660 003b 00       		.space	1
 661 003c 6C600240 		.word	1073897580
 662 0040 04600240 		.word	1073897476
 663 0044 14       		.byte	20
 664 0045 05       		.byte	5
 665 0046 10       		.byte	16
 666 0047 00       		.space	1
 667 0048 80600240 		.word	1073897600
 668 004c 04600240 		.word	1073897476
 669 0050 18       		.byte	24
 670 0051 06       		.byte	6
 671 0052 11       		.byte	17
 672 0053 00       		.space	1
 673              		.section	.bss.dma_streams_mask,"aw",%nobits
 674              		.align	2
 675              		.set	.LANCHOR1,. + 0
 676              		.type	dma_streams_mask, %object
 677              		.size	dma_streams_mask, 4
 678              	dma_streams_mask:
ARM GAS  /tmp/ccDpEQHe.s 			page 13


 679 0000 00000000 		.space	4
 680              		.text
 681              	.Letext0:
 682              		.file 2 "/home/mitchd/Documents/FOX-1/amsat-fox/x86_64-toolchain/arm/bin/../lib/gcc/arm-none-eabi/
 683              		.file 3 "./os/ports/GCC/ARMCMx/chtypes.h"
 684              		.file 4 "./os/hal/platforms/STM32L1xx/stm32l1xx.h"
 685              		.file 5 "./os/hal/platforms/STM32L1xx/stm32_dma.h"
 686              		.file 6 "./os/ports/common/ARMCMx/CMSIS/include/core_cm3.h"
 687              		.file 7 "./os/ports/GCC/ARMCMx/chcore_v7m.h"
 688              		.file 8 "./os/ports/common/ARMCMx/nvic.h"