ARM GAS  /tmp/ccU5nDRe.s 			page 1


   1              		.syntax unified
   2              		.cpu cortex-m3
   3              		.fpu softvfp
   4              		.eabi_attribute 20, 1
   5              		.eabi_attribute 21, 1
   6              		.eabi_attribute 23, 3
   7              		.eabi_attribute 24, 1
   8              		.eabi_attribute 25, 1
   9              		.eabi_attribute 26, 1
  10              		.eabi_attribute 30, 2
  11              		.eabi_attribute 34, 1
  12              		.eabi_attribute 18, 4
  13              		.thumb
  14              		.file	"uart_iface.c"
  15              		.text
  16              	.Ltext0:
  17              		.cfi_sections	.debug_frame
  18              		.section	.text.showMenu,"ax",%progbits
  19              		.align	2
  20              		.p2align 4,,15
  21              		.thumb
  22              		.thumb_func
  23              		.type	showMenu, %function
  24              	showMenu:
  25              	.LFB62:
  26              		.file 1 "./uart_iface/uart_iface.c"
  27              		.loc 1 53 0
  28              		.cfi_startproc
  29              		@ args = 0, pretend = 0, frame = 0
  30              		@ frame_needed = 0, uses_anonymous_args = 0
  31              	.LVL0:
  32 0000 08B5     		push	{r3, lr}
  33              	.LCFI0:
  34              		.cfi_def_cfa_offset 8
  35              		.cfi_offset 3, -8
  36              		.cfi_offset 14, -4
  37 0002 0F48     		ldr	r0, .L5
  38              		.loc 1 54 0
  39 0004 0023     		movs	r3, #0
  40              		.loc 1 56 0
  41 0006 1946     		mov	r1, r3
  42              	.LVL1:
  43              	.L2:
  44              		.loc 1 55 0 discriminator 2
  45 0008 5A1C     		adds	r2, r3, #1
  46              		.loc 1 56 0 discriminator 2
  47 000a C154     		strb	r1, [r0, r3]
  48              		.loc 1 55 0 discriminator 2
  49 000c D3B2     		uxtb	r3, r2
  50              	.LVL2:
  51 000e 802B     		cmp	r3, #128
  52 0010 FAD1     		bne	.L2
  53              		.loc 1 57 0
  54 0012 0C48     		ldr	r0, .L5+4
  55 0014 0C49     		ldr	r1, .L5+8
  56 0016 FFF7FEFF 		bl	chprintf
  57              	.LVL3:
ARM GAS  /tmp/ccU5nDRe.s 			page 2


  58              		.loc 1 58 0
  59 001a 0A48     		ldr	r0, .L5+4
  60 001c 0B49     		ldr	r1, .L5+12
  61 001e FFF7FEFF 		bl	chprintf
  62              	.LVL4:
  63              		.loc 1 59 0
  64 0022 0848     		ldr	r0, .L5+4
  65 0024 0A49     		ldr	r1, .L5+16
  66 0026 FFF7FEFF 		bl	chprintf
  67              	.LVL5:
  68              		.loc 1 60 0
  69 002a 0648     		ldr	r0, .L5+4
  70 002c 0949     		ldr	r1, .L5+20
  71 002e FFF7FEFF 		bl	chprintf
  72              	.LVL6:
  73              		.loc 1 61 0
  74 0032 0448     		ldr	r0, .L5+4
  75 0034 0849     		ldr	r1, .L5+24
  76              		.loc 1 63 0
  77 0036 BDE80840 		pop	{r3, lr}
  78              		.loc 1 61 0
  79 003a FFF7FEBF 		b	chprintf
  80              	.LVL7:
  81              	.L6:
  82 003e 00BF     		.align	2
  83              	.L5:
  84 0040 00000000 		.word	.LANCHOR0
  85 0044 00000000 		.word	SD3
  86 0048 00000000 		.word	.LC0
  87 004c 18000000 		.word	.LC1
  88 0050 38000000 		.word	.LC2
  89 0054 58000000 		.word	.LC3
  90 0058 78000000 		.word	.LC4
  91              		.cfi_endproc
  92              	.LFE62:
  93              		.size	showMenu, .-showMenu
  94 005c AFF30080 		.section	.text.UART_Thread,"ax",%progbits
  95              		.align	2
  96              		.p2align 4,,15
  97              		.global	UART_Thread
  98              		.thumb
  99              		.thumb_func
 100              		.type	UART_Thread, %function
 101              	UART_Thread:
 102              	.LFB67:
 103              		.loc 1 125 0
 104              		.cfi_startproc
 105              		@ args = 0, pretend = 0, frame = 16
 106              		@ frame_needed = 0, uses_anonymous_args = 0
 107              	.LVL8:
 108 0000 2DE9F047 		push	{r4, r5, r6, r7, r8, r9, sl, lr}
 109              	.LCFI1:
 110              		.cfi_def_cfa_offset 32
 111              		.cfi_offset 4, -32
 112              		.cfi_offset 5, -28
 113              		.cfi_offset 6, -24
 114              		.cfi_offset 7, -20
ARM GAS  /tmp/ccU5nDRe.s 			page 3


 115              		.cfi_offset 8, -16
 116              		.cfi_offset 9, -12
 117              		.cfi_offset 10, -8
 118              		.cfi_offset 14, -4
 119 0004 84B0     		sub	sp, sp, #16
 120              	.LCFI2:
 121              		.cfi_def_cfa_offset 48
 122              		.loc 1 134 0
 123 0006 BB48     		ldr	r0, .L95
 124              	.LVL9:
 125 0008 01A9     		add	r1, sp, #4
 126 000a 8C22     		movs	r2, #140
 127 000c FFF7FEFF 		bl	chEvtRegisterMask
 128              	.LVL10:
 129 0010 B94E     		ldr	r6, .L95+4
 130              		.loc 1 201 0
 131 0012 0025     		movs	r5, #0
 132              		.loc 1 202 0
 133 0014 A946     		mov	r9, r5
 134              	.LBB15:
 135              		.loc 1 125 0
 136 0016 771D     		adds	r7, r6, #5
 137              	.LVL11:
 138              	.L73:
 139              	.LBE15:
 140              		.loc 1 205 0
 141 0018 8C20     		movs	r0, #140
 142 001a FFF7FEFF 		bl	chEvtWaitOne
 143              	.LVL12:
 144              		.loc 1 207 0
 145 001e 4207     		lsls	r2, r0, #29
 146              		.loc 1 205 0
 147 0020 0446     		mov	r4, r0
 148              	.LVL13:
 149              		.loc 1 207 0
 150 0022 0AD4     		bmi	.L78
 151              	.LVL14:
 152              	.L9:
 153              		.loc 1 391 0
 154 0024 2307     		lsls	r3, r4, #28
 155 0026 F7D5     		bpl	.L73
 156              		.loc 1 392 0
 157 0028 0820     		movs	r0, #8
 158 002a FFF7FEFF 		bl	chEvtClearFlags
 159              	.LVL15:
 160              		.loc 1 205 0
 161 002e 8C20     		movs	r0, #140
 162 0030 FFF7FEFF 		bl	chEvtWaitOne
 163              	.LVL16:
 164              		.loc 1 207 0
 165 0034 4207     		lsls	r2, r0, #29
 166              		.loc 1 205 0
 167 0036 0446     		mov	r4, r0
 168              	.LVL17:
 169              		.loc 1 207 0
 170 0038 F4D5     		bpl	.L9
 171              	.LVL18:
ARM GAS  /tmp/ccU5nDRe.s 			page 4


 172              	.L78:
 173              		.loc 1 209 0
 174 003a 0122     		movs	r2, #1
 175 003c 4FF0FF33 		mov	r3, #-1
 176 0040 6946     		mov	r1, sp
 177 0042 AE48     		ldr	r0, .L95+8
 178              	.LVL19:
 179 0044 FFF7FEFF 		bl	chIQReadTimeout
 180              	.LVL20:
 181              		.loc 1 210 0
 182 0048 0420     		movs	r0, #4
 183 004a FFF7FEFF 		bl	chEvtClearFlags
 184              	.LVL21:
 185              		.loc 1 211 0
 186 004e 9DF80030 		ldrb	r3, [sp, #0]	@ zero_extendqisi2
 187 0052 082B     		cmp	r3, #8
 188 0054 23D0     		beq	.L79
 189              		.loc 1 220 0
 190 0056 14F08008 		ands	r8, r4, #128
 191 005a 0BD0     		beq	.L11
 192              		.loc 1 223 0
 193 005c 4FF44063 		mov	r3, #3072
 194 0060 C4F20203 		movt	r3, 16386
 195 0064 5A69     		ldr	r2, [r3, #20]
 196              		.loc 1 224 0
 197 0066 8020     		movs	r0, #128
 198              		.loc 1 223 0
 199 0068 82F48042 		eor	r2, r2, #16384
 200 006c 5A61     		str	r2, [r3, #20]
 201              		.loc 1 224 0
 202 006e FFF7FEFF 		bl	chEvtClearFlags
 203              	.LVL22:
 204 0072 D7E7     		b	.L9
 205              	.L11:
 206              		.loc 1 227 0
 207 0074 A248     		ldr	r0, .L95+12
 208 0076 6946     		mov	r1, sp
 209 0078 0122     		movs	r2, #1
 210 007a 4346     		mov	r3, r8
 211 007c FFF7FEFF 		bl	chOQWriteTimeout
 212              	.LVL23:
 213              		.loc 1 234 0
 214 0080 B9F1000F 		cmp	r9, #0
 215 0084 16D1     		bne	.L12
 216              		.loc 1 235 0
 217 0086 9DF80030 		ldrb	r3, [sp, #0]	@ zero_extendqisi2
 218              		.loc 1 236 0
 219 008a 0D2B     		cmp	r3, #13
 220              		.loc 1 235 0
 221 008c 7355     		strb	r3, [r6, r5]
 222              		.loc 1 236 0
 223 008e 32D0     		beq	.L80
 224              		.loc 1 256 0
 225 0090 7F2D     		cmp	r5, #127
 226              		.loc 1 257 0
 227 0092 08BF     		it	eq
 228 0094 4D46     		moveq	r5, r9
ARM GAS  /tmp/ccU5nDRe.s 			page 5


 229              		.loc 1 256 0
 230 0096 C5D0     		beq	.L9
 231              	.L74:
 232              		.loc 1 385 0
 233 0098 0135     		adds	r5, r5, #1
 234 009a EDB2     		uxtb	r5, r5
 235              	.LVL24:
 236 009c C2E7     		b	.L9
 237              	.LVL25:
 238              	.L79:
 239              		.loc 1 212 0
 240 009e 013D     		subs	r5, r5, #1
 241 00a0 EDB2     		uxtb	r5, r5
 242              	.LVL26:
 243              		.loc 1 213 0
 244 00a2 FF2D     		cmp	r5, #255
 245 00a4 1AD0     		beq	.L54
 246              		.loc 1 217 0
 247 00a6 6946     		mov	r1, sp
 248 00a8 0122     		movs	r2, #1
 249 00aa 0023     		movs	r3, #0
 250 00ac 9448     		ldr	r0, .L95+12
 251 00ae FFF7FEFF 		bl	chOQWriteTimeout
 252              	.LVL27:
 253 00b2 B7E7     		b	.L9
 254              	.LVL28:
 255              	.L12:
 256              		.loc 1 262 0
 257 00b4 B9F1060F 		cmp	r9, #6
 258 00b8 12D0     		beq	.L81
 259              		.loc 1 294 0
 260 00ba B9F1070F 		cmp	r9, #7
 261 00be 2CD0     		beq	.L82
 262              		.loc 1 326 0
 263 00c0 B9F1040F 		cmp	r9, #4
 264 00c4 61D0     		beq	.L83
 265              		.loc 1 360 0
 266 00c6 B9F1050F 		cmp	r9, #5
 267 00ca ABD1     		bne	.L9
 268              		.loc 1 361 0
 269 00cc 9DF80030 		ldrb	r3, [sp, #0]	@ zero_extendqisi2
 270              		.loc 1 362 0
 271 00d0 0D2B     		cmp	r3, #13
 272              		.loc 1 361 0
 273 00d2 7355     		strb	r3, [r6, r5]
 274              		.loc 1 362 0
 275 00d4 00F03A81 		beq	.L84
 276              		.loc 1 381 0
 277 00d8 7F2D     		cmp	r5, #127
 278 00da DDD1     		bne	.L74
 279              	.L54:
 280              		.loc 1 382 0
 281 00dc 0025     		movs	r5, #0
 282 00de A1E7     		b	.L9
 283              	.L81:
 284              		.loc 1 263 0
 285 00e0 9DF80030 		ldrb	r3, [sp, #0]	@ zero_extendqisi2
ARM GAS  /tmp/ccU5nDRe.s 			page 6


 286              		.loc 1 264 0
 287 00e4 0D2B     		cmp	r3, #13
 288              		.loc 1 263 0
 289 00e6 7355     		strb	r3, [r6, r5]
 290              		.loc 1 264 0
 291 00e8 00F0BE80 		beq	.L85
 292              	.L31:
 293              		.loc 1 353 0
 294 00ec 7F2D     		cmp	r5, #127
 295              		.loc 1 354 0
 296 00ee 08BF     		it	eq
 297 00f0 4546     		moveq	r5, r8
 298              		.loc 1 353 0
 299 00f2 D1D1     		bne	.L74
 300 00f4 96E7     		b	.L9
 301              	.L80:
 302              	.LBB16:
 303              		.loc 1 237 0
 304 00f6 804B     		ldr	r3, .L95+4
 305 00f8 1B78     		ldrb	r3, [r3, #0]	@ zero_extendqisi2
 306              	.LVL29:
 307              		.loc 1 241 0
 308 00fa 312B     		cmp	r3, #49
 309 00fc 00F0EE80 		beq	.L86
 310              		.loc 1 244 0
 311 0100 322B     		cmp	r3, #50
 312 0102 00F01781 		beq	.L87
 313              		.loc 1 247 0
 314 0106 332B     		cmp	r3, #51
 315 0108 00F05F81 		beq	.L88
 316              		.loc 1 250 0
 317 010c 342B     		cmp	r3, #52
 318 010e 00F09D80 		beq	.L89
 319              		.loc 1 254 0
 320 0112 FFF7FEFF 		bl	showMenu
 321              	.LVL30:
 322              		.loc 1 240 0
 323 0116 4D46     		mov	r5, r9
 324 0118 84E7     		b	.L9
 325              	.LVL31:
 326              	.L82:
 327              	.LBE16:
 328              		.loc 1 295 0
 329 011a 9DF80030 		ldrb	r3, [sp, #0]	@ zero_extendqisi2
 330              		.loc 1 296 0
 331 011e 0D2B     		cmp	r3, #13
 332              		.loc 1 295 0
 333 0120 7355     		strb	r3, [r6, r5]
 334              		.loc 1 296 0
 335 0122 E3D1     		bne	.L31
 336              	.LBB25:
 337              		.loc 1 297 0
 338 0124 7748     		ldr	r0, .L95+16
 339 0126 7849     		ldr	r1, .L95+20
 340 0128 FFF7FEFF 		bl	chprintf
 341              	.LVL32:
 342              		.loc 1 298 0
ARM GAS  /tmp/ccU5nDRe.s 			page 7


 343 012c 7249     		ldr	r1, .L95+4
 344 012e 0622     		movs	r2, #6
 345 0130 7348     		ldr	r0, .L95+12
 346 0132 4FF0FF33 		mov	r3, #-1
 347 0136 FFF7FEFF 		bl	chOQWriteTimeout
 348              	.LVL33:
 349              		.loc 1 125 0
 350 013a 7449     		ldr	r1, .L95+24
 351              	.LBE25:
 352 013c 1422     		movs	r2, #20
 353              		.loc 1 301 0
 354 013e 4046     		mov	r0, r8
 355 0140 07E0     		b	.L29
 356              	.LVL34:
 357              	.L91:
 358              	.LBB26:
 359              		.loc 1 305 0
 360 0142 513B     		subs	r3, r3, #81
 361              	.LVL35:
 362              	.L27:
 363              		.loc 1 310 0
 364 0144 03FA02F3 		lsl	r3, r3, r2
 365              	.LVL36:
 366 0148 043A     		subs	r2, r2, #4
 367              		.loc 1 303 0
 368 014a B942     		cmp	r1, r7
 369              		.loc 1 310 0
 370 014c 40EA0300 		orr	r0, r0, r3
 371              	.LVL37:
 372              		.loc 1 303 0
 373 0150 0ED0     		beq	.L90
 374              	.LVL38:
 375              	.L29:
 376              		.loc 1 304 0
 377 0152 11F8013F 		ldrb	r3, [r1, #1]!	@ zero_extendqisi2
 378 0156 602B     		cmp	r3, #96
 379 0158 F3D8     		bhi	.L91
 380              		.loc 1 306 0
 381 015a 402B     		cmp	r3, #64
 382 015c 40F28280 		bls	.L28
 383              		.loc 1 307 0
 384 0160 313B     		subs	r3, r3, #49
 385              	.LVL39:
 386              		.loc 1 310 0
 387 0162 03FA02F3 		lsl	r3, r3, r2
 388              	.LVL40:
 389 0166 043A     		subs	r2, r2, #4
 390              		.loc 1 303 0
 391 0168 B942     		cmp	r1, r7
 392              		.loc 1 310 0
 393 016a 40EA0300 		orr	r0, r0, r3
 394              	.LVL41:
 395              		.loc 1 303 0
 396 016e F0D1     		bne	.L29
 397              	.LVL42:
 398              	.L90:
 399              		.loc 1 313 0
ARM GAS  /tmp/ccU5nDRe.s 			page 8


 400 0170 FFF7FEFF 		bl	flashReadByte
 401              	.LVL43:
 402              		.loc 1 314 0
 403 0174 6649     		ldr	r1, .L95+28
 404              		.loc 1 313 0
 405 0176 8DF80300 		strb	r0, [sp, #3]
 406              		.loc 1 314 0
 407 017a 6248     		ldr	r0, .L95+16
 408 017c FFF7FEFF 		bl	chprintf
 409              	.LVL44:
 410              		.loc 1 318 0
 411 0180 0025     		movs	r5, #0
 412              		.loc 1 315 0
 413 0182 0DF10301 		add	r1, sp, #3
 414 0186 0122     		movs	r2, #1
 415 0188 15E1     		b	.L75
 416              	.L83:
 417              	.LBE26:
 418              		.loc 1 327 0
 419 018a 9DF80030 		ldrb	r3, [sp, #0]	@ zero_extendqisi2
 420              		.loc 1 328 0
 421 018e 0D2B     		cmp	r3, #13
 422              		.loc 1 327 0
 423 0190 7355     		strb	r3, [r6, r5]
 424              		.loc 1 328 0
 425 0192 ABD1     		bne	.L31
 426              	.LVL45:
 427              	.LBB27:
 428              		.loc 1 332 0 discriminator 1
 429 0194 691E     		subs	r1, r5, #1
 430 0196 0123     		movs	r3, #1
 431 0198 0029     		cmp	r1, #0
 432 019a 08DD     		ble	.L32
 433              	.LVL46:
 434              	.L33:
 435              		.loc 1 332 0 is_stmt 0 discriminator 2
 436 019c 08F10108 		add	r8, r8, #1
 437              		.loc 1 333 0 is_stmt 1 discriminator 2
 438 01a0 03EB8303 		add	r3, r3, r3, lsl #2
 439              		.loc 1 332 0 discriminator 2
 440 01a4 5FFA88F8 		uxtb	r8, r8
 441              		.loc 1 333 0 discriminator 2
 442 01a8 5B00     		lsls	r3, r3, #1
 443              	.LVL47:
 444              		.loc 1 332 0 discriminator 2
 445 01aa 8845     		cmp	r8, r1
 446 01ac F6DB     		blt	.L33
 447              	.LVL48:
 448              	.L32:
 449              		.loc 1 335 0 discriminator 1
 450 01ae 002D     		cmp	r5, #0
 451 01b0 00F01D81 		beq	.L34
 452              		.loc 1 125 0
 453 01b4 5FFA81FC 		uxtb	ip, r1
 454              		.loc 1 337 0
 455 01b8 4CF6CD4E 		movw	lr, #52429
 456 01bc 5349     		ldr	r1, .L95+24
ARM GAS  /tmp/ccU5nDRe.s 			page 9


 457              		.loc 1 125 0
 458 01be B444     		add	ip, r6, ip
 459 01c0 4FF00008 		mov	r8, #0
 460              		.loc 1 337 0
 461 01c4 CCF6CC4E 		movt	lr, 52428
 462              	.LVL49:
 463              	.L35:
 464              		.loc 1 337 0 is_stmt 0 discriminator 2
 465 01c8 AEFB0302 		umull	r0, r2, lr, r3
 466              		.loc 1 336 0 is_stmt 1 discriminator 2
 467 01cc 11F8010F 		ldrb	r0, [r1, #1]!	@ zero_extendqisi2
 468 01d0 3038     		subs	r0, r0, #48
 469 01d2 00FB0388 		mla	r8, r0, r3, r8
 470              	.LVL50:
 471              		.loc 1 337 0 discriminator 2
 472 01d6 D308     		lsrs	r3, r2, #3
 473              	.LVL51:
 474              		.loc 1 335 0 discriminator 2
 475 01d8 6145     		cmp	r1, ip
 476 01da F5D1     		bne	.L35
 477              		.loc 1 339 0
 478 01dc 4246     		mov	r2, r8
 479 01de 4948     		ldr	r0, .L95+16
 480 01e0 4C49     		ldr	r1, .L95+32
 481 01e2 FFF7FEFF 		bl	chprintf
 482              	.LVL52:
 483              		.loc 1 340 0
 484 01e6 4748     		ldr	r0, .L95+16
 485 01e8 4B49     		ldr	r1, .L95+36
 486 01ea FFF7FEFF 		bl	chprintf
 487              	.LVL53:
 488              		.loc 1 341 0
 489 01ee 0020     		movs	r0, #0
 490 01f0 2021     		movs	r1, #32
 491 01f2 0122     		movs	r2, #1
 492 01f4 FFF7FEFF 		bl	flashErase
 493              	.LVL54:
 494              		.loc 1 342 0
 495 01f8 4248     		ldr	r0, .L95+16
 496 01fa 4849     		ldr	r1, .L95+40
 497 01fc 4246     		mov	r2, r8
 498 01fe FFF7FEFF 		bl	chprintf
 499              	.LVL55:
 500              		.loc 1 343 0
 501 0202 B8F1000F 		cmp	r8, #0
 502 0206 17D0     		beq	.L36
 503 0208 4FF0000A 		mov	sl, #0
 504 020c D146     		mov	r9, sl
 505              	.LVL56:
 506              	.L37:
 507              		.loc 1 344 0 discriminator 2
 508 020e B244     		add	sl, r6, sl
 509 0210 5146     		mov	r1, sl
 510 0212 0122     		movs	r2, #1
 511 0214 4FF0FF33 		mov	r3, #-1
 512 0218 3848     		ldr	r0, .L95+8
 513              		.loc 1 343 0 discriminator 2
ARM GAS  /tmp/ccU5nDRe.s 			page 10


 514 021a 09F10109 		add	r9, r9, #1
 515              		.loc 1 344 0 discriminator 2
 516 021e FFF7FEFF 		bl	chIQReadTimeout
 517              	.LVL57:
 518              		.loc 1 343 0 discriminator 2
 519 0222 5FFA89F9 		uxtb	r9, r9
 520              		.loc 1 346 0 discriminator 2
 521 0226 5146     		mov	r1, sl
 522 0228 0122     		movs	r2, #1
 523 022a 0023     		movs	r3, #0
 524 022c 3448     		ldr	r0, .L95+12
 525 022e FFF7FEFF 		bl	chOQWriteTimeout
 526              	.LVL58:
 527              		.loc 1 343 0 discriminator 2
 528 0232 C145     		cmp	r9, r8
 529 0234 CA46     		mov	sl, r9
 530 0236 EAD3     		bcc	.L37
 531              	.LVL59:
 532              	.L36:
 533              		.loc 1 349 0
 534 0238 0020     		movs	r0, #0
 535 023a 2F49     		ldr	r1, .L95+4
 536 023c 4246     		mov	r2, r8
 537 023e FFF7FEFF 		bl	flashWriteBytes
 538              	.LVL60:
 539              		.loc 1 350 0
 540 0242 4FF00009 		mov	r9, #0
 541              		.loc 1 351 0
 542 0246 FFF7FEFF 		bl	showMenu
 543              	.LVL61:
 544 024a EBE6     		b	.L9
 545              	.LVL62:
 546              	.L89:
 547              	.LBE27:
 548              	.LBB28:
 549              	.LBB17:
 550              	.LBB18:
 551              		.loc 1 77 0
 552 024c 2D48     		ldr	r0, .L95+16
 553 024e 3449     		ldr	r1, .L95+44
 554 0250 FFF7FEFF 		bl	chprintf
 555              	.LVL63:
 556              		.loc 1 78 0
 557 0254 2B48     		ldr	r0, .L95+16
 558 0256 3349     		ldr	r1, .L95+48
 559              		.loc 1 240 0
 560 0258 4D46     		mov	r5, r9
 561              		.loc 1 78 0
 562 025a FFF7FEFF 		bl	chprintf
 563              	.LVL64:
 564              		.loc 1 251 0
 565 025e 4FF00509 		mov	r9, #5
 566 0262 DFE6     		b	.L9
 567              	.LVL65:
 568              	.L28:
 569              	.LBE18:
 570              	.LBE17:
ARM GAS  /tmp/ccU5nDRe.s 			page 11


 571              	.LBE28:
 572              	.LBB29:
 573              		.loc 1 309 0
 574 0264 303B     		subs	r3, r3, #48
 575              	.LVL66:
 576 0266 6DE7     		b	.L27
 577              	.LVL67:
 578              	.L85:
 579              	.LBE29:
 580              	.LBB30:
 581              		.loc 1 265 0
 582 0268 2648     		ldr	r0, .L95+16
 583 026a 2F49     		ldr	r1, .L95+52
 584 026c FFF7FEFF 		bl	chprintf
 585              	.LVL68:
 586              		.loc 1 266 0
 587 0270 4A46     		mov	r2, r9
 588 0272 4FF0FF33 		mov	r3, #-1
 589 0276 2049     		ldr	r1, .L95+4
 590 0278 2148     		ldr	r0, .L95+12
 591 027a FFF7FEFF 		bl	chOQWriteTimeout
 592              	.LVL69:
 593              		.loc 1 267 0
 594 027e 2148     		ldr	r0, .L95+16
 595 0280 2349     		ldr	r1, .L95+28
 596 0282 FFF7FEFF 		bl	chprintf
 597              	.LVL70:
 598              		.loc 1 268 0
 599 0286 2949     		ldr	r1, .L95+56
 600 0288 0122     		movs	r2, #1
 601 028a 1D48     		ldr	r0, .L95+12
 602 028c 4FF0FF33 		mov	r3, #-1
 603 0290 FFF7FEFF 		bl	chOQWriteTimeout
 604              	.LVL71:
 605              		.loc 1 125 0
 606 0294 1D49     		ldr	r1, .L95+24
 607              	.LBE30:
 608 0296 1422     		movs	r2, #20
 609              		.loc 1 271 0
 610 0298 4046     		mov	r0, r8
 611 029a 07E0     		b	.L23
 612              	.LVL72:
 613              	.L93:
 614              	.LBB31:
 615              		.loc 1 275 0
 616 029c 513B     		subs	r3, r3, #81
 617              	.LVL73:
 618              	.L21:
 619              		.loc 1 280 0
 620 029e 03FA02F3 		lsl	r3, r3, r2
 621              	.LVL74:
 622 02a2 043A     		subs	r2, r2, #4
 623              		.loc 1 273 0
 624 02a4 B942     		cmp	r1, r7
 625              		.loc 1 280 0
 626 02a6 40EA0300 		orr	r0, r0, r3
 627              	.LVL75:
ARM GAS  /tmp/ccU5nDRe.s 			page 12


 628              		.loc 1 273 0
 629 02aa 0DD0     		beq	.L92
 630              	.LVL76:
 631              	.L23:
 632              		.loc 1 274 0
 633 02ac 11F8013F 		ldrb	r3, [r1, #1]!	@ zero_extendqisi2
 634 02b0 602B     		cmp	r3, #96
 635 02b2 F3D8     		bhi	.L93
 636              		.loc 1 276 0
 637 02b4 402B     		cmp	r3, #64
 638 02b6 0FD9     		bls	.L22
 639              		.loc 1 277 0
 640 02b8 313B     		subs	r3, r3, #49
 641              	.LVL77:
 642              		.loc 1 280 0
 643 02ba 03FA02F3 		lsl	r3, r3, r2
 644              	.LVL78:
 645 02be 043A     		subs	r2, r2, #4
 646              		.loc 1 273 0
 647 02c0 B942     		cmp	r1, r7
 648              		.loc 1 280 0
 649 02c2 40EA0300 		orr	r0, r0, r3
 650              	.LVL79:
 651              		.loc 1 273 0
 652 02c6 F1D1     		bne	.L23
 653              	.LVL80:
 654              	.L92:
 655              		.loc 1 283 0
 656 02c8 F179     		ldrb	r1, [r6, #7]	@ zero_extendqisi2
 657              		.loc 1 286 0
 658 02ca 0025     		movs	r5, #0
 659              		.loc 1 283 0
 660 02cc FFF7FEFF 		bl	flashWriteByte
 661              	.LVL81:
 662              		.loc 1 284 0
 663 02d0 A946     		mov	r9, r5
 664              		.loc 1 285 0
 665 02d2 FFF7FEFF 		bl	showMenu
 666              	.LVL82:
 667 02d6 A5E6     		b	.L9
 668              	.LVL83:
 669              	.L22:
 670              		.loc 1 279 0
 671 02d8 303B     		subs	r3, r3, #48
 672              	.LVL84:
 673 02da E0E7     		b	.L21
 674              	.LVL85:
 675              	.L86:
 676              	.LBE31:
 677              	.LBB32:
 678              	.LBB19:
 679              	.LBB20:
 680              		.loc 1 65 0
 681 02dc 0948     		ldr	r0, .L95+16
 682 02de 1449     		ldr	r1, .L95+60
 683 02e0 FFF7FEFF 		bl	chprintf
 684              	.LVL86:
ARM GAS  /tmp/ccU5nDRe.s 			page 13


 685              		.loc 1 66 0
 686 02e4 0748     		ldr	r0, .L95+16
 687 02e6 0F49     		ldr	r1, .L95+48
 688              		.loc 1 240 0
 689 02e8 4D46     		mov	r5, r9
 690              		.loc 1 66 0
 691 02ea FFF7FEFF 		bl	chprintf
 692              	.LVL87:
 693              		.loc 1 242 0
 694 02ee 4FF00609 		mov	r9, #6
 695 02f2 97E6     		b	.L9
 696              	.L96:
 697              		.align	2
 698              	.L95:
 699 02f4 04000000 		.word	SD3+4
 700 02f8 00000000 		.word	.LANCHOR0
 701 02fc 10000000 		.word	SD3+16
 702 0300 30000000 		.word	SD3+48
 703 0304 00000000 		.word	SD3
 704 0308 6C010000 		.word	.LC12
 705 030c FFFFFFFF 		.word	.LANCHOR0-1
 706 0310 60010000 		.word	.LC11
 707 0314 78010000 		.word	.LC13
 708 0318 88010000 		.word	.LC14
 709 031c 9C010000 		.word	.LC15
 710 0320 1C010000 		.word	.LC9
 711 0324 C0000000 		.word	.LC6
 712 0328 50010000 		.word	.LC10
 713 032c 07000000 		.word	.LANCHOR0+7
 714 0330 98000000 		.word	.LC5
 715              	.LVL88:
 716              	.L87:
 717              	.LBE20:
 718              	.LBE19:
 719              	.LBB21:
 720              	.LBB22:
 721              		.loc 1 69 0
 722 0334 3848     		ldr	r0, .L97
 723 0336 3949     		ldr	r1, .L97+4
 724 0338 FFF7FEFF 		bl	chprintf
 725              	.LVL89:
 726              		.loc 1 70 0
 727 033c 3648     		ldr	r0, .L97
 728 033e 3849     		ldr	r1, .L97+8
 729              		.loc 1 240 0
 730 0340 4D46     		mov	r5, r9
 731              		.loc 1 70 0
 732 0342 FFF7FEFF 		bl	chprintf
 733              	.LVL90:
 734              		.loc 1 245 0
 735 0346 4FF00709 		mov	r9, #7
 736 034a 6BE6     		b	.L9
 737              	.LVL91:
 738              	.L84:
 739              	.LBE22:
 740              	.LBE21:
 741              	.LBE32:
ARM GAS  /tmp/ccU5nDRe.s 			page 14


 742              	.LBB33:
 743              		.loc 1 366 0 discriminator 1
 744 034c 691E     		subs	r1, r5, #1
 745 034e 0029     		cmp	r1, #0
 746 0350 48DD     		ble	.L52
 747              		.loc 1 366 0 is_stmt 0
 748 0352 0022     		movs	r2, #0
 749 0354 0123     		movs	r3, #1
 750              	.LVL92:
 751              	.L40:
 752              		.loc 1 366 0 discriminator 2
 753 0356 0132     		adds	r2, r2, #1
 754              		.loc 1 367 0 is_stmt 1 discriminator 2
 755 0358 03EB8303 		add	r3, r3, r3, lsl #2
 756              		.loc 1 366 0 discriminator 2
 757 035c D2B2     		uxtb	r2, r2
 758              		.loc 1 367 0 discriminator 2
 759 035e 5B00     		lsls	r3, r3, #1
 760              	.LVL93:
 761              		.loc 1 366 0 discriminator 2
 762 0360 8A42     		cmp	r2, r1
 763 0362 F8DB     		blt	.L40
 764              	.LVL94:
 765              		.loc 1 369 0 discriminator 1
 766 0364 002D     		cmp	r5, #0
 767 0366 40D0     		beq	.L53
 768              	.L94:
 769              		.loc 1 125 0
 770 0368 5FFA81FC 		uxtb	ip, r1
 771              		.loc 1 371 0
 772 036c 4CF6CD4E 		movw	lr, #52429
 773 0370 2C49     		ldr	r1, .L97+12
 774              		.loc 1 125 0
 775 0372 B444     		add	ip, r6, ip
 776 0374 4FF00008 		mov	r8, #0
 777              		.loc 1 371 0
 778 0378 CCF6CC4E 		movt	lr, 52428
 779              	.LVL95:
 780              	.L42:
 781              		.loc 1 371 0 is_stmt 0 discriminator 2
 782 037c AEFB0302 		umull	r0, r2, lr, r3
 783              		.loc 1 370 0 is_stmt 1 discriminator 2
 784 0380 11F8010F 		ldrb	r0, [r1, #1]!	@ zero_extendqisi2
 785 0384 3038     		subs	r0, r0, #48
 786 0386 00FB0388 		mla	r8, r0, r3, r8
 787              	.LVL96:
 788              		.loc 1 371 0 discriminator 2
 789 038a D308     		lsrs	r3, r2, #3
 790              	.LVL97:
 791              		.loc 1 369 0 discriminator 2
 792 038c 6145     		cmp	r1, ip
 793 038e F5D1     		bne	.L42
 794              	.LVL98:
 795              	.L41:
 796              		.loc 1 125 0
 797 0390 0023     		movs	r3, #0
 798              	.LVL99:
ARM GAS  /tmp/ccU5nDRe.s 			page 15


 799              		.loc 1 374 0
 800 0392 1946     		mov	r1, r3
 801              	.LVL100:
 802              	.L43:
 803              		.loc 1 373 0 discriminator 2
 804 0394 5A1C     		adds	r2, r3, #1
 805              		.loc 1 374 0 discriminator 2
 806 0396 F154     		strb	r1, [r6, r3]
 807              		.loc 1 373 0 discriminator 2
 808 0398 D3B2     		uxtb	r3, r2
 809              	.LVL101:
 810 039a 802B     		cmp	r3, #128
 811 039c FAD1     		bne	.L43
 812              		.loc 1 375 0
 813 039e 1E48     		ldr	r0, .L97
 814 03a0 2149     		ldr	r1, .L97+16
 815 03a2 4246     		mov	r2, r8
 816              	.LVL102:
 817 03a4 FFF7FEFF 		bl	chprintf
 818              	.LVL103:
 819              		.loc 1 376 0
 820 03a8 2049     		ldr	r1, .L97+20
 821 03aa 4246     		mov	r2, r8
 822 03ac 0020     		movs	r0, #0
 823 03ae FFF7FEFF 		bl	flashReadBytes
 824              	.LVL104:
 825              		.loc 1 377 0
 826 03b2 1E49     		ldr	r1, .L97+20
 827 03b4 4246     		mov	r2, r8
 828              	.L75:
 829 03b6 4FF0FF33 		mov	r3, #-1
 830 03ba 1D48     		ldr	r0, .L97+24
 831 03bc FFF7FEFF 		bl	chOQWriteTimeout
 832              	.LVL105:
 833              		.loc 1 378 0
 834 03c0 4FF00009 		mov	r9, #0
 835              		.loc 1 379 0
 836 03c4 FFF7FEFF 		bl	showMenu
 837              	.LVL106:
 838 03c8 2CE6     		b	.L9
 839              	.LVL107:
 840              	.L88:
 841              	.LBE33:
 842              	.LBB34:
 843              	.LBB23:
 844              	.LBB24:
 845              		.loc 1 73 0
 846 03ca 1348     		ldr	r0, .L97
 847 03cc 1949     		ldr	r1, .L97+28
 848 03ce 8022     		movs	r2, #128
 849 03d0 FFF7FEFF 		bl	chprintf
 850              	.LVL108:
 851              		.loc 1 74 0
 852 03d4 1048     		ldr	r0, .L97
 853 03d6 1249     		ldr	r1, .L97+8
 854              		.loc 1 240 0
 855 03d8 4D46     		mov	r5, r9
ARM GAS  /tmp/ccU5nDRe.s 			page 16


 856              		.loc 1 74 0
 857 03da FFF7FEFF 		bl	chprintf
 858              	.LVL109:
 859              		.loc 1 248 0
 860 03de 4FF00409 		mov	r9, #4
 861 03e2 1FE6     		b	.L9
 862              	.LVL110:
 863              	.L52:
 864              	.LBE24:
 865              	.LBE23:
 866              	.LBE34:
 867              	.LBB35:
 868              		.loc 1 366 0
 869 03e4 0123     		movs	r3, #1
 870              	.LVL111:
 871              		.loc 1 369 0
 872 03e6 002D     		cmp	r5, #0
 873 03e8 BED1     		bne	.L94
 874              	.L53:
 875 03ea A846     		mov	r8, r5
 876 03ec D0E7     		b	.L41
 877              	.LVL112:
 878              	.L34:
 879              	.LBE35:
 880              	.LBB36:
 881              		.loc 1 339 0
 882 03ee 2A46     		mov	r2, r5
 883 03f0 0948     		ldr	r0, .L97
 884 03f2 1149     		ldr	r1, .L97+32
 885 03f4 FFF7FEFF 		bl	chprintf
 886              	.LVL113:
 887              		.loc 1 340 0
 888 03f8 1049     		ldr	r1, .L97+36
 889 03fa 0748     		ldr	r0, .L97
 890 03fc FFF7FEFF 		bl	chprintf
 891              	.LVL114:
 892              		.loc 1 341 0
 893 0400 2846     		mov	r0, r5
 894 0402 2021     		movs	r1, #32
 895 0404 0122     		movs	r2, #1
 896 0406 FFF7FEFF 		bl	flashErase
 897              	.LVL115:
 898              		.loc 1 342 0
 899 040a 0348     		ldr	r0, .L97
 900 040c 0C49     		ldr	r1, .L97+40
 901 040e 2A46     		mov	r2, r5
 902 0410 FFF7FEFF 		bl	chprintf
 903              	.LVL116:
 904 0414 A846     		mov	r8, r5
 905 0416 0FE7     		b	.L36
 906              	.L98:
 907              		.align	2
 908              	.L97:
 909 0418 00000000 		.word	SD3
 910 041c C4000000 		.word	.LC7
 911 0420 C0000000 		.word	.LC6
 912 0424 FFFFFFFF 		.word	.LANCHOR0-1
ARM GAS  /tmp/ccU5nDRe.s 			page 17


 913 0428 C0010000 		.word	.LC16
 914 042c 00000000 		.word	.LANCHOR0
 915 0430 30000000 		.word	SD3+48
 916 0434 E0000000 		.word	.LC8
 917 0438 78010000 		.word	.LC13
 918 043c 88010000 		.word	.LC14
 919 0440 9C010000 		.word	.LC15
 920              	.LBE36:
 921              		.cfi_endproc
 922              	.LFE67:
 923              		.size	UART_Thread, .-UART_Thread
 924 0444 AFF30080 		.section	.bss.input_buffer,"aw",%nobits
 924      AFF30080 
 924      AFF30080 
 925              		.align	2
 926              		.set	.LANCHOR0,. + 0
 927              		.type	input_buffer, %object
 928              		.size	input_buffer, 128
 929              	input_buffer:
 930 0000 00000000 		.space	128
 930      00000000 
 930      00000000 
 930      00000000 
 930      00000000 
 931              		.section	.rodata.str1.4,"aMS",%progbits,1
 932              		.align	2
 933              	.LC0:
 934 0000 0D0A4465 		.ascii	"\015\012Development Menu\015\012\000"
 934      76656C6F 
 934      706D656E 
 934      74204D65 
 934      6E750D0A 
 935 0015 000000   		.space	3
 936              	.LC1:
 937 0018 28312920 		.ascii	"(1) Write Byte to SPI Flash\015\012\000"
 937      57726974 
 937      65204279 
 937      74652074 
 937      6F205350 
 938 0036 0000     		.space	2
 939              	.LC2:
 940 0038 28322920 		.ascii	"(2) Read Byte from SPI Flash\015\012\000"
 940      52656164 
 940      20427974 
 940      65206672 
 940      6F6D2053 
 941 0057 00       		.space	1
 942              	.LC3:
 943 0058 28332920 		.ascii	"(3) Write Bytes to SPI Flash\015\012\000"
 943      57726974 
 943      65204279 
 943      74657320 
 943      746F2053 
 944 0077 00       		.space	1
 945              	.LC4:
 946 0078 28342920 		.ascii	"(4) Read Bytes from SPI Flash\015\012\000"
 946      52656164 
ARM GAS  /tmp/ccU5nDRe.s 			page 18


 946      20427974 
 946      65732066 
 946      726F6D20 
 947              	.LC5:
 948 0098 0D0A3C48 		.ascii	"\015\012<Hex Address> <Hex Byte>: 00100F Z\015\012\000"
 948      65782041 
 948      64647265 
 948      73733E20 
 948      3C486578 
 949 00bf 00       		.space	1
 950              	.LC6:
 951 00c0 203A3E00 		.ascii	" :>\000"
 952              	.LC7:
 953 00c4 0D0A3C48 		.ascii	"\015\012<Hex Address>: 00100F\015\012\000"
 953      65782041 
 953      64647265 
 953      73733E3A 
 953      20303031 
 954 00de 0000     		.space	2
 955              	.LC8:
 956 00e0 0D0A5374 		.ascii	"\015\012Startng at 0x000000, enter number of bytes "
 956      6172746E 
 956      67206174 
 956      20307830 
 956      30303030 
 957 010d 286D6178 		.ascii	"(max %d):\015\012\000"
 957      20256429 
 957      3A0D0A00 
 958 0119 000000   		.space	3
 959              	.LC9:
 960 011c 0D0A5265 		.ascii	"\015\012Reading from 0x000000, enter number of byte"
 960      6164696E 
 960      67206672 
 960      6F6D2030 
 960      78303030 
 961 0149 733A0D0A 		.ascii	"s:\015\012\000"
 961      00
 962 014e 0000     		.space	2
 963              	.LC10:
 964 0150 0D0A4465 		.ascii	"\015\012Destination: \000"
 964      7374696E 
 964      6174696F 
 964      6E3A2000 
 965              	.LC11:
 966 0160 0D0A4461 		.ascii	"\015\012Data: \000"
 966      74613A20 
 966      00
 967 0169 000000   		.space	3
 968              	.LC12:
 969 016c 0D0A5461 		.ascii	"\015\012Target: \000"
 969      72676574 
 969      3A2000
 970 0177 00       		.space	1
 971              	.LC13:
 972 0178 0D0A4E75 		.ascii	"\015\012Num Bytes: %d\000"
 972      6D204279 
 972      7465733A 
ARM GAS  /tmp/ccU5nDRe.s 			page 19


 972      20256400 
 973              	.LC14:
 974 0188 0D0A4572 		.ascii	"\015\012Erasing Flash\015\012\000"
 974      6173696E 
 974      6720466C 
 974      6173680D 
 974      0A00
 975 019a 0000     		.space	2
 976              	.LC15:
 977 019c 0D0A4572 		.ascii	"\015\012Erasing Done, Transfer %d bytes\015\012\000"
 977      6173696E 
 977      6720446F 
 977      6E652C20 
 977      5472616E 
 978              	.LC16:
 979 01c0 0D0A4E75 		.ascii	"\015\012Num Bytes: %d\015\012\000"
 979      6D204279 
 979      7465733A 
 979      2025640D 
 979      0A00
 980 01d2 0000     		.text
 981              	.Letext0:
 982              		.file 2 "/home/mitchd/Documents/FOX-1/amsat-fox/x86_64-toolchain/arm/bin/../lib/gcc/arm-none-eabi/
 983              		.file 3 "/home/mitchd/Documents/FOX-1/amsat-fox/x86_64-toolchain/arm/bin/../lib/gcc/arm-none-eabi/
 984              		.file 4 "./os/ports/GCC/ARMCMx/chtypes.h"
 985              		.file 5 "./os/kernel/include/chlists.h"
 986              		.file 6 "./os/kernel/include/chthreads.h"
 987              		.file 7 "./os/ports/GCC/ARMCMx/chcore_v7m.h"
 988              		.file 8 "./os/kernel/include/chmtx.h"
 989              		.file 9 "./os/kernel/include/chevents.h"
 990              		.file 10 "./os/kernel/include/chqueues.h"
 991              		.file 11 "./os/kernel/include/chioch.h"
 992              		.file 12 "./os/hal/platforms/STM32L1xx/stm32l1xx.h"
 993              		.file 13 "./os/hal/platforms/STM32/GPIOv2/pal_lld.h"
 994              		.file 14 "./os/hal/include/serial.h"
 995              		.file 15 "./spi_flash/spi_flash.h"
 996              		.file 16 "./os/various/chprintf.h"
 997              		.file 17 "./os/ports/common/ARMCMx/CMSIS/include/core_cm3.h"
 998              		.file 18 "./os/hal/platforms/STM32/serial_lld.h"
 999              		.section	.debug_info,"",%progbits
 1000              	.Ldebug_info0:
 1001 0000 77120000 		.4byte	0x1277
 1002 0004 0200     		.2byte	0x2
 1003 0006 00000000 		.4byte	.Ldebug_abbrev0
 1004 000a 04       		.byte	0x4
 1005 000b 01       		.uleb128 0x1
 1006 000c 0F010000 		.4byte	.LASF149
 1007 0010 01       		.byte	0x1
 1008 0011 1A040000 		.4byte	.LASF150
 1009 0015 34030000 		.4byte	.LASF151
 1010 0019 98000000 		.4byte	.Ldebug_ranges0+0x98
 1011 001d 00000000 		.4byte	0
 1012 0021 00000000 		.4byte	0
 1013 0025 00000000 		.4byte	.Ldebug_line0
 1014 0029 02       		.uleb128 0x2
 1015 002a 04       		.byte	0x4
 1016 002b 05       		.byte	0x5
ARM GAS  /tmp/ccU5nDRe.s 			page 20


 1017 002c 696E7400 		.ascii	"int\000"
 1018 0030 03       		.uleb128 0x3
 1019 0031 B8010000 		.4byte	.LASF2
 1020 0035 02       		.byte	0x2
 1021 0036 D5       		.byte	0xd5
 1022 0037 3B000000 		.4byte	0x3b
 1023 003b 04       		.uleb128 0x4
 1024 003c 04       		.byte	0x4
 1025 003d 07       		.byte	0x7
 1026 003e 84000000 		.4byte	.LASF0
 1027 0042 04       		.uleb128 0x4
 1028 0043 01       		.byte	0x1
 1029 0044 06       		.byte	0x6
 1030 0045 DD050000 		.4byte	.LASF1
 1031 0049 03       		.uleb128 0x3
 1032 004a A4020000 		.4byte	.LASF3
 1033 004e 03       		.byte	0x3
 1034 004f 2A       		.byte	0x2a
 1035 0050 54000000 		.4byte	0x54
 1036 0054 04       		.uleb128 0x4
 1037 0055 01       		.byte	0x1
 1038 0056 08       		.byte	0x8
 1039 0057 99050000 		.4byte	.LASF4
 1040 005b 04       		.uleb128 0x4
 1041 005c 02       		.byte	0x2
 1042 005d 05       		.byte	0x5
 1043 005e A2040000 		.4byte	.LASF5
 1044 0062 03       		.uleb128 0x3
 1045 0063 0A040000 		.4byte	.LASF6
 1046 0067 03       		.byte	0x3
 1047 0068 36       		.byte	0x36
 1048 0069 6D000000 		.4byte	0x6d
 1049 006d 04       		.uleb128 0x4
 1050 006e 02       		.byte	0x2
 1051 006f 07       		.byte	0x7
 1052 0070 E9050000 		.4byte	.LASF7
 1053 0074 03       		.uleb128 0x3
 1054 0075 91050000 		.4byte	.LASF8
 1055 0079 03       		.byte	0x3
 1056 007a 4F       		.byte	0x4f
 1057 007b 7F000000 		.4byte	0x7f
 1058 007f 04       		.uleb128 0x4
 1059 0080 04       		.byte	0x4
 1060 0081 05       		.byte	0x5
 1061 0082 BF040000 		.4byte	.LASF9
 1062 0086 03       		.uleb128 0x3
 1063 0087 FA000000 		.4byte	.LASF10
 1064 008b 03       		.byte	0x3
 1065 008c 50       		.byte	0x50
 1066 008d 91000000 		.4byte	0x91
 1067 0091 04       		.uleb128 0x4
 1068 0092 04       		.byte	0x4
 1069 0093 07       		.byte	0x7
 1070 0094 7F050000 		.4byte	.LASF11
 1071 0098 04       		.uleb128 0x4
 1072 0099 08       		.byte	0x8
 1073 009a 05       		.byte	0x5
ARM GAS  /tmp/ccU5nDRe.s 			page 21


 1074 009b F0020000 		.4byte	.LASF12
 1075 009f 04       		.uleb128 0x4
 1076 00a0 08       		.byte	0x8
 1077 00a1 07       		.byte	0x7
 1078 00a2 33010000 		.4byte	.LASF13
 1079 00a6 03       		.uleb128 0x3
 1080 00a7 00000000 		.4byte	.LASF14
 1081 00ab 03       		.byte	0x3
 1082 00ac A6       		.byte	0xa6
 1083 00ad 3B000000 		.4byte	0x3b
 1084 00b1 03       		.uleb128 0x3
 1085 00b2 C6010000 		.4byte	.LASF15
 1086 00b6 04       		.byte	0x4
 1087 00b7 2E       		.byte	0x2e
 1088 00b8 74000000 		.4byte	0x74
 1089 00bc 03       		.uleb128 0x3
 1090 00bd D5030000 		.4byte	.LASF16
 1091 00c1 04       		.byte	0x4
 1092 00c2 2F       		.byte	0x2f
 1093 00c3 49000000 		.4byte	0x49
 1094 00c7 03       		.uleb128 0x3
 1095 00c8 7E020000 		.4byte	.LASF17
 1096 00cc 04       		.byte	0x4
 1097 00cd 30       		.byte	0x30
 1098 00ce 49000000 		.4byte	0x49
 1099 00d2 03       		.uleb128 0x3
 1100 00d3 69050000 		.4byte	.LASF18
 1101 00d7 04       		.byte	0x4
 1102 00d8 31       		.byte	0x31
 1103 00d9 49000000 		.4byte	0x49
 1104 00dd 03       		.uleb128 0x3
 1105 00de 2B010000 		.4byte	.LASF19
 1106 00e2 04       		.byte	0x4
 1107 00e3 32       		.byte	0x32
 1108 00e4 86000000 		.4byte	0x86
 1109 00e8 03       		.uleb128 0x3
 1110 00e9 2E030000 		.4byte	.LASF20
 1111 00ed 04       		.byte	0x4
 1112 00ee 33       		.byte	0x33
 1113 00ef 74000000 		.4byte	0x74
 1114 00f3 03       		.uleb128 0x3
 1115 00f4 03010000 		.4byte	.LASF21
 1116 00f8 04       		.byte	0x4
 1117 00f9 35       		.byte	0x35
 1118 00fa 86000000 		.4byte	0x86
 1119 00fe 03       		.uleb128 0x3
 1120 00ff 53000000 		.4byte	.LASF22
 1121 0103 04       		.byte	0x4
 1122 0104 36       		.byte	0x36
 1123 0105 86000000 		.4byte	0x86
 1124 0109 03       		.uleb128 0x3
 1125 010a 77020000 		.4byte	.LASF23
 1126 010e 05       		.byte	0x5
 1127 010f 2A       		.byte	0x2a
 1128 0110 14010000 		.4byte	0x114
 1129 0114 05       		.uleb128 0x5
 1130 0115 77020000 		.4byte	.LASF23
ARM GAS  /tmp/ccU5nDRe.s 			page 22


 1131 0119 48       		.byte	0x48
 1132 011a 06       		.byte	0x6
 1133 011b 5E       		.byte	0x5e
 1134 011c 2B020000 		.4byte	0x22b
 1135 0120 06       		.uleb128 0x6
 1136 0121 F3040000 		.4byte	.LASF24
 1137 0125 06       		.byte	0x6
 1138 0126 5F       		.byte	0x5f
 1139 0127 50020000 		.4byte	0x250
 1140 012b 02       		.byte	0x2
 1141 012c 23       		.byte	0x23
 1142 012d 00       		.uleb128 0
 1143 012e 06       		.uleb128 0x6
 1144 012f 59050000 		.4byte	.LASF25
 1145 0133 06       		.byte	0x6
 1146 0134 61       		.byte	0x61
 1147 0135 50020000 		.4byte	0x250
 1148 0139 02       		.byte	0x2
 1149 013a 23       		.byte	0x23
 1150 013b 04       		.uleb128 0x4
 1151 013c 06       		.uleb128 0x6
 1152 013d 46000000 		.4byte	.LASF26
 1153 0141 06       		.byte	0x6
 1154 0142 63       		.byte	0x63
 1155 0143 DD000000 		.4byte	0xdd
 1156 0147 02       		.byte	0x2
 1157 0148 23       		.byte	0x23
 1158 0149 08       		.uleb128 0x8
 1159 014a 06       		.uleb128 0x6
 1160 014b 08050000 		.4byte	.LASF27
 1161 014f 06       		.byte	0x6
 1162 0150 64       		.byte	0x64
 1163 0151 1D030000 		.4byte	0x31d
 1164 0155 02       		.byte	0x2
 1165 0156 23       		.byte	0x23
 1166 0157 0C       		.uleb128 0xc
 1167 0158 06       		.uleb128 0x6
 1168 0159 8A010000 		.4byte	.LASF28
 1169 015d 06       		.byte	0x6
 1170 015e 66       		.byte	0x66
 1171 015f 50020000 		.4byte	0x250
 1172 0163 02       		.byte	0x2
 1173 0164 23       		.byte	0x23
 1174 0165 10       		.uleb128 0x10
 1175 0166 06       		.uleb128 0x6
 1176 0167 94020000 		.4byte	.LASF29
 1177 016b 06       		.byte	0x6
 1178 016c 67       		.byte	0x67
 1179 016d 50020000 		.4byte	0x250
 1180 0171 02       		.byte	0x2
 1181 0172 23       		.byte	0x23
 1182 0173 14       		.uleb128 0x14
 1183 0174 06       		.uleb128 0x6
 1184 0175 22020000 		.4byte	.LASF30
 1185 0179 06       		.byte	0x6
 1186 017a 6E       		.byte	0x6e
 1187 017b 3C040000 		.4byte	0x43c
ARM GAS  /tmp/ccU5nDRe.s 			page 23


 1188 017f 02       		.byte	0x2
 1189 0180 23       		.byte	0x23
 1190 0181 18       		.uleb128 0x18
 1191 0182 06       		.uleb128 0x6
 1192 0183 9C020000 		.4byte	.LASF31
 1193 0187 06       		.byte	0x6
 1194 0188 79       		.byte	0x79
 1195 0189 C7000000 		.4byte	0xc7
 1196 018d 02       		.byte	0x2
 1197 018e 23       		.byte	0x23
 1198 018f 1C       		.uleb128 0x1c
 1199 0190 06       		.uleb128 0x6
 1200 0191 71030000 		.4byte	.LASF32
 1201 0195 06       		.byte	0x6
 1202 0196 7D       		.byte	0x7d
 1203 0197 BC000000 		.4byte	0xbc
 1204 019b 02       		.byte	0x2
 1205 019c 23       		.byte	0x23
 1206 019d 1D       		.uleb128 0x1d
 1207 019e 06       		.uleb128 0x6
 1208 019f A7050000 		.4byte	.LASF33
 1209 01a3 06       		.byte	0x6
 1210 01a4 82       		.byte	0x82
 1211 01a5 D2000000 		.4byte	0xd2
 1212 01a9 02       		.byte	0x2
 1213 01aa 23       		.byte	0x23
 1214 01ab 1E       		.uleb128 0x1e
 1215 01ac 06       		.uleb128 0x6
 1216 01ad 31000000 		.4byte	.LASF34
 1217 01b1 06       		.byte	0x6
 1218 01b2 89       		.byte	0x89
 1219 01b3 4C030000 		.4byte	0x34c
 1220 01b7 02       		.byte	0x2
 1221 01b8 23       		.byte	0x23
 1222 01b9 20       		.uleb128 0x20
 1223 01ba 07       		.uleb128 0x7
 1224 01bb 705F7500 		.ascii	"p_u\000"
 1225 01bf 06       		.byte	0x6
 1226 01c0 AE       		.byte	0xae
 1227 01c1 07040000 		.4byte	0x407
 1228 01c5 02       		.byte	0x2
 1229 01c6 23       		.byte	0x23
 1230 01c7 24       		.uleb128 0x24
 1231 01c8 06       		.uleb128 0x6
 1232 01c9 1A000000 		.4byte	.LASF35
 1233 01cd 06       		.byte	0x6
 1234 01ce B3       		.byte	0xb3
 1235 01cf 78020000 		.4byte	0x278
 1236 01d3 02       		.byte	0x2
 1237 01d4 23       		.byte	0x23
 1238 01d5 28       		.uleb128 0x28
 1239 01d6 06       		.uleb128 0x6
 1240 01d7 79000000 		.4byte	.LASF36
 1241 01db 06       		.byte	0x6
 1242 01dc B9       		.byte	0xb9
 1243 01dd 56020000 		.4byte	0x256
 1244 01e1 02       		.byte	0x2
ARM GAS  /tmp/ccU5nDRe.s 			page 24


 1245 01e2 23       		.byte	0x23
 1246 01e3 2C       		.uleb128 0x2c
 1247 01e4 06       		.uleb128 0x6
 1248 01e5 CF030000 		.4byte	.LASF37
 1249 01e9 06       		.byte	0x6
 1250 01ea BD       		.byte	0xbd
 1251 01eb E8000000 		.4byte	0xe8
 1252 01ef 02       		.byte	0x2
 1253 01f0 23       		.byte	0x23
 1254 01f1 34       		.uleb128 0x34
 1255 01f2 06       		.uleb128 0x6
 1256 01f3 AC040000 		.4byte	.LASF38
 1257 01f7 06       		.byte	0x6
 1258 01f8 C3       		.byte	0xc3
 1259 01f9 F3000000 		.4byte	0xf3
 1260 01fd 02       		.byte	0x2
 1261 01fe 23       		.byte	0x23
 1262 01ff 38       		.uleb128 0x38
 1263 0200 06       		.uleb128 0x6
 1264 0201 D4020000 		.4byte	.LASF39
 1265 0205 06       		.byte	0x6
 1266 0206 CA       		.byte	0xca
 1267 0207 4E040000 		.4byte	0x44e
 1268 020b 02       		.byte	0x2
 1269 020c 23       		.byte	0x23
 1270 020d 3C       		.uleb128 0x3c
 1271 020e 06       		.uleb128 0x6
 1272 020f 5B040000 		.4byte	.LASF40
 1273 0213 06       		.byte	0x6
 1274 0214 CE       		.byte	0xce
 1275 0215 DD000000 		.4byte	0xdd
 1276 0219 02       		.byte	0x2
 1277 021a 23       		.byte	0x23
 1278 021b 40       		.uleb128 0x40
 1279 021c 06       		.uleb128 0x6
 1280 021d CC020000 		.4byte	.LASF41
 1281 0221 06       		.byte	0x6
 1282 0222 D4       		.byte	0xd4
 1283 0223 8E020000 		.4byte	0x28e
 1284 0227 02       		.byte	0x2
 1285 0228 23       		.byte	0x23
 1286 0229 44       		.uleb128 0x44
 1287 022a 00       		.byte	0
 1288 022b 08       		.uleb128 0x8
 1289 022c 08       		.byte	0x8
 1290 022d 05       		.byte	0x5
 1291 022e 61       		.byte	0x61
 1292 022f 50020000 		.4byte	0x250
 1293 0233 06       		.uleb128 0x6
 1294 0234 F3040000 		.4byte	.LASF24
 1295 0238 05       		.byte	0x5
 1296 0239 62       		.byte	0x62
 1297 023a 50020000 		.4byte	0x250
 1298 023e 02       		.byte	0x2
 1299 023f 23       		.byte	0x23
 1300 0240 00       		.uleb128 0
 1301 0241 06       		.uleb128 0x6
ARM GAS  /tmp/ccU5nDRe.s 			page 25


 1302 0242 59050000 		.4byte	.LASF25
 1303 0246 05       		.byte	0x5
 1304 0247 64       		.byte	0x64
 1305 0248 50020000 		.4byte	0x250
 1306 024c 02       		.byte	0x2
 1307 024d 23       		.byte	0x23
 1308 024e 04       		.uleb128 0x4
 1309 024f 00       		.byte	0
 1310 0250 09       		.uleb128 0x9
 1311 0251 04       		.byte	0x4
 1312 0252 09010000 		.4byte	0x109
 1313 0256 03       		.uleb128 0x3
 1314 0257 42020000 		.4byte	.LASF42
 1315 025b 05       		.byte	0x5
 1316 025c 66       		.byte	0x66
 1317 025d 2B020000 		.4byte	0x22b
 1318 0261 08       		.uleb128 0x8
 1319 0262 04       		.byte	0x4
 1320 0263 05       		.byte	0x5
 1321 0264 6B       		.byte	0x6b
 1322 0265 78020000 		.4byte	0x278
 1323 0269 06       		.uleb128 0x6
 1324 026a F3040000 		.4byte	.LASF24
 1325 026e 05       		.byte	0x5
 1326 026f 6D       		.byte	0x6d
 1327 0270 50020000 		.4byte	0x250
 1328 0274 02       		.byte	0x2
 1329 0275 23       		.byte	0x23
 1330 0276 00       		.uleb128 0
 1331 0277 00       		.byte	0
 1332 0278 03       		.uleb128 0x3
 1333 0279 0E000000 		.4byte	.LASF43
 1334 027d 05       		.byte	0x5
 1335 027e 70       		.byte	0x70
 1336 027f 61020000 		.4byte	0x261
 1337 0283 03       		.uleb128 0x3
 1338 0284 3D000000 		.4byte	.LASF44
 1339 0288 07       		.byte	0x7
 1340 0289 D7       		.byte	0xd7
 1341 028a 8E020000 		.4byte	0x28e
 1342 028e 0A       		.uleb128 0xa
 1343 028f 04       		.byte	0x4
 1344 0290 05       		.uleb128 0x5
 1345 0291 13040000 		.4byte	.LASF45
 1346 0295 24       		.byte	0x24
 1347 0296 07       		.byte	0x7
 1348 0297 FE       		.byte	0xfe
 1349 0298 1D030000 		.4byte	0x31d
 1350 029c 0B       		.uleb128 0xb
 1351 029d 723400   		.ascii	"r4\000"
 1352 02a0 07       		.byte	0x7
 1353 02a1 1101     		.2byte	0x111
 1354 02a3 83020000 		.4byte	0x283
 1355 02a7 02       		.byte	0x2
 1356 02a8 23       		.byte	0x23
 1357 02a9 00       		.uleb128 0
 1358 02aa 0B       		.uleb128 0xb
ARM GAS  /tmp/ccU5nDRe.s 			page 26


 1359 02ab 723500   		.ascii	"r5\000"
 1360 02ae 07       		.byte	0x7
 1361 02af 1201     		.2byte	0x112
 1362 02b1 83020000 		.4byte	0x283
 1363 02b5 02       		.byte	0x2
 1364 02b6 23       		.byte	0x23
 1365 02b7 04       		.uleb128 0x4
 1366 02b8 0B       		.uleb128 0xb
 1367 02b9 723600   		.ascii	"r6\000"
 1368 02bc 07       		.byte	0x7
 1369 02bd 1301     		.2byte	0x113
 1370 02bf 83020000 		.4byte	0x283
 1371 02c3 02       		.byte	0x2
 1372 02c4 23       		.byte	0x23
 1373 02c5 08       		.uleb128 0x8
 1374 02c6 0B       		.uleb128 0xb
 1375 02c7 723700   		.ascii	"r7\000"
 1376 02ca 07       		.byte	0x7
 1377 02cb 1401     		.2byte	0x114
 1378 02cd 83020000 		.4byte	0x283
 1379 02d1 02       		.byte	0x2
 1380 02d2 23       		.byte	0x23
 1381 02d3 0C       		.uleb128 0xc
 1382 02d4 0B       		.uleb128 0xb
 1383 02d5 723800   		.ascii	"r8\000"
 1384 02d8 07       		.byte	0x7
 1385 02d9 1501     		.2byte	0x115
 1386 02db 83020000 		.4byte	0x283
 1387 02df 02       		.byte	0x2
 1388 02e0 23       		.byte	0x23
 1389 02e1 10       		.uleb128 0x10
 1390 02e2 0B       		.uleb128 0xb
 1391 02e3 723900   		.ascii	"r9\000"
 1392 02e6 07       		.byte	0x7
 1393 02e7 1601     		.2byte	0x116
 1394 02e9 83020000 		.4byte	0x283
 1395 02ed 02       		.byte	0x2
 1396 02ee 23       		.byte	0x23
 1397 02ef 14       		.uleb128 0x14
 1398 02f0 0B       		.uleb128 0xb
 1399 02f1 72313000 		.ascii	"r10\000"
 1400 02f5 07       		.byte	0x7
 1401 02f6 1701     		.2byte	0x117
 1402 02f8 83020000 		.4byte	0x283
 1403 02fc 02       		.byte	0x2
 1404 02fd 23       		.byte	0x23
 1405 02fe 18       		.uleb128 0x18
 1406 02ff 0B       		.uleb128 0xb
 1407 0300 72313100 		.ascii	"r11\000"
 1408 0304 07       		.byte	0x7
 1409 0305 1801     		.2byte	0x118
 1410 0307 83020000 		.4byte	0x283
 1411 030b 02       		.byte	0x2
 1412 030c 23       		.byte	0x23
 1413 030d 1C       		.uleb128 0x1c
 1414 030e 0B       		.uleb128 0xb
 1415 030f 6C7200   		.ascii	"lr\000"
ARM GAS  /tmp/ccU5nDRe.s 			page 27


 1416 0312 07       		.byte	0x7
 1417 0313 1901     		.2byte	0x119
 1418 0315 83020000 		.4byte	0x283
 1419 0319 02       		.byte	0x2
 1420 031a 23       		.byte	0x23
 1421 031b 20       		.uleb128 0x20
 1422 031c 00       		.byte	0
 1423 031d 0C       		.uleb128 0xc
 1424 031e 69030000 		.4byte	.LASF46
 1425 0322 04       		.byte	0x4
 1426 0323 07       		.byte	0x7
 1427 0324 2301     		.2byte	0x123
 1428 0326 3A030000 		.4byte	0x33a
 1429 032a 0B       		.uleb128 0xb
 1430 032b 72313300 		.ascii	"r13\000"
 1431 032f 07       		.byte	0x7
 1432 0330 2401     		.2byte	0x124
 1433 0332 3A030000 		.4byte	0x33a
 1434 0336 02       		.byte	0x2
 1435 0337 23       		.byte	0x23
 1436 0338 00       		.uleb128 0
 1437 0339 00       		.byte	0
 1438 033a 09       		.uleb128 0x9
 1439 033b 04       		.byte	0x4
 1440 033c 90020000 		.4byte	0x290
 1441 0340 0D       		.uleb128 0xd
 1442 0341 86000000 		.4byte	0x86
 1443 0345 04       		.uleb128 0x4
 1444 0346 04       		.byte	0x4
 1445 0347 07       		.byte	0x7
 1446 0348 60050000 		.4byte	.LASF47
 1447 034c 0D       		.uleb128 0xd
 1448 034d FE000000 		.4byte	0xfe
 1449 0351 05       		.uleb128 0x5
 1450 0352 E9010000 		.4byte	.LASF48
 1451 0356 10       		.byte	0x10
 1452 0357 08       		.byte	0x8
 1453 0358 2C       		.byte	0x2c
 1454 0359 88030000 		.4byte	0x388
 1455 035d 06       		.uleb128 0x6
 1456 035e B7040000 		.4byte	.LASF49
 1457 0362 08       		.byte	0x8
 1458 0363 2D       		.byte	0x2d
 1459 0364 56020000 		.4byte	0x256
 1460 0368 02       		.byte	0x2
 1461 0369 23       		.byte	0x23
 1462 036a 00       		.uleb128 0
 1463 036b 06       		.uleb128 0x6
 1464 036c 71000000 		.4byte	.LASF50
 1465 0370 08       		.byte	0x8
 1466 0371 2F       		.byte	0x2f
 1467 0372 50020000 		.4byte	0x250
 1468 0376 02       		.byte	0x2
 1469 0377 23       		.byte	0x23
 1470 0378 08       		.uleb128 0x8
 1471 0379 06       		.uleb128 0x6
 1472 037a D6050000 		.4byte	.LASF51
ARM GAS  /tmp/ccU5nDRe.s 			page 28


 1473 037e 08       		.byte	0x8
 1474 037f 31       		.byte	0x31
 1475 0380 88030000 		.4byte	0x388
 1476 0384 02       		.byte	0x2
 1477 0385 23       		.byte	0x23
 1478 0386 0C       		.uleb128 0xc
 1479 0387 00       		.byte	0
 1480 0388 09       		.uleb128 0x9
 1481 0389 04       		.byte	0x4
 1482 038a 51030000 		.4byte	0x351
 1483 038e 03       		.uleb128 0x3
 1484 038f E9010000 		.4byte	.LASF48
 1485 0393 08       		.byte	0x8
 1486 0394 33       		.byte	0x33
 1487 0395 51030000 		.4byte	0x351
 1488 0399 03       		.uleb128 0x3
 1489 039a 71050000 		.4byte	.LASF52
 1490 039e 09       		.byte	0x9
 1491 039f 29       		.byte	0x29
 1492 03a0 A4030000 		.4byte	0x3a4
 1493 03a4 05       		.uleb128 0x5
 1494 03a5 71050000 		.4byte	.LASF52
 1495 03a9 0C       		.byte	0xc
 1496 03aa 09       		.byte	0x9
 1497 03ab 2E       		.byte	0x2e
 1498 03ac DB030000 		.4byte	0x3db
 1499 03b0 06       		.uleb128 0x6
 1500 03b1 C7030000 		.4byte	.LASF53
 1501 03b5 09       		.byte	0x9
 1502 03b6 2F       		.byte	0x2f
 1503 03b7 DB030000 		.4byte	0x3db
 1504 03bb 02       		.byte	0x2
 1505 03bc 23       		.byte	0x23
 1506 03bd 00       		.uleb128 0
 1507 03be 06       		.uleb128 0x6
 1508 03bf 26050000 		.4byte	.LASF54
 1509 03c3 09       		.byte	0x9
 1510 03c4 32       		.byte	0x32
 1511 03c5 50020000 		.4byte	0x250
 1512 03c9 02       		.byte	0x2
 1513 03ca 23       		.byte	0x23
 1514 03cb 04       		.uleb128 0x4
 1515 03cc 06       		.uleb128 0x6
 1516 03cd B3000000 		.4byte	.LASF55
 1517 03d1 09       		.byte	0x9
 1518 03d2 34       		.byte	0x34
 1519 03d3 F3000000 		.4byte	0xf3
 1520 03d7 02       		.byte	0x2
 1521 03d8 23       		.byte	0x23
 1522 03d9 08       		.uleb128 0x8
 1523 03da 00       		.byte	0
 1524 03db 09       		.uleb128 0x9
 1525 03dc 04       		.byte	0x4
 1526 03dd 99030000 		.4byte	0x399
 1527 03e1 05       		.uleb128 0x5
 1528 03e2 AC010000 		.4byte	.LASF56
 1529 03e6 04       		.byte	0x4
ARM GAS  /tmp/ccU5nDRe.s 			page 29


 1530 03e7 09       		.byte	0x9
 1531 03e8 3C       		.byte	0x3c
 1532 03e9 FC030000 		.4byte	0x3fc
 1533 03ed 06       		.uleb128 0x6
 1534 03ee AE050000 		.4byte	.LASF57
 1535 03f2 09       		.byte	0x9
 1536 03f3 3D       		.byte	0x3d
 1537 03f4 DB030000 		.4byte	0x3db
 1538 03f8 02       		.byte	0x2
 1539 03f9 23       		.byte	0x23
 1540 03fa 00       		.uleb128 0
 1541 03fb 00       		.byte	0
 1542 03fc 03       		.uleb128 0x3
 1543 03fd AC010000 		.4byte	.LASF56
 1544 0401 09       		.byte	0x9
 1545 0402 40       		.byte	0x40
 1546 0403 E1030000 		.4byte	0x3e1
 1547 0407 0E       		.uleb128 0xe
 1548 0408 04       		.byte	0x4
 1549 0409 06       		.byte	0x6
 1550 040a 90       		.byte	0x90
 1551 040b 3C040000 		.4byte	0x43c
 1552 040f 0F       		.uleb128 0xf
 1553 0410 BF010000 		.4byte	.LASF58
 1554 0414 06       		.byte	0x6
 1555 0415 97       		.byte	0x97
 1556 0416 E8000000 		.4byte	0xe8
 1557 041a 0F       		.uleb128 0xf
 1558 041b 28060000 		.4byte	.LASF59
 1559 041f 06       		.byte	0x6
 1560 0420 9E       		.byte	0x9e
 1561 0421 E8000000 		.4byte	0xe8
 1562 0425 0F       		.uleb128 0xf
 1563 0426 C2000000 		.4byte	.LASF60
 1564 042a 06       		.byte	0x6
 1565 042b A5       		.byte	0xa5
 1566 042c 8E020000 		.4byte	0x28e
 1567 0430 0F       		.uleb128 0xf
 1568 0431 D1000000 		.4byte	.LASF61
 1569 0435 06       		.byte	0x6
 1570 0436 AC       		.byte	0xac
 1571 0437 F3000000 		.4byte	0xf3
 1572 043b 00       		.byte	0
 1573 043c 09       		.uleb128 0x9
 1574 043d 04       		.byte	0x4
 1575 043e 42040000 		.4byte	0x442
 1576 0442 10       		.uleb128 0x10
 1577 0443 47040000 		.4byte	0x447
 1578 0447 04       		.uleb128 0x4
 1579 0448 01       		.byte	0x1
 1580 0449 08       		.byte	0x8
 1581 044a 5C020000 		.4byte	.LASF62
 1582 044e 09       		.uleb128 0x9
 1583 044f 04       		.byte	0x4
 1584 0450 8E030000 		.4byte	0x38e
 1585 0454 03       		.uleb128 0x3
 1586 0455 EF030000 		.4byte	.LASF63
ARM GAS  /tmp/ccU5nDRe.s 			page 30


 1587 0459 0A       		.byte	0xa
 1588 045a 37       		.byte	0x37
 1589 045b 5F040000 		.4byte	0x45f
 1590 045f 05       		.uleb128 0x5
 1591 0460 EF030000 		.4byte	.LASF63
 1592 0464 20       		.byte	0x20
 1593 0465 0A       		.byte	0xa
 1594 0466 45       		.byte	0x45
 1595 0467 CE040000 		.4byte	0x4ce
 1596 046b 06       		.uleb128 0x6
 1597 046c 98010000 		.4byte	.LASF64
 1598 0470 0A       		.byte	0xa
 1599 0471 46       		.byte	0x46
 1600 0472 56020000 		.4byte	0x256
 1601 0476 02       		.byte	0x2
 1602 0477 23       		.byte	0x23
 1603 0478 00       		.uleb128 0
 1604 0479 06       		.uleb128 0x6
 1605 047a 49050000 		.4byte	.LASF65
 1606 047e 0A       		.byte	0xa
 1607 047f 47       		.byte	0x47
 1608 0480 30000000 		.4byte	0x30
 1609 0484 02       		.byte	0x2
 1610 0485 23       		.byte	0x23
 1611 0486 08       		.uleb128 0x8
 1612 0487 06       		.uleb128 0x6
 1613 0488 10030000 		.4byte	.LASF66
 1614 048c 0A       		.byte	0xa
 1615 048d 48       		.byte	0x48
 1616 048e F1040000 		.4byte	0x4f1
 1617 0492 02       		.byte	0x2
 1618 0493 23       		.byte	0x23
 1619 0494 0C       		.uleb128 0xc
 1620 0495 06       		.uleb128 0x6
 1621 0496 53050000 		.4byte	.LASF67
 1622 049a 0A       		.byte	0xa
 1623 049b 49       		.byte	0x49
 1624 049c F1040000 		.4byte	0x4f1
 1625 04a0 02       		.byte	0x2
 1626 04a1 23       		.byte	0x23
 1627 04a2 10       		.uleb128 0x10
 1628 04a3 06       		.uleb128 0x6
 1629 04a4 6F020000 		.4byte	.LASF68
 1630 04a8 0A       		.byte	0xa
 1631 04a9 4B       		.byte	0x4b
 1632 04aa F1040000 		.4byte	0x4f1
 1633 04ae 02       		.byte	0x2
 1634 04af 23       		.byte	0x23
 1635 04b0 14       		.uleb128 0x14
 1636 04b1 06       		.uleb128 0x6
 1637 04b2 A1000000 		.4byte	.LASF69
 1638 04b6 0A       		.byte	0xa
 1639 04b7 4C       		.byte	0x4c
 1640 04b8 F1040000 		.4byte	0x4f1
 1641 04bc 02       		.byte	0x2
 1642 04bd 23       		.byte	0x23
 1643 04be 18       		.uleb128 0x18
ARM GAS  /tmp/ccU5nDRe.s 			page 31


 1644 04bf 06       		.uleb128 0x6
 1645 04c0 FB010000 		.4byte	.LASF70
 1646 04c4 0A       		.byte	0xa
 1647 04c5 4D       		.byte	0x4d
 1648 04c6 CE040000 		.4byte	0x4ce
 1649 04ca 02       		.byte	0x2
 1650 04cb 23       		.byte	0x23
 1651 04cc 1C       		.uleb128 0x1c
 1652 04cd 00       		.byte	0
 1653 04ce 03       		.uleb128 0x3
 1654 04cf A9000000 		.4byte	.LASF71
 1655 04d3 0A       		.byte	0xa
 1656 04d4 3A       		.byte	0x3a
 1657 04d5 D9040000 		.4byte	0x4d9
 1658 04d9 09       		.uleb128 0x9
 1659 04da 04       		.byte	0x4
 1660 04db DF040000 		.4byte	0x4df
 1661 04df 11       		.uleb128 0x11
 1662 04e0 01       		.byte	0x1
 1663 04e1 EB040000 		.4byte	0x4eb
 1664 04e5 12       		.uleb128 0x12
 1665 04e6 EB040000 		.4byte	0x4eb
 1666 04ea 00       		.byte	0
 1667 04eb 09       		.uleb128 0x9
 1668 04ec 04       		.byte	0x4
 1669 04ed 54040000 		.4byte	0x454
 1670 04f1 09       		.uleb128 0x9
 1671 04f2 04       		.byte	0x4
 1672 04f3 49000000 		.4byte	0x49
 1673 04f7 03       		.uleb128 0x3
 1674 04f8 37020000 		.4byte	.LASF72
 1675 04fc 0A       		.byte	0xa
 1676 04fd 76       		.byte	0x76
 1677 04fe 54040000 		.4byte	0x454
 1678 0502 03       		.uleb128 0x3
 1679 0503 EF010000 		.4byte	.LASF73
 1680 0507 0A       		.byte	0xa
 1681 0508 E6       		.byte	0xe6
 1682 0509 54040000 		.4byte	0x454
 1683 050d 13       		.uleb128 0x13
 1684 050e 01       		.byte	0x1
 1685 050f 30000000 		.4byte	0x30
 1686 0513 27050000 		.4byte	0x527
 1687 0517 12       		.uleb128 0x12
 1688 0518 8E020000 		.4byte	0x28e
 1689 051c 12       		.uleb128 0x12
 1690 051d 27050000 		.4byte	0x527
 1691 0521 12       		.uleb128 0x12
 1692 0522 30000000 		.4byte	0x30
 1693 0526 00       		.byte	0
 1694 0527 09       		.uleb128 0x9
 1695 0528 04       		.byte	0x4
 1696 0529 2D050000 		.4byte	0x52d
 1697 052d 10       		.uleb128 0x10
 1698 052e 49000000 		.4byte	0x49
 1699 0532 09       		.uleb128 0x9
 1700 0533 04       		.byte	0x4
ARM GAS  /tmp/ccU5nDRe.s 			page 32


 1701 0534 0D050000 		.4byte	0x50d
 1702 0538 13       		.uleb128 0x13
 1703 0539 01       		.byte	0x1
 1704 053a 30000000 		.4byte	0x30
 1705 053e 52050000 		.4byte	0x552
 1706 0542 12       		.uleb128 0x12
 1707 0543 8E020000 		.4byte	0x28e
 1708 0547 12       		.uleb128 0x12
 1709 0548 F1040000 		.4byte	0x4f1
 1710 054c 12       		.uleb128 0x12
 1711 054d 30000000 		.4byte	0x30
 1712 0551 00       		.byte	0
 1713 0552 09       		.uleb128 0x9
 1714 0553 04       		.byte	0x4
 1715 0554 38050000 		.4byte	0x538
 1716 0558 05       		.uleb128 0x5
 1717 0559 DF000000 		.4byte	.LASF74
 1718 055d 20       		.byte	0x20
 1719 055e 0B       		.byte	0xb
 1720 055f 51       		.byte	0x51
 1721 0560 D5050000 		.4byte	0x5d5
 1722 0564 06       		.uleb128 0x6
 1723 0565 0A030000 		.4byte	.LASF75
 1724 0569 0B       		.byte	0xb
 1725 056a 52       		.byte	0x52
 1726 056b 32050000 		.4byte	0x532
 1727 056f 02       		.byte	0x2
 1728 0570 23       		.byte	0x23
 1729 0571 00       		.uleb128 0
 1730 0572 06       		.uleb128 0x6
 1731 0573 21050000 		.4byte	.LASF76
 1732 0577 0B       		.byte	0xb
 1733 0578 52       		.byte	0x52
 1734 0579 52050000 		.4byte	0x552
 1735 057d 02       		.byte	0x2
 1736 057e 23       		.byte	0x23
 1737 057f 04       		.uleb128 0x4
 1738 0580 06       		.uleb128 0x6
 1739 0581 C8040000 		.4byte	.LASF77
 1740 0585 0B       		.byte	0xb
 1741 0586 52       		.byte	0x52
 1742 0587 E5050000 		.4byte	0x5e5
 1743 058b 02       		.byte	0x2
 1744 058c 23       		.byte	0x23
 1745 058d 08       		.uleb128 0x8
 1746 058e 06       		.uleb128 0x6
 1747 058f 4D040000 		.4byte	.LASF78
 1748 0593 0B       		.byte	0xb
 1749 0594 52       		.byte	0x52
 1750 0595 E5050000 		.4byte	0x5e5
 1751 0599 02       		.byte	0x2
 1752 059a 23       		.byte	0x23
 1753 059b 0C       		.uleb128 0xc
 1754 059c 07       		.uleb128 0x7
 1755 059d 70757400 		.ascii	"put\000"
 1756 05a1 0B       		.byte	0xb
 1757 05a2 52       		.byte	0x52
ARM GAS  /tmp/ccU5nDRe.s 			page 33


 1758 05a3 05060000 		.4byte	0x605
 1759 05a7 02       		.byte	0x2
 1760 05a8 23       		.byte	0x23
 1761 05a9 10       		.uleb128 0x10
 1762 05aa 07       		.uleb128 0x7
 1763 05ab 67657400 		.ascii	"get\000"
 1764 05af 0B       		.byte	0xb
 1765 05b0 52       		.byte	0x52
 1766 05b1 20060000 		.4byte	0x620
 1767 05b5 02       		.byte	0x2
 1768 05b6 23       		.byte	0x23
 1769 05b7 14       		.uleb128 0x14
 1770 05b8 06       		.uleb128 0x6
 1771 05b9 D8000000 		.4byte	.LASF79
 1772 05bd 0B       		.byte	0xb
 1773 05be 52       		.byte	0x52
 1774 05bf 45060000 		.4byte	0x645
 1775 05c3 02       		.byte	0x2
 1776 05c4 23       		.byte	0x23
 1777 05c5 18       		.uleb128 0x18
 1778 05c6 06       		.uleb128 0x6
 1779 05c7 0E050000 		.4byte	.LASF80
 1780 05cb 0B       		.byte	0xb
 1781 05cc 52       		.byte	0x52
 1782 05cd 6A060000 		.4byte	0x66a
 1783 05d1 02       		.byte	0x2
 1784 05d2 23       		.byte	0x23
 1785 05d3 1C       		.uleb128 0x1c
 1786 05d4 00       		.byte	0
 1787 05d5 13       		.uleb128 0x13
 1788 05d6 01       		.byte	0x1
 1789 05d7 B1000000 		.4byte	0xb1
 1790 05db E5050000 		.4byte	0x5e5
 1791 05df 12       		.uleb128 0x12
 1792 05e0 8E020000 		.4byte	0x28e
 1793 05e4 00       		.byte	0
 1794 05e5 09       		.uleb128 0x9
 1795 05e6 04       		.byte	0x4
 1796 05e7 D5050000 		.4byte	0x5d5
 1797 05eb 13       		.uleb128 0x13
 1798 05ec 01       		.byte	0x1
 1799 05ed E8000000 		.4byte	0xe8
 1800 05f1 05060000 		.4byte	0x605
 1801 05f5 12       		.uleb128 0x12
 1802 05f6 8E020000 		.4byte	0x28e
 1803 05fa 12       		.uleb128 0x12
 1804 05fb 49000000 		.4byte	0x49
 1805 05ff 12       		.uleb128 0x12
 1806 0600 FE000000 		.4byte	0xfe
 1807 0604 00       		.byte	0
 1808 0605 09       		.uleb128 0x9
 1809 0606 04       		.byte	0x4
 1810 0607 EB050000 		.4byte	0x5eb
 1811 060b 13       		.uleb128 0x13
 1812 060c 01       		.byte	0x1
 1813 060d E8000000 		.4byte	0xe8
 1814 0611 20060000 		.4byte	0x620
ARM GAS  /tmp/ccU5nDRe.s 			page 34


 1815 0615 12       		.uleb128 0x12
 1816 0616 8E020000 		.4byte	0x28e
 1817 061a 12       		.uleb128 0x12
 1818 061b FE000000 		.4byte	0xfe
 1819 061f 00       		.byte	0
 1820 0620 09       		.uleb128 0x9
 1821 0621 04       		.byte	0x4
 1822 0622 0B060000 		.4byte	0x60b
 1823 0626 13       		.uleb128 0x13
 1824 0627 01       		.byte	0x1
 1825 0628 30000000 		.4byte	0x30
 1826 062c 45060000 		.4byte	0x645
 1827 0630 12       		.uleb128 0x12
 1828 0631 8E020000 		.4byte	0x28e
 1829 0635 12       		.uleb128 0x12
 1830 0636 27050000 		.4byte	0x527
 1831 063a 12       		.uleb128 0x12
 1832 063b 30000000 		.4byte	0x30
 1833 063f 12       		.uleb128 0x12
 1834 0640 FE000000 		.4byte	0xfe
 1835 0644 00       		.byte	0
 1836 0645 09       		.uleb128 0x9
 1837 0646 04       		.byte	0x4
 1838 0647 26060000 		.4byte	0x626
 1839 064b 13       		.uleb128 0x13
 1840 064c 01       		.byte	0x1
 1841 064d 30000000 		.4byte	0x30
 1842 0651 6A060000 		.4byte	0x66a
 1843 0655 12       		.uleb128 0x12
 1844 0656 8E020000 		.4byte	0x28e
 1845 065a 12       		.uleb128 0x12
 1846 065b F1040000 		.4byte	0x4f1
 1847 065f 12       		.uleb128 0x12
 1848 0660 30000000 		.4byte	0x30
 1849 0664 12       		.uleb128 0x12
 1850 0665 FE000000 		.4byte	0xfe
 1851 0669 00       		.byte	0
 1852 066a 09       		.uleb128 0x9
 1853 066b 04       		.byte	0x4
 1854 066c 4B060000 		.4byte	0x64b
 1855 0670 08       		.uleb128 0x8
 1856 0671 04       		.byte	0x4
 1857 0672 0B       		.byte	0xb
 1858 0673 5C       		.byte	0x5c
 1859 0674 87060000 		.4byte	0x687
 1860 0678 07       		.uleb128 0x7
 1861 0679 766D7400 		.ascii	"vmt\000"
 1862 067d 0B       		.byte	0xb
 1863 067e 5E       		.byte	0x5e
 1864 067f 87060000 		.4byte	0x687
 1865 0683 02       		.byte	0x2
 1866 0684 23       		.byte	0x23
 1867 0685 00       		.uleb128 0
 1868 0686 00       		.byte	0
 1869 0687 09       		.uleb128 0x9
 1870 0688 04       		.byte	0x4
 1871 0689 8D060000 		.4byte	0x68d
ARM GAS  /tmp/ccU5nDRe.s 			page 35


 1872 068d 10       		.uleb128 0x10
 1873 068e 58050000 		.4byte	0x558
 1874 0692 03       		.uleb128 0x3
 1875 0693 AC020000 		.4byte	.LASF81
 1876 0697 0B       		.byte	0xb
 1877 0698 60       		.byte	0x60
 1878 0699 70060000 		.4byte	0x670
 1879 069d 14       		.uleb128 0x14
 1880 069e A2010000 		.4byte	.LASF82
 1881 06a2 0B       		.byte	0xb
 1882 06a3 0B01     		.2byte	0x10b
 1883 06a5 A6000000 		.4byte	0xa6
 1884 06a9 13       		.uleb128 0x13
 1885 06aa 01       		.byte	0x1
 1886 06ab 9D060000 		.4byte	0x69d
 1887 06af B9060000 		.4byte	0x6b9
 1888 06b3 12       		.uleb128 0x12
 1889 06b4 8E020000 		.4byte	0x28e
 1890 06b8 00       		.byte	0
 1891 06b9 09       		.uleb128 0x9
 1892 06ba 04       		.byte	0x4
 1893 06bb A9060000 		.4byte	0x6a9
 1894 06bf 0D       		.uleb128 0xd
 1895 06c0 62000000 		.4byte	0x62
 1896 06c4 15       		.uleb128 0x15
 1897 06c5 1C       		.byte	0x1c
 1898 06c6 0C       		.byte	0xc
 1899 06c7 9B02     		.2byte	0x29b
 1900 06c9 9E070000 		.4byte	0x79e
 1901 06cd 0B       		.uleb128 0xb
 1902 06ce 535200   		.ascii	"SR\000"
 1903 06d1 0C       		.byte	0xc
 1904 06d2 9D02     		.2byte	0x29d
 1905 06d4 BF060000 		.4byte	0x6bf
 1906 06d8 02       		.byte	0x2
 1907 06d9 23       		.byte	0x23
 1908 06da 00       		.uleb128 0
 1909 06db 16       		.uleb128 0x16
 1910 06dc 0C060000 		.4byte	.LASF83
 1911 06e0 0C       		.byte	0xc
 1912 06e1 9E02     		.2byte	0x29e
 1913 06e3 62000000 		.4byte	0x62
 1914 06e7 02       		.byte	0x2
 1915 06e8 23       		.byte	0x23
 1916 06e9 02       		.uleb128 0x2
 1917 06ea 0B       		.uleb128 0xb
 1918 06eb 445200   		.ascii	"DR\000"
 1919 06ee 0C       		.byte	0xc
 1920 06ef 9F02     		.2byte	0x29f
 1921 06f1 BF060000 		.4byte	0x6bf
 1922 06f5 02       		.byte	0x2
 1923 06f6 23       		.byte	0x23
 1924 06f7 04       		.uleb128 0x4
 1925 06f8 16       		.uleb128 0x16
 1926 06f9 66040000 		.4byte	.LASF84
 1927 06fd 0C       		.byte	0xc
 1928 06fe A002     		.2byte	0x2a0
ARM GAS  /tmp/ccU5nDRe.s 			page 36


 1929 0700 62000000 		.4byte	0x62
 1930 0704 02       		.byte	0x2
 1931 0705 23       		.byte	0x23
 1932 0706 06       		.uleb128 0x6
 1933 0707 0B       		.uleb128 0xb
 1934 0708 42525200 		.ascii	"BRR\000"
 1935 070c 0C       		.byte	0xc
 1936 070d A102     		.2byte	0x2a1
 1937 070f BF060000 		.4byte	0x6bf
 1938 0713 02       		.byte	0x2
 1939 0714 23       		.byte	0x23
 1940 0715 08       		.uleb128 0x8
 1941 0716 16       		.uleb128 0x16
 1942 0717 70040000 		.4byte	.LASF85
 1943 071b 0C       		.byte	0xc
 1944 071c A202     		.2byte	0x2a2
 1945 071e 62000000 		.4byte	0x62
 1946 0722 02       		.byte	0x2
 1947 0723 23       		.byte	0x23
 1948 0724 0A       		.uleb128 0xa
 1949 0725 0B       		.uleb128 0xb
 1950 0726 43523100 		.ascii	"CR1\000"
 1951 072a 0C       		.byte	0xc
 1952 072b A302     		.2byte	0x2a3
 1953 072d BF060000 		.4byte	0x6bf
 1954 0731 02       		.byte	0x2
 1955 0732 23       		.byte	0x23
 1956 0733 0C       		.uleb128 0xc
 1957 0734 16       		.uleb128 0x16
 1958 0735 7A040000 		.4byte	.LASF86
 1959 0739 0C       		.byte	0xc
 1960 073a A402     		.2byte	0x2a4
 1961 073c 62000000 		.4byte	0x62
 1962 0740 02       		.byte	0x2
 1963 0741 23       		.byte	0x23
 1964 0742 0E       		.uleb128 0xe
 1965 0743 0B       		.uleb128 0xb
 1966 0744 43523200 		.ascii	"CR2\000"
 1967 0748 0C       		.byte	0xc
 1968 0749 A502     		.2byte	0x2a5
 1969 074b BF060000 		.4byte	0x6bf
 1970 074f 02       		.byte	0x2
 1971 0750 23       		.byte	0x23
 1972 0751 10       		.uleb128 0x10
 1973 0752 16       		.uleb128 0x16
 1974 0753 84040000 		.4byte	.LASF87
 1975 0757 0C       		.byte	0xc
 1976 0758 A602     		.2byte	0x2a6
 1977 075a 62000000 		.4byte	0x62
 1978 075e 02       		.byte	0x2
 1979 075f 23       		.byte	0x23
 1980 0760 12       		.uleb128 0x12
 1981 0761 0B       		.uleb128 0xb
 1982 0762 43523300 		.ascii	"CR3\000"
 1983 0766 0C       		.byte	0xc
 1984 0767 A702     		.2byte	0x2a7
 1985 0769 BF060000 		.4byte	0x6bf
ARM GAS  /tmp/ccU5nDRe.s 			page 37


 1986 076d 02       		.byte	0x2
 1987 076e 23       		.byte	0x23
 1988 076f 14       		.uleb128 0x14
 1989 0770 16       		.uleb128 0x16
 1990 0771 8E040000 		.4byte	.LASF88
 1991 0775 0C       		.byte	0xc
 1992 0776 A802     		.2byte	0x2a8
 1993 0778 62000000 		.4byte	0x62
 1994 077c 02       		.byte	0x2
 1995 077d 23       		.byte	0x23
 1996 077e 16       		.uleb128 0x16
 1997 077f 16       		.uleb128 0x16
 1998 0780 EE000000 		.4byte	.LASF89
 1999 0784 0C       		.byte	0xc
 2000 0785 A902     		.2byte	0x2a9
 2001 0787 BF060000 		.4byte	0x6bf
 2002 078b 02       		.byte	0x2
 2003 078c 23       		.byte	0x23
 2004 078d 18       		.uleb128 0x18
 2005 078e 16       		.uleb128 0x16
 2006 078f 98040000 		.4byte	.LASF90
 2007 0793 0C       		.byte	0xc
 2008 0794 AA02     		.2byte	0x2aa
 2009 0796 62000000 		.4byte	0x62
 2010 079a 02       		.byte	0x2
 2011 079b 23       		.byte	0x23
 2012 079c 1A       		.uleb128 0x1a
 2013 079d 00       		.byte	0
 2014 079e 14       		.uleb128 0x14
 2015 079f DB010000 		.4byte	.LASF91
 2016 07a3 0C       		.byte	0xc
 2017 07a4 AB02     		.2byte	0x2ab
 2018 07a6 C4060000 		.4byte	0x6c4
 2019 07aa 08       		.uleb128 0x8
 2020 07ab 04       		.byte	0x4
 2021 07ac 0D       		.byte	0xd
 2022 07ad 9D       		.byte	0x9d
 2023 07ae CF070000 		.4byte	0x7cf
 2024 07b2 07       		.uleb128 0x7
 2025 07b3 73657400 		.ascii	"set\000"
 2026 07b7 0D       		.byte	0xd
 2027 07b8 9E       		.byte	0x9e
 2028 07b9 62000000 		.4byte	0x62
 2029 07bd 02       		.byte	0x2
 2030 07be 23       		.byte	0x23
 2031 07bf 00       		.uleb128 0
 2032 07c0 06       		.uleb128 0x6
 2033 07c1 92010000 		.4byte	.LASF92
 2034 07c5 0D       		.byte	0xd
 2035 07c6 9F       		.byte	0x9f
 2036 07c7 62000000 		.4byte	0x62
 2037 07cb 02       		.byte	0x2
 2038 07cc 23       		.byte	0x23
 2039 07cd 02       		.uleb128 0x2
 2040 07ce 00       		.byte	0
 2041 07cf 0E       		.uleb128 0xe
 2042 07d0 04       		.byte	0x4
ARM GAS  /tmp/ccU5nDRe.s 			page 38


 2043 07d1 0D       		.byte	0xd
 2044 07d2 9B       		.byte	0x9b
 2045 07d3 EA070000 		.4byte	0x7ea
 2046 07d7 17       		.uleb128 0x17
 2047 07d8 5700     		.ascii	"W\000"
 2048 07da 0D       		.byte	0xd
 2049 07db 9C       		.byte	0x9c
 2050 07dc 86000000 		.4byte	0x86
 2051 07e0 17       		.uleb128 0x17
 2052 07e1 4800     		.ascii	"H\000"
 2053 07e3 0D       		.byte	0xd
 2054 07e4 A0       		.byte	0xa0
 2055 07e5 AA070000 		.4byte	0x7aa
 2056 07e9 00       		.byte	0
 2057 07ea 08       		.uleb128 0x8
 2058 07eb 28       		.byte	0x28
 2059 07ec 0D       		.byte	0xd
 2060 07ed 93       		.byte	0x93
 2061 07ee 7F080000 		.4byte	0x87f
 2062 07f2 06       		.uleb128 0x6
 2063 07f3 7A010000 		.4byte	.LASF93
 2064 07f7 0D       		.byte	0xd
 2065 07f8 95       		.byte	0x95
 2066 07f9 40030000 		.4byte	0x340
 2067 07fd 02       		.byte	0x2
 2068 07fe 23       		.byte	0x23
 2069 07ff 00       		.uleb128 0
 2070 0800 06       		.uleb128 0x6
 2071 0801 EC040000 		.4byte	.LASF94
 2072 0805 0D       		.byte	0xd
 2073 0806 96       		.byte	0x96
 2074 0807 40030000 		.4byte	0x340
 2075 080b 02       		.byte	0x2
 2076 080c 23       		.byte	0x23
 2077 080d 04       		.uleb128 0x4
 2078 080e 06       		.uleb128 0x6
 2079 080f E7030000 		.4byte	.LASF95
 2080 0813 0D       		.byte	0xd
 2081 0814 97       		.byte	0x97
 2082 0815 40030000 		.4byte	0x340
 2083 0819 02       		.byte	0x2
 2084 081a 23       		.byte	0x23
 2085 081b 08       		.uleb128 0x8
 2086 081c 06       		.uleb128 0x6
 2087 081d 1C020000 		.4byte	.LASF96
 2088 0821 0D       		.byte	0xd
 2089 0822 98       		.byte	0x98
 2090 0823 40030000 		.4byte	0x340
 2091 0827 02       		.byte	0x2
 2092 0828 23       		.byte	0x23
 2093 0829 0C       		.uleb128 0xc
 2094 082a 07       		.uleb128 0x7
 2095 082b 49445200 		.ascii	"IDR\000"
 2096 082f 0D       		.byte	0xd
 2097 0830 99       		.byte	0x99
 2098 0831 40030000 		.4byte	0x340
 2099 0835 02       		.byte	0x2
ARM GAS  /tmp/ccU5nDRe.s 			page 39


 2100 0836 23       		.byte	0x23
 2101 0837 10       		.uleb128 0x10
 2102 0838 07       		.uleb128 0x7
 2103 0839 4F445200 		.ascii	"ODR\000"
 2104 083d 0D       		.byte	0xd
 2105 083e 9A       		.byte	0x9a
 2106 083f 40030000 		.4byte	0x340
 2107 0843 02       		.byte	0x2
 2108 0844 23       		.byte	0x23
 2109 0845 14       		.uleb128 0x14
 2110 0846 06       		.uleb128 0x6
 2111 0847 38000000 		.4byte	.LASF97
 2112 084b 0D       		.byte	0xd
 2113 084c A1       		.byte	0xa1
 2114 084d 7F080000 		.4byte	0x87f
 2115 0851 02       		.byte	0x2
 2116 0852 23       		.byte	0x23
 2117 0853 18       		.uleb128 0x18
 2118 0854 06       		.uleb128 0x6
 2119 0855 31060000 		.4byte	.LASF98
 2120 0859 0D       		.byte	0xd
 2121 085a A2       		.byte	0xa2
 2122 085b 40030000 		.4byte	0x340
 2123 085f 02       		.byte	0x2
 2124 0860 23       		.byte	0x23
 2125 0861 1C       		.uleb128 0x1c
 2126 0862 06       		.uleb128 0x6
 2127 0863 85010000 		.4byte	.LASF99
 2128 0867 0D       		.byte	0xd
 2129 0868 A3       		.byte	0xa3
 2130 0869 40030000 		.4byte	0x340
 2131 086d 02       		.byte	0x2
 2132 086e 23       		.byte	0x23
 2133 086f 20       		.uleb128 0x20
 2134 0870 06       		.uleb128 0x6
 2135 0871 80010000 		.4byte	.LASF100
 2136 0875 0D       		.byte	0xd
 2137 0876 A4       		.byte	0xa4
 2138 0877 40030000 		.4byte	0x340
 2139 087b 02       		.byte	0x2
 2140 087c 23       		.byte	0x23
 2141 087d 24       		.uleb128 0x24
 2142 087e 00       		.byte	0
 2143 087f 0D       		.uleb128 0xd
 2144 0880 CF070000 		.4byte	0x7cf
 2145 0884 03       		.uleb128 0x3
 2146 0885 3C050000 		.4byte	.LASF101
 2147 0889 0D       		.byte	0xd
 2148 088a A5       		.byte	0xa5
 2149 088b EA070000 		.4byte	0x7ea
 2150 088f 03       		.uleb128 0x3
 2151 0890 8D030000 		.4byte	.LASF102
 2152 0894 0D       		.byte	0xd
 2153 0895 EF       		.byte	0xef
 2154 0896 86000000 		.4byte	0x86
 2155 089a 18       		.uleb128 0x18
 2156 089b 01       		.byte	0x1
ARM GAS  /tmp/ccU5nDRe.s 			page 40


 2157 089c 0E       		.byte	0xe
 2158 089d 64       		.byte	0x64
 2159 089e B5080000 		.4byte	0x8b5
 2160 08a2 19       		.uleb128 0x19
 2161 08a3 32050000 		.4byte	.LASF103
 2162 08a7 00       		.sleb128 0
 2163 08a8 19       		.uleb128 0x19
 2164 08a9 CD010000 		.4byte	.LASF104
 2165 08ad 01       		.sleb128 1
 2166 08ae 19       		.uleb128 0x19
 2167 08af 34040000 		.4byte	.LASF105
 2168 08b3 02       		.sleb128 2
 2169 08b4 00       		.byte	0
 2170 08b5 03       		.uleb128 0x3
 2171 08b6 1B010000 		.4byte	.LASF106
 2172 08ba 0E       		.byte	0xe
 2173 08bb 68       		.byte	0x68
 2174 08bc 9A080000 		.4byte	0x89a
 2175 08c0 03       		.uleb128 0x3
 2176 08c1 24000000 		.4byte	.LASF107
 2177 08c5 0E       		.byte	0xe
 2178 08c6 6D       		.byte	0x6d
 2179 08c7 CB080000 		.4byte	0x8cb
 2180 08cb 05       		.uleb128 0x5
 2181 08cc 24000000 		.4byte	.LASF107
 2182 08d0 D4       		.byte	0xd4
 2183 08d1 0E       		.byte	0xe
 2184 08d2 87       		.byte	0x87
 2185 08d3 56090000 		.4byte	0x956
 2186 08d7 07       		.uleb128 0x7
 2187 08d8 766D7400 		.ascii	"vmt\000"
 2188 08dc 0E       		.byte	0xe
 2189 08dd 89       		.byte	0x89
 2190 08de E1090000 		.4byte	0x9e1
 2191 08e2 02       		.byte	0x2
 2192 08e3 23       		.byte	0x23
 2193 08e4 00       		.uleb128 0
 2194 08e5 06       		.uleb128 0x6
 2195 08e6 25010000 		.4byte	.LASF108
 2196 08ea 0E       		.byte	0xe
 2197 08eb 8A       		.byte	0x8a
 2198 08ec FC030000 		.4byte	0x3fc
 2199 08f0 02       		.byte	0x2
 2200 08f1 23       		.byte	0x23
 2201 08f2 04       		.uleb128 0x4
 2202 08f3 06       		.uleb128 0x6
 2203 08f4 4D000000 		.4byte	.LASF109
 2204 08f8 0E       		.byte	0xe
 2205 08f9 8A       		.byte	0x8a
 2206 08fa 9D060000 		.4byte	0x69d
 2207 08fe 02       		.byte	0x2
 2208 08ff 23       		.byte	0x23
 2209 0900 08       		.uleb128 0x8
 2210 0901 06       		.uleb128 0x6
 2211 0902 D0050000 		.4byte	.LASF110
 2212 0906 0E       		.byte	0xe
 2213 0907 8A       		.byte	0x8a
ARM GAS  /tmp/ccU5nDRe.s 			page 41


 2214 0908 B5080000 		.4byte	0x8b5
 2215 090c 02       		.byte	0x2
 2216 090d 23       		.byte	0x23
 2217 090e 0C       		.uleb128 0xc
 2218 090f 06       		.uleb128 0x6
 2219 0910 F3000000 		.4byte	.LASF111
 2220 0914 0E       		.byte	0xe
 2221 0915 8A       		.byte	0x8a
 2222 0916 F7040000 		.4byte	0x4f7
 2223 091a 02       		.byte	0x2
 2224 091b 23       		.byte	0x23
 2225 091c 10       		.uleb128 0x10
 2226 091d 06       		.uleb128 0x6
 2227 091e 03040000 		.4byte	.LASF112
 2228 0922 0E       		.byte	0xe
 2229 0923 8A       		.byte	0x8a
 2230 0924 02050000 		.4byte	0x502
 2231 0928 02       		.byte	0x2
 2232 0929 23       		.byte	0x23
 2233 092a 30       		.uleb128 0x30
 2234 092b 07       		.uleb128 0x7
 2235 092c 696200   		.ascii	"ib\000"
 2236 092f 0E       		.byte	0xe
 2237 0930 8A       		.byte	0x8a
 2238 0931 EC090000 		.4byte	0x9ec
 2239 0935 02       		.byte	0x2
 2240 0936 23       		.byte	0x23
 2241 0937 50       		.uleb128 0x50
 2242 0938 07       		.uleb128 0x7
 2243 0939 6F6200   		.ascii	"ob\000"
 2244 093c 0E       		.byte	0xe
 2245 093d 8A       		.byte	0x8a
 2246 093e EC090000 		.4byte	0x9ec
 2247 0942 03       		.byte	0x3
 2248 0943 23       		.byte	0x23
 2249 0944 9001     		.uleb128 0x90
 2250 0946 06       		.uleb128 0x6
 2251 0947 EA020000 		.4byte	.LASF113
 2252 094b 0E       		.byte	0xe
 2253 094c 8A       		.byte	0x8a
 2254 094d FC090000 		.4byte	0x9fc
 2255 0951 03       		.byte	0x3
 2256 0952 23       		.byte	0x23
 2257 0953 D001     		.uleb128 0xd0
 2258 0955 00       		.byte	0
 2259 0956 05       		.uleb128 0x5
 2260 0957 3D040000 		.4byte	.LASF114
 2261 095b 24       		.byte	0x24
 2262 095c 0E       		.byte	0xe
 2263 095d 7C       		.byte	0x7c
 2264 095e E1090000 		.4byte	0x9e1
 2265 0962 06       		.uleb128 0x6
 2266 0963 0A030000 		.4byte	.LASF75
 2267 0967 0E       		.byte	0xe
 2268 0968 7D       		.byte	0x7d
 2269 0969 32050000 		.4byte	0x532
 2270 096d 02       		.byte	0x2
ARM GAS  /tmp/ccU5nDRe.s 			page 42


 2271 096e 23       		.byte	0x23
 2272 096f 00       		.uleb128 0
 2273 0970 06       		.uleb128 0x6
 2274 0971 21050000 		.4byte	.LASF76
 2275 0975 0E       		.byte	0xe
 2276 0976 7D       		.byte	0x7d
 2277 0977 52050000 		.4byte	0x552
 2278 097b 02       		.byte	0x2
 2279 097c 23       		.byte	0x23
 2280 097d 04       		.uleb128 0x4
 2281 097e 06       		.uleb128 0x6
 2282 097f C8040000 		.4byte	.LASF77
 2283 0983 0E       		.byte	0xe
 2284 0984 7D       		.byte	0x7d
 2285 0985 E5050000 		.4byte	0x5e5
 2286 0989 02       		.byte	0x2
 2287 098a 23       		.byte	0x23
 2288 098b 08       		.uleb128 0x8
 2289 098c 06       		.uleb128 0x6
 2290 098d 4D040000 		.4byte	.LASF78
 2291 0991 0E       		.byte	0xe
 2292 0992 7D       		.byte	0x7d
 2293 0993 E5050000 		.4byte	0x5e5
 2294 0997 02       		.byte	0x2
 2295 0998 23       		.byte	0x23
 2296 0999 0C       		.uleb128 0xc
 2297 099a 07       		.uleb128 0x7
 2298 099b 70757400 		.ascii	"put\000"
 2299 099f 0E       		.byte	0xe
 2300 09a0 7D       		.byte	0x7d
 2301 09a1 05060000 		.4byte	0x605
 2302 09a5 02       		.byte	0x2
 2303 09a6 23       		.byte	0x23
 2304 09a7 10       		.uleb128 0x10
 2305 09a8 07       		.uleb128 0x7
 2306 09a9 67657400 		.ascii	"get\000"
 2307 09ad 0E       		.byte	0xe
 2308 09ae 7D       		.byte	0x7d
 2309 09af 20060000 		.4byte	0x620
 2310 09b3 02       		.byte	0x2
 2311 09b4 23       		.byte	0x23
 2312 09b5 14       		.uleb128 0x14
 2313 09b6 06       		.uleb128 0x6
 2314 09b7 D8000000 		.4byte	.LASF79
 2315 09bb 0E       		.byte	0xe
 2316 09bc 7D       		.byte	0x7d
 2317 09bd 45060000 		.4byte	0x645
 2318 09c1 02       		.byte	0x2
 2319 09c2 23       		.byte	0x23
 2320 09c3 18       		.uleb128 0x18
 2321 09c4 06       		.uleb128 0x6
 2322 09c5 0E050000 		.4byte	.LASF80
 2323 09c9 0E       		.byte	0xe
 2324 09ca 7D       		.byte	0x7d
 2325 09cb 6A060000 		.4byte	0x66a
 2326 09cf 02       		.byte	0x2
 2327 09d0 23       		.byte	0x23
ARM GAS  /tmp/ccU5nDRe.s 			page 43


 2328 09d1 1C       		.uleb128 0x1c
 2329 09d2 06       		.uleb128 0x6
 2330 09d3 9A030000 		.4byte	.LASF115
 2331 09d7 0E       		.byte	0xe
 2332 09d8 7D       		.byte	0x7d
 2333 09d9 B9060000 		.4byte	0x6b9
 2334 09dd 02       		.byte	0x2
 2335 09de 23       		.byte	0x23
 2336 09df 20       		.uleb128 0x20
 2337 09e0 00       		.byte	0
 2338 09e1 09       		.uleb128 0x9
 2339 09e2 04       		.byte	0x4
 2340 09e3 E7090000 		.4byte	0x9e7
 2341 09e7 10       		.uleb128 0x10
 2342 09e8 56090000 		.4byte	0x956
 2343 09ec 1A       		.uleb128 0x1a
 2344 09ed 49000000 		.4byte	0x49
 2345 09f1 FC090000 		.4byte	0x9fc
 2346 09f5 1B       		.uleb128 0x1b
 2347 09f6 45030000 		.4byte	0x345
 2348 09fa 3F       		.byte	0x3f
 2349 09fb 00       		.byte	0
 2350 09fc 09       		.uleb128 0x9
 2351 09fd 04       		.byte	0x4
 2352 09fe 9E070000 		.4byte	0x79e
 2353 0a02 1C       		.uleb128 0x1c
 2354 0a03 D6040000 		.4byte	.LASF152
 2355 0a07 01       		.byte	0x1
 2356 0a08 35       		.byte	0x35
 2357 0a09 01       		.byte	0x1
 2358 0a0a 00000000 		.4byte	.LFB62
 2359 0a0e 5C000000 		.4byte	.LFE62
 2360 0a12 00000000 		.4byte	.LLST0
 2361 0a16 01       		.byte	0x1
 2362 0a17 990A0000 		.4byte	0xa99
 2363 0a1b 1D       		.uleb128 0x1d
 2364 0a1c 6900     		.ascii	"i\000"
 2365 0a1e 01       		.byte	0x1
 2366 0a1f 36       		.byte	0x36
 2367 0a20 49000000 		.4byte	0x49
 2368 0a24 20000000 		.4byte	.LLST1
 2369 0a28 1E       		.uleb128 0x1e
 2370 0a29 1A000000 		.4byte	.LVL3
 2371 0a2d 23110000 		.4byte	0x1123
 2372 0a31 3F0A0000 		.4byte	0xa3f
 2373 0a35 1F       		.uleb128 0x1f
 2374 0a36 01       		.byte	0x1
 2375 0a37 51       		.byte	0x51
 2376 0a38 05       		.byte	0x5
 2377 0a39 03       		.byte	0x3
 2378 0a3a 00000000 		.4byte	.LC0
 2379 0a3e 00       		.byte	0
 2380 0a3f 1E       		.uleb128 0x1e
 2381 0a40 22000000 		.4byte	.LVL4
 2382 0a44 23110000 		.4byte	0x1123
 2383 0a48 560A0000 		.4byte	0xa56
 2384 0a4c 1F       		.uleb128 0x1f
ARM GAS  /tmp/ccU5nDRe.s 			page 44


 2385 0a4d 01       		.byte	0x1
 2386 0a4e 51       		.byte	0x51
 2387 0a4f 05       		.byte	0x5
 2388 0a50 03       		.byte	0x3
 2389 0a51 18000000 		.4byte	.LC1
 2390 0a55 00       		.byte	0
 2391 0a56 1E       		.uleb128 0x1e
 2392 0a57 2A000000 		.4byte	.LVL5
 2393 0a5b 23110000 		.4byte	0x1123
 2394 0a5f 6D0A0000 		.4byte	0xa6d
 2395 0a63 1F       		.uleb128 0x1f
 2396 0a64 01       		.byte	0x1
 2397 0a65 51       		.byte	0x51
 2398 0a66 05       		.byte	0x5
 2399 0a67 03       		.byte	0x3
 2400 0a68 38000000 		.4byte	.LC2
 2401 0a6c 00       		.byte	0
 2402 0a6d 1E       		.uleb128 0x1e
 2403 0a6e 32000000 		.4byte	.LVL6
 2404 0a72 23110000 		.4byte	0x1123
 2405 0a76 840A0000 		.4byte	0xa84
 2406 0a7a 1F       		.uleb128 0x1f
 2407 0a7b 01       		.byte	0x1
 2408 0a7c 51       		.byte	0x51
 2409 0a7d 05       		.byte	0x5
 2410 0a7e 03       		.byte	0x3
 2411 0a7f 58000000 		.4byte	.LC3
 2412 0a83 00       		.byte	0
 2413 0a84 20       		.uleb128 0x20
 2414 0a85 3E000000 		.4byte	.LVL7
 2415 0a89 01       		.byte	0x1
 2416 0a8a 23110000 		.4byte	0x1123
 2417 0a8e 1F       		.uleb128 0x1f
 2418 0a8f 01       		.byte	0x1
 2419 0a90 51       		.byte	0x51
 2420 0a91 05       		.byte	0x5
 2421 0a92 03       		.byte	0x3
 2422 0a93 78000000 		.4byte	.LC4
 2423 0a97 00       		.byte	0
 2424 0a98 00       		.byte	0
 2425 0a99 21       		.uleb128 0x21
 2426 0a9a B8020000 		.4byte	.LASF116
 2427 0a9e 01       		.byte	0x1
 2428 0a9f 40       		.byte	0x40
 2429 0aa0 01       		.byte	0x1
 2430 0aa1 01       		.byte	0x1
 2431 0aa2 21       		.uleb128 0x21
 2432 0aa3 67010000 		.4byte	.LASF117
 2433 0aa7 01       		.byte	0x1
 2434 0aa8 44       		.byte	0x44
 2435 0aa9 01       		.byte	0x1
 2436 0aaa 01       		.byte	0x1
 2437 0aab 21       		.uleb128 0x21
 2438 0aac 19030000 		.4byte	.LASF118
 2439 0ab0 01       		.byte	0x1
 2440 0ab1 48       		.byte	0x48
 2441 0ab2 01       		.byte	0x1
ARM GAS  /tmp/ccU5nDRe.s 			page 45


 2442 0ab3 01       		.byte	0x1
 2443 0ab4 21       		.uleb128 0x21
 2444 0ab5 79030000 		.4byte	.LASF119
 2445 0ab9 01       		.byte	0x1
 2446 0aba 4C       		.byte	0x4c
 2447 0abb 01       		.byte	0x1
 2448 0abc 01       		.byte	0x1
 2449 0abd 22       		.uleb128 0x22
 2450 0abe 01       		.byte	0x1
 2451 0abf FE020000 		.4byte	.LASF153
 2452 0ac3 01       		.byte	0x1
 2453 0ac4 7D       		.byte	0x7d
 2454 0ac5 01       		.byte	0x1
 2455 0ac6 E8000000 		.4byte	0xe8
 2456 0aca 00000000 		.4byte	.LFB67
 2457 0ace 44040000 		.4byte	.LFE67
 2458 0ad2 3F000000 		.4byte	.LLST2
 2459 0ad6 01       		.byte	0x1
 2460 0ad7 90100000 		.4byte	0x1090
 2461 0adb 23       		.uleb128 0x23
 2462 0adc 61726700 		.ascii	"arg\000"
 2463 0ae0 01       		.byte	0x1
 2464 0ae1 7D       		.byte	0x7d
 2465 0ae2 8E020000 		.4byte	0x28e
 2466 0ae6 6B000000 		.4byte	.LLST3
 2467 0aea 24       		.uleb128 0x24
 2468 0aeb 61020000 		.4byte	.LASF120
 2469 0aef 01       		.byte	0x1
 2470 0af0 81       		.byte	0x81
 2471 0af1 99030000 		.4byte	0x399
 2472 0af5 02       		.byte	0x2
 2473 0af6 91       		.byte	0x91
 2474 0af7 54       		.sleb128 -44
 2475 0af8 25       		.uleb128 0x25
 2476 0af9 36060000 		.4byte	.LASF121
 2477 0afd 01       		.byte	0x1
 2478 0afe 83       		.byte	0x83
 2479 0aff 90100000 		.4byte	0x1090
 2480 0b03 8C       		.byte	0x8c
 2481 0b04 24       		.uleb128 0x24
 2482 0b05 5B010000 		.4byte	.LASF122
 2483 0b09 01       		.byte	0x1
 2484 0b0a 89       		.byte	0x89
 2485 0b0b 95100000 		.4byte	0x1095
 2486 0b0f 02       		.byte	0x2
 2487 0b10 91       		.byte	0x91
 2488 0b11 50       		.sleb128 -48
 2489 0b12 26       		.uleb128 0x26
 2490 0b13 87020000 		.4byte	.LASF123
 2491 0b17 01       		.byte	0x1
 2492 0b18 8D       		.byte	0x8d
 2493 0b19 49000000 		.4byte	0x49
 2494 0b1d 8C000000 		.4byte	.LLST4
 2495 0b21 26       		.uleb128 0x26
 2496 0b22 BB000000 		.4byte	.LASF124
 2497 0b26 01       		.byte	0x1
 2498 0b27 8F       		.byte	0x8f
ARM GAS  /tmp/ccU5nDRe.s 			page 46


 2499 0b28 F3000000 		.4byte	0xf3
 2500 0b2c FF000000 		.4byte	.LLST5
 2501 0b30 26       		.uleb128 0x26
 2502 0b31 DD030000 		.4byte	.LASF125
 2503 0b35 01       		.byte	0x1
 2504 0b36 C9       		.byte	0xc9
 2505 0b37 49000000 		.4byte	0x49
 2506 0b3b 33010000 		.4byte	.LLST6
 2507 0b3f 27       		.uleb128 0x27
 2508 0b40 00000000 		.4byte	.Ldebug_ranges0+0
 2509 0b44 D80B0000 		.4byte	0xbd8
 2510 0b48 28       		.uleb128 0x28
 2511 0b49 23060000 		.4byte	.LASF126
 2512 0b4d 01       		.byte	0x1
 2513 0b4e 2C01     		.2byte	0x12c
 2514 0b50 86000000 		.4byte	0x86
 2515 0b54 A4010000 		.4byte	.LLST7
 2516 0b58 28       		.uleb128 0x28
 2517 0b59 FC030000 		.4byte	.LASF127
 2518 0b5d 01       		.byte	0x1
 2519 0b5e 2D01     		.2byte	0x12d
 2520 0b60 86000000 		.4byte	0x86
 2521 0b64 E2010000 		.4byte	.LLST8
 2522 0b68 29       		.uleb128 0x29
 2523 0b69 6900     		.ascii	"i\000"
 2524 0b6b 01       		.byte	0x1
 2525 0b6c 2E01     		.2byte	0x12e
 2526 0b6e 49000000 		.4byte	0x49
 2527 0b72 0C020000 		.4byte	.LLST9
 2528 0b76 2A       		.uleb128 0x2a
 2529 0b77 21050000 		.4byte	.LASF76
 2530 0b7b 01       		.byte	0x1
 2531 0b7c 3901     		.2byte	0x139
 2532 0b7e 49000000 		.4byte	0x49
 2533 0b82 02       		.byte	0x2
 2534 0b83 91       		.byte	0x91
 2535 0b84 53       		.sleb128 -45
 2536 0b85 1E       		.uleb128 0x1e
 2537 0b86 2C010000 		.4byte	.LVL32
 2538 0b8a 23110000 		.4byte	0x1123
 2539 0b8e 9C0B0000 		.4byte	0xb9c
 2540 0b92 1F       		.uleb128 0x1f
 2541 0b93 01       		.byte	0x1
 2542 0b94 51       		.byte	0x51
 2543 0b95 05       		.byte	0x5
 2544 0b96 03       		.byte	0x3
 2545 0b97 6C010000 		.4byte	.LC12
 2546 0b9b 00       		.byte	0
 2547 0b9c 1E       		.uleb128 0x1e
 2548 0b9d 3A010000 		.4byte	.LVL33
 2549 0ba1 43110000 		.4byte	0x1143
 2550 0ba5 BB0B0000 		.4byte	0xbbb
 2551 0ba9 1F       		.uleb128 0x1f
 2552 0baa 01       		.byte	0x1
 2553 0bab 53       		.byte	0x53
 2554 0bac 02       		.byte	0x2
 2555 0bad 09       		.byte	0x9
ARM GAS  /tmp/ccU5nDRe.s 			page 47


 2556 0bae FF       		.byte	0xff
 2557 0baf 1F       		.uleb128 0x1f
 2558 0bb0 01       		.byte	0x1
 2559 0bb1 52       		.byte	0x52
 2560 0bb2 01       		.byte	0x1
 2561 0bb3 36       		.byte	0x36
 2562 0bb4 1F       		.uleb128 0x1f
 2563 0bb5 01       		.byte	0x1
 2564 0bb6 51       		.byte	0x51
 2565 0bb7 02       		.byte	0x2
 2566 0bb8 76       		.byte	0x76
 2567 0bb9 00       		.sleb128 0
 2568 0bba 00       		.byte	0
 2569 0bbb 2B       		.uleb128 0x2b
 2570 0bbc 74010000 		.4byte	.LVL43
 2571 0bc0 71110000 		.4byte	0x1171
 2572 0bc4 2C       		.uleb128 0x2c
 2573 0bc5 80010000 		.4byte	.LVL44
 2574 0bc9 23110000 		.4byte	0x1123
 2575 0bcd 1F       		.uleb128 0x1f
 2576 0bce 01       		.byte	0x1
 2577 0bcf 51       		.byte	0x51
 2578 0bd0 05       		.byte	0x5
 2579 0bd1 03       		.byte	0x3
 2580 0bd2 60010000 		.4byte	.LC11
 2581 0bd6 00       		.byte	0
 2582 0bd7 00       		.byte	0
 2583 0bd8 27       		.uleb128 0x27
 2584 0bd9 28000000 		.4byte	.Ldebug_ranges0+0x28
 2585 0bdd F80C0000 		.4byte	0xcf8
 2586 0be1 26       		.uleb128 0x26
 2587 0be2 C0030000 		.4byte	.LASF128
 2588 0be6 01       		.byte	0x1
 2589 0be7 ED       		.byte	0xed
 2590 0be8 47040000 		.4byte	0x447
 2591 0bec 20020000 		.4byte	.LLST10
 2592 0bf0 2D       		.uleb128 0x2d
 2593 0bf1 B40A0000 		.4byte	0xab4
 2594 0bf5 4C020000 		.4byte	.LBB17
 2595 0bf9 64020000 		.4byte	.LBE17
 2596 0bfd 01       		.byte	0x1
 2597 0bfe FC       		.byte	0xfc
 2598 0bff 2E0C0000 		.4byte	0xc2e
 2599 0c03 1E       		.uleb128 0x1e
 2600 0c04 54020000 		.4byte	.LVL63
 2601 0c08 23110000 		.4byte	0x1123
 2602 0c0c 1A0C0000 		.4byte	0xc1a
 2603 0c10 1F       		.uleb128 0x1f
 2604 0c11 01       		.byte	0x1
 2605 0c12 51       		.byte	0x51
 2606 0c13 05       		.byte	0x5
 2607 0c14 03       		.byte	0x3
 2608 0c15 1C010000 		.4byte	.LC9
 2609 0c19 00       		.byte	0
 2610 0c1a 2C       		.uleb128 0x2c
 2611 0c1b 5E020000 		.4byte	.LVL64
 2612 0c1f 23110000 		.4byte	0x1123
ARM GAS  /tmp/ccU5nDRe.s 			page 48


 2613 0c23 1F       		.uleb128 0x1f
 2614 0c24 01       		.byte	0x1
 2615 0c25 51       		.byte	0x51
 2616 0c26 05       		.byte	0x5
 2617 0c27 03       		.byte	0x3
 2618 0c28 C0000000 		.4byte	.LC6
 2619 0c2c 00       		.byte	0
 2620 0c2d 00       		.byte	0
 2621 0c2e 2D       		.uleb128 0x2d
 2622 0c2f 990A0000 		.4byte	0xa99
 2623 0c33 DC020000 		.4byte	.LBB19
 2624 0c37 34030000 		.4byte	.LBE19
 2625 0c3b 01       		.byte	0x1
 2626 0c3c F3       		.byte	0xf3
 2627 0c3d 6C0C0000 		.4byte	0xc6c
 2628 0c41 1E       		.uleb128 0x1e
 2629 0c42 E4020000 		.4byte	.LVL86
 2630 0c46 23110000 		.4byte	0x1123
 2631 0c4a 580C0000 		.4byte	0xc58
 2632 0c4e 1F       		.uleb128 0x1f
 2633 0c4f 01       		.byte	0x1
 2634 0c50 51       		.byte	0x51
 2635 0c51 05       		.byte	0x5
 2636 0c52 03       		.byte	0x3
 2637 0c53 98000000 		.4byte	.LC5
 2638 0c57 00       		.byte	0
 2639 0c58 2C       		.uleb128 0x2c
 2640 0c59 EE020000 		.4byte	.LVL87
 2641 0c5d 23110000 		.4byte	0x1123
 2642 0c61 1F       		.uleb128 0x1f
 2643 0c62 01       		.byte	0x1
 2644 0c63 51       		.byte	0x51
 2645 0c64 05       		.byte	0x5
 2646 0c65 03       		.byte	0x3
 2647 0c66 C0000000 		.4byte	.LC6
 2648 0c6a 00       		.byte	0
 2649 0c6b 00       		.byte	0
 2650 0c6c 2D       		.uleb128 0x2d
 2651 0c6d A20A0000 		.4byte	0xaa2
 2652 0c71 34030000 		.4byte	.LBB21
 2653 0c75 4C030000 		.4byte	.LBE21
 2654 0c79 01       		.byte	0x1
 2655 0c7a F6       		.byte	0xf6
 2656 0c7b AA0C0000 		.4byte	0xcaa
 2657 0c7f 1E       		.uleb128 0x1e
 2658 0c80 3C030000 		.4byte	.LVL89
 2659 0c84 23110000 		.4byte	0x1123
 2660 0c88 960C0000 		.4byte	0xc96
 2661 0c8c 1F       		.uleb128 0x1f
 2662 0c8d 01       		.byte	0x1
 2663 0c8e 51       		.byte	0x51
 2664 0c8f 05       		.byte	0x5
 2665 0c90 03       		.byte	0x3
 2666 0c91 C4000000 		.4byte	.LC7
 2667 0c95 00       		.byte	0
 2668 0c96 2C       		.uleb128 0x2c
 2669 0c97 46030000 		.4byte	.LVL90
ARM GAS  /tmp/ccU5nDRe.s 			page 49


 2670 0c9b 23110000 		.4byte	0x1123
 2671 0c9f 1F       		.uleb128 0x1f
 2672 0ca0 01       		.byte	0x1
 2673 0ca1 51       		.byte	0x51
 2674 0ca2 05       		.byte	0x5
 2675 0ca3 03       		.byte	0x3
 2676 0ca4 C0000000 		.4byte	.LC6
 2677 0ca8 00       		.byte	0
 2678 0ca9 00       		.byte	0
 2679 0caa 2D       		.uleb128 0x2d
 2680 0cab AB0A0000 		.4byte	0xaab
 2681 0caf CA030000 		.4byte	.LBB23
 2682 0cb3 E4030000 		.4byte	.LBE23
 2683 0cb7 01       		.byte	0x1
 2684 0cb8 F9       		.byte	0xf9
 2685 0cb9 EE0C0000 		.4byte	0xcee
 2686 0cbd 1E       		.uleb128 0x1e
 2687 0cbe D4030000 		.4byte	.LVL108
 2688 0cc2 23110000 		.4byte	0x1123
 2689 0cc6 DA0C0000 		.4byte	0xcda
 2690 0cca 1F       		.uleb128 0x1f
 2691 0ccb 01       		.byte	0x1
 2692 0ccc 52       		.byte	0x52
 2693 0ccd 02       		.byte	0x2
 2694 0cce 08       		.byte	0x8
 2695 0ccf 80       		.byte	0x80
 2696 0cd0 1F       		.uleb128 0x1f
 2697 0cd1 01       		.byte	0x1
 2698 0cd2 51       		.byte	0x51
 2699 0cd3 05       		.byte	0x5
 2700 0cd4 03       		.byte	0x3
 2701 0cd5 E0000000 		.4byte	.LC8
 2702 0cd9 00       		.byte	0
 2703 0cda 2C       		.uleb128 0x2c
 2704 0cdb DE030000 		.4byte	.LVL109
 2705 0cdf 23110000 		.4byte	0x1123
 2706 0ce3 1F       		.uleb128 0x1f
 2707 0ce4 01       		.byte	0x1
 2708 0ce5 51       		.byte	0x51
 2709 0ce6 05       		.byte	0x5
 2710 0ce7 03       		.byte	0x3
 2711 0ce8 C0000000 		.4byte	.LC6
 2712 0cec 00       		.byte	0
 2713 0ced 00       		.byte	0
 2714 0cee 2B       		.uleb128 0x2b
 2715 0cef 16010000 		.4byte	.LVL30
 2716 0cf3 020A0000 		.4byte	0xa02
 2717 0cf7 00       		.byte	0
 2718 0cf8 27       		.uleb128 0x27
 2719 0cf9 50000000 		.4byte	.Ldebug_ranges0+0x50
 2720 0cfd 700E0000 		.4byte	0xe70
 2721 0d01 28       		.uleb128 0x28
 2722 0d02 D5010000 		.4byte	.LASF129
 2723 0d06 01       		.byte	0x1
 2724 0d07 4901     		.2byte	0x149
 2725 0d09 86000000 		.4byte	0x86
 2726 0d0d 73020000 		.4byte	.LLST11
ARM GAS  /tmp/ccU5nDRe.s 			page 50


 2727 0d11 28       		.uleb128 0x28
 2728 0d12 5D000000 		.4byte	.LASF130
 2729 0d16 01       		.byte	0x1
 2730 0d17 4A01     		.2byte	0x14a
 2731 0d19 86000000 		.4byte	0x86
 2732 0d1d 9E020000 		.4byte	.LLST12
 2733 0d21 29       		.uleb128 0x29
 2734 0d22 6900     		.ascii	"i\000"
 2735 0d24 01       		.byte	0x1
 2736 0d25 4B01     		.2byte	0x14b
 2737 0d27 49000000 		.4byte	0x49
 2738 0d2b C8020000 		.4byte	.LLST13
 2739 0d2f 1E       		.uleb128 0x1e
 2740 0d30 E6010000 		.4byte	.LVL52
 2741 0d34 23110000 		.4byte	0x1123
 2742 0d38 4C0D0000 		.4byte	0xd4c
 2743 0d3c 1F       		.uleb128 0x1f
 2744 0d3d 01       		.byte	0x1
 2745 0d3e 52       		.byte	0x52
 2746 0d3f 02       		.byte	0x2
 2747 0d40 78       		.byte	0x78
 2748 0d41 00       		.sleb128 0
 2749 0d42 1F       		.uleb128 0x1f
 2750 0d43 01       		.byte	0x1
 2751 0d44 51       		.byte	0x51
 2752 0d45 05       		.byte	0x5
 2753 0d46 03       		.byte	0x3
 2754 0d47 78010000 		.4byte	.LC13
 2755 0d4b 00       		.byte	0
 2756 0d4c 1E       		.uleb128 0x1e
 2757 0d4d EE010000 		.4byte	.LVL53
 2758 0d51 23110000 		.4byte	0x1123
 2759 0d55 630D0000 		.4byte	0xd63
 2760 0d59 1F       		.uleb128 0x1f
 2761 0d5a 01       		.byte	0x1
 2762 0d5b 51       		.byte	0x51
 2763 0d5c 05       		.byte	0x5
 2764 0d5d 03       		.byte	0x3
 2765 0d5e 88010000 		.4byte	.LC14
 2766 0d62 00       		.byte	0
 2767 0d63 1E       		.uleb128 0x1e
 2768 0d64 F8010000 		.4byte	.LVL54
 2769 0d68 89110000 		.4byte	0x1189
 2770 0d6c 810D0000 		.4byte	0xd81
 2771 0d70 1F       		.uleb128 0x1f
 2772 0d71 01       		.byte	0x1
 2773 0d72 52       		.byte	0x52
 2774 0d73 01       		.byte	0x1
 2775 0d74 31       		.byte	0x31
 2776 0d75 1F       		.uleb128 0x1f
 2777 0d76 01       		.byte	0x1
 2778 0d77 51       		.byte	0x51
 2779 0d78 02       		.byte	0x2
 2780 0d79 08       		.byte	0x8
 2781 0d7a 20       		.byte	0x20
 2782 0d7b 1F       		.uleb128 0x1f
 2783 0d7c 01       		.byte	0x1
ARM GAS  /tmp/ccU5nDRe.s 			page 51


 2784 0d7d 50       		.byte	0x50
 2785 0d7e 01       		.byte	0x1
 2786 0d7f 30       		.byte	0x30
 2787 0d80 00       		.byte	0
 2788 0d81 1E       		.uleb128 0x1e
 2789 0d82 02020000 		.4byte	.LVL55
 2790 0d86 23110000 		.4byte	0x1123
 2791 0d8a 9E0D0000 		.4byte	0xd9e
 2792 0d8e 1F       		.uleb128 0x1f
 2793 0d8f 01       		.byte	0x1
 2794 0d90 52       		.byte	0x52
 2795 0d91 02       		.byte	0x2
 2796 0d92 78       		.byte	0x78
 2797 0d93 00       		.sleb128 0
 2798 0d94 1F       		.uleb128 0x1f
 2799 0d95 01       		.byte	0x1
 2800 0d96 51       		.byte	0x51
 2801 0d97 05       		.byte	0x5
 2802 0d98 03       		.byte	0x3
 2803 0d99 9C010000 		.4byte	.LC15
 2804 0d9d 00       		.byte	0
 2805 0d9e 1E       		.uleb128 0x1e
 2806 0d9f 22020000 		.4byte	.LVL57
 2807 0da3 A7110000 		.4byte	0x11a7
 2808 0da7 BD0D0000 		.4byte	0xdbd
 2809 0dab 1F       		.uleb128 0x1f
 2810 0dac 01       		.byte	0x1
 2811 0dad 53       		.byte	0x53
 2812 0dae 02       		.byte	0x2
 2813 0daf 09       		.byte	0x9
 2814 0db0 FF       		.byte	0xff
 2815 0db1 1F       		.uleb128 0x1f
 2816 0db2 01       		.byte	0x1
 2817 0db3 52       		.byte	0x52
 2818 0db4 01       		.byte	0x1
 2819 0db5 31       		.byte	0x31
 2820 0db6 1F       		.uleb128 0x1f
 2821 0db7 01       		.byte	0x1
 2822 0db8 51       		.byte	0x51
 2823 0db9 02       		.byte	0x2
 2824 0dba 7A       		.byte	0x7a
 2825 0dbb 00       		.sleb128 0
 2826 0dbc 00       		.byte	0
 2827 0dbd 1E       		.uleb128 0x1e
 2828 0dbe 32020000 		.4byte	.LVL58
 2829 0dc2 43110000 		.4byte	0x1143
 2830 0dc6 DB0D0000 		.4byte	0xddb
 2831 0dca 1F       		.uleb128 0x1f
 2832 0dcb 01       		.byte	0x1
 2833 0dcc 53       		.byte	0x53
 2834 0dcd 01       		.byte	0x1
 2835 0dce 30       		.byte	0x30
 2836 0dcf 1F       		.uleb128 0x1f
 2837 0dd0 01       		.byte	0x1
 2838 0dd1 52       		.byte	0x52
 2839 0dd2 01       		.byte	0x1
 2840 0dd3 31       		.byte	0x31
ARM GAS  /tmp/ccU5nDRe.s 			page 52


 2841 0dd4 1F       		.uleb128 0x1f
 2842 0dd5 01       		.byte	0x1
 2843 0dd6 51       		.byte	0x51
 2844 0dd7 02       		.byte	0x2
 2845 0dd8 7A       		.byte	0x7a
 2846 0dd9 00       		.sleb128 0
 2847 0dda 00       		.byte	0
 2848 0ddb 1E       		.uleb128 0x1e
 2849 0ddc 42020000 		.4byte	.LVL60
 2850 0de0 D5110000 		.4byte	0x11d5
 2851 0de4 FA0D0000 		.4byte	0xdfa
 2852 0de8 1F       		.uleb128 0x1f
 2853 0de9 01       		.byte	0x1
 2854 0dea 52       		.byte	0x52
 2855 0deb 02       		.byte	0x2
 2856 0dec 78       		.byte	0x78
 2857 0ded 00       		.sleb128 0
 2858 0dee 1F       		.uleb128 0x1f
 2859 0def 01       		.byte	0x1
 2860 0df0 51       		.byte	0x51
 2861 0df1 02       		.byte	0x2
 2862 0df2 76       		.byte	0x76
 2863 0df3 00       		.sleb128 0
 2864 0df4 1F       		.uleb128 0x1f
 2865 0df5 01       		.byte	0x1
 2866 0df6 50       		.byte	0x50
 2867 0df7 01       		.byte	0x1
 2868 0df8 30       		.byte	0x30
 2869 0df9 00       		.byte	0
 2870 0dfa 2B       		.uleb128 0x2b
 2871 0dfb 4A020000 		.4byte	.LVL61
 2872 0dff 020A0000 		.4byte	0xa02
 2873 0e03 1E       		.uleb128 0x1e
 2874 0e04 F8030000 		.4byte	.LVL113
 2875 0e08 23110000 		.4byte	0x1123
 2876 0e0c 200E0000 		.4byte	0xe20
 2877 0e10 1F       		.uleb128 0x1f
 2878 0e11 01       		.byte	0x1
 2879 0e12 52       		.byte	0x52
 2880 0e13 02       		.byte	0x2
 2881 0e14 75       		.byte	0x75
 2882 0e15 00       		.sleb128 0
 2883 0e16 1F       		.uleb128 0x1f
 2884 0e17 01       		.byte	0x1
 2885 0e18 51       		.byte	0x51
 2886 0e19 05       		.byte	0x5
 2887 0e1a 03       		.byte	0x3
 2888 0e1b 78010000 		.4byte	.LC13
 2889 0e1f 00       		.byte	0
 2890 0e20 1E       		.uleb128 0x1e
 2891 0e21 00040000 		.4byte	.LVL114
 2892 0e25 23110000 		.4byte	0x1123
 2893 0e29 370E0000 		.4byte	0xe37
 2894 0e2d 1F       		.uleb128 0x1f
 2895 0e2e 01       		.byte	0x1
 2896 0e2f 51       		.byte	0x51
 2897 0e30 05       		.byte	0x5
ARM GAS  /tmp/ccU5nDRe.s 			page 53


 2898 0e31 03       		.byte	0x3
 2899 0e32 88010000 		.4byte	.LC14
 2900 0e36 00       		.byte	0
 2901 0e37 1E       		.uleb128 0x1e
 2902 0e38 0A040000 		.4byte	.LVL115
 2903 0e3c 89110000 		.4byte	0x1189
 2904 0e40 560E0000 		.4byte	0xe56
 2905 0e44 1F       		.uleb128 0x1f
 2906 0e45 01       		.byte	0x1
 2907 0e46 52       		.byte	0x52
 2908 0e47 01       		.byte	0x1
 2909 0e48 31       		.byte	0x31
 2910 0e49 1F       		.uleb128 0x1f
 2911 0e4a 01       		.byte	0x1
 2912 0e4b 51       		.byte	0x51
 2913 0e4c 02       		.byte	0x2
 2914 0e4d 08       		.byte	0x8
 2915 0e4e 20       		.byte	0x20
 2916 0e4f 1F       		.uleb128 0x1f
 2917 0e50 01       		.byte	0x1
 2918 0e51 50       		.byte	0x50
 2919 0e52 02       		.byte	0x2
 2920 0e53 75       		.byte	0x75
 2921 0e54 00       		.sleb128 0
 2922 0e55 00       		.byte	0
 2923 0e56 2C       		.uleb128 0x2c
 2924 0e57 14040000 		.4byte	.LVL116
 2925 0e5b 23110000 		.4byte	0x1123
 2926 0e5f 1F       		.uleb128 0x1f
 2927 0e60 01       		.byte	0x1
 2928 0e61 52       		.byte	0x52
 2929 0e62 02       		.byte	0x2
 2930 0e63 75       		.byte	0x75
 2931 0e64 00       		.sleb128 0
 2932 0e65 1F       		.uleb128 0x1f
 2933 0e66 01       		.byte	0x1
 2934 0e67 51       		.byte	0x51
 2935 0e68 05       		.byte	0x5
 2936 0e69 03       		.byte	0x3
 2937 0e6a 9C010000 		.4byte	.LC15
 2938 0e6e 00       		.byte	0
 2939 0e6f 00       		.byte	0
 2940 0e70 27       		.uleb128 0x27
 2941 0e71 68000000 		.4byte	.Ldebug_ranges0+0x68
 2942 0e75 2A0F0000 		.4byte	0xf2a
 2943 0e79 28       		.uleb128 0x28
 2944 0e7a 23060000 		.4byte	.LASF126
 2945 0e7e 01       		.byte	0x1
 2946 0e7f 0E01     		.2byte	0x10e
 2947 0e81 86000000 		.4byte	0x86
 2948 0e85 16030000 		.4byte	.LLST14
 2949 0e89 28       		.uleb128 0x28
 2950 0e8a FC030000 		.4byte	.LASF127
 2951 0e8e 01       		.byte	0x1
 2952 0e8f 0F01     		.2byte	0x10f
 2953 0e91 86000000 		.4byte	0x86
 2954 0e95 54030000 		.4byte	.LLST15
ARM GAS  /tmp/ccU5nDRe.s 			page 54


 2955 0e99 29       		.uleb128 0x29
 2956 0e9a 6900     		.ascii	"i\000"
 2957 0e9c 01       		.byte	0x1
 2958 0e9d 1001     		.2byte	0x110
 2959 0e9f 49000000 		.4byte	0x49
 2960 0ea3 7E030000 		.4byte	.LLST16
 2961 0ea7 1E       		.uleb128 0x1e
 2962 0ea8 70020000 		.4byte	.LVL68
 2963 0eac 23110000 		.4byte	0x1123
 2964 0eb0 BE0E0000 		.4byte	0xebe
 2965 0eb4 1F       		.uleb128 0x1f
 2966 0eb5 01       		.byte	0x1
 2967 0eb6 51       		.byte	0x51
 2968 0eb7 05       		.byte	0x5
 2969 0eb8 03       		.byte	0x3
 2970 0eb9 50010000 		.4byte	.LC10
 2971 0ebd 00       		.byte	0
 2972 0ebe 1E       		.uleb128 0x1e
 2973 0ebf 7E020000 		.4byte	.LVL69
 2974 0ec3 43110000 		.4byte	0x1143
 2975 0ec7 DE0E0000 		.4byte	0xede
 2976 0ecb 1F       		.uleb128 0x1f
 2977 0ecc 01       		.byte	0x1
 2978 0ecd 53       		.byte	0x53
 2979 0ece 02       		.byte	0x2
 2980 0ecf 09       		.byte	0x9
 2981 0ed0 FF       		.byte	0xff
 2982 0ed1 1F       		.uleb128 0x1f
 2983 0ed2 01       		.byte	0x1
 2984 0ed3 52       		.byte	0x52
 2985 0ed4 02       		.byte	0x2
 2986 0ed5 79       		.byte	0x79
 2987 0ed6 00       		.sleb128 0
 2988 0ed7 1F       		.uleb128 0x1f
 2989 0ed8 01       		.byte	0x1
 2990 0ed9 51       		.byte	0x51
 2991 0eda 02       		.byte	0x2
 2992 0edb 76       		.byte	0x76
 2993 0edc 00       		.sleb128 0
 2994 0edd 00       		.byte	0
 2995 0ede 1E       		.uleb128 0x1e
 2996 0edf 86020000 		.4byte	.LVL70
 2997 0ee3 23110000 		.4byte	0x1123
 2998 0ee7 F50E0000 		.4byte	0xef5
 2999 0eeb 1F       		.uleb128 0x1f
 3000 0eec 01       		.byte	0x1
 3001 0eed 51       		.byte	0x51
 3002 0eee 05       		.byte	0x5
 3003 0eef 03       		.byte	0x3
 3004 0ef0 60010000 		.4byte	.LC11
 3005 0ef4 00       		.byte	0
 3006 0ef5 1E       		.uleb128 0x1e
 3007 0ef6 94020000 		.4byte	.LVL71
 3008 0efa 43110000 		.4byte	0x1143
 3009 0efe 170F0000 		.4byte	0xf17
 3010 0f02 1F       		.uleb128 0x1f
 3011 0f03 01       		.byte	0x1
ARM GAS  /tmp/ccU5nDRe.s 			page 55


 3012 0f04 53       		.byte	0x53
 3013 0f05 02       		.byte	0x2
 3014 0f06 09       		.byte	0x9
 3015 0f07 FF       		.byte	0xff
 3016 0f08 1F       		.uleb128 0x1f
 3017 0f09 01       		.byte	0x1
 3018 0f0a 52       		.byte	0x52
 3019 0f0b 01       		.byte	0x1
 3020 0f0c 31       		.byte	0x31
 3021 0f0d 1F       		.uleb128 0x1f
 3022 0f0e 01       		.byte	0x1
 3023 0f0f 51       		.byte	0x51
 3024 0f10 05       		.byte	0x5
 3025 0f11 03       		.byte	0x3
 3026 0f12 07000000 		.4byte	.LANCHOR0+7
 3027 0f16 00       		.byte	0
 3028 0f17 2B       		.uleb128 0x2b
 3029 0f18 D0020000 		.4byte	.LVL81
 3030 0f1c F3110000 		.4byte	0x11f3
 3031 0f20 2B       		.uleb128 0x2b
 3032 0f21 D6020000 		.4byte	.LVL82
 3033 0f25 020A0000 		.4byte	0xa02
 3034 0f29 00       		.byte	0
 3035 0f2a 27       		.uleb128 0x27
 3036 0f2b 80000000 		.4byte	.Ldebug_ranges0+0x80
 3037 0f2f BB0F0000 		.4byte	0xfbb
 3038 0f33 28       		.uleb128 0x28
 3039 0f34 D5010000 		.4byte	.LASF129
 3040 0f38 01       		.byte	0x1
 3041 0f39 6B01     		.2byte	0x16b
 3042 0f3b 86000000 		.4byte	0x86
 3043 0f3f 92030000 		.4byte	.LLST17
 3044 0f43 28       		.uleb128 0x28
 3045 0f44 5D000000 		.4byte	.LASF130
 3046 0f48 01       		.byte	0x1
 3047 0f49 6C01     		.2byte	0x16c
 3048 0f4b 86000000 		.4byte	0x86
 3049 0f4f BD030000 		.4byte	.LLST18
 3050 0f53 29       		.uleb128 0x29
 3051 0f54 6900     		.ascii	"i\000"
 3052 0f56 01       		.byte	0x1
 3053 0f57 6D01     		.2byte	0x16d
 3054 0f59 49000000 		.4byte	0x49
 3055 0f5d F3030000 		.4byte	.LLST19
 3056 0f61 1E       		.uleb128 0x1e
 3057 0f62 A8030000 		.4byte	.LVL103
 3058 0f66 23110000 		.4byte	0x1123
 3059 0f6a 7E0F0000 		.4byte	0xf7e
 3060 0f6e 1F       		.uleb128 0x1f
 3061 0f6f 01       		.byte	0x1
 3062 0f70 52       		.byte	0x52
 3063 0f71 02       		.byte	0x2
 3064 0f72 78       		.byte	0x78
 3065 0f73 00       		.sleb128 0
 3066 0f74 1F       		.uleb128 0x1f
 3067 0f75 01       		.byte	0x1
 3068 0f76 51       		.byte	0x51
ARM GAS  /tmp/ccU5nDRe.s 			page 56


 3069 0f77 05       		.byte	0x5
 3070 0f78 03       		.byte	0x3
 3071 0f79 C0010000 		.4byte	.LC16
 3072 0f7d 00       		.byte	0
 3073 0f7e 1E       		.uleb128 0x1e
 3074 0f7f B2030000 		.4byte	.LVL104
 3075 0f83 0C120000 		.4byte	0x120c
 3076 0f87 9D0F0000 		.4byte	0xf9d
 3077 0f8b 1F       		.uleb128 0x1f
 3078 0f8c 01       		.byte	0x1
 3079 0f8d 52       		.byte	0x52
 3080 0f8e 02       		.byte	0x2
 3081 0f8f 78       		.byte	0x78
 3082 0f90 00       		.sleb128 0
 3083 0f91 1F       		.uleb128 0x1f
 3084 0f92 01       		.byte	0x1
 3085 0f93 51       		.byte	0x51
 3086 0f94 02       		.byte	0x2
 3087 0f95 76       		.byte	0x76
 3088 0f96 00       		.sleb128 0
 3089 0f97 1F       		.uleb128 0x1f
 3090 0f98 01       		.byte	0x1
 3091 0f99 50       		.byte	0x50
 3092 0f9a 01       		.byte	0x1
 3093 0f9b 30       		.byte	0x30
 3094 0f9c 00       		.byte	0
 3095 0f9d 1E       		.uleb128 0x1e
 3096 0f9e C0030000 		.4byte	.LVL105
 3097 0fa2 43110000 		.4byte	0x1143
 3098 0fa6 B10F0000 		.4byte	0xfb1
 3099 0faa 1F       		.uleb128 0x1f
 3100 0fab 01       		.byte	0x1
 3101 0fac 53       		.byte	0x53
 3102 0fad 02       		.byte	0x2
 3103 0fae 09       		.byte	0x9
 3104 0faf FF       		.byte	0xff
 3105 0fb0 00       		.byte	0
 3106 0fb1 2B       		.uleb128 0x2b
 3107 0fb2 C8030000 		.4byte	.LVL106
 3108 0fb6 020A0000 		.4byte	0xa02
 3109 0fba 00       		.byte	0
 3110 0fbb 1E       		.uleb128 0x1e
 3111 0fbc 10000000 		.4byte	.LVL10
 3112 0fc0 2A120000 		.4byte	0x122a
 3113 0fc4 D50F0000 		.4byte	0xfd5
 3114 0fc8 1F       		.uleb128 0x1f
 3115 0fc9 01       		.byte	0x1
 3116 0fca 52       		.byte	0x52
 3117 0fcb 02       		.byte	0x2
 3118 0fcc 08       		.byte	0x8
 3119 0fcd 8C       		.byte	0x8c
 3120 0fce 1F       		.uleb128 0x1f
 3121 0fcf 01       		.byte	0x1
 3122 0fd0 51       		.byte	0x51
 3123 0fd1 02       		.byte	0x2
 3124 0fd2 91       		.byte	0x91
 3125 0fd3 54       		.sleb128 -44
ARM GAS  /tmp/ccU5nDRe.s 			page 57


 3126 0fd4 00       		.byte	0
 3127 0fd5 1E       		.uleb128 0x1e
 3128 0fd6 1E000000 		.4byte	.LVL12
 3129 0fda 4E120000 		.4byte	0x124e
 3130 0fde E90F0000 		.4byte	0xfe9
 3131 0fe2 1F       		.uleb128 0x1f
 3132 0fe3 01       		.byte	0x1
 3133 0fe4 50       		.byte	0x50
 3134 0fe5 02       		.byte	0x2
 3135 0fe6 08       		.byte	0x8
 3136 0fe7 8C       		.byte	0x8c
 3137 0fe8 00       		.byte	0
 3138 0fe9 1E       		.uleb128 0x1e
 3139 0fea 2E000000 		.4byte	.LVL15
 3140 0fee 66120000 		.4byte	0x1266
 3141 0ff2 FC0F0000 		.4byte	0xffc
 3142 0ff6 1F       		.uleb128 0x1f
 3143 0ff7 01       		.byte	0x1
 3144 0ff8 50       		.byte	0x50
 3145 0ff9 01       		.byte	0x1
 3146 0ffa 38       		.byte	0x38
 3147 0ffb 00       		.byte	0
 3148 0ffc 1E       		.uleb128 0x1e
 3149 0ffd 34000000 		.4byte	.LVL16
 3150 1001 4E120000 		.4byte	0x124e
 3151 1005 10100000 		.4byte	0x1010
 3152 1009 1F       		.uleb128 0x1f
 3153 100a 01       		.byte	0x1
 3154 100b 50       		.byte	0x50
 3155 100c 02       		.byte	0x2
 3156 100d 08       		.byte	0x8
 3157 100e 8C       		.byte	0x8c
 3158 100f 00       		.byte	0
 3159 1010 1E       		.uleb128 0x1e
 3160 1011 48000000 		.4byte	.LVL20
 3161 1015 A7110000 		.4byte	0x11a7
 3162 1019 2F100000 		.4byte	0x102f
 3163 101d 1F       		.uleb128 0x1f
 3164 101e 01       		.byte	0x1
 3165 101f 53       		.byte	0x53
 3166 1020 02       		.byte	0x2
 3167 1021 09       		.byte	0x9
 3168 1022 FF       		.byte	0xff
 3169 1023 1F       		.uleb128 0x1f
 3170 1024 01       		.byte	0x1
 3171 1025 52       		.byte	0x52
 3172 1026 01       		.byte	0x1
 3173 1027 31       		.byte	0x31
 3174 1028 1F       		.uleb128 0x1f
 3175 1029 01       		.byte	0x1
 3176 102a 51       		.byte	0x51
 3177 102b 02       		.byte	0x2
 3178 102c 7D       		.byte	0x7d
 3179 102d 00       		.sleb128 0
 3180 102e 00       		.byte	0
 3181 102f 1E       		.uleb128 0x1e
 3182 1030 4E000000 		.4byte	.LVL21
ARM GAS  /tmp/ccU5nDRe.s 			page 58


 3183 1034 66120000 		.4byte	0x1266
 3184 1038 42100000 		.4byte	0x1042
 3185 103c 1F       		.uleb128 0x1f
 3186 103d 01       		.byte	0x1
 3187 103e 50       		.byte	0x50
 3188 103f 01       		.byte	0x1
 3189 1040 34       		.byte	0x34
 3190 1041 00       		.byte	0
 3191 1042 1E       		.uleb128 0x1e
 3192 1043 72000000 		.4byte	.LVL22
 3193 1047 66120000 		.4byte	0x1266
 3194 104b 56100000 		.4byte	0x1056
 3195 104f 1F       		.uleb128 0x1f
 3196 1050 01       		.byte	0x1
 3197 1051 50       		.byte	0x50
 3198 1052 02       		.byte	0x2
 3199 1053 08       		.byte	0x8
 3200 1054 80       		.byte	0x80
 3201 1055 00       		.byte	0
 3202 1056 1E       		.uleb128 0x1e
 3203 1057 80000000 		.4byte	.LVL23
 3204 105b 43110000 		.4byte	0x1143
 3205 105f 75100000 		.4byte	0x1075
 3206 1063 1F       		.uleb128 0x1f
 3207 1064 01       		.byte	0x1
 3208 1065 53       		.byte	0x53
 3209 1066 02       		.byte	0x2
 3210 1067 78       		.byte	0x78
 3211 1068 00       		.sleb128 0
 3212 1069 1F       		.uleb128 0x1f
 3213 106a 01       		.byte	0x1
 3214 106b 52       		.byte	0x52
 3215 106c 01       		.byte	0x1
 3216 106d 31       		.byte	0x31
 3217 106e 1F       		.uleb128 0x1f
 3218 106f 01       		.byte	0x1
 3219 1070 51       		.byte	0x51
 3220 1071 02       		.byte	0x2
 3221 1072 7D       		.byte	0x7d
 3222 1073 00       		.sleb128 0
 3223 1074 00       		.byte	0
 3224 1075 2C       		.uleb128 0x2c
 3225 1076 B2000000 		.4byte	.LVL27
 3226 107a 43110000 		.4byte	0x1143
 3227 107e 1F       		.uleb128 0x1f
 3228 107f 01       		.byte	0x1
 3229 1080 53       		.byte	0x53
 3230 1081 01       		.byte	0x1
 3231 1082 30       		.byte	0x30
 3232 1083 1F       		.uleb128 0x1f
 3233 1084 01       		.byte	0x1
 3234 1085 52       		.byte	0x52
 3235 1086 01       		.byte	0x1
 3236 1087 31       		.byte	0x31
 3237 1088 1F       		.uleb128 0x1f
 3238 1089 01       		.byte	0x1
 3239 108a 51       		.byte	0x51
ARM GAS  /tmp/ccU5nDRe.s 			page 59


 3240 108b 02       		.byte	0x2
 3241 108c 7D       		.byte	0x7d
 3242 108d 00       		.sleb128 0
 3243 108e 00       		.byte	0
 3244 108f 00       		.byte	0
 3245 1090 10       		.uleb128 0x10
 3246 1091 F3000000 		.4byte	0xf3
 3247 1095 1A       		.uleb128 0x1a
 3248 1096 49000000 		.4byte	0x49
 3249 109a A5100000 		.4byte	0x10a5
 3250 109e 1B       		.uleb128 0x1b
 3251 109f 45030000 		.4byte	0x345
 3252 10a3 00       		.byte	0
 3253 10a4 00       		.byte	0
 3254 10a5 25       		.uleb128 0x25
 3255 10a6 4F020000 		.4byte	.LASF131
 3256 10aa 01       		.byte	0x1
 3257 10ab 2A       		.byte	0x2a
 3258 10ac 2D050000 		.4byte	0x52d
 3259 10b0 54       		.byte	0x54
 3260 10b1 25       		.uleb128 0x25
 3261 10b2 29020000 		.4byte	.LASF132
 3262 10b6 01       		.byte	0x1
 3263 10b7 2B       		.byte	0x2b
 3264 10b8 2D050000 		.4byte	0x52d
 3265 10bc 59       		.byte	0x59
 3266 10bd 25       		.uleb128 0x25
 3267 10be B6050000 		.4byte	.LASF133
 3268 10c2 01       		.byte	0x1
 3269 10c3 2C       		.byte	0x2c
 3270 10c4 2D050000 		.4byte	0x52d
 3271 10c8 41       		.byte	0x41
 3272 10c9 25       		.uleb128 0x25
 3273 10ca C9000000 		.4byte	.LASF134
 3274 10ce 01       		.byte	0x1
 3275 10cf 2F       		.byte	0x2f
 3276 10d0 2D050000 		.4byte	0x52d
 3277 10d4 4B       		.byte	0x4b
 3278 10d5 25       		.uleb128 0x25
 3279 10d6 DE020000 		.4byte	.LASF135
 3280 10da 01       		.byte	0x1
 3281 10db 30       		.byte	0x30
 3282 10dc 2D050000 		.4byte	0x52d
 3283 10e0 45       		.byte	0x45
 3284 10e1 1A       		.uleb128 0x1a
 3285 10e2 49000000 		.4byte	0x49
 3286 10e6 F1100000 		.4byte	0x10f1
 3287 10ea 1B       		.uleb128 0x1b
 3288 10eb 45030000 		.4byte	0x345
 3289 10ef 7F       		.byte	0x7f
 3290 10f0 00       		.byte	0
 3291 10f1 24       		.uleb128 0x24
 3292 10f2 14050000 		.4byte	.LASF136
 3293 10f6 01       		.byte	0x1
 3294 10f7 34       		.byte	0x34
 3295 10f8 E1100000 		.4byte	0x10e1
 3296 10fc 05       		.byte	0x5
ARM GAS  /tmp/ccU5nDRe.s 			page 60


 3297 10fd 03       		.byte	0x3
 3298 10fe 00000000 		.4byte	input_buffer
 3299 1102 2E       		.uleb128 0x2e
 3300 1103 DF040000 		.4byte	.LASF137
 3301 1107 11       		.byte	0x11
 3302 1108 9404     		.2byte	0x494
 3303 110a 10110000 		.4byte	0x1110
 3304 110e 01       		.byte	0x1
 3305 110f 01       		.byte	0x1
 3306 1110 0D       		.uleb128 0xd
 3307 1111 74000000 		.4byte	0x74
 3308 1115 2F       		.uleb128 0x2f
 3309 1116 53443300 		.ascii	"SD3\000"
 3310 111a 12       		.byte	0x12
 3311 111b 0101     		.2byte	0x101
 3312 111d C0080000 		.4byte	0x8c0
 3313 1121 01       		.byte	0x1
 3314 1122 01       		.byte	0x1
 3315 1123 30       		.uleb128 0x30
 3316 1124 01       		.byte	0x1
 3317 1125 04020000 		.4byte	.LASF140
 3318 1129 10       		.byte	0x10
 3319 112a 2A       		.byte	0x2a
 3320 112b 01       		.byte	0x1
 3321 112c 01       		.byte	0x1
 3322 112d 3D110000 		.4byte	0x113d
 3323 1131 12       		.uleb128 0x12
 3324 1132 3D110000 		.4byte	0x113d
 3325 1136 12       		.uleb128 0x12
 3326 1137 3C040000 		.4byte	0x43c
 3327 113b 31       		.uleb128 0x31
 3328 113c 00       		.byte	0
 3329 113d 09       		.uleb128 0x9
 3330 113e 04       		.byte	0x4
 3331 113f 92060000 		.4byte	0x692
 3332 1143 32       		.uleb128 0x32
 3333 1144 01       		.byte	0x1
 3334 1145 4A010000 		.4byte	.LASF138
 3335 1149 0A       		.byte	0xa
 3336 114a 5B01     		.2byte	0x15b
 3337 114c 01       		.byte	0x1
 3338 114d 30000000 		.4byte	0x30
 3339 1151 01       		.byte	0x1
 3340 1152 6B110000 		.4byte	0x116b
 3341 1156 12       		.uleb128 0x12
 3342 1157 6B110000 		.4byte	0x116b
 3343 115b 12       		.uleb128 0x12
 3344 115c 27050000 		.4byte	0x527
 3345 1160 12       		.uleb128 0x12
 3346 1161 30000000 		.4byte	0x30
 3347 1165 12       		.uleb128 0x12
 3348 1166 FE000000 		.4byte	0xfe
 3349 116a 00       		.byte	0
 3350 116b 09       		.uleb128 0x9
 3351 116c 04       		.byte	0x4
 3352 116d 02050000 		.4byte	0x502
 3353 1171 33       		.uleb128 0x33
ARM GAS  /tmp/ccU5nDRe.s 			page 61


 3354 1172 01       		.byte	0x1
 3355 1173 FA040000 		.4byte	.LASF139
 3356 1177 0F       		.byte	0xf
 3357 1178 9A       		.byte	0x9a
 3358 1179 01       		.byte	0x1
 3359 117a 49000000 		.4byte	0x49
 3360 117e 01       		.byte	0x1
 3361 117f 89110000 		.4byte	0x1189
 3362 1183 12       		.uleb128 0x12
 3363 1184 86000000 		.4byte	0x86
 3364 1188 00       		.byte	0
 3365 1189 30       		.uleb128 0x30
 3366 118a 01       		.byte	0x1
 3367 118b A3030000 		.4byte	.LASF141
 3368 118f 0F       		.byte	0xf
 3369 1190 D6       		.byte	0xd6
 3370 1191 01       		.byte	0x1
 3371 1192 01       		.byte	0x1
 3372 1193 A7110000 		.4byte	0x11a7
 3373 1197 12       		.uleb128 0x12
 3374 1198 86000000 		.4byte	0x86
 3375 119c 12       		.uleb128 0x12
 3376 119d 49000000 		.4byte	0x49
 3377 11a1 12       		.uleb128 0x12
 3378 11a2 49000000 		.4byte	0x49
 3379 11a6 00       		.byte	0
 3380 11a7 32       		.uleb128 0x32
 3381 11a8 01       		.byte	0x1
 3382 11a9 91000000 		.4byte	.LASF142
 3383 11ad 0A       		.byte	0xa
 3384 11ae 5401     		.2byte	0x154
 3385 11b0 01       		.byte	0x1
 3386 11b1 30000000 		.4byte	0x30
 3387 11b5 01       		.byte	0x1
 3388 11b6 CF110000 		.4byte	0x11cf
 3389 11ba 12       		.uleb128 0x12
 3390 11bb CF110000 		.4byte	0x11cf
 3391 11bf 12       		.uleb128 0x12
 3392 11c0 F1040000 		.4byte	0x4f1
 3393 11c4 12       		.uleb128 0x12
 3394 11c5 30000000 		.4byte	0x30
 3395 11c9 12       		.uleb128 0x12
 3396 11ca FE000000 		.4byte	0xfe
 3397 11ce 00       		.byte	0
 3398 11cf 09       		.uleb128 0x9
 3399 11d0 04       		.byte	0x4
 3400 11d1 F7040000 		.4byte	0x4f7
 3401 11d5 30       		.uleb128 0x30
 3402 11d6 01       		.byte	0x1
 3403 11d7 C0050000 		.4byte	.LASF143
 3404 11db 0F       		.byte	0xf
 3405 11dc AA       		.byte	0xaa
 3406 11dd 01       		.byte	0x1
 3407 11de 01       		.byte	0x1
 3408 11df F3110000 		.4byte	0x11f3
 3409 11e3 12       		.uleb128 0x12
 3410 11e4 86000000 		.4byte	0x86
ARM GAS  /tmp/ccU5nDRe.s 			page 62


 3411 11e8 12       		.uleb128 0x12
 3412 11e9 F1040000 		.4byte	0x4f1
 3413 11ed 12       		.uleb128 0x12
 3414 11ee 86000000 		.4byte	0x86
 3415 11f2 00       		.byte	0
 3416 11f3 30       		.uleb128 0x30
 3417 11f4 01       		.byte	0x1
 3418 11f5 0D020000 		.4byte	.LASF144
 3419 11f9 0F       		.byte	0xf
 3420 11fa 8B       		.byte	0x8b
 3421 11fb 01       		.byte	0x1
 3422 11fc 01       		.byte	0x1
 3423 11fd 0C120000 		.4byte	0x120c
 3424 1201 12       		.uleb128 0x12
 3425 1202 86000000 		.4byte	0x86
 3426 1206 12       		.uleb128 0x12
 3427 1207 49000000 		.4byte	0x49
 3428 120b 00       		.byte	0
 3429 120c 30       		.uleb128 0x30
 3430 120d 01       		.byte	0x1
 3431 120e 62000000 		.4byte	.LASF145
 3432 1212 0F       		.byte	0xf
 3433 1213 BB       		.byte	0xbb
 3434 1214 01       		.byte	0x1
 3435 1215 01       		.byte	0x1
 3436 1216 2A120000 		.4byte	0x122a
 3437 121a 12       		.uleb128 0x12
 3438 121b 86000000 		.4byte	0x86
 3439 121f 12       		.uleb128 0x12
 3440 1220 F1040000 		.4byte	0x4f1
 3441 1224 12       		.uleb128 0x12
 3442 1225 86000000 		.4byte	0x86
 3443 1229 00       		.byte	0
 3444 122a 30       		.uleb128 0x30
 3445 122b 01       		.byte	0x1
 3446 122c AE030000 		.4byte	.LASF146
 3447 1230 09       		.byte	0x9
 3448 1231 AA       		.byte	0xaa
 3449 1232 01       		.byte	0x1
 3450 1233 01       		.byte	0x1
 3451 1234 48120000 		.4byte	0x1248
 3452 1238 12       		.uleb128 0x12
 3453 1239 48120000 		.4byte	0x1248
 3454 123d 12       		.uleb128 0x12
 3455 123e DB030000 		.4byte	0x3db
 3456 1242 12       		.uleb128 0x12
 3457 1243 F3000000 		.4byte	0xf3
 3458 1247 00       		.byte	0
 3459 1248 09       		.uleb128 0x9
 3460 1249 04       		.byte	0x4
 3461 124a FC030000 		.4byte	0x3fc
 3462 124e 33       		.uleb128 0x33
 3463 124f 01       		.byte	0x1
 3464 1250 16060000 		.4byte	.LASF147
 3465 1254 09       		.byte	0x9
 3466 1255 B6       		.byte	0xb6
 3467 1256 01       		.byte	0x1
ARM GAS  /tmp/ccU5nDRe.s 			page 63


 3468 1257 F3000000 		.4byte	0xf3
 3469 125b 01       		.byte	0x1
 3470 125c 66120000 		.4byte	0x1266
 3471 1260 12       		.uleb128 0x12
 3472 1261 F3000000 		.4byte	0xf3
 3473 1265 00       		.byte	0
 3474 1266 34       		.uleb128 0x34
 3475 1267 01       		.byte	0x1
 3476 1268 FC050000 		.4byte	.LASF148
 3477 126c 09       		.byte	0x9
 3478 126d AE       		.byte	0xae
 3479 126e 01       		.byte	0x1
 3480 126f F3000000 		.4byte	0xf3
 3481 1273 01       		.byte	0x1
 3482 1274 12       		.uleb128 0x12
 3483 1275 F3000000 		.4byte	0xf3
 3484 1279 00       		.byte	0
 3485 127a 00       		.byte	0
 3486              		.section	.debug_abbrev,"",%progbits
 3487              	.Ldebug_abbrev0:
 3488 0000 01       		.uleb128 0x1
 3489 0001 11       		.uleb128 0x11
 3490 0002 01       		.byte	0x1
 3491 0003 25       		.uleb128 0x25
 3492 0004 0E       		.uleb128 0xe
 3493 0005 13       		.uleb128 0x13
 3494 0006 0B       		.uleb128 0xb
 3495 0007 03       		.uleb128 0x3
 3496 0008 0E       		.uleb128 0xe
 3497 0009 1B       		.uleb128 0x1b
 3498 000a 0E       		.uleb128 0xe
 3499 000b 55       		.uleb128 0x55
 3500 000c 06       		.uleb128 0x6
 3501 000d 11       		.uleb128 0x11
 3502 000e 01       		.uleb128 0x1
 3503 000f 52       		.uleb128 0x52
 3504 0010 01       		.uleb128 0x1
 3505 0011 10       		.uleb128 0x10
 3506 0012 06       		.uleb128 0x6
 3507 0013 00       		.byte	0
 3508 0014 00       		.byte	0
 3509 0015 02       		.uleb128 0x2
 3510 0016 24       		.uleb128 0x24
 3511 0017 00       		.byte	0
 3512 0018 0B       		.uleb128 0xb
 3513 0019 0B       		.uleb128 0xb
 3514 001a 3E       		.uleb128 0x3e
 3515 001b 0B       		.uleb128 0xb
 3516 001c 03       		.uleb128 0x3
 3517 001d 08       		.uleb128 0x8
 3518 001e 00       		.byte	0
 3519 001f 00       		.byte	0
 3520 0020 03       		.uleb128 0x3
 3521 0021 16       		.uleb128 0x16
 3522 0022 00       		.byte	0
 3523 0023 03       		.uleb128 0x3
 3524 0024 0E       		.uleb128 0xe
ARM GAS  /tmp/ccU5nDRe.s 			page 64


 3525 0025 3A       		.uleb128 0x3a
 3526 0026 0B       		.uleb128 0xb
 3527 0027 3B       		.uleb128 0x3b
 3528 0028 0B       		.uleb128 0xb
 3529 0029 49       		.uleb128 0x49
 3530 002a 13       		.uleb128 0x13
 3531 002b 00       		.byte	0
 3532 002c 00       		.byte	0
 3533 002d 04       		.uleb128 0x4
 3534 002e 24       		.uleb128 0x24
 3535 002f 00       		.byte	0
 3536 0030 0B       		.uleb128 0xb
 3537 0031 0B       		.uleb128 0xb
 3538 0032 3E       		.uleb128 0x3e
 3539 0033 0B       		.uleb128 0xb
 3540 0034 03       		.uleb128 0x3
 3541 0035 0E       		.uleb128 0xe
 3542 0036 00       		.byte	0
 3543 0037 00       		.byte	0
 3544 0038 05       		.uleb128 0x5
 3545 0039 13       		.uleb128 0x13
 3546 003a 01       		.byte	0x1
 3547 003b 03       		.uleb128 0x3
 3548 003c 0E       		.uleb128 0xe
 3549 003d 0B       		.uleb128 0xb
 3550 003e 0B       		.uleb128 0xb
 3551 003f 3A       		.uleb128 0x3a
 3552 0040 0B       		.uleb128 0xb
 3553 0041 3B       		.uleb128 0x3b
 3554 0042 0B       		.uleb128 0xb
 3555 0043 01       		.uleb128 0x1
 3556 0044 13       		.uleb128 0x13
 3557 0045 00       		.byte	0
 3558 0046 00       		.byte	0
 3559 0047 06       		.uleb128 0x6
 3560 0048 0D       		.uleb128 0xd
 3561 0049 00       		.byte	0
 3562 004a 03       		.uleb128 0x3
 3563 004b 0E       		.uleb128 0xe
 3564 004c 3A       		.uleb128 0x3a
 3565 004d 0B       		.uleb128 0xb
 3566 004e 3B       		.uleb128 0x3b
 3567 004f 0B       		.uleb128 0xb
 3568 0050 49       		.uleb128 0x49
 3569 0051 13       		.uleb128 0x13
 3570 0052 38       		.uleb128 0x38
 3571 0053 0A       		.uleb128 0xa
 3572 0054 00       		.byte	0
 3573 0055 00       		.byte	0
 3574 0056 07       		.uleb128 0x7
 3575 0057 0D       		.uleb128 0xd
 3576 0058 00       		.byte	0
 3577 0059 03       		.uleb128 0x3
 3578 005a 08       		.uleb128 0x8
 3579 005b 3A       		.uleb128 0x3a
 3580 005c 0B       		.uleb128 0xb
 3581 005d 3B       		.uleb128 0x3b
ARM GAS  /tmp/ccU5nDRe.s 			page 65


 3582 005e 0B       		.uleb128 0xb
 3583 005f 49       		.uleb128 0x49
 3584 0060 13       		.uleb128 0x13
 3585 0061 38       		.uleb128 0x38
 3586 0062 0A       		.uleb128 0xa
 3587 0063 00       		.byte	0
 3588 0064 00       		.byte	0
 3589 0065 08       		.uleb128 0x8
 3590 0066 13       		.uleb128 0x13
 3591 0067 01       		.byte	0x1
 3592 0068 0B       		.uleb128 0xb
 3593 0069 0B       		.uleb128 0xb
 3594 006a 3A       		.uleb128 0x3a
 3595 006b 0B       		.uleb128 0xb
 3596 006c 3B       		.uleb128 0x3b
 3597 006d 0B       		.uleb128 0xb
 3598 006e 01       		.uleb128 0x1
 3599 006f 13       		.uleb128 0x13
 3600 0070 00       		.byte	0
 3601 0071 00       		.byte	0
 3602 0072 09       		.uleb128 0x9
 3603 0073 0F       		.uleb128 0xf
 3604 0074 00       		.byte	0
 3605 0075 0B       		.uleb128 0xb
 3606 0076 0B       		.uleb128 0xb
 3607 0077 49       		.uleb128 0x49
 3608 0078 13       		.uleb128 0x13
 3609 0079 00       		.byte	0
 3610 007a 00       		.byte	0
 3611 007b 0A       		.uleb128 0xa
 3612 007c 0F       		.uleb128 0xf
 3613 007d 00       		.byte	0
 3614 007e 0B       		.uleb128 0xb
 3615 007f 0B       		.uleb128 0xb
 3616 0080 00       		.byte	0
 3617 0081 00       		.byte	0
 3618 0082 0B       		.uleb128 0xb
 3619 0083 0D       		.uleb128 0xd
 3620 0084 00       		.byte	0
 3621 0085 03       		.uleb128 0x3
 3622 0086 08       		.uleb128 0x8
 3623 0087 3A       		.uleb128 0x3a
 3624 0088 0B       		.uleb128 0xb
 3625 0089 3B       		.uleb128 0x3b
 3626 008a 05       		.uleb128 0x5
 3627 008b 49       		.uleb128 0x49
 3628 008c 13       		.uleb128 0x13
 3629 008d 38       		.uleb128 0x38
 3630 008e 0A       		.uleb128 0xa
 3631 008f 00       		.byte	0
 3632 0090 00       		.byte	0
 3633 0091 0C       		.uleb128 0xc
 3634 0092 13       		.uleb128 0x13
 3635 0093 01       		.byte	0x1
 3636 0094 03       		.uleb128 0x3
 3637 0095 0E       		.uleb128 0xe
 3638 0096 0B       		.uleb128 0xb
ARM GAS  /tmp/ccU5nDRe.s 			page 66


 3639 0097 0B       		.uleb128 0xb
 3640 0098 3A       		.uleb128 0x3a
 3641 0099 0B       		.uleb128 0xb
 3642 009a 3B       		.uleb128 0x3b
 3643 009b 05       		.uleb128 0x5
 3644 009c 01       		.uleb128 0x1
 3645 009d 13       		.uleb128 0x13
 3646 009e 00       		.byte	0
 3647 009f 00       		.byte	0
 3648 00a0 0D       		.uleb128 0xd
 3649 00a1 35       		.uleb128 0x35
 3650 00a2 00       		.byte	0
 3651 00a3 49       		.uleb128 0x49
 3652 00a4 13       		.uleb128 0x13
 3653 00a5 00       		.byte	0
 3654 00a6 00       		.byte	0
 3655 00a7 0E       		.uleb128 0xe
 3656 00a8 17       		.uleb128 0x17
 3657 00a9 01       		.byte	0x1
 3658 00aa 0B       		.uleb128 0xb
 3659 00ab 0B       		.uleb128 0xb
 3660 00ac 3A       		.uleb128 0x3a
 3661 00ad 0B       		.uleb128 0xb
 3662 00ae 3B       		.uleb128 0x3b
 3663 00af 0B       		.uleb128 0xb
 3664 00b0 01       		.uleb128 0x1
 3665 00b1 13       		.uleb128 0x13
 3666 00b2 00       		.byte	0
 3667 00b3 00       		.byte	0
 3668 00b4 0F       		.uleb128 0xf
 3669 00b5 0D       		.uleb128 0xd
 3670 00b6 00       		.byte	0
 3671 00b7 03       		.uleb128 0x3
 3672 00b8 0E       		.uleb128 0xe
 3673 00b9 3A       		.uleb128 0x3a
 3674 00ba 0B       		.uleb128 0xb
 3675 00bb 3B       		.uleb128 0x3b
 3676 00bc 0B       		.uleb128 0xb
 3677 00bd 49       		.uleb128 0x49
 3678 00be 13       		.uleb128 0x13
 3679 00bf 00       		.byte	0
 3680 00c0 00       		.byte	0
 3681 00c1 10       		.uleb128 0x10
 3682 00c2 26       		.uleb128 0x26
 3683 00c3 00       		.byte	0
 3684 00c4 49       		.uleb128 0x49
 3685 00c5 13       		.uleb128 0x13
 3686 00c6 00       		.byte	0
 3687 00c7 00       		.byte	0
 3688 00c8 11       		.uleb128 0x11
 3689 00c9 15       		.uleb128 0x15
 3690 00ca 01       		.byte	0x1
 3691 00cb 27       		.uleb128 0x27
 3692 00cc 0C       		.uleb128 0xc
 3693 00cd 01       		.uleb128 0x1
 3694 00ce 13       		.uleb128 0x13
 3695 00cf 00       		.byte	0
ARM GAS  /tmp/ccU5nDRe.s 			page 67


 3696 00d0 00       		.byte	0
 3697 00d1 12       		.uleb128 0x12
 3698 00d2 05       		.uleb128 0x5
 3699 00d3 00       		.byte	0
 3700 00d4 49       		.uleb128 0x49
 3701 00d5 13       		.uleb128 0x13
 3702 00d6 00       		.byte	0
 3703 00d7 00       		.byte	0
 3704 00d8 13       		.uleb128 0x13
 3705 00d9 15       		.uleb128 0x15
 3706 00da 01       		.byte	0x1
 3707 00db 27       		.uleb128 0x27
 3708 00dc 0C       		.uleb128 0xc
 3709 00dd 49       		.uleb128 0x49
 3710 00de 13       		.uleb128 0x13
 3711 00df 01       		.uleb128 0x1
 3712 00e0 13       		.uleb128 0x13
 3713 00e1 00       		.byte	0
 3714 00e2 00       		.byte	0
 3715 00e3 14       		.uleb128 0x14
 3716 00e4 16       		.uleb128 0x16
 3717 00e5 00       		.byte	0
 3718 00e6 03       		.uleb128 0x3
 3719 00e7 0E       		.uleb128 0xe
 3720 00e8 3A       		.uleb128 0x3a
 3721 00e9 0B       		.uleb128 0xb
 3722 00ea 3B       		.uleb128 0x3b
 3723 00eb 05       		.uleb128 0x5
 3724 00ec 49       		.uleb128 0x49
 3725 00ed 13       		.uleb128 0x13
 3726 00ee 00       		.byte	0
 3727 00ef 00       		.byte	0
 3728 00f0 15       		.uleb128 0x15
 3729 00f1 13       		.uleb128 0x13
 3730 00f2 01       		.byte	0x1
 3731 00f3 0B       		.uleb128 0xb
 3732 00f4 0B       		.uleb128 0xb
 3733 00f5 3A       		.uleb128 0x3a
 3734 00f6 0B       		.uleb128 0xb
 3735 00f7 3B       		.uleb128 0x3b
 3736 00f8 05       		.uleb128 0x5
 3737 00f9 01       		.uleb128 0x1
 3738 00fa 13       		.uleb128 0x13
 3739 00fb 00       		.byte	0
 3740 00fc 00       		.byte	0
 3741 00fd 16       		.uleb128 0x16
 3742 00fe 0D       		.uleb128 0xd
 3743 00ff 00       		.byte	0
 3744 0100 03       		.uleb128 0x3
 3745 0101 0E       		.uleb128 0xe
 3746 0102 3A       		.uleb128 0x3a
 3747 0103 0B       		.uleb128 0xb
 3748 0104 3B       		.uleb128 0x3b
 3749 0105 05       		.uleb128 0x5
 3750 0106 49       		.uleb128 0x49
 3751 0107 13       		.uleb128 0x13
 3752 0108 38       		.uleb128 0x38
ARM GAS  /tmp/ccU5nDRe.s 			page 68


 3753 0109 0A       		.uleb128 0xa
 3754 010a 00       		.byte	0
 3755 010b 00       		.byte	0
 3756 010c 17       		.uleb128 0x17
 3757 010d 0D       		.uleb128 0xd
 3758 010e 00       		.byte	0
 3759 010f 03       		.uleb128 0x3
 3760 0110 08       		.uleb128 0x8
 3761 0111 3A       		.uleb128 0x3a
 3762 0112 0B       		.uleb128 0xb
 3763 0113 3B       		.uleb128 0x3b
 3764 0114 0B       		.uleb128 0xb
 3765 0115 49       		.uleb128 0x49
 3766 0116 13       		.uleb128 0x13
 3767 0117 00       		.byte	0
 3768 0118 00       		.byte	0
 3769 0119 18       		.uleb128 0x18
 3770 011a 04       		.uleb128 0x4
 3771 011b 01       		.byte	0x1
 3772 011c 0B       		.uleb128 0xb
 3773 011d 0B       		.uleb128 0xb
 3774 011e 3A       		.uleb128 0x3a
 3775 011f 0B       		.uleb128 0xb
 3776 0120 3B       		.uleb128 0x3b
 3777 0121 0B       		.uleb128 0xb
 3778 0122 01       		.uleb128 0x1
 3779 0123 13       		.uleb128 0x13
 3780 0124 00       		.byte	0
 3781 0125 00       		.byte	0
 3782 0126 19       		.uleb128 0x19
 3783 0127 28       		.uleb128 0x28
 3784 0128 00       		.byte	0
 3785 0129 03       		.uleb128 0x3
 3786 012a 0E       		.uleb128 0xe
 3787 012b 1C       		.uleb128 0x1c
 3788 012c 0D       		.uleb128 0xd
 3789 012d 00       		.byte	0
 3790 012e 00       		.byte	0
 3791 012f 1A       		.uleb128 0x1a
 3792 0130 01       		.uleb128 0x1
 3793 0131 01       		.byte	0x1
 3794 0132 49       		.uleb128 0x49
 3795 0133 13       		.uleb128 0x13
 3796 0134 01       		.uleb128 0x1
 3797 0135 13       		.uleb128 0x13
 3798 0136 00       		.byte	0
 3799 0137 00       		.byte	0
 3800 0138 1B       		.uleb128 0x1b
 3801 0139 21       		.uleb128 0x21
 3802 013a 00       		.byte	0
 3803 013b 49       		.uleb128 0x49
 3804 013c 13       		.uleb128 0x13
 3805 013d 2F       		.uleb128 0x2f
 3806 013e 0B       		.uleb128 0xb
 3807 013f 00       		.byte	0
 3808 0140 00       		.byte	0
 3809 0141 1C       		.uleb128 0x1c
ARM GAS  /tmp/ccU5nDRe.s 			page 69


 3810 0142 2E       		.uleb128 0x2e
 3811 0143 01       		.byte	0x1
 3812 0144 03       		.uleb128 0x3
 3813 0145 0E       		.uleb128 0xe
 3814 0146 3A       		.uleb128 0x3a
 3815 0147 0B       		.uleb128 0xb
 3816 0148 3B       		.uleb128 0x3b
 3817 0149 0B       		.uleb128 0xb
 3818 014a 27       		.uleb128 0x27
 3819 014b 0C       		.uleb128 0xc
 3820 014c 11       		.uleb128 0x11
 3821 014d 01       		.uleb128 0x1
 3822 014e 12       		.uleb128 0x12
 3823 014f 01       		.uleb128 0x1
 3824 0150 40       		.uleb128 0x40
 3825 0151 06       		.uleb128 0x6
 3826 0152 9742     		.uleb128 0x2117
 3827 0154 0C       		.uleb128 0xc
 3828 0155 01       		.uleb128 0x1
 3829 0156 13       		.uleb128 0x13
 3830 0157 00       		.byte	0
 3831 0158 00       		.byte	0
 3832 0159 1D       		.uleb128 0x1d
 3833 015a 34       		.uleb128 0x34
 3834 015b 00       		.byte	0
 3835 015c 03       		.uleb128 0x3
 3836 015d 08       		.uleb128 0x8
 3837 015e 3A       		.uleb128 0x3a
 3838 015f 0B       		.uleb128 0xb
 3839 0160 3B       		.uleb128 0x3b
 3840 0161 0B       		.uleb128 0xb
 3841 0162 49       		.uleb128 0x49
 3842 0163 13       		.uleb128 0x13
 3843 0164 02       		.uleb128 0x2
 3844 0165 06       		.uleb128 0x6
 3845 0166 00       		.byte	0
 3846 0167 00       		.byte	0
 3847 0168 1E       		.uleb128 0x1e
 3848 0169 898201   		.uleb128 0x4109
 3849 016c 01       		.byte	0x1
 3850 016d 11       		.uleb128 0x11
 3851 016e 01       		.uleb128 0x1
 3852 016f 31       		.uleb128 0x31
 3853 0170 13       		.uleb128 0x13
 3854 0171 01       		.uleb128 0x1
 3855 0172 13       		.uleb128 0x13
 3856 0173 00       		.byte	0
 3857 0174 00       		.byte	0
 3858 0175 1F       		.uleb128 0x1f
 3859 0176 8A8201   		.uleb128 0x410a
 3860 0179 00       		.byte	0
 3861 017a 02       		.uleb128 0x2
 3862 017b 0A       		.uleb128 0xa
 3863 017c 9142     		.uleb128 0x2111
 3864 017e 0A       		.uleb128 0xa
 3865 017f 00       		.byte	0
 3866 0180 00       		.byte	0
ARM GAS  /tmp/ccU5nDRe.s 			page 70


 3867 0181 20       		.uleb128 0x20
 3868 0182 898201   		.uleb128 0x4109
 3869 0185 01       		.byte	0x1
 3870 0186 11       		.uleb128 0x11
 3871 0187 01       		.uleb128 0x1
 3872 0188 9542     		.uleb128 0x2115
 3873 018a 0C       		.uleb128 0xc
 3874 018b 31       		.uleb128 0x31
 3875 018c 13       		.uleb128 0x13
 3876 018d 00       		.byte	0
 3877 018e 00       		.byte	0
 3878 018f 21       		.uleb128 0x21
 3879 0190 2E       		.uleb128 0x2e
 3880 0191 00       		.byte	0
 3881 0192 03       		.uleb128 0x3
 3882 0193 0E       		.uleb128 0xe
 3883 0194 3A       		.uleb128 0x3a
 3884 0195 0B       		.uleb128 0xb
 3885 0196 3B       		.uleb128 0x3b
 3886 0197 0B       		.uleb128 0xb
 3887 0198 27       		.uleb128 0x27
 3888 0199 0C       		.uleb128 0xc
 3889 019a 20       		.uleb128 0x20
 3890 019b 0B       		.uleb128 0xb
 3891 019c 00       		.byte	0
 3892 019d 00       		.byte	0
 3893 019e 22       		.uleb128 0x22
 3894 019f 2E       		.uleb128 0x2e
 3895 01a0 01       		.byte	0x1
 3896 01a1 3F       		.uleb128 0x3f
 3897 01a2 0C       		.uleb128 0xc
 3898 01a3 03       		.uleb128 0x3
 3899 01a4 0E       		.uleb128 0xe
 3900 01a5 3A       		.uleb128 0x3a
 3901 01a6 0B       		.uleb128 0xb
 3902 01a7 3B       		.uleb128 0x3b
 3903 01a8 0B       		.uleb128 0xb
 3904 01a9 27       		.uleb128 0x27
 3905 01aa 0C       		.uleb128 0xc
 3906 01ab 49       		.uleb128 0x49
 3907 01ac 13       		.uleb128 0x13
 3908 01ad 11       		.uleb128 0x11
 3909 01ae 01       		.uleb128 0x1
 3910 01af 12       		.uleb128 0x12
 3911 01b0 01       		.uleb128 0x1
 3912 01b1 40       		.uleb128 0x40
 3913 01b2 06       		.uleb128 0x6
 3914 01b3 9742     		.uleb128 0x2117
 3915 01b5 0C       		.uleb128 0xc
 3916 01b6 01       		.uleb128 0x1
 3917 01b7 13       		.uleb128 0x13
 3918 01b8 00       		.byte	0
 3919 01b9 00       		.byte	0
 3920 01ba 23       		.uleb128 0x23
 3921 01bb 05       		.uleb128 0x5
 3922 01bc 00       		.byte	0
 3923 01bd 03       		.uleb128 0x3
ARM GAS  /tmp/ccU5nDRe.s 			page 71


 3924 01be 08       		.uleb128 0x8
 3925 01bf 3A       		.uleb128 0x3a
 3926 01c0 0B       		.uleb128 0xb
 3927 01c1 3B       		.uleb128 0x3b
 3928 01c2 0B       		.uleb128 0xb
 3929 01c3 49       		.uleb128 0x49
 3930 01c4 13       		.uleb128 0x13
 3931 01c5 02       		.uleb128 0x2
 3932 01c6 06       		.uleb128 0x6
 3933 01c7 00       		.byte	0
 3934 01c8 00       		.byte	0
 3935 01c9 24       		.uleb128 0x24
 3936 01ca 34       		.uleb128 0x34
 3937 01cb 00       		.byte	0
 3938 01cc 03       		.uleb128 0x3
 3939 01cd 0E       		.uleb128 0xe
 3940 01ce 3A       		.uleb128 0x3a
 3941 01cf 0B       		.uleb128 0xb
 3942 01d0 3B       		.uleb128 0x3b
 3943 01d1 0B       		.uleb128 0xb
 3944 01d2 49       		.uleb128 0x49
 3945 01d3 13       		.uleb128 0x13
 3946 01d4 02       		.uleb128 0x2
 3947 01d5 0A       		.uleb128 0xa
 3948 01d6 00       		.byte	0
 3949 01d7 00       		.byte	0
 3950 01d8 25       		.uleb128 0x25
 3951 01d9 34       		.uleb128 0x34
 3952 01da 00       		.byte	0
 3953 01db 03       		.uleb128 0x3
 3954 01dc 0E       		.uleb128 0xe
 3955 01dd 3A       		.uleb128 0x3a
 3956 01de 0B       		.uleb128 0xb
 3957 01df 3B       		.uleb128 0x3b
 3958 01e0 0B       		.uleb128 0xb
 3959 01e1 49       		.uleb128 0x49
 3960 01e2 13       		.uleb128 0x13
 3961 01e3 1C       		.uleb128 0x1c
 3962 01e4 0B       		.uleb128 0xb
 3963 01e5 00       		.byte	0
 3964 01e6 00       		.byte	0
 3965 01e7 26       		.uleb128 0x26
 3966 01e8 34       		.uleb128 0x34
 3967 01e9 00       		.byte	0
 3968 01ea 03       		.uleb128 0x3
 3969 01eb 0E       		.uleb128 0xe
 3970 01ec 3A       		.uleb128 0x3a
 3971 01ed 0B       		.uleb128 0xb
 3972 01ee 3B       		.uleb128 0x3b
 3973 01ef 0B       		.uleb128 0xb
 3974 01f0 49       		.uleb128 0x49
 3975 01f1 13       		.uleb128 0x13
 3976 01f2 02       		.uleb128 0x2
 3977 01f3 06       		.uleb128 0x6
 3978 01f4 00       		.byte	0
 3979 01f5 00       		.byte	0
 3980 01f6 27       		.uleb128 0x27
ARM GAS  /tmp/ccU5nDRe.s 			page 72


 3981 01f7 0B       		.uleb128 0xb
 3982 01f8 01       		.byte	0x1
 3983 01f9 55       		.uleb128 0x55
 3984 01fa 06       		.uleb128 0x6
 3985 01fb 01       		.uleb128 0x1
 3986 01fc 13       		.uleb128 0x13
 3987 01fd 00       		.byte	0
 3988 01fe 00       		.byte	0
 3989 01ff 28       		.uleb128 0x28
 3990 0200 34       		.uleb128 0x34
 3991 0201 00       		.byte	0
 3992 0202 03       		.uleb128 0x3
 3993 0203 0E       		.uleb128 0xe
 3994 0204 3A       		.uleb128 0x3a
 3995 0205 0B       		.uleb128 0xb
 3996 0206 3B       		.uleb128 0x3b
 3997 0207 05       		.uleb128 0x5
 3998 0208 49       		.uleb128 0x49
 3999 0209 13       		.uleb128 0x13
 4000 020a 02       		.uleb128 0x2
 4001 020b 06       		.uleb128 0x6
 4002 020c 00       		.byte	0
 4003 020d 00       		.byte	0
 4004 020e 29       		.uleb128 0x29
 4005 020f 34       		.uleb128 0x34
 4006 0210 00       		.byte	0
 4007 0211 03       		.uleb128 0x3
 4008 0212 08       		.uleb128 0x8
 4009 0213 3A       		.uleb128 0x3a
 4010 0214 0B       		.uleb128 0xb
 4011 0215 3B       		.uleb128 0x3b
 4012 0216 05       		.uleb128 0x5
 4013 0217 49       		.uleb128 0x49
 4014 0218 13       		.uleb128 0x13
 4015 0219 02       		.uleb128 0x2
 4016 021a 06       		.uleb128 0x6
 4017 021b 00       		.byte	0
 4018 021c 00       		.byte	0
 4019 021d 2A       		.uleb128 0x2a
 4020 021e 34       		.uleb128 0x34
 4021 021f 00       		.byte	0
 4022 0220 03       		.uleb128 0x3
 4023 0221 0E       		.uleb128 0xe
 4024 0222 3A       		.uleb128 0x3a
 4025 0223 0B       		.uleb128 0xb
 4026 0224 3B       		.uleb128 0x3b
 4027 0225 05       		.uleb128 0x5
 4028 0226 49       		.uleb128 0x49
 4029 0227 13       		.uleb128 0x13
 4030 0228 02       		.uleb128 0x2
 4031 0229 0A       		.uleb128 0xa
 4032 022a 00       		.byte	0
 4033 022b 00       		.byte	0
 4034 022c 2B       		.uleb128 0x2b
 4035 022d 898201   		.uleb128 0x4109
 4036 0230 00       		.byte	0
 4037 0231 11       		.uleb128 0x11
ARM GAS  /tmp/ccU5nDRe.s 			page 73


 4038 0232 01       		.uleb128 0x1
 4039 0233 31       		.uleb128 0x31
 4040 0234 13       		.uleb128 0x13
 4041 0235 00       		.byte	0
 4042 0236 00       		.byte	0
 4043 0237 2C       		.uleb128 0x2c
 4044 0238 898201   		.uleb128 0x4109
 4045 023b 01       		.byte	0x1
 4046 023c 11       		.uleb128 0x11
 4047 023d 01       		.uleb128 0x1
 4048 023e 31       		.uleb128 0x31
 4049 023f 13       		.uleb128 0x13
 4050 0240 00       		.byte	0
 4051 0241 00       		.byte	0
 4052 0242 2D       		.uleb128 0x2d
 4053 0243 1D       		.uleb128 0x1d
 4054 0244 01       		.byte	0x1
 4055 0245 31       		.uleb128 0x31
 4056 0246 13       		.uleb128 0x13
 4057 0247 11       		.uleb128 0x11
 4058 0248 01       		.uleb128 0x1
 4059 0249 12       		.uleb128 0x12
 4060 024a 01       		.uleb128 0x1
 4061 024b 58       		.uleb128 0x58
 4062 024c 0B       		.uleb128 0xb
 4063 024d 59       		.uleb128 0x59
 4064 024e 0B       		.uleb128 0xb
 4065 024f 01       		.uleb128 0x1
 4066 0250 13       		.uleb128 0x13
 4067 0251 00       		.byte	0
 4068 0252 00       		.byte	0
 4069 0253 2E       		.uleb128 0x2e
 4070 0254 34       		.uleb128 0x34
 4071 0255 00       		.byte	0
 4072 0256 03       		.uleb128 0x3
 4073 0257 0E       		.uleb128 0xe
 4074 0258 3A       		.uleb128 0x3a
 4075 0259 0B       		.uleb128 0xb
 4076 025a 3B       		.uleb128 0x3b
 4077 025b 05       		.uleb128 0x5
 4078 025c 49       		.uleb128 0x49
 4079 025d 13       		.uleb128 0x13
 4080 025e 3F       		.uleb128 0x3f
 4081 025f 0C       		.uleb128 0xc
 4082 0260 3C       		.uleb128 0x3c
 4083 0261 0C       		.uleb128 0xc
 4084 0262 00       		.byte	0
 4085 0263 00       		.byte	0
 4086 0264 2F       		.uleb128 0x2f
 4087 0265 34       		.uleb128 0x34
 4088 0266 00       		.byte	0
 4089 0267 03       		.uleb128 0x3
 4090 0268 08       		.uleb128 0x8
 4091 0269 3A       		.uleb128 0x3a
 4092 026a 0B       		.uleb128 0xb
 4093 026b 3B       		.uleb128 0x3b
 4094 026c 05       		.uleb128 0x5
ARM GAS  /tmp/ccU5nDRe.s 			page 74


 4095 026d 49       		.uleb128 0x49
 4096 026e 13       		.uleb128 0x13
 4097 026f 3F       		.uleb128 0x3f
 4098 0270 0C       		.uleb128 0xc
 4099 0271 3C       		.uleb128 0x3c
 4100 0272 0C       		.uleb128 0xc
 4101 0273 00       		.byte	0
 4102 0274 00       		.byte	0
 4103 0275 30       		.uleb128 0x30
 4104 0276 2E       		.uleb128 0x2e
 4105 0277 01       		.byte	0x1
 4106 0278 3F       		.uleb128 0x3f
 4107 0279 0C       		.uleb128 0xc
 4108 027a 03       		.uleb128 0x3
 4109 027b 0E       		.uleb128 0xe
 4110 027c 3A       		.uleb128 0x3a
 4111 027d 0B       		.uleb128 0xb
 4112 027e 3B       		.uleb128 0x3b
 4113 027f 0B       		.uleb128 0xb
 4114 0280 27       		.uleb128 0x27
 4115 0281 0C       		.uleb128 0xc
 4116 0282 3C       		.uleb128 0x3c
 4117 0283 0C       		.uleb128 0xc
 4118 0284 01       		.uleb128 0x1
 4119 0285 13       		.uleb128 0x13
 4120 0286 00       		.byte	0
 4121 0287 00       		.byte	0
 4122 0288 31       		.uleb128 0x31
 4123 0289 18       		.uleb128 0x18
 4124 028a 00       		.byte	0
 4125 028b 00       		.byte	0
 4126 028c 00       		.byte	0
 4127 028d 32       		.uleb128 0x32
 4128 028e 2E       		.uleb128 0x2e
 4129 028f 01       		.byte	0x1
 4130 0290 3F       		.uleb128 0x3f
 4131 0291 0C       		.uleb128 0xc
 4132 0292 03       		.uleb128 0x3
 4133 0293 0E       		.uleb128 0xe
 4134 0294 3A       		.uleb128 0x3a
 4135 0295 0B       		.uleb128 0xb
 4136 0296 3B       		.uleb128 0x3b
 4137 0297 05       		.uleb128 0x5
 4138 0298 27       		.uleb128 0x27
 4139 0299 0C       		.uleb128 0xc
 4140 029a 49       		.uleb128 0x49
 4141 029b 13       		.uleb128 0x13
 4142 029c 3C       		.uleb128 0x3c
 4143 029d 0C       		.uleb128 0xc
 4144 029e 01       		.uleb128 0x1
 4145 029f 13       		.uleb128 0x13
 4146 02a0 00       		.byte	0
 4147 02a1 00       		.byte	0
 4148 02a2 33       		.uleb128 0x33
 4149 02a3 2E       		.uleb128 0x2e
 4150 02a4 01       		.byte	0x1
 4151 02a5 3F       		.uleb128 0x3f
ARM GAS  /tmp/ccU5nDRe.s 			page 75


 4152 02a6 0C       		.uleb128 0xc
 4153 02a7 03       		.uleb128 0x3
 4154 02a8 0E       		.uleb128 0xe
 4155 02a9 3A       		.uleb128 0x3a
 4156 02aa 0B       		.uleb128 0xb
 4157 02ab 3B       		.uleb128 0x3b
 4158 02ac 0B       		.uleb128 0xb
 4159 02ad 27       		.uleb128 0x27
 4160 02ae 0C       		.uleb128 0xc
 4161 02af 49       		.uleb128 0x49
 4162 02b0 13       		.uleb128 0x13
 4163 02b1 3C       		.uleb128 0x3c
 4164 02b2 0C       		.uleb128 0xc
 4165 02b3 01       		.uleb128 0x1
 4166 02b4 13       		.uleb128 0x13
 4167 02b5 00       		.byte	0
 4168 02b6 00       		.byte	0
 4169 02b7 34       		.uleb128 0x34
 4170 02b8 2E       		.uleb128 0x2e
 4171 02b9 01       		.byte	0x1
 4172 02ba 3F       		.uleb128 0x3f
 4173 02bb 0C       		.uleb128 0xc
 4174 02bc 03       		.uleb128 0x3
 4175 02bd 0E       		.uleb128 0xe
 4176 02be 3A       		.uleb128 0x3a
 4177 02bf 0B       		.uleb128 0xb
 4178 02c0 3B       		.uleb128 0x3b
 4179 02c1 0B       		.uleb128 0xb
 4180 02c2 27       		.uleb128 0x27
 4181 02c3 0C       		.uleb128 0xc
 4182 02c4 49       		.uleb128 0x49
 4183 02c5 13       		.uleb128 0x13
 4184 02c6 3C       		.uleb128 0x3c
 4185 02c7 0C       		.uleb128 0xc
 4186 02c8 00       		.byte	0
 4187 02c9 00       		.byte	0
 4188 02ca 00       		.byte	0
 4189              		.section	.debug_loc,"",%progbits
 4190              	.Ldebug_loc0:
 4191              	.LLST0:
 4192 0000 00000000 		.4byte	.LFB62
 4193 0004 02000000 		.4byte	.LCFI0
 4194 0008 0200     		.2byte	0x2
 4195 000a 7D       		.byte	0x7d
 4196 000b 00       		.sleb128 0
 4197 000c 02000000 		.4byte	.LCFI0
 4198 0010 5C000000 		.4byte	.LFE62
 4199 0014 0200     		.2byte	0x2
 4200 0016 7D       		.byte	0x7d
 4201 0017 08       		.sleb128 8
 4202 0018 00000000 		.4byte	0
 4203 001c 00000000 		.4byte	0
 4204              	.LLST1:
 4205 0020 00000000 		.4byte	.LVL0
 4206 0024 08000000 		.4byte	.LVL1
 4207 0028 0200     		.2byte	0x2
 4208 002a 30       		.byte	0x30
ARM GAS  /tmp/ccU5nDRe.s 			page 76


 4209 002b 9F       		.byte	0x9f
 4210 002c 0E000000 		.4byte	.LVL2
 4211 0030 19000000 		.4byte	.LVL3-1
 4212 0034 0100     		.2byte	0x1
 4213 0036 52       		.byte	0x52
 4214 0037 00000000 		.4byte	0
 4215 003b 00000000 		.4byte	0
 4216              	.LLST2:
 4217 003f 00000000 		.4byte	.LFB67
 4218 0043 04000000 		.4byte	.LCFI1
 4219 0047 0200     		.2byte	0x2
 4220 0049 7D       		.byte	0x7d
 4221 004a 00       		.sleb128 0
 4222 004b 04000000 		.4byte	.LCFI1
 4223 004f 06000000 		.4byte	.LCFI2
 4224 0053 0200     		.2byte	0x2
 4225 0055 7D       		.byte	0x7d
 4226 0056 20       		.sleb128 32
 4227 0057 06000000 		.4byte	.LCFI2
 4228 005b 44040000 		.4byte	.LFE67
 4229 005f 0200     		.2byte	0x2
 4230 0061 7D       		.byte	0x7d
 4231 0062 30       		.sleb128 48
 4232 0063 00000000 		.4byte	0
 4233 0067 00000000 		.4byte	0
 4234              	.LLST3:
 4235 006b 00000000 		.4byte	.LVL8
 4236 006f 08000000 		.4byte	.LVL9
 4237 0073 0100     		.2byte	0x1
 4238 0075 50       		.byte	0x50
 4239 0076 08000000 		.4byte	.LVL9
 4240 007a 44040000 		.4byte	.LFE67
 4241 007e 0400     		.2byte	0x4
 4242 0080 F3       		.byte	0xf3
 4243 0081 01       		.uleb128 0x1
 4244 0082 50       		.byte	0x50
 4245 0083 9F       		.byte	0x9f
 4246 0084 00000000 		.4byte	0
 4247 0088 00000000 		.4byte	0
 4248              	.LLST4:
 4249 008c 10000000 		.4byte	.LVL10
 4250 0090 18000000 		.4byte	.LVL11
 4251 0094 0200     		.2byte	0x2
 4252 0096 30       		.byte	0x30
 4253 0097 9F       		.byte	0x9f
 4254 0098 18000000 		.4byte	.LVL11
 4255 009c 3A000000 		.4byte	.LVL18
 4256 00a0 0100     		.2byte	0x1
 4257 00a2 59       		.byte	0x59
 4258 00a3 42020000 		.4byte	.LVL60
 4259 00a7 4C020000 		.4byte	.LVL62
 4260 00ab 0200     		.2byte	0x2
 4261 00ad 30       		.byte	0x30
 4262 00ae 9F       		.byte	0x9f
 4263 00af 4C020000 		.4byte	.LVL62
 4264 00b3 64020000 		.4byte	.LVL65
 4265 00b7 0200     		.2byte	0x2
ARM GAS  /tmp/ccU5nDRe.s 			page 77


 4266 00b9 35       		.byte	0x35
 4267 00ba 9F       		.byte	0x9f
 4268 00bb D0020000 		.4byte	.LVL81
 4269 00bf D8020000 		.4byte	.LVL83
 4270 00c3 0200     		.2byte	0x2
 4271 00c5 30       		.byte	0x30
 4272 00c6 9F       		.byte	0x9f
 4273 00c7 DC020000 		.4byte	.LVL85
 4274 00cb 34030000 		.4byte	.LVL88
 4275 00cf 0200     		.2byte	0x2
 4276 00d1 36       		.byte	0x36
 4277 00d2 9F       		.byte	0x9f
 4278 00d3 34030000 		.4byte	.LVL88
 4279 00d7 4C030000 		.4byte	.LVL91
 4280 00db 0200     		.2byte	0x2
 4281 00dd 37       		.byte	0x37
 4282 00de 9F       		.byte	0x9f
 4283 00df C0030000 		.4byte	.LVL105
 4284 00e3 CA030000 		.4byte	.LVL107
 4285 00e7 0200     		.2byte	0x2
 4286 00e9 30       		.byte	0x30
 4287 00ea 9F       		.byte	0x9f
 4288 00eb CA030000 		.4byte	.LVL107
 4289 00ef E4030000 		.4byte	.LVL110
 4290 00f3 0200     		.2byte	0x2
 4291 00f5 34       		.byte	0x34
 4292 00f6 9F       		.byte	0x9f
 4293 00f7 00000000 		.4byte	0
 4294 00fb 00000000 		.4byte	0
 4295              	.LLST5:
 4296 00ff 22000000 		.4byte	.LVL13
 4297 0103 24000000 		.4byte	.LVL14
 4298 0107 0100     		.2byte	0x1
 4299 0109 50       		.byte	0x50
 4300 010a 24000000 		.4byte	.LVL14
 4301 010e 38000000 		.4byte	.LVL17
 4302 0112 0100     		.2byte	0x1
 4303 0114 54       		.byte	0x54
 4304 0115 38000000 		.4byte	.LVL17
 4305 0119 44000000 		.4byte	.LVL19
 4306 011d 0100     		.2byte	0x1
 4307 011f 50       		.byte	0x50
 4308 0120 44000000 		.4byte	.LVL19
 4309 0124 44040000 		.4byte	.LFE67
 4310 0128 0100     		.2byte	0x1
 4311 012a 54       		.byte	0x54
 4312 012b 00000000 		.4byte	0
 4313 012f 00000000 		.4byte	0
 4314              	.LLST6:
 4315 0133 10000000 		.4byte	.LVL10
 4316 0137 18000000 		.4byte	.LVL11
 4317 013b 0200     		.2byte	0x2
 4318 013d 30       		.byte	0x30
 4319 013e 9F       		.byte	0x9f
 4320 013f 18000000 		.4byte	.LVL11
 4321 0143 3A000000 		.4byte	.LVL18
 4322 0147 0100     		.2byte	0x1
ARM GAS  /tmp/ccU5nDRe.s 			page 78


 4323 0149 55       		.byte	0x55
 4324 014a 9C000000 		.4byte	.LVL24
 4325 014e 9E000000 		.4byte	.LVL25
 4326 0152 0100     		.2byte	0x1
 4327 0154 55       		.byte	0x55
 4328 0155 A2000000 		.4byte	.LVL26
 4329 0159 B4000000 		.4byte	.LVL28
 4330 015d 0100     		.2byte	0x1
 4331 015f 55       		.byte	0x55
 4332 0160 FA000000 		.4byte	.LVL29
 4333 0164 1A010000 		.4byte	.LVL31
 4334 0168 0200     		.2byte	0x2
 4335 016a 30       		.byte	0x30
 4336 016b 9F       		.byte	0x9f
 4337 016c 4C020000 		.4byte	.LVL62
 4338 0170 64020000 		.4byte	.LVL65
 4339 0174 0200     		.2byte	0x2
 4340 0176 30       		.byte	0x30
 4341 0177 9F       		.byte	0x9f
 4342 0178 D6020000 		.4byte	.LVL82
 4343 017c D8020000 		.4byte	.LVL83
 4344 0180 0200     		.2byte	0x2
 4345 0182 30       		.byte	0x30
 4346 0183 9F       		.byte	0x9f
 4347 0184 DC020000 		.4byte	.LVL85
 4348 0188 4C030000 		.4byte	.LVL91
 4349 018c 0200     		.2byte	0x2
 4350 018e 30       		.byte	0x30
 4351 018f 9F       		.byte	0x9f
 4352 0190 CA030000 		.4byte	.LVL107
 4353 0194 E4030000 		.4byte	.LVL110
 4354 0198 0200     		.2byte	0x2
 4355 019a 30       		.byte	0x30
 4356 019b 9F       		.byte	0x9f
 4357 019c 00000000 		.4byte	0
 4358 01a0 00000000 		.4byte	0
 4359              	.LLST7:
 4360 01a4 44010000 		.4byte	.LVL35
 4361 01a8 48010000 		.4byte	.LVL36
 4362 01ac 0100     		.2byte	0x1
 4363 01ae 53       		.byte	0x53
 4364 01af 62010000 		.4byte	.LVL39
 4365 01b3 66010000 		.4byte	.LVL40
 4366 01b7 0100     		.2byte	0x1
 4367 01b9 53       		.byte	0x53
 4368 01ba 66010000 		.4byte	.LVL40
 4369 01be 70010000 		.4byte	.LVL42
 4370 01c2 0B00     		.2byte	0xb
 4371 01c4 71       		.byte	0x71
 4372 01c5 00       		.sleb128 0
 4373 01c6 94       		.byte	0x94
 4374 01c7 01       		.byte	0x1
 4375 01c8 08       		.byte	0x8
 4376 01c9 FF       		.byte	0xff
 4377 01ca 1A       		.byte	0x1a
 4378 01cb 08       		.byte	0x8
 4379 01cc 31       		.byte	0x31
ARM GAS  /tmp/ccU5nDRe.s 			page 79


 4380 01cd 1C       		.byte	0x1c
 4381 01ce 9F       		.byte	0x9f
 4382 01cf 66020000 		.4byte	.LVL66
 4383 01d3 68020000 		.4byte	.LVL67
 4384 01d7 0100     		.2byte	0x1
 4385 01d9 53       		.byte	0x53
 4386 01da 00000000 		.4byte	0
 4387 01de 00000000 		.4byte	0
 4388              	.LLST8:
 4389 01e2 3A010000 		.4byte	.LVL33
 4390 01e6 42010000 		.4byte	.LVL34
 4391 01ea 0200     		.2byte	0x2
 4392 01ec 30       		.byte	0x30
 4393 01ed 9F       		.byte	0x9f
 4394 01ee 50010000 		.4byte	.LVL37
 4395 01f2 52010000 		.4byte	.LVL38
 4396 01f6 0100     		.2byte	0x1
 4397 01f8 50       		.byte	0x50
 4398 01f9 6E010000 		.4byte	.LVL41
 4399 01fd 73010000 		.4byte	.LVL43-1
 4400 0201 0100     		.2byte	0x1
 4401 0203 50       		.byte	0x50
 4402 0204 00000000 		.4byte	0
 4403 0208 00000000 		.4byte	0
 4404              	.LLST9:
 4405 020c 3A010000 		.4byte	.LVL33
 4406 0210 42010000 		.4byte	.LVL34
 4407 0214 0200     		.2byte	0x2
 4408 0216 30       		.byte	0x30
 4409 0217 9F       		.byte	0x9f
 4410 0218 00000000 		.4byte	0
 4411 021c 00000000 		.4byte	0
 4412              	.LLST10:
 4413 0220 FA000000 		.4byte	.LVL29
 4414 0224 15010000 		.4byte	.LVL30-1
 4415 0228 0500     		.2byte	0x5
 4416 022a 03       		.byte	0x3
 4417 022b 00000000 		.4byte	input_buffer
 4418 022f 4C020000 		.4byte	.LVL62
 4419 0233 53020000 		.4byte	.LVL63-1
 4420 0237 0500     		.2byte	0x5
 4421 0239 03       		.byte	0x3
 4422 023a 00000000 		.4byte	input_buffer
 4423 023e DC020000 		.4byte	.LVL85
 4424 0242 E3020000 		.4byte	.LVL86-1
 4425 0246 0500     		.2byte	0x5
 4426 0248 03       		.byte	0x3
 4427 0249 00000000 		.4byte	input_buffer
 4428 024d 34030000 		.4byte	.LVL88
 4429 0251 3B030000 		.4byte	.LVL89-1
 4430 0255 0500     		.2byte	0x5
 4431 0257 03       		.byte	0x3
 4432 0258 00000000 		.4byte	input_buffer
 4433 025c CA030000 		.4byte	.LVL107
 4434 0260 D3030000 		.4byte	.LVL108-1
 4435 0264 0500     		.2byte	0x5
 4436 0266 03       		.byte	0x3
ARM GAS  /tmp/ccU5nDRe.s 			page 80


 4437 0267 00000000 		.4byte	input_buffer
 4438 026b 00000000 		.4byte	0
 4439 026f 00000000 		.4byte	0
 4440              	.LLST11:
 4441 0273 AE010000 		.4byte	.LVL48
 4442 0277 C8010000 		.4byte	.LVL49
 4443 027b 0200     		.2byte	0x2
 4444 027d 30       		.byte	0x30
 4445 027e 9F       		.byte	0x9f
 4446 027f D6010000 		.4byte	.LVL50
 4447 0283 38020000 		.4byte	.LVL59
 4448 0287 0100     		.2byte	0x1
 4449 0289 58       		.byte	0x58
 4450 028a EE030000 		.4byte	.LVL112
 4451 028e 44040000 		.4byte	.LFE67
 4452 0292 0200     		.2byte	0x2
 4453 0294 30       		.byte	0x30
 4454 0295 9F       		.byte	0x9f
 4455 0296 00000000 		.4byte	0
 4456 029a 00000000 		.4byte	0
 4457              	.LLST12:
 4458 029e 94010000 		.4byte	.LVL45
 4459 02a2 9C010000 		.4byte	.LVL46
 4460 02a6 0200     		.2byte	0x2
 4461 02a8 31       		.byte	0x31
 4462 02a9 9F       		.byte	0x9f
 4463 02aa AA010000 		.4byte	.LVL47
 4464 02ae E5010000 		.4byte	.LVL52-1
 4465 02b2 0100     		.2byte	0x1
 4466 02b4 53       		.byte	0x53
 4467 02b5 EE030000 		.4byte	.LVL112
 4468 02b9 F7030000 		.4byte	.LVL113-1
 4469 02bd 0100     		.2byte	0x1
 4470 02bf 53       		.byte	0x53
 4471 02c0 00000000 		.4byte	0
 4472 02c4 00000000 		.4byte	0
 4473              	.LLST13:
 4474 02c8 94010000 		.4byte	.LVL45
 4475 02cc 9C010000 		.4byte	.LVL46
 4476 02d0 0200     		.2byte	0x2
 4477 02d2 30       		.byte	0x30
 4478 02d3 9F       		.byte	0x9f
 4479 02d4 AA010000 		.4byte	.LVL47
 4480 02d8 AE010000 		.4byte	.LVL48
 4481 02dc 0100     		.2byte	0x1
 4482 02de 58       		.byte	0x58
 4483 02df AE010000 		.4byte	.LVL48
 4484 02e3 C8010000 		.4byte	.LVL49
 4485 02e7 0200     		.2byte	0x2
 4486 02e9 30       		.byte	0x30
 4487 02ea 9F       		.byte	0x9f
 4488 02eb 02020000 		.4byte	.LVL55
 4489 02ef 0E020000 		.4byte	.LVL56
 4490 02f3 0200     		.2byte	0x2
 4491 02f5 30       		.byte	0x30
 4492 02f6 9F       		.byte	0x9f
 4493 02f7 32020000 		.4byte	.LVL58
ARM GAS  /tmp/ccU5nDRe.s 			page 81


 4494 02fb 38020000 		.4byte	.LVL59
 4495 02ff 0100     		.2byte	0x1
 4496 0301 59       		.byte	0x59
 4497 0302 EE030000 		.4byte	.LVL112
 4498 0306 44040000 		.4byte	.LFE67
 4499 030a 0200     		.2byte	0x2
 4500 030c 30       		.byte	0x30
 4501 030d 9F       		.byte	0x9f
 4502 030e 00000000 		.4byte	0
 4503 0312 00000000 		.4byte	0
 4504              	.LLST14:
 4505 0316 9E020000 		.4byte	.LVL73
 4506 031a A2020000 		.4byte	.LVL74
 4507 031e 0100     		.2byte	0x1
 4508 0320 53       		.byte	0x53
 4509 0321 BA020000 		.4byte	.LVL77
 4510 0325 BE020000 		.4byte	.LVL78
 4511 0329 0100     		.2byte	0x1
 4512 032b 53       		.byte	0x53
 4513 032c BE020000 		.4byte	.LVL78
 4514 0330 C8020000 		.4byte	.LVL80
 4515 0334 0B00     		.2byte	0xb
 4516 0336 71       		.byte	0x71
 4517 0337 00       		.sleb128 0
 4518 0338 94       		.byte	0x94
 4519 0339 01       		.byte	0x1
 4520 033a 08       		.byte	0x8
 4521 033b FF       		.byte	0xff
 4522 033c 1A       		.byte	0x1a
 4523 033d 08       		.byte	0x8
 4524 033e 31       		.byte	0x31
 4525 033f 1C       		.byte	0x1c
 4526 0340 9F       		.byte	0x9f
 4527 0341 DA020000 		.4byte	.LVL84
 4528 0345 DC020000 		.4byte	.LVL85
 4529 0349 0100     		.2byte	0x1
 4530 034b 53       		.byte	0x53
 4531 034c 00000000 		.4byte	0
 4532 0350 00000000 		.4byte	0
 4533              	.LLST15:
 4534 0354 94020000 		.4byte	.LVL71
 4535 0358 9C020000 		.4byte	.LVL72
 4536 035c 0200     		.2byte	0x2
 4537 035e 30       		.byte	0x30
 4538 035f 9F       		.byte	0x9f
 4539 0360 AA020000 		.4byte	.LVL75
 4540 0364 AC020000 		.4byte	.LVL76
 4541 0368 0100     		.2byte	0x1
 4542 036a 50       		.byte	0x50
 4543 036b C6020000 		.4byte	.LVL79
 4544 036f CF020000 		.4byte	.LVL81-1
 4545 0373 0100     		.2byte	0x1
 4546 0375 50       		.byte	0x50
 4547 0376 00000000 		.4byte	0
 4548 037a 00000000 		.4byte	0
 4549              	.LLST16:
 4550 037e 94020000 		.4byte	.LVL71
ARM GAS  /tmp/ccU5nDRe.s 			page 82


 4551 0382 9C020000 		.4byte	.LVL72
 4552 0386 0200     		.2byte	0x2
 4553 0388 30       		.byte	0x30
 4554 0389 9F       		.byte	0x9f
 4555 038a 00000000 		.4byte	0
 4556 038e 00000000 		.4byte	0
 4557              	.LLST17:
 4558 0392 64030000 		.4byte	.LVL94
 4559 0396 7C030000 		.4byte	.LVL95
 4560 039a 0200     		.2byte	0x2
 4561 039c 30       		.byte	0x30
 4562 039d 9F       		.byte	0x9f
 4563 039e 8A030000 		.4byte	.LVL96
 4564 03a2 90030000 		.4byte	.LVL98
 4565 03a6 0100     		.2byte	0x1
 4566 03a8 58       		.byte	0x58
 4567 03a9 E6030000 		.4byte	.LVL111
 4568 03ad EE030000 		.4byte	.LVL112
 4569 03b1 0200     		.2byte	0x2
 4570 03b3 30       		.byte	0x30
 4571 03b4 9F       		.byte	0x9f
 4572 03b5 00000000 		.4byte	0
 4573 03b9 00000000 		.4byte	0
 4574              	.LLST18:
 4575 03bd 4C030000 		.4byte	.LVL91
 4576 03c1 56030000 		.4byte	.LVL92
 4577 03c5 0200     		.2byte	0x2
 4578 03c7 31       		.byte	0x31
 4579 03c8 9F       		.byte	0x9f
 4580 03c9 60030000 		.4byte	.LVL93
 4581 03cd 92030000 		.4byte	.LVL99
 4582 03d1 0100     		.2byte	0x1
 4583 03d3 53       		.byte	0x53
 4584 03d4 E4030000 		.4byte	.LVL110
 4585 03d8 E6030000 		.4byte	.LVL111
 4586 03dc 0200     		.2byte	0x2
 4587 03de 31       		.byte	0x31
 4588 03df 9F       		.byte	0x9f
 4589 03e0 E6030000 		.4byte	.LVL111
 4590 03e4 EE030000 		.4byte	.LVL112
 4591 03e8 0100     		.2byte	0x1
 4592 03ea 53       		.byte	0x53
 4593 03eb 00000000 		.4byte	0
 4594 03ef 00000000 		.4byte	0
 4595              	.LLST19:
 4596 03f3 4C030000 		.4byte	.LVL91
 4597 03f7 56030000 		.4byte	.LVL92
 4598 03fb 0200     		.2byte	0x2
 4599 03fd 30       		.byte	0x30
 4600 03fe 9F       		.byte	0x9f
 4601 03ff 60030000 		.4byte	.LVL93
 4602 0403 64030000 		.4byte	.LVL94
 4603 0407 0100     		.2byte	0x1
 4604 0409 52       		.byte	0x52
 4605 040a 64030000 		.4byte	.LVL94
 4606 040e 7C030000 		.4byte	.LVL95
 4607 0412 0200     		.2byte	0x2
ARM GAS  /tmp/ccU5nDRe.s 			page 83


 4608 0414 30       		.byte	0x30
 4609 0415 9F       		.byte	0x9f
 4610 0416 90030000 		.4byte	.LVL98
 4611 041a 94030000 		.4byte	.LVL100
 4612 041e 0200     		.2byte	0x2
 4613 0420 30       		.byte	0x30
 4614 0421 9F       		.byte	0x9f
 4615 0422 9A030000 		.4byte	.LVL101
 4616 0426 A4030000 		.4byte	.LVL102
 4617 042a 0100     		.2byte	0x1
 4618 042c 52       		.byte	0x52
 4619 042d A4030000 		.4byte	.LVL102
 4620 0431 A7030000 		.4byte	.LVL103-1
 4621 0435 0100     		.2byte	0x1
 4622 0437 53       		.byte	0x53
 4623 0438 E4030000 		.4byte	.LVL110
 4624 043c EE030000 		.4byte	.LVL112
 4625 0440 0200     		.2byte	0x2
 4626 0442 30       		.byte	0x30
 4627 0443 9F       		.byte	0x9f
 4628 0444 00000000 		.4byte	0
 4629 0448 00000000 		.4byte	0
 4630              		.section	.debug_aranges,"",%progbits
 4631 0000 24000000 		.4byte	0x24
 4632 0004 0200     		.2byte	0x2
 4633 0006 00000000 		.4byte	.Ldebug_info0
 4634 000a 04       		.byte	0x4
 4635 000b 00       		.byte	0
 4636 000c 0000     		.2byte	0
 4637 000e 0000     		.2byte	0
 4638 0010 00000000 		.4byte	.LFB62
 4639 0014 5C000000 		.4byte	.LFE62-.LFB62
 4640 0018 00000000 		.4byte	.LFB67
 4641 001c 44040000 		.4byte	.LFE67-.LFB67
 4642 0020 00000000 		.4byte	0
 4643 0024 00000000 		.4byte	0
 4644              		.section	.debug_ranges,"",%progbits
 4645              	.Ldebug_ranges0:
 4646 0000 16000000 		.4byte	.LBB15
 4647 0004 18000000 		.4byte	.LBE15
 4648 0008 24010000 		.4byte	.LBB25
 4649 000c 3C010000 		.4byte	.LBE25
 4650 0010 42010000 		.4byte	.LBB26
 4651 0014 8A010000 		.4byte	.LBE26
 4652 0018 64020000 		.4byte	.LBB29
 4653 001c 68020000 		.4byte	.LBE29
 4654 0020 00000000 		.4byte	0
 4655 0024 00000000 		.4byte	0
 4656 0028 F6000000 		.4byte	.LBB16
 4657 002c 1A010000 		.4byte	.LBE16
 4658 0030 4C020000 		.4byte	.LBB28
 4659 0034 64020000 		.4byte	.LBE28
 4660 0038 DC020000 		.4byte	.LBB32
 4661 003c 4C030000 		.4byte	.LBE32
 4662 0040 CA030000 		.4byte	.LBB34
 4663 0044 E4030000 		.4byte	.LBE34
 4664 0048 00000000 		.4byte	0
ARM GAS  /tmp/ccU5nDRe.s 			page 84


 4665 004c 00000000 		.4byte	0
 4666 0050 94010000 		.4byte	.LBB27
 4667 0054 4C020000 		.4byte	.LBE27
 4668 0058 EE030000 		.4byte	.LBB36
 4669 005c 44040000 		.4byte	.LBE36
 4670 0060 00000000 		.4byte	0
 4671 0064 00000000 		.4byte	0
 4672 0068 68020000 		.4byte	.LBB30
 4673 006c 96020000 		.4byte	.LBE30
 4674 0070 9C020000 		.4byte	.LBB31
 4675 0074 DC020000 		.4byte	.LBE31
 4676 0078 00000000 		.4byte	0
 4677 007c 00000000 		.4byte	0
 4678 0080 4C030000 		.4byte	.LBB33
 4679 0084 CA030000 		.4byte	.LBE33
 4680 0088 E4030000 		.4byte	.LBB35
 4681 008c EE030000 		.4byte	.LBE35
 4682 0090 00000000 		.4byte	0
 4683 0094 00000000 		.4byte	0
 4684 0098 00000000 		.4byte	.LFB62
 4685 009c 5C000000 		.4byte	.LFE62
 4686 00a0 00000000 		.4byte	.LFB67
 4687 00a4 44040000 		.4byte	.LFE67
 4688 00a8 00000000 		.4byte	0
 4689 00ac 00000000 		.4byte	0
 4690              		.section	.debug_line,"",%progbits
 4691              	.Ldebug_line0:
 4692 0000 09050000 		.section	.debug_str,"MS",%progbits,1
 4692      0200D402 
 4692      00000201 
 4692      FB0E0D00 
 4692      01010101 
 4693              	.LASF14:
 4694 0000 75696E74 		.ascii	"uint_fast16_t\000"
 4694      5F666173 
 4694      7431365F 
 4694      7400
 4695              	.LASF43:
 4696 000e 54687265 		.ascii	"ThreadsList\000"
 4696      6164734C 
 4696      69737400 
 4697              	.LASF35:
 4698 001a 705F7761 		.ascii	"p_waiting\000"
 4698      6974696E 
 4698      6700
 4699              	.LASF107:
 4700 0024 53657269 		.ascii	"SerialDriver\000"
 4700      616C4472 
 4700      69766572 
 4700      00
 4701              	.LASF34:
 4702 0031 705F7469 		.ascii	"p_time\000"
 4702      6D6500
 4703              	.LASF97:
 4704 0038 42535252 		.ascii	"BSRR\000"
 4704      00
 4705              	.LASF44:
ARM GAS  /tmp/ccU5nDRe.s 			page 85


 4706 003d 72656761 		.ascii	"regarm_t\000"
 4706      726D5F74 
 4706      00
 4707              	.LASF26:
 4708 0046 705F7072 		.ascii	"p_prio\000"
 4708      696F00
 4709              	.LASF109:
 4710 004d 666C6167 		.ascii	"flags\000"
 4710      7300
 4711              	.LASF22:
 4712 0053 73797374 		.ascii	"systime_t\000"
 4712      696D655F 
 4712      7400
 4713              	.LASF130:
 4714 005d 6D756C74 		.ascii	"mult\000"
 4714      00
 4715              	.LASF145:
 4716 0062 666C6173 		.ascii	"flashReadBytes\000"
 4716      68526561 
 4716      64427974 
 4716      657300
 4717              	.LASF50:
 4718 0071 6D5F6F77 		.ascii	"m_owner\000"
 4718      6E657200 
 4719              	.LASF36:
 4720 0079 705F6D73 		.ascii	"p_msgqueue\000"
 4720      67717565 
 4720      756500
 4721              	.LASF0:
 4722 0084 756E7369 		.ascii	"unsigned int\000"
 4722      676E6564 
 4722      20696E74 
 4722      00
 4723              	.LASF142:
 4724 0091 63684951 		.ascii	"chIQReadTimeout\000"
 4724      52656164 
 4724      54696D65 
 4724      6F757400 
 4725              	.LASF69:
 4726 00a1 715F7264 		.ascii	"q_rdptr\000"
 4726      70747200 
 4727              	.LASF71:
 4728 00a9 716E6F74 		.ascii	"qnotify_t\000"
 4728      6966795F 
 4728      7400
 4729              	.LASF55:
 4730 00b3 656C5F6D 		.ascii	"el_mask\000"
 4730      61736B00 
 4731              	.LASF124:
 4732 00bb 6576656E 		.ascii	"events\000"
 4732      747300
 4733              	.LASF60:
 4734 00c2 77746F62 		.ascii	"wtobjp\000"
 4734      6A7000
 4735              	.LASF134:
 4736 00c9 52455350 		.ascii	"RESP_OK\000"
 4736      5F4F4B00 
ARM GAS  /tmp/ccU5nDRe.s 			page 86


 4737              	.LASF61:
 4738 00d1 65776D61 		.ascii	"ewmask\000"
 4738      736B00
 4739              	.LASF79:
 4740 00d8 77726974 		.ascii	"writet\000"
 4740      657400
 4741              	.LASF74:
 4742 00df 42617365 		.ascii	"BaseChannelVMT\000"
 4742      4368616E 
 4742      6E656C56 
 4742      4D5400
 4743              	.LASF89:
 4744 00ee 47545052 		.ascii	"GTPR\000"
 4744      00
 4745              	.LASF111:
 4746 00f3 69717565 		.ascii	"iqueue\000"
 4746      756500
 4747              	.LASF10:
 4748 00fa 75696E74 		.ascii	"uint32_t\000"
 4748      33325F74 
 4748      00
 4749              	.LASF21:
 4750 0103 6576656E 		.ascii	"eventmask_t\000"
 4750      746D6173 
 4750      6B5F7400 
 4751              	.LASF149:
 4752 010f 474E5520 		.ascii	"GNU C 4.7.2\000"
 4752      4320342E 
 4752      372E3200 
 4753              	.LASF106:
 4754 011b 73647374 		.ascii	"sdstate_t\000"
 4754      6174655F 
 4754      7400
 4755              	.LASF108:
 4756 0125 6576656E 		.ascii	"event\000"
 4756      7400
 4757              	.LASF19:
 4758 012b 74707269 		.ascii	"tprio_t\000"
 4758      6F5F7400 
 4759              	.LASF13:
 4760 0133 6C6F6E67 		.ascii	"long long unsigned int\000"
 4760      206C6F6E 
 4760      6720756E 
 4760      7369676E 
 4760      65642069 
 4761              	.LASF138:
 4762 014a 63684F51 		.ascii	"chOQWriteTimeout\000"
 4762      57726974 
 4762      6554696D 
 4762      656F7574 
 4762      00
 4763              	.LASF122:
 4764 015b 72656164 		.ascii	"read_buffer\000"
 4764      5F627566 
 4764      66657200 
 4765              	.LASF117:
 4766 0167 73686F77 		.ascii	"showReadBytePrompt\000"
ARM GAS  /tmp/ccU5nDRe.s 			page 87


 4766      52656164 
 4766      42797465 
 4766      50726F6D 
 4766      707400
 4767              	.LASF93:
 4768 017a 4D4F4445 		.ascii	"MODER\000"
 4768      5200
 4769              	.LASF100:
 4770 0180 41465248 		.ascii	"AFRH\000"
 4770      00
 4771              	.LASF99:
 4772 0185 4146524C 		.ascii	"AFRL\000"
 4772      00
 4773              	.LASF28:
 4774 018a 705F6E65 		.ascii	"p_newer\000"
 4774      77657200 
 4775              	.LASF92:
 4776 0192 636C6561 		.ascii	"clear\000"
 4776      7200
 4777              	.LASF64:
 4778 0198 715F7761 		.ascii	"q_waiting\000"
 4778      6974696E 
 4778      6700
 4779              	.LASF82:
 4780 01a2 696F666C 		.ascii	"ioflags_t\000"
 4780      6167735F 
 4780      7400
 4781              	.LASF56:
 4782 01ac 4576656E 		.ascii	"EventSource\000"
 4782      74536F75 
 4782      72636500 
 4783              	.LASF2:
 4784 01b8 73697A65 		.ascii	"size_t\000"
 4784      5F7400
 4785              	.LASF58:
 4786 01bf 7264796D 		.ascii	"rdymsg\000"
 4786      736700
 4787              	.LASF15:
 4788 01c6 626F6F6C 		.ascii	"bool_t\000"
 4788      5F7400
 4789              	.LASF104:
 4790 01cd 53445F53 		.ascii	"SD_STOP\000"
 4790      544F5000 
 4791              	.LASF129:
 4792 01d5 62797465 		.ascii	"bytes\000"
 4792      7300
 4793              	.LASF91:
 4794 01db 55534152 		.ascii	"USART_TypeDef\000"
 4794      545F5479 
 4794      70654465 
 4794      6600
 4795              	.LASF48:
 4796 01e9 4D757465 		.ascii	"Mutex\000"
 4796      7800
 4797              	.LASF73:
 4798 01ef 4F757470 		.ascii	"OutputQueue\000"
 4798      75745175 
ARM GAS  /tmp/ccU5nDRe.s 			page 88


 4798      65756500 
 4799              	.LASF70:
 4800 01fb 715F6E6F 		.ascii	"q_notify\000"
 4800      74696679 
 4800      00
 4801              	.LASF140:
 4802 0204 63687072 		.ascii	"chprintf\000"
 4802      696E7466 
 4802      00
 4803              	.LASF144:
 4804 020d 666C6173 		.ascii	"flashWriteByte\000"
 4804      68577269 
 4804      74654279 
 4804      746500
 4805              	.LASF96:
 4806 021c 50555044 		.ascii	"PUPDR\000"
 4806      5200
 4807              	.LASF30:
 4808 0222 705F6E61 		.ascii	"p_name\000"
 4808      6D6500
 4809              	.LASF132:
 4810 0229 434D445F 		.ascii	"CMD_TELEMETRY\000"
 4810      54454C45 
 4810      4D455452 
 4810      5900
 4811              	.LASF72:
 4812 0237 496E7075 		.ascii	"InputQueue\000"
 4812      74517565 
 4812      756500
 4813              	.LASF42:
 4814 0242 54687265 		.ascii	"ThreadsQueue\000"
 4814      61647351 
 4814      75657565 
 4814      00
 4815              	.LASF131:
 4816 024f 434D445F 		.ascii	"CMD_TAKE_PIC\000"
 4816      54414B45 
 4816      5F504943 
 4816      00
 4817              	.LASF62:
 4818 025c 63686172 		.ascii	"char\000"
 4818      00
 4819              	.LASF120:
 4820 0261 73657269 		.ascii	"serial_events\000"
 4820      616C5F65 
 4820      76656E74 
 4820      7300
 4821              	.LASF68:
 4822 026f 715F7772 		.ascii	"q_wrptr\000"
 4822      70747200 
 4823              	.LASF23:
 4824 0277 54687265 		.ascii	"Thread\000"
 4824      616400
 4825              	.LASF17:
 4826 027e 74737461 		.ascii	"tstate_t\000"
 4826      74655F74 
 4826      00
ARM GAS  /tmp/ccU5nDRe.s 			page 89


 4827              	.LASF123:
 4828 0287 6D795541 		.ascii	"myUART_state\000"
 4828      52545F73 
 4828      74617465 
 4828      00
 4829              	.LASF29:
 4830 0294 705F6F6C 		.ascii	"p_older\000"
 4830      64657200 
 4831              	.LASF31:
 4832 029c 705F7374 		.ascii	"p_state\000"
 4832      61746500 
 4833              	.LASF3:
 4834 02a4 75696E74 		.ascii	"uint8_t\000"
 4834      385F7400 
 4835              	.LASF81:
 4836 02ac 42617365 		.ascii	"BaseChannel\000"
 4836      4368616E 
 4836      6E656C00 
 4837              	.LASF116:
 4838 02b8 73686F77 		.ascii	"showWriteBytePrompt\000"
 4838      57726974 
 4838      65427974 
 4838      6550726F 
 4838      6D707400 
 4839              	.LASF41:
 4840 02cc 705F6D70 		.ascii	"p_mpool\000"
 4840      6F6F6C00 
 4841              	.LASF39:
 4842 02d4 705F6D74 		.ascii	"p_mtxlist\000"
 4842      786C6973 
 4842      7400
 4843              	.LASF135:
 4844 02de 52455350 		.ascii	"RESP_RX_ERR\000"
 4844      5F52585F 
 4844      45525200 
 4845              	.LASF113:
 4846 02ea 75736172 		.ascii	"usart\000"
 4846      7400
 4847              	.LASF12:
 4848 02f0 6C6F6E67 		.ascii	"long long int\000"
 4848      206C6F6E 
 4848      6720696E 
 4848      7400
 4849              	.LASF153:
 4850 02fe 55415254 		.ascii	"UART_Thread\000"
 4850      5F546872 
 4850      65616400 
 4851              	.LASF75:
 4852 030a 77726974 		.ascii	"write\000"
 4852      6500
 4853              	.LASF66:
 4854 0310 715F6275 		.ascii	"q_buffer\000"
 4854      66666572 
 4854      00
 4855              	.LASF118:
 4856 0319 73686F77 		.ascii	"showWriteBytesPrompt\000"
 4856      57726974 
ARM GAS  /tmp/ccU5nDRe.s 			page 90


 4856      65427974 
 4856      65735072 
 4856      6F6D7074 
 4857              	.LASF20:
 4858 032e 6D73675F 		.ascii	"msg_t\000"
 4858      7400
 4859              	.LASF151:
 4860 0334 2F686F6D 		.ascii	"/home/mitchd/Documents/FOX-1/amsat-fox/stm32l1-deve"
 4860      652F6D69 
 4860      74636864 
 4860      2F446F63 
 4860      756D656E 
 4861 0367 6C00     		.ascii	"l\000"
 4862              	.LASF46:
 4863 0369 636F6E74 		.ascii	"context\000"
 4863      65787400 
 4864              	.LASF32:
 4865 0371 705F666C 		.ascii	"p_flags\000"
 4865      61677300 
 4866              	.LASF119:
 4867 0379 73686F77 		.ascii	"showReadBytesPrompt\000"
 4867      52656164 
 4867      42797465 
 4867      7350726F 
 4867      6D707400 
 4868              	.LASF102:
 4869 038d 696F706F 		.ascii	"ioportmask_t\000"
 4869      72746D61 
 4869      736B5F74 
 4869      00
 4870              	.LASF115:
 4871 039a 67657466 		.ascii	"getflags\000"
 4871      6C616773 
 4871      00
 4872              	.LASF141:
 4873 03a3 666C6173 		.ascii	"flashErase\000"
 4873      68457261 
 4873      736500
 4874              	.LASF146:
 4875 03ae 63684576 		.ascii	"chEvtRegisterMask\000"
 4875      74526567 
 4875      69737465 
 4875      724D6173 
 4875      6B00
 4876              	.LASF128:
 4877 03c0 6F707469 		.ascii	"option\000"
 4877      6F6E00
 4878              	.LASF53:
 4879 03c7 656C5F6E 		.ascii	"el_next\000"
 4879      65787400 
 4880              	.LASF37:
 4881 03cf 705F6D73 		.ascii	"p_msg\000"
 4881      6700
 4882              	.LASF16:
 4883 03d5 746D6F64 		.ascii	"tmode_t\000"
 4883      655F7400 
 4884              	.LASF125:
ARM GAS  /tmp/ccU5nDRe.s 			page 91


 4885 03dd 696E7075 		.ascii	"input_pos\000"
 4885      745F706F 
 4885      7300
 4886              	.LASF95:
 4887 03e7 4F535045 		.ascii	"OSPEEDR\000"
 4887      45445200 
 4888              	.LASF63:
 4889 03ef 47656E65 		.ascii	"GenericQueue\000"
 4889      72696351 
 4889      75657565 
 4889      00
 4890              	.LASF127:
 4891 03fc 64657374 		.ascii	"dest32\000"
 4891      333200
 4892              	.LASF112:
 4893 0403 6F717565 		.ascii	"oqueue\000"
 4893      756500
 4894              	.LASF6:
 4895 040a 75696E74 		.ascii	"uint16_t\000"
 4895      31365F74 
 4895      00
 4896              	.LASF45:
 4897 0413 696E7463 		.ascii	"intctx\000"
 4897      747800
 4898              	.LASF150:
 4899 041a 2E2F7561 		.ascii	"./uart_iface/uart_iface.c\000"
 4899      72745F69 
 4899      66616365 
 4899      2F756172 
 4899      745F6966 
 4900              	.LASF105:
 4901 0434 53445F52 		.ascii	"SD_READY\000"
 4901      45414459 
 4901      00
 4902              	.LASF114:
 4903 043d 53657269 		.ascii	"SerialDriverVMT\000"
 4903      616C4472 
 4903      69766572 
 4903      564D5400 
 4904              	.LASF78:
 4905 044d 67657477 		.ascii	"getwouldblock\000"
 4905      6F756C64 
 4905      626C6F63 
 4905      6B00
 4906              	.LASF40:
 4907 045b 705F7265 		.ascii	"p_realprio\000"
 4907      616C7072 
 4907      696F00
 4908              	.LASF84:
 4909 0466 52455345 		.ascii	"RESERVED1\000"
 4909      52564544 
 4909      3100
 4910              	.LASF85:
 4911 0470 52455345 		.ascii	"RESERVED2\000"
 4911      52564544 
 4911      3200
 4912              	.LASF86:
ARM GAS  /tmp/ccU5nDRe.s 			page 92


 4913 047a 52455345 		.ascii	"RESERVED3\000"
 4913      52564544 
 4913      3300
 4914              	.LASF87:
 4915 0484 52455345 		.ascii	"RESERVED4\000"
 4915      52564544 
 4915      3400
 4916              	.LASF88:
 4917 048e 52455345 		.ascii	"RESERVED5\000"
 4917      52564544 
 4917      3500
 4918              	.LASF90:
 4919 0498 52455345 		.ascii	"RESERVED6\000"
 4919      52564544 
 4919      3600
 4920              	.LASF5:
 4921 04a2 73686F72 		.ascii	"short int\000"
 4921      7420696E 
 4921      7400
 4922              	.LASF38:
 4923 04ac 705F6570 		.ascii	"p_epending\000"
 4923      656E6469 
 4923      6E6700
 4924              	.LASF49:
 4925 04b7 6D5F7175 		.ascii	"m_queue\000"
 4925      65756500 
 4926              	.LASF9:
 4927 04bf 6C6F6E67 		.ascii	"long int\000"
 4927      20696E74 
 4927      00
 4928              	.LASF77:
 4929 04c8 70757477 		.ascii	"putwouldblock\000"
 4929      6F756C64 
 4929      626C6F63 
 4929      6B00
 4930              	.LASF152:
 4931 04d6 73686F77 		.ascii	"showMenu\000"
 4931      4D656E75 
 4931      00
 4932              	.LASF137:
 4933 04df 49544D5F 		.ascii	"ITM_RxBuffer\000"
 4933      52784275 
 4933      66666572 
 4933      00
 4934              	.LASF94:
 4935 04ec 4F545950 		.ascii	"OTYPER\000"
 4935      455200
 4936              	.LASF24:
 4937 04f3 705F6E65 		.ascii	"p_next\000"
 4937      787400
 4938              	.LASF139:
 4939 04fa 666C6173 		.ascii	"flashReadByte\000"
 4939      68526561 
 4939      64427974 
 4939      6500
 4940              	.LASF27:
 4941 0508 705F6374 		.ascii	"p_ctx\000"
ARM GAS  /tmp/ccU5nDRe.s 			page 93


 4941      7800
 4942              	.LASF80:
 4943 050e 72656164 		.ascii	"readt\000"
 4943      7400
 4944              	.LASF136:
 4945 0514 696E7075 		.ascii	"input_buffer\000"
 4945      745F6275 
 4945      66666572 
 4945      00
 4946              	.LASF76:
 4947 0521 72656164 		.ascii	"read\000"
 4947      00
 4948              	.LASF54:
 4949 0526 656C5F6C 		.ascii	"el_listener\000"
 4949      69737465 
 4949      6E657200 
 4950              	.LASF103:
 4951 0532 53445F55 		.ascii	"SD_UNINIT\000"
 4951      4E494E49 
 4951      5400
 4952              	.LASF101:
 4953 053c 4750494F 		.ascii	"GPIO_TypeDef\000"
 4953      5F547970 
 4953      65446566 
 4953      00
 4954              	.LASF65:
 4955 0549 715F636F 		.ascii	"q_counter\000"
 4955      756E7465 
 4955      7200
 4956              	.LASF67:
 4957 0553 715F746F 		.ascii	"q_top\000"
 4957      7000
 4958              	.LASF25:
 4959 0559 705F7072 		.ascii	"p_prev\000"
 4959      657600
 4960              	.LASF47:
 4961 0560 73697A65 		.ascii	"sizetype\000"
 4961      74797065 
 4961      00
 4962              	.LASF18:
 4963 0569 74726566 		.ascii	"trefs_t\000"
 4963      735F7400 
 4964              	.LASF52:
 4965 0571 4576656E 		.ascii	"EventListener\000"
 4965      744C6973 
 4965      74656E65 
 4965      7200
 4966              	.LASF11:
 4967 057f 6C6F6E67 		.ascii	"long unsigned int\000"
 4967      20756E73 
 4967      69676E65 
 4967      6420696E 
 4967      7400
 4968              	.LASF8:
 4969 0591 696E7433 		.ascii	"int32_t\000"
 4969      325F7400 
 4970              	.LASF4:
ARM GAS  /tmp/ccU5nDRe.s 			page 94


 4971 0599 756E7369 		.ascii	"unsigned char\000"
 4971      676E6564 
 4971      20636861 
 4971      7200
 4972              	.LASF33:
 4973 05a7 705F7265 		.ascii	"p_refs\000"
 4973      667300
 4974              	.LASF57:
 4975 05ae 65735F6E 		.ascii	"es_next\000"
 4975      65787400 
 4976              	.LASF133:
 4977 05b6 434D445F 		.ascii	"CMD_ABORT\000"
 4977      41424F52 
 4977      5400
 4978              	.LASF143:
 4979 05c0 666C6173 		.ascii	"flashWriteBytes\000"
 4979      68577269 
 4979      74654279 
 4979      74657300 
 4980              	.LASF110:
 4981 05d0 73746174 		.ascii	"state\000"
 4981      6500
 4982              	.LASF51:
 4983 05d6 6D5F6E65 		.ascii	"m_next\000"
 4983      787400
 4984              	.LASF1:
 4985 05dd 7369676E 		.ascii	"signed char\000"
 4985      65642063 
 4985      68617200 
 4986              	.LASF7:
 4987 05e9 73686F72 		.ascii	"short unsigned int\000"
 4987      7420756E 
 4987      7369676E 
 4987      65642069 
 4987      6E7400
 4988              	.LASF148:
 4989 05fc 63684576 		.ascii	"chEvtClearFlags\000"
 4989      74436C65 
 4989      6172466C 
 4989      61677300 
 4990              	.LASF83:
 4991 060c 52455345 		.ascii	"RESERVED0\000"
 4991      52564544 
 4991      3000
 4992              	.LASF147:
 4993 0616 63684576 		.ascii	"chEvtWaitOne\000"
 4993      74576169 
 4993      744F6E65 
 4993      00
 4994              	.LASF126:
 4995 0623 64657374 		.ascii	"dest\000"
 4995      00
 4996              	.LASF59:
 4997 0628 65786974 		.ascii	"exitcode\000"
 4997      636F6465 
 4997      00
 4998              	.LASF98:
ARM GAS  /tmp/ccU5nDRe.s 			page 95


 4999 0631 4C434B52 		.ascii	"LCKR\000"
 4999      00
 5000              	.LASF121:
 5001 0636 6D795541 		.ascii	"myUART_events\000"
 5001      52545F65 
 5001      76656E74 
 5001      7300
 5002              		.ident	"GCC: (GNU) 4.7.2"
ARM GAS  /tmp/ccU5nDRe.s 			page 96


DEFINED SYMBOLS
                            *ABS*:0000000000000000 uart_iface.c
     /tmp/ccU5nDRe.s:19     .text.showMenu:0000000000000000 $t
     /tmp/ccU5nDRe.s:24     .text.showMenu:0000000000000000 showMenu
     /tmp/ccU5nDRe.s:84     .text.showMenu:0000000000000040 $d
     /tmp/ccU5nDRe.s:95     .text.UART_Thread:0000000000000000 $t
     /tmp/ccU5nDRe.s:101    .text.UART_Thread:0000000000000000 UART_Thread
     /tmp/ccU5nDRe.s:699    .text.UART_Thread:00000000000002f4 $d
     /tmp/ccU5nDRe.s:722    .text.UART_Thread:0000000000000334 $t
     /tmp/ccU5nDRe.s:909    .text.UART_Thread:0000000000000418 $d
     /tmp/ccU5nDRe.s:925    .bss.input_buffer:0000000000000000 $d
     /tmp/ccU5nDRe.s:929    .bss.input_buffer:0000000000000000 input_buffer
     /tmp/ccU5nDRe.s:932    .rodata.str1.4:0000000000000000 $d
                     .debug_frame:0000000000000010 $d
     /tmp/ccU5nDRe.s:94     .text.showMenu:000000000000005c $t
     /tmp/ccU5nDRe.s:924    .text.UART_Thread:0000000000000444 $t

UNDEFINED SYMBOLS
chprintf
SD3
chEvtRegisterMask
chEvtWaitOne
chEvtClearFlags
chIQReadTimeout
chOQWriteTimeout
flashReadByte
flashErase
flashWriteBytes
flashWriteByte
flashReadBytes
