ARM GAS  /tmp/ccU5nDRe.s 			page 1


   1              		.syntax unified
   2              		.cpu cortex-m3
   3              		.fpu softvfp
   4              		.eabi_attribute 20, 1
   5              		.eabi_attribute 21, 1
   6              		.eabi_attribute 23, 3
   7              		.eabi_attribute 24, 1
   8              		.eabi_attribute 25, 1
   9              		.eabi_attribute 26, 1
  10              		.eabi_attribute 30, 2
  11              		.eabi_attribute 34, 1
  12              		.eabi_attribute 18, 4
  13              		.thumb
  14              		.file	"uart_iface.c"
  15              		.text
  16              	.Ltext0:
  17              		.cfi_sections	.debug_frame
  18              		.section	.text.showMenu,"ax",%progbits
  19              		.align	2
  20              		.p2align 4,,15
  21              		.thumb
  22              		.thumb_func
  23              		.type	showMenu, %function
  24              	showMenu:
  25              	.LFB62:
  26              		.file 1 "./uart_iface/uart_iface.c"
  27              		.loc 1 53 0
  28              		.cfi_startproc
  29              		@ args = 0, pretend = 0, frame = 0
  30              		@ frame_needed = 0, uses_anonymous_args = 0
  31              	.LVL0:
  32 0000 08B5     		push	{r3, lr}
  33              	.LCFI0:
  34              		.cfi_def_cfa_offset 8
  35              		.cfi_offset 3, -8
  36              		.cfi_offset 14, -4
  37 0002 0F48     		ldr	r0, .L5
  38              		.loc 1 54 0
  39 0004 0023     		movs	r3, #0
  40              		.loc 1 56 0
  41 0006 1946     		mov	r1, r3
  42              	.LVL1:
  43              	.L2:
  44              		.loc 1 55 0 discriminator 2
  45 0008 5A1C     		adds	r2, r3, #1
  46              		.loc 1 56 0 discriminator 2
  47 000a C154     		strb	r1, [r0, r3]
  48              		.loc 1 55 0 discriminator 2
  49 000c D3B2     		uxtb	r3, r2
  50              	.LVL2:
  51 000e 802B     		cmp	r3, #128
  52 0010 FAD1     		bne	.L2
  53              		.loc 1 57 0
  54 0012 0C48     		ldr	r0, .L5+4
  55 0014 0C49     		ldr	r1, .L5+8
  56 0016 FFF7FEFF 		bl	chprintf
  57              	.LVL3:
ARM GAS  /tmp/ccU5nDRe.s 			page 2


  58              		.loc 1 58 0
  59 001a 0A48     		ldr	r0, .L5+4
  60 001c 0B49     		ldr	r1, .L5+12
  61 001e FFF7FEFF 		bl	chprintf
  62              	.LVL4:
  63              		.loc 1 59 0
  64 0022 0848     		ldr	r0, .L5+4
  65 0024 0A49     		ldr	r1, .L5+16
  66 0026 FFF7FEFF 		bl	chprintf
  67              	.LVL5:
  68              		.loc 1 60 0
  69 002a 0648     		ldr	r0, .L5+4
  70 002c 0949     		ldr	r1, .L5+20
  71 002e FFF7FEFF 		bl	chprintf
  72              	.LVL6:
  73              		.loc 1 61 0
  74 0032 0448     		ldr	r0, .L5+4
  75 0034 0849     		ldr	r1, .L5+24
  76              		.loc 1 63 0
  77 0036 BDE80840 		pop	{r3, lr}
  78              		.loc 1 61 0
  79 003a FFF7FEBF 		b	chprintf
  80              	.LVL7:
  81              	.L6:
  82 003e 00BF     		.align	2
  83              	.L5:
  84 0040 00000000 		.word	.LANCHOR0
  85 0044 00000000 		.word	SD3
  86 0048 00000000 		.word	.LC0
  87 004c 18000000 		.word	.LC1
  88 0050 38000000 		.word	.LC2
  89 0054 58000000 		.word	.LC3
  90 0058 78000000 		.word	.LC4
  91              		.cfi_endproc
  92              	.LFE62:
  93              		.size	showMenu, .-showMenu
  94 005c AFF30080 		.section	.text.UART_Thread,"ax",%progbits
  95              		.align	2
  96              		.p2align 4,,15
  97              		.global	UART_Thread
  98              		.thumb
  99              		.thumb_func
 100              		.type	UART_Thread, %function
 101              	UART_Thread:
 102              	.LFB67:
 103              		.loc 1 125 0
 104              		.cfi_startproc
 105              		@ args = 0, pretend = 0, frame = 16
 106              		@ frame_needed = 0, uses_anonymous_args = 0
 107              	.LVL8:
 108 0000 2DE9F047 		push	{r4, r5, r6, r7, r8, r9, sl, lr}
 109              	.LCFI1:
 110              		.cfi_def_cfa_offset 32
 111              		.cfi_offset 4, -32
 112              		.cfi_offset 5, -28
 113              		.cfi_offset 6, -24
 114              		.cfi_offset 7, -20
ARM GAS  /tmp/ccU5nDRe.s 			page 3


 115              		.cfi_offset 8, -16
 116              		.cfi_offset 9, -12
 117              		.cfi_offset 10, -8
 118              		.cfi_offset 14, -4
 119 0004 84B0     		sub	sp, sp, #16
 120              	.LCFI2:
 121              		.cfi_def_cfa_offset 48
 122              		.loc 1 134 0
 123 0006 BB48     		ldr	r0, .L95
 124              	.LVL9:
 125 0008 01A9     		add	r1, sp, #4
 126 000a 8C22     		movs	r2, #140
 127 000c FFF7FEFF 		bl	chEvtRegisterMask
 128              	.LVL10:
 129 0010 B94E     		ldr	r6, .L95+4
 130              		.loc 1 201 0
 131 0012 0025     		movs	r5, #0
 132              		.loc 1 202 0
 133 0014 A946     		mov	r9, r5
 134              	.LBB15:
 135              		.loc 1 125 0
 136 0016 771D     		adds	r7, r6, #5
 137              	.LVL11:
 138              	.L73:
 139              	.LBE15:
 140              		.loc 1 205 0
 141 0018 8C20     		movs	r0, #140
 142 001a FFF7FEFF 		bl	chEvtWaitOne
 143              	.LVL12:
 144              		.loc 1 207 0
 145 001e 4207     		lsls	r2, r0, #29
 146              		.loc 1 205 0
 147 0020 0446     		mov	r4, r0
 148              	.LVL13:
 149              		.loc 1 207 0
 150 0022 0AD4     		bmi	.L78
 151              	.LVL14:
 152              	.L9:
 153              		.loc 1 391 0
 154 0024 2307     		lsls	r3, r4, #28
 155 0026 F7D5     		bpl	.L73
 156              		.loc 1 392 0
 157 0028 0820     		movs	r0, #8
 158 002a FFF7FEFF 		bl	chEvtClearFlags
 159              	.LVL15:
 160              		.loc 1 205 0
 161 002e 8C20     		movs	r0, #140
 162 0030 FFF7FEFF 		bl	chEvtWaitOne
 163              	.LVL16:
 164              		.loc 1 207 0
 165 0034 4207     		lsls	r2, r0, #29
 166              		.loc 1 205 0
 167 0036 0446     		mov	r4, r0
 168              	.LVL17:
 169              		.loc 1 207 0
 170 0038 F4D5     		bpl	.L9
 171              	.LVL18:
ARM GAS  /tmp/ccU5nDRe.s 			page 4


 172              	.L78:
 173              		.loc 1 209 0
 174 003a 0122     		movs	r2, #1
 175 003c 4FF0FF33 		mov	r3, #-1
 176 0040 6946     		mov	r1, sp
 177 0042 AE48     		ldr	r0, .L95+8
 178              	.LVL19:
 179 0044 FFF7FEFF 		bl	chIQReadTimeout
 180              	.LVL20:
 181              		.loc 1 210 0
 182 0048 0420     		movs	r0, #4
 183 004a FFF7FEFF 		bl	chEvtClearFlags
 184              	.LVL21:
 185              		.loc 1 211 0
 186 004e 9DF80030 		ldrb	r3, [sp, #0]	@ zero_extendqisi2
 187 0052 082B     		cmp	r3, #8
 188 0054 23D0     		beq	.L79
 189              		.loc 1 220 0
 190 0056 14F08008 		ands	r8, r4, #128
 191 005a 0BD0     		beq	.L11
 192              		.loc 1 223 0
 193 005c 4FF44063 		mov	r3, #3072
 194 0060 C4F20203 		movt	r3, 16386
 195 0064 5A69     		ldr	r2, [r3, #20]
 196              		.loc 1 224 0
 197 0066 8020     		movs	r0, #128
 198              		.loc 1 223 0
 199 0068 82F48042 		eor	r2, r2, #16384
 200 006c 5A61     		str	r2, [r3, #20]
 201              		.loc 1 224 0
 202 006e FFF7FEFF 		bl	chEvtClearFlags
 203              	.LVL22:
 204 0072 D7E7     		b	.L9
 205              	.L11:
 206              		.loc 1 227 0
 207 0074 A248     		ldr	r0, .L95+12
 208 0076 6946     		mov	r1, sp
 209 0078 0122     		movs	r2, #1
 210 007a 4346     		mov	r3, r8
 211 007c FFF7FEFF 		bl	chOQWriteTimeout
 212              	.LVL23:
 213              		.loc 1 234 0
 214 0080 B9F1000F 		cmp	r9, #0
 215 0084 16D1     		bne	.L12
 216              		.loc 1 235 0
 217 0086 9DF80030 		ldrb	r3, [sp, #0]	@ zero_extendqisi2
 218              		.loc 1 236 0
 219 008a 0D2B     		cmp	r3, #13
 220              		.loc 1 235 0
 221 008c 7355     		strb	r3, [r6, r5]
 222              		.loc 1 236 0
 223 008e 32D0     		beq	.L80
 224              		.loc 1 256 0
 225 0090 7F2D     		cmp	r5, #127
 226              		.loc 1 257 0
 227 0092 08BF     		it	eq
 228 0094 4D46     		moveq	r5, r9
ARM GAS  /tmp/ccU5nDRe.s 			page 5


 229              		.loc 1 256 0
 230 0096 C5D0     		beq	.L9
 231              	.L74:
 232              		.loc 1 385 0
 233 0098 0135     		adds	r5, r5, #1
 234 009a EDB2     		uxtb	r5, r5
 235              	.LVL24:
 236 009c C2E7     		b	.L9
 237              	.LVL25:
 238              	.L79:
 239              		.loc 1 212 0
 240 009e 013D     		subs	r5, r5, #1
 241 00a0 EDB2     		uxtb	r5, r5
 242              	.LVL26:
 243              		.loc 1 213 0
 244 00a2 FF2D     		cmp	r5, #255
 245 00a4 1AD0     		beq	.L54
 246              		.loc 1 217 0
 247 00a6 6946     		mov	r1, sp
 248 00a8 0122     		movs	r2, #1
 249 00aa 0023     		movs	r3, #0
 250 00ac 9448     		ldr	r0, .L95+12
 251 00ae FFF7FEFF 		bl	chOQWriteTimeout
 252              	.LVL27:
 253 00b2 B7E7     		b	.L9
 254              	.LVL28:
 255              	.L12:
 256              		.loc 1 262 0
 257 00b4 B9F1060F 		cmp	r9, #6
 258 00b8 12D0     		beq	.L81
 259              		.loc 1 294 0
 260 00ba B9F1070F 		cmp	r9, #7
 261 00be 2CD0     		beq	.L82
 262              		.loc 1 326 0
 263 00c0 B9F1040F 		cmp	r9, #4
 264 00c4 61D0     		beq	.L83
 265              		.loc 1 360 0
 266 00c6 B9F1050F 		cmp	r9, #5
 267 00ca ABD1     		bne	.L9
 268              		.loc 1 361 0
 269 00cc 9DF80030 		ldrb	r3, [sp, #0]	@ zero_extendqisi2
 270              		.loc 1 362 0
 271 00d0 0D2B     		cmp	r3, #13
 272              		.loc 1 361 0
 273 00d2 7355     		strb	r3, [r6, r5]
 274              		.loc 1 362 0
 275 00d4 00F03A81 		beq	.L84
 276              		.loc 1 381 0
 277 00d8 7F2D     		cmp	r5, #127
 278 00da DDD1     		bne	.L74
 279              	.L54:
 280              		.loc 1 382 0
 281 00dc 0025     		movs	r5, #0
 282 00de A1E7     		b	.L9
 283              	.L81:
 284              		.loc 1 263 0
 285 00e0 9DF80030 		ldrb	r3, [sp, #0]	@ zero_extendqisi2
ARM GAS  /tmp/ccU5nDRe.s 			page 6


 286              		.loc 1 264 0
 287 00e4 0D2B     		cmp	r3, #13
 288              		.loc 1 263 0
 289 00e6 7355     		strb	r3, [r6, r5]
 290              		.loc 1 264 0
 291 00e8 00F0BE80 		beq	.L85
 292              	.L31:
 293              		.loc 1 353 0
 294 00ec 7F2D     		cmp	r5, #127
 295              		.loc 1 354 0
 296 00ee 08BF     		it	eq
 297 00f0 4546     		moveq	r5, r8
 298              		.loc 1 353 0
 299 00f2 D1D1     		bne	.L74
 300 00f4 96E7     		b	.L9
 301              	.L80:
 302              	.LBB16:
 303              		.loc 1 237 0
 304 00f6 804B     		ldr	r3, .L95+4
 305 00f8 1B78     		ldrb	r3, [r3, #0]	@ zero_extendqisi2
 306              	.LVL29:
 307              		.loc 1 241 0
 308 00fa 312B     		cmp	r3, #49
 309 00fc 00F0EE80 		beq	.L86
 310              		.loc 1 244 0
 311 0100 322B     		cmp	r3, #50
 312 0102 00F01781 		beq	.L87
 313              		.loc 1 247 0
 314 0106 332B     		cmp	r3, #51
 315 0108 00F05F81 		beq	.L88
 316              		.loc 1 250 0
 317 010c 342B     		cmp	r3, #52
 318 010e 00F09D80 		beq	.L89
 319              		.loc 1 254 0
 320 0112 FFF7FEFF 		bl	showMenu
 321              	.LVL30:
 322              		.loc 1 240 0
 323 0116 4D46     		mov	r5, r9
 324 0118 84E7     		b	.L9
 325              	.LVL31:
 326              	.L82:
 327              	.LBE16:
 328              		.loc 1 295 0
 329 011a 9DF80030 		ldrb	r3, [sp, #0]	@ zero_extendqisi2
 330              		.loc 1 296 0
 331 011e 0D2B     		cmp	r3, #13
 332              		.loc 1 295 0
 333 0120 7355     		strb	r3, [r6, r5]
 334              		.loc 1 296 0
 335 0122 E3D1     		bne	.L31
 336              	.LBB25:
 337              		.loc 1 297 0
 338 0124 7748     		ldr	r0, .L95+16
 339 0126 7849     		ldr	r1, .L95+20
 340 0128 FFF7FEFF 		bl	chprintf
 341              	.LVL32:
 342              		.loc 1 298 0
ARM GAS  /tmp/ccU5nDRe.s 			page 7


 343 012c 7249     		ldr	r1, .L95+4
 344 012e 0622     		movs	r2, #6
 345 0130 7348     		ldr	r0, .L95+12
 346 0132 4FF0FF33 		mov	r3, #-1
 347 0136 FFF7FEFF 		bl	chOQWriteTimeout
 348              	.LVL33:
 349              		.loc 1 125 0
 350 013a 7449     		ldr	r1, .L95+24
 351              	.LBE25:
 352 013c 1422     		movs	r2, #20
 353              		.loc 1 301 0
 354 013e 4046     		mov	r0, r8
 355 0140 07E0     		b	.L29
 356              	.LVL34:
 357              	.L91:
 358              	.LBB26:
 359              		.loc 1 305 0
 360 0142 513B     		subs	r3, r3, #81
 361              	.LVL35:
 362              	.L27:
 363              		.loc 1 310 0
 364 0144 03FA02F3 		lsl	r3, r3, r2
 365              	.LVL36:
 366 0148 043A     		subs	r2, r2, #4
 367              		.loc 1 303 0
 368 014a B942     		cmp	r1, r7
 369              		.loc 1 310 0
 370 014c 40EA0300 		orr	r0, r0, r3
 371              	.LVL37:
 372              		.loc 1 303 0
 373 0150 0ED0     		beq	.L90
 374              	.LVL38:
 375              	.L29:
 376              		.loc 1 304 0
 377 0152 11F8013F 		ldrb	r3, [r1, #1]!	@ zero_extendqisi2
 378 0156 602B     		cmp	r3, #96
 379 0158 F3D8     		bhi	.L91
 380              		.loc 1 306 0
 381 015a 402B     		cmp	r3, #64
 382 015c 40F28280 		bls	.L28
 383              		.loc 1 307 0
 384 0160 313B     		subs	r3, r3, #49
 385              	.LVL39:
 386              		.loc 1 310 0
 387 0162 03FA02F3 		lsl	r3, r3, r2
 388              	.LVL40:
 389 0166 043A     		subs	r2, r2, #4
 390              		.loc 1 303 0
 391 0168 B942     		cmp	r1, r7
 392              		.loc 1 310 0
 393 016a 40EA0300 		orr	r0, r0, r3
 394              	.LVL41:
 395              		.loc 1 303 0
 396 016e F0D1     		bne	.L29
 397              	.LVL42:
 398              	.L90:
 399              		.loc 1 313 0
ARM GAS  /tmp/ccU5nDRe.s 			page 8


 400 0170 FFF7FEFF 		bl	flashReadByte
 401              	.LVL43:
 402              		.loc 1 314 0
 403 0174 6649     		ldr	r1, .L95+28
 404              		.loc 1 313 0
 405 0176 8DF80300 		strb	r0, [sp, #3]
 406              		.loc 1 314 0
 407 017a 6248     		ldr	r0, .L95+16
 408 017c FFF7FEFF 		bl	chprintf
 409              	.LVL44:
 410              		.loc 1 318 0
 411 0180 0025     		movs	r5, #0
 412              		.loc 1 315 0
 413 0182 0DF10301 		add	r1, sp, #3
 414 0186 0122     		movs	r2, #1
 415 0188 15E1     		b	.L75
 416              	.L83:
 417              	.LBE26:
 418              		.loc 1 327 0
 419 018a 9DF80030 		ldrb	r3, [sp, #0]	@ zero_extendqisi2
 420              		.loc 1 328 0
 421 018e 0D2B     		cmp	r3, #13
 422              		.loc 1 327 0
 423 0190 7355     		strb	r3, [r6, r5]
 424              		.loc 1 328 0
 425 0192 ABD1     		bne	.L31
 426              	.LVL45:
 427              	.LBB27:
 428              		.loc 1 332 0 discriminator 1
 429 0194 691E     		subs	r1, r5, #1
 430 0196 0123     		movs	r3, #1
 431 0198 0029     		cmp	r1, #0
 432 019a 08DD     		ble	.L32
 433              	.LVL46:
 434              	.L33:
 435              		.loc 1 332 0 is_stmt 0 discriminator 2
 436 019c 08F10108 		add	r8, r8, #1
 437              		.loc 1 333 0 is_stmt 1 discriminator 2
 438 01a0 03EB8303 		add	r3, r3, r3, lsl #2
 439              		.loc 1 332 0 discriminator 2
 440 01a4 5FFA88F8 		uxtb	r8, r8
 441              		.loc 1 333 0 discriminator 2
 442 01a8 5B00     		lsls	r3, r3, #1
 443              	.LVL47:
 444              		.loc 1 332 0 discriminator 2
 445 01aa 8845     		cmp	r8, r1
 446 01ac F6DB     		blt	.L33
 447              	.LVL48:
 448              	.L32:
 449              		.loc 1 335 0 discriminator 1
 450 01ae 002D     		cmp	r5, #0
 451 01b0 00F01D81 		beq	.L34
 452              		.loc 1 125 0
 453 01b4 5FFA81FC 		uxtb	ip, r1
 454              		.loc 1 337 0
 455 01b8 4CF6CD4E 		movw	lr, #52429
 456 01bc 5349     		ldr	r1, .L95+24
ARM GAS  /tmp/ccU5nDRe.s 			page 9


 457              		.loc 1 125 0
 458 01be B444     		add	ip, r6, ip
 459 01c0 4FF00008 		mov	r8, #0
 460              		.loc 1 337 0
 461 01c4 CCF6CC4E 		movt	lr, 52428
 462              	.LVL49:
 463              	.L35:
 464              		.loc 1 337 0 is_stmt 0 discriminator 2
 465 01c8 AEFB0302 		umull	r0, r2, lr, r3
 466              		.loc 1 336 0 is_stmt 1 discriminator 2
 467 01cc 11F8010F 		ldrb	r0, [r1, #1]!	@ zero_extendqisi2
 468 01d0 3038     		subs	r0, r0, #48
 469 01d2 00FB0388 		mla	r8, r0, r3, r8
 470              	.LVL50:
 471              		.loc 1 337 0 discriminator 2
 472 01d6 D308     		lsrs	r3, r2, #3
 473              	.LVL51:
 474              		.loc 1 335 0 discriminator 2
 475 01d8 6145     		cmp	r1, ip
 476 01da F5D1     		bne	.L35
 477              		.loc 1 339 0
 478 01dc 4246     		mov	r2, r8
 479 01de 4948     		ldr	r0, .L95+16
 480 01e0 4C49     		ldr	r1, .L95+32
 481 01e2 FFF7FEFF 		bl	chprintf
 482              	.LVL52:
 483              		.loc 1 340 0
 484 01e6 4748     		ldr	r0, .L95+16
 485 01e8 4B49     		ldr	r1, .L95+36
 486 01ea FFF7FEFF 		bl	chprintf
 487              	.LVL53:
 488              		.loc 1 341 0
 489 01ee 0020     		movs	r0, #0
 490 01f0 2021     		movs	r1, #32
 491 01f2 0122     		movs	r2, #1
 492 01f4 FFF7FEFF 		bl	flashErase
 493              	.LVL54:
 494              		.loc 1 342 0
 495 01f8 4248     		ldr	r0, .L95+16
 496 01fa 4849     		ldr	r1, .L95+40
 497 01fc 4246     		mov	r2, r8
 498 01fe FFF7FEFF 		bl	chprintf
 499              	.LVL55:
 500              		.loc 1 343 0
 501 0202 B8F1000F 		cmp	r8, #0
 502 0206 17D0     		beq	.L36
 503 0208 4FF0000A 		mov	sl, #0
 504 020c D146     		mov	r9, sl
 505              	.LVL56:
 506              	.L37:
 507              		.loc 1 344 0 discriminator 2
 508 020e B244     		add	sl, r6, sl
 509 0210 5146     		mov	r1, sl
 510 0212 0122     		movs	r2, #1
 511 0214 4FF0FF33 		mov	r3, #-1
 512 0218 3848     		ldr	r0, .L95+8
 513              		.loc 1 343 0 discriminator 2
ARM GAS  /tmp/ccU5nDRe.s 			page 10


 514 021a 09F10109 		add	r9, r9, #1
 515              		.loc 1 344 0 discriminator 2
 516 021e FFF7FEFF 		bl	chIQReadTimeout
 517              	.LVL57:
 518              		.loc 1 343 0 discriminator 2
 519 0222 5FFA89F9 		uxtb	r9, r9
 520              		.loc 1 346 0 discriminator 2
 521 0226 5146     		mov	r1, sl
 522 0228 0122     		movs	r2, #1
 523 022a 0023     		movs	r3, #0
 524 022c 3448     		ldr	r0, .L95+12
 525 022e FFF7FEFF 		bl	chOQWriteTimeout
 526              	.LVL58:
 527              		.loc 1 343 0 discriminator 2
 528 0232 C145     		cmp	r9, r8
 529 0234 CA46     		mov	sl, r9
 530 0236 EAD3     		bcc	.L37
 531              	.LVL59:
 532              	.L36:
 533              		.loc 1 349 0
 534 0238 0020     		movs	r0, #0
 535 023a 2F49     		ldr	r1, .L95+4
 536 023c 4246     		mov	r2, r8
 537 023e FFF7FEFF 		bl	flashWriteBytes
 538              	.LVL60:
 539              		.loc 1 350 0
 540 0242 4FF00009 		mov	r9, #0
 541              		.loc 1 351 0
 542 0246 FFF7FEFF 		bl	showMenu
 543              	.LVL61:
 544 024a EBE6     		b	.L9
 545              	.LVL62:
 546              	.L89:
 547              	.LBE27:
 548              	.LBB28:
 549              	.LBB17:
 550              	.LBB18:
 551              		.loc 1 77 0
 552 024c 2D48     		ldr	r0, .L95+16
 553 024e 3449     		ldr	r1, .L95+44
 554 0250 FFF7FEFF 		bl	chprintf
 555              	.LVL63:
 556              		.loc 1 78 0
 557 0254 2B48     		ldr	r0, .L95+16
 558 0256 3349     		ldr	r1, .L95+48
 559              		.loc 1 240 0
 560 0258 4D46     		mov	r5, r9
 561              		.loc 1 78 0
 562 025a FFF7FEFF 		bl	chprintf
 563              	.LVL64:
 564              		.loc 1 251 0
 565 025e 4FF00509 		mov	r9, #5
 566 0262 DFE6     		b	.L9
 567              	.LVL65:
 568              	.L28:
 569              	.LBE18:
 570              	.LBE17:
ARM GAS  /tmp/ccU5nDRe.s 			page 11


 571              	.LBE28:
 572              	.LBB29:
 573              		.loc 1 309 0
 574 0264 303B     		subs	r3, r3, #48
 575              	.LVL66:
 576 0266 6DE7     		b	.L27
 577              	.LVL67:
 578              	.L85:
 579              	.LBE29:
 580              	.LBB30:
 581              		.loc 1 265 0
 582 0268 2648     		ldr	r0, .L95+16
 583 026a 2F49     		ldr	r1, .L95+52
 584 026c FFF7FEFF 		bl	chprintf
 585              	.LVL68:
 586              		.loc 1 266 0
 587 0270 4A46     		mov	r2, r9
 588 0272 4FF0FF33 		mov	r3, #-1
 589 0276 2049     		ldr	r1, .L95+4
 590 0278 2148     		ldr	r0, .L95+12
 591 027a FFF7FEFF 		bl	chOQWriteTimeout
 592              	.LVL69:
 593              		.loc 1 267 0
 594 027e 2148     		ldr	r0, .L95+16
 595 0280 2349     		ldr	r1, .L95+28
 596 0282 FFF7FEFF 		bl	chprintf
 597              	.LVL70:
 598              		.loc 1 268 0
 599 0286 2949     		ldr	r1, .L95+56
 600 0288 0122     		movs	r2, #1
 601 028a 1D48     		ldr	r0, .L95+12
 602 028c 4FF0FF33 		mov	r3, #-1
 603 0290 FFF7FEFF 		bl	chOQWriteTimeout
 604              	.LVL71:
 605              		.loc 1 125 0
 606 0294 1D49     		ldr	r1, .L95+24
 607              	.LBE30:
 608 0296 1422     		movs	r2, #20
 609              		.loc 1 271 0
 610 0298 4046     		mov	r0, r8
 611 029a 07E0     		b	.L23
 612              	.LVL72:
 613              	.L93:
 614              	.LBB31:
 615              		.loc 1 275 0
 616 029c 513B     		subs	r3, r3, #81
 617              	.LVL73:
 618              	.L21:
 619              		.loc 1 280 0
 620 029e 03FA02F3 		lsl	r3, r3, r2
 621              	.LVL74:
 622 02a2 043A     		subs	r2, r2, #4
 623              		.loc 1 273 0
 624 02a4 B942     		cmp	r1, r7
 625              		.loc 1 280 0
 626 02a6 40EA0300 		orr	r0, r0, r3
 627              	.LVL75:
ARM GAS  /tmp/ccU5nDRe.s 			page 12


 628              		.loc 1 273 0
 629 02aa 0DD0     		beq	.L92
 630              	.LVL76:
 631              	.L23:
 632              		.loc 1 274 0
 633 02ac 11F8013F 		ldrb	r3, [r1, #1]!	@ zero_extendqisi2
 634 02b0 602B     		cmp	r3, #96
 635 02b2 F3D8     		bhi	.L93
 636              		.loc 1 276 0
 637 02b4 402B     		cmp	r3, #64
 638 02b6 0FD9     		bls	.L22
 639              		.loc 1 277 0
 640 02b8 313B     		subs	r3, r3, #49
 641              	.LVL77:
 642              		.loc 1 280 0
 643 02ba 03FA02F3 		lsl	r3, r3, r2
 644              	.LVL78:
 645 02be 043A     		subs	r2, r2, #4
 646              		.loc 1 273 0
 647 02c0 B942     		cmp	r1, r7
 648              		.loc 1 280 0
 649 02c2 40EA0300 		orr	r0, r0, r3
 650              	.LVL79:
 651              		.loc 1 273 0
 652 02c6 F1D1     		bne	.L23
 653              	.LVL80:
 654              	.L92:
 655              		.loc 1 283 0
 656 02c8 F179     		ldrb	r1, [r6, #7]	@ zero_extendqisi2
 657              		.loc 1 286 0
 658 02ca 0025     		movs	r5, #0
 659              		.loc 1 283 0
 660 02cc FFF7FEFF 		bl	flashWriteByte
 661              	.LVL81:
 662              		.loc 1 284 0
 663 02d0 A946     		mov	r9, r5
 664              		.loc 1 285 0
 665 02d2 FFF7FEFF 		bl	showMenu
 666              	.LVL82:
 667 02d6 A5E6     		b	.L9
 668              	.LVL83:
 669              	.L22:
 670              		.loc 1 279 0
 671 02d8 303B     		subs	r3, r3, #48
 672              	.LVL84:
 673 02da E0E7     		b	.L21
 674              	.LVL85:
 675              	.L86:
 676              	.LBE31:
 677              	.LBB32:
 678              	.LBB19:
 679              	.LBB20:
 680              		.loc 1 65 0
 681 02dc 0948     		ldr	r0, .L95+16
 682 02de 1449     		ldr	r1, .L95+60
 683 02e0 FFF7FEFF 		bl	chprintf
 684              	.LVL86:
ARM GAS  /tmp/ccU5nDRe.s 			page 13


 685              		.loc 1 66 0
 686 02e4 0748     		ldr	r0, .L95+16
 687 02e6 0F49     		ldr	r1, .L95+48
 688              		.loc 1 240 0
 689 02e8 4D46     		mov	r5, r9
 690              		.loc 1 66 0
 691 02ea FFF7FEFF 		bl	chprintf
 692              	.LVL87:
 693              		.loc 1 242 0
 694 02ee 4FF00609 		mov	r9, #6
 695 02f2 97E6     		b	.L9
 696              	.L96:
 697              		.align	2
 698              	.L95:
 699 02f4 04000000 		.word	SD3+4
 700 02f8 00000000 		.word	.LANCHOR0
 701 02fc 10000000 		.word	SD3+16
 702 0300 30000000 		.word	SD3+48
 703 0304 00000000 		.word	SD3
 704 0308 6C010000 		.word	.LC12
 705 030c FFFFFFFF 		.word	.LANCHOR0-1
 706 0310 60010000 		.word	.LC11
 707 0314 78010000 		.word	.LC13
 708 0318 88010000 		.word	.LC14
 709 031c 9C010000 		.word	.LC15
 710 0320 1C010000 		.word	.LC9
 711 0324 C0000000 		.word	.LC6
 712 0328 50010000 		.word	.LC10
 713 032c 07000000 		.word	.LANCHOR0+7
 714 0330 98000000 		.word	.LC5
 715              	.LVL88:
 716              	.L87:
 717              	.LBE20:
 718              	.LBE19:
 719              	.LBB21:
 720              	.LBB22:
 721              		.loc 1 69 0
 722 0334 3848     		ldr	r0, .L97
 723 0336 3949     		ldr	r1, .L97+4
 724 0338 FFF7FEFF 		bl	chprintf
 725              	.LVL89:
 726              		.loc 1 70 0
 727 033c 3648     		ldr	r0, .L97
 728 033e 3849     		ldr	r1, .L97+8
 729              		.loc 1 240 0
 730 0340 4D46     		mov	r5, r9
 731              		.loc 1 70 0
 732 0342 FFF7FEFF 		bl	chprintf
 733              	.LVL90:
 734              		.loc 1 245 0
 735 0346 4FF00709 		mov	r9, #7
 736 034a 6BE6     		b	.L9
 737              	.LVL91:
 738              	.L84:
 739              	.LBE22:
 740              	.LBE21:
 741              	.LBE32:
ARM GAS  /tmp/ccU5nDRe.s 			page 14


 742              	.LBB33:
 743              		.loc 1 366 0 discriminator 1
 744 034c 691E     		subs	r1, r5, #1
 745 034e 0029     		cmp	r1, #0
 746 0350 48DD     		ble	.L52
 747              		.loc 1 366 0 is_stmt 0
 748 0352 0022     		movs	r2, #0
 749 0354 0123     		movs	r3, #1
 750              	.LVL92:
 751              	.L40:
 752              		.loc 1 366 0 discriminator 2
 753 0356 0132     		adds	r2, r2, #1
 754              		.loc 1 367 0 is_stmt 1 discriminator 2
 755 0358 03EB8303 		add	r3, r3, r3, lsl #2
 756              		.loc 1 366 0 discriminator 2
 757 035c D2B2     		uxtb	r2, r2
 758              		.loc 1 367 0 discriminator 2
 759 035e 5B00     		lsls	r3, r3, #1
 760              	.LVL93:
 761              		.loc 1 366 0 discriminator 2
 762 0360 8A42     		cmp	r2, r1
 763 0362 F8DB     		blt	.L40
 764              	.LVL94:
 765              		.loc 1 369 0 discriminator 1
 766 0364 002D     		cmp	r5, #0
 767 0366 40D0     		beq	.L53
 768              	.L94:
 769              		.loc 1 125 0
 770 0368 5FFA81FC 		uxtb	ip, r1
 771              		.loc 1 371 0
 772 036c 4CF6CD4E 		movw	lr, #52429
 773 0370 2C49     		ldr	r1, .L97+12
 774              		.loc 1 125 0
 775 0372 B444     		add	ip, r6, ip
 776 0374 4FF00008 		mov	r8, #0
 777              		.loc 1 371 0
 778 0378 CCF6CC4E 		movt	lr, 52428
 779              	.LVL95:
 780              	.L42:
 781              		.loc 1 371 0 is_stmt 0 discriminator 2
 782 037c AEFB0302 		umull	r0, r2, lr, r3
 783              		.loc 1 370 0 is_stmt 1 discriminator 2
 784 0380 11F8010F 		ldrb	r0, [r1, #1]!	@ zero_extendqisi2
 785 0384 3038     		subs	r0, r0, #48
 786 0386 00FB0388 		mla	r8, r0, r3, r8
 787              	.LVL96:
 788              		.loc 1 371 0 discriminator 2
 789 038a D308     		lsrs	r3, r2, #3
 790              	.LVL97:
 791              		.loc 1 369 0 discriminator 2
 792 038c 6145     		cmp	r1, ip
 793 038e F5D1     		bne	.L42
 794              	.LVL98:
 795              	.L41:
 796              		.loc 1 125 0
 797 0390 0023     		movs	r3, #0
 798              	.LVL99:
ARM GAS  /tmp/ccU5nDRe.s 			page 15


 799              		.loc 1 374 0
 800 0392 1946     		mov	r1, r3
 801              	.LVL100:
 802              	.L43:
 803              		.loc 1 373 0 discriminator 2
 804 0394 5A1C     		adds	r2, r3, #1
 805              		.loc 1 374 0 discriminator 2
 806 0396 F154     		strb	r1, [r6, r3]
 807              		.loc 1 373 0 discriminator 2
 808 0398 D3B2     		uxtb	r3, r2
 809              	.LVL101:
 810 039a 802B     		cmp	r3, #128
 811 039c FAD1     		bne	.L43
 812              		.loc 1 375 0
 813 039e 1E48     		ldr	r0, .L97
 814 03a0 2149     		ldr	r1, .L97+16
 815 03a2 4246     		mov	r2, r8
 816              	.LVL102:
 817 03a4 FFF7FEFF 		bl	chprintf
 818              	.LVL103:
 819              		.loc 1 376 0
 820 03a8 2049     		ldr	r1, .L97+20
 821 03aa 4246     		mov	r2, r8
 822 03ac 0020     		movs	r0, #0
 823 03ae FFF7FEFF 		bl	flashReadBytes
 824              	.LVL104:
 825              		.loc 1 377 0
 826 03b2 1E49     		ldr	r1, .L97+20
 827 03b4 4246     		mov	r2, r8
 828              	.L75:
 829 03b6 4FF0FF33 		mov	r3, #-1
 830 03ba 1D48     		ldr	r0, .L97+24
 831 03bc FFF7FEFF 		bl	chOQWriteTimeout
 832              	.LVL105:
 833              		.loc 1 378 0
 834 03c0 4FF00009 		mov	r9, #0
 835              		.loc 1 379 0
 836 03c4 FFF7FEFF 		bl	showMenu
 837              	.LVL106:
 838 03c8 2CE6     		b	.L9
 839              	.LVL107:
 840              	.L88:
 841              	.LBE33:
 842              	.LBB34:
 843              	.LBB23:
 844              	.LBB24:
 845              		.loc 1 73 0
 846 03ca 1348     		ldr	r0, .L97
 847 03cc 1949     		ldr	r1, .L97+28
 848 03ce 8022     		movs	r2, #128
 849 03d0 FFF7FEFF 		bl	chprintf
 850              	.LVL108:
 851              		.loc 1 74 0
 852 03d4 1048     		ldr	r0, .L97
 853 03d6 1249     		ldr	r1, .L97+8
 854              		.loc 1 240 0
 855 03d8 4D46     		mov	r5, r9
ARM GAS  /tmp/ccU5nDRe.s 			page 16


 856              		.loc 1 74 0
 857 03da FFF7FEFF 		bl	chprintf
 858              	.LVL109:
 859              		.loc 1 248 0
 860 03de 4FF00409 		mov	r9, #4
 861 03e2 1FE6     		b	.L9
 862              	.LVL110:
 863              	.L52:
 864              	.LBE24:
 865              	.LBE23:
 866              	.LBE34:
 867              	.LBB35:
 868              		.loc 1 366 0
 869 03e4 0123     		movs	r3, #1
 870              	.LVL111:
 871              		.loc 1 369 0
 872 03e6 002D     		cmp	r5, #0
 873 03e8 BED1     		bne	.L94
 874              	.L53:
 875 03ea A846     		mov	r8, r5
 876 03ec D0E7     		b	.L41
 877              	.LVL112:
 878              	.L34:
 879              	.LBE35:
 880              	.LBB36:
 881              		.loc 1 339 0
 882 03ee 2A46     		mov	r2, r5
 883 03f0 0948     		ldr	r0, .L97
 884 03f2 1149     		ldr	r1, .L97+32
 885 03f4 FFF7FEFF 		bl	chprintf
 886              	.LVL113:
 887              		.loc 1 340 0
 888 03f8 1049     		ldr	r1, .L97+36
 889 03fa 0748     		ldr	r0, .L97
 890 03fc FFF7FEFF 		bl	chprintf
 891              	.LVL114:
 892              		.loc 1 341 0
 893 0400 2846     		mov	r0, r5
 894 0402 2021     		movs	r1, #32
 895 0404 0122     		movs	r2, #1
 896 0406 FFF7FEFF 		bl	flashErase
 897              	.LVL115:
 898              		.loc 1 342 0
 899 040a 0348     		ldr	r0, .L97
 900 040c 0C49     		ldr	r1, .L97+40
 901 040e 2A46     		mov	r2, r5
 902 0410 FFF7FEFF 		bl	chprintf
 903              	.LVL116:
 904 0414 A846     		mov	r8, r5
 905 0416 0FE7     		b	.L36
 906              	.L98:
 907              		.align	2
 908              	.L97:
 909 0418 00000000 		.word	SD3
 910 041c C4000000 		.word	.LC7
 911 0420 C0000000 		.word	.LC6
 912 0424 FFFFFFFF 		.word	.LANCHOR0-1
ARM GAS  /tmp/ccU5nDRe.s 			page 17


 913 0428 C0010000 		.word	.LC16
 914 042c 00000000 		.word	.LANCHOR0
 915 0430 30000000 		.word	SD3+48
 916 0434 E0000000 		.word	.LC8
 917 0438 78010000 		.word	.LC13
 918 043c 88010000 		.word	.LC14
 919 0440 9C010000 		.word	.LC15
 920              	.LBE36:
 921              		.cfi_endproc
 922              	.LFE67:
 923              		.size	UART_Thread, .-UART_Thread
 924 0444 AFF30080 		.section	.bss.input_buffer,"aw",%nobits
 924      AFF30080 
 924      AFF30080 
 925              		.align	2
 926              		.set	.LANCHOR0,. + 0
 927              		.type	input_buffer, %object
 928              		.size	input_buffer, 128
 929              	input_buffer:
 930 0000 00000000 		.space	128
 930      00000000 
 930      00000000 
 930      00000000 
 930      00000000 
 931              		.section	.rodata.str1.4,"aMS",%progbits,1
 932              		.align	2
 933              	.LC0:
 934 0000 0D0A4465 		.ascii	"\015\012Development Menu\015\012\000"
 934      76656C6F 
 934      706D656E 
 934      74204D65 
 934      6E750D0A 
 935 0015 000000   		.space	3
 936              	.LC1:
 937 0018 28312920 		.ascii	"(1) Write Byte to SPI Flash\015\012\000"
 937      57726974 
 937      65204279 
 937      74652074 
 937      6F205350 
 938 0036 0000     		.space	2
 939              	.LC2:
 940 0038 28322920 		.ascii	"(2) Read Byte from SPI Flash\015\012\000"
 940      52656164 
 940      20427974 
 940      65206672 
 940      6F6D2053 
 941 0057 00       		.space	1
 942              	.LC3:
 943 0058 28332920 		.ascii	"(3) Write Bytes to SPI Flash\015\012\000"
 943      57726974 
 943      65204279 
 943      74657320 
 943      746F2053 
 944 0077 00       		.space	1
 945              	.LC4:
 946 0078 28342920 		.ascii	"(4) Read Bytes from SPI Flash\015\012\000"
 946      52656164 
ARM GAS  /tmp/ccU5nDRe.s 			page 18


 946      20427974 
 946      65732066 
 946      726F6D20 
 947              	.LC5:
 948 0098 0D0A3C48 		.ascii	"\015\012<Hex Address> <Hex Byte>: 00100F Z\015\012\000"
 948      65782041 
 948      64647265 
 948      73733E20 
 948      3C486578 
 949 00bf 00       		.space	1
 950              	.LC6:
 951 00c0 203A3E00 		.ascii	" :>\000"
 952              	.LC7:
 953 00c4 0D0A3C48 		.ascii	"\015\012<Hex Address>: 00100F\015\012\000"
 953      65782041 
 953      64647265 
 953      73733E3A 
 953      20303031 
 954 00de 0000     		.space	2
 955              	.LC8:
 956 00e0 0D0A5374 		.ascii	"\015\012Startng at 0x000000, enter number of bytes "
 956      6172746E 
 956      67206174 
 956      20307830 
 956      30303030 
 957 010d 286D6178 		.ascii	"(max %d):\015\012\000"
 957      20256429 
 957      3A0D0A00 
 958 0119 000000   		.space	3
 959              	.LC9:
 960 011c 0D0A5265 		.ascii	"\015\012Reading from 0x000000, enter number of byte"
 960      6164696E 
 960      67206672 
 960      6F6D2030 
 960      78303030 
 961 0149 733A0D0A 		.ascii	"s:\015\012\000"
 961      00
 962 014e 0000     		.space	2
 963              	.LC10:
 964 0150 0D0A4465 		.ascii	"\015\012Destination: \000"
 964      7374696E 
 964      6174696F 
 964      6E3A2000 
 965              	.LC11:
 966 0160 0D0A4461 		.ascii	"\015\012Data: \000"
 966      74613A20 
 966      00
 967 0169 000000   		.space	3
 968              	.LC12:
 969 016c 0D0A5461 		.ascii	"\015\012Target: \000"
 969      72676574 
 969      3A2000
 970 0177 00       		.space	1
 971              	.LC13:
 972 0178 0D0A4E75 		.ascii	"\015\012Num Bytes: %d\000"
 972      6D204279 
 972      7465733A 
ARM GAS  /tmp/ccU5nDRe.s 			page 19


 972      20256400 
 973              	.LC14:
 974 0188 0D0A4572 		.ascii	"\015\012Erasing Flash\015\012\000"
 974      6173696E 
 974      6720466C 
 974      6173680D 
 974      0A00
 975 019a 0000     		.space	2
 976              	.LC15:
 977 019c 0D0A4572 		.ascii	"\015\012Erasing Done, Transfer %d bytes\015\012\000"
 977      6173696E 
 977      6720446F 
 977      6E652C20 
 977      5472616E 
 978              	.LC16:
 979 01c0 0D0A4E75 		.ascii	"\015\012Num Bytes: %d\015\012\000"
 979      6D204279 
 979      7465733A 
 979      2025640D 
 979      0A00
 980 01d2 0000     		.text
 981              	.Letext0:
 982              		.file 2 "/home/mitchd/Documents/FOX-1/amsat-fox/x86_64-toolchain/arm/bin/../lib/gcc/arm-none-eabi/
 983              		.file 3 "/home/mitchd/Documents/FOX-1/amsat-fox/x86_64-toolchain/arm/bin/../lib/gcc/arm-none-eabi/
 984              		.file 4 "./os/ports/GCC/ARMCMx/chtypes.h"
 985              		.file 5 "./os/kernel/include/chlists.h"
 986              		.file 6 "./os/kernel/include/chthreads.h"
 987              		.file 7 "./os/ports/GCC/ARMCMx/chcore_v7m.h"
 988              		.file 8 "./os/kernel/include/chmtx.h"
 989              		.file 9 "./os/kernel/include/chevents.h"
 990              		.file 10 "./os/kernel/include/chqueues.h"
 991              		.file 11 "./os/kernel/include/chioch.h"
 992              		.file 12 "./os/hal/platforms/STM32L1xx/stm32l1xx.h"
 993              		.file 13 "./os/hal/platforms/STM32/GPIOv2/pal_lld.h"
 994              		.file 14 "./os/hal/include/serial.h"
 995              		.file 15 "./spi_flash/spi_flash.h"
 996              		.file 16 "./os/various/chprintf.h"
 997              		.file 17 "./os/ports/common/ARMCMx/CMSIS/include/core_cm3.h"
 998              		.file 18 "./os/hal/platforms/STM32/serial_lld.h"