ARM GAS  /tmp/cczF9pup.s 			page 1


   1              		.syntax unified
   2              		.cpu cortex-m4
   3              		.fpu softvfp
   4              		.eabi_attribute 20, 1
   5              		.eabi_attribute 21, 1
   6              		.eabi_attribute 23, 3
   7              		.eabi_attribute 24, 1
   8              		.eabi_attribute 25, 1
   9              		.eabi_attribute 26, 1
  10              		.eabi_attribute 30, 2
  11              		.eabi_attribute 34, 1
  12              		.eabi_attribute 18, 4
  13              		.thumb
  14              		.file	"adc.c"
  15              		.text
  16              	.Ltext0:
  17              		.cfi_sections	.debug_frame
  18              		.section	.text.adcInit,"ax",%progbits
  19              		.align	2
  20              		.p2align 4,,15
  21              		.global	adcInit
  22              		.thumb
  23              		.thumb_func
  24              		.type	adcInit, %function
  25              	adcInit:
  26              	.LFB117:
  27              		.file 1 "./os/hal/src/adc.c"
  28              		.loc 1 68 0
  29              		.cfi_startproc
  30              		@ args = 0, pretend = 0, frame = 0
  31              		@ frame_needed = 0, uses_anonymous_args = 0
  32              		@ link register save eliminated.
  33              		.loc 1 71 0
  34              		.loc 1 70 0
  35 0000 FFF7FEBF 		b	adc_lld_init
  36              	.LVL0:
  37              		.cfi_endproc
  38              	.LFE117:
  39              		.size	adcInit, .-adcInit
  40 0004 AFF30080 		.section	.text.adcObjectInit,"ax",%progbits
  40      AFF30080 
  40      AFF30080 
  41              		.align	2
  42              		.p2align 4,,15
  43              		.global	adcObjectInit
  44              		.thumb
  45              		.thumb_func
  46              		.type	adcObjectInit, %function
  47              	adcObjectInit:
  48              	.LFB118:
  49              		.loc 1 80 0
  50              		.cfi_startproc
  51              		@ args = 0, pretend = 0, frame = 0
  52              		@ frame_needed = 0, uses_anonymous_args = 0
  53              		@ link register save eliminated.
  54              	.LVL1:
  55              		.loc 1 83 0
ARM GAS  /tmp/cczF9pup.s 			page 2


  56 0000 0023     		movs	r3, #0
  57              		.loc 1 82 0
  58 0002 0122     		movs	r2, #1
  59 0004 0270     		strb	r2, [r0, #0]
  60              		.loc 1 83 0
  61 0006 4360     		str	r3, [r0, #4]
  62              		.loc 1 84 0
  63 0008 8360     		str	r3, [r0, #8]
  64              		.loc 1 85 0
  65 000a C360     		str	r3, [r0, #12]
  66              		.loc 1 86 0
  67 000c 0361     		str	r3, [r0, #16]
  68              		.loc 1 88 0
  69 000e 4361     		str	r3, [r0, #20]
  70              		.loc 1 92 0
  71 0010 1830     		adds	r0, r0, #24
  72              	.LVL2:
  73              		.loc 1 100 0
  74              		.loc 1 92 0
  75 0012 FFF7FEBF 		b	chMtxInit
  76              	.LVL3:
  77              		.cfi_endproc
  78              	.LFE118:
  79              		.size	adcObjectInit, .-adcObjectInit
  80 0016 00BFAFF3 		.section	.text.adcStart,"ax",%progbits
  80      0080AFF3 
  80      0080
  81              		.align	2
  82              		.p2align 4,,15
  83              		.global	adcStart
  84              		.thumb
  85              		.thumb_func
  86              		.type	adcStart, %function
  87              	adcStart:
  88              	.LFB119:
  89              		.loc 1 111 0
  90              		.cfi_startproc
  91              		@ args = 0, pretend = 0, frame = 0
  92              		@ frame_needed = 0, uses_anonymous_args = 0
  93              	.LVL4:
  94 0000 10B5     		push	{r4, lr}
  95              	.LCFI0:
  96              		.cfi_def_cfa_offset 8
  97              		.cfi_offset 4, -8
  98              		.cfi_offset 14, -4
  99              	.LBB10:
 100              		.loc 1 115 0
 101 0002 2023     		movs	r3, #32
 102              	.LVL5:
 103              	.LBE10:
 104              		.loc 1 111 0
 105 0004 0446     		mov	r4, r0
 106              	.LBB11:
 107              		.loc 1 115 0
 108              	@ 115 "./os/hal/src/adc.c" 1
 109 0006 83F31188 		msr     BASEPRI, r3
 110              	@ 0 "" 2
ARM GAS  /tmp/cczF9pup.s 			page 3


 111              	.LVL6:
 112              		.thumb
 113              	.LBE11:
 114              		.loc 1 118 0
 115 000a 4160     		str	r1, [r0, #4]
 116              		.loc 1 119 0
 117 000c FFF7FEFF 		bl	adc_lld_start
 118              	.LVL7:
 119              		.loc 1 120 0
 120 0010 0223     		movs	r3, #2
 121 0012 2370     		strb	r3, [r4, #0]
 122              	.LBB12:
 123              		.loc 1 121 0
 124 0014 0023     		movs	r3, #0
 125              	.LVL8:
 126              	@ 121 "./os/hal/src/adc.c" 1
 127 0016 83F31188 		msr     BASEPRI, r3
 128              	@ 0 "" 2
 129              	.LVL9:
 130              		.thumb
 131 001a 10BD     		pop	{r4, pc}
 132              	.LBE12:
 133              		.cfi_endproc
 134              	.LFE119:
 135              		.size	adcStart, .-adcStart
 136 001c AFF30080 		.section	.text.adcStop,"ax",%progbits
 137              		.align	2
 138              		.p2align 4,,15
 139              		.global	adcStop
 140              		.thumb
 141              		.thumb_func
 142              		.type	adcStop, %function
 143              	adcStop:
 144              	.LFB120:
 145              		.loc 1 131 0
 146              		.cfi_startproc
 147              		@ args = 0, pretend = 0, frame = 0
 148              		@ frame_needed = 0, uses_anonymous_args = 0
 149              	.LVL10:
 150 0000 10B5     		push	{r4, lr}
 151              	.LCFI1:
 152              		.cfi_def_cfa_offset 8
 153              		.cfi_offset 4, -8
 154              		.cfi_offset 14, -4
 155              	.LBB13:
 156              		.loc 1 135 0
 157 0002 2023     		movs	r3, #32
 158              	.LVL11:
 159              	.LBE13:
 160              		.loc 1 131 0
 161 0004 0446     		mov	r4, r0
 162              	.LBB14:
 163              		.loc 1 135 0
 164              	@ 135 "./os/hal/src/adc.c" 1
 165 0006 83F31188 		msr     BASEPRI, r3
 166              	@ 0 "" 2
 167              	.LVL12:
ARM GAS  /tmp/cczF9pup.s 			page 4


 168              		.thumb
 169              	.LBE14:
 170              		.loc 1 138 0
 171 000a FFF7FEFF 		bl	adc_lld_stop
 172              	.LVL13:
 173              		.loc 1 139 0
 174 000e 0123     		movs	r3, #1
 175 0010 2370     		strb	r3, [r4, #0]
 176              	.LBB15:
 177              		.loc 1 140 0
 178 0012 0023     		movs	r3, #0
 179              	.LVL14:
 180              	@ 140 "./os/hal/src/adc.c" 1
 181 0014 83F31188 		msr     BASEPRI, r3
 182              	@ 0 "" 2
 183              	.LVL15:
 184              		.thumb
 185 0018 10BD     		pop	{r4, pc}
 186              	.LBE15:
 187              		.cfi_endproc
 188              	.LFE120:
 189              		.size	adcStop, .-adcStop
 190 001a 00BFAFF3 		.section	.text.adcStartConversion,"ax",%progbits
 190      0080
 191              		.align	2
 192              		.p2align 4,,15
 193              		.global	adcStartConversion
 194              		.thumb
 195              		.thumb_func
 196              		.type	adcStartConversion, %function
 197              	adcStartConversion:
 198              	.LFB121:
 199              		.loc 1 162 0
 200              		.cfi_startproc
 201              		@ args = 0, pretend = 0, frame = 0
 202              		@ frame_needed = 0, uses_anonymous_args = 0
 203              	.LVL16:
 204 0000 38B5     		push	{r3, r4, r5, lr}
 205              	.LCFI2:
 206              		.cfi_def_cfa_offset 16
 207              		.cfi_offset 3, -16
 208              		.cfi_offset 4, -12
 209              		.cfi_offset 5, -8
 210              		.cfi_offset 14, -4
 211              		.loc 1 162 0
 212 0002 1D46     		mov	r5, r3
 213 0004 0446     		mov	r4, r0
 214              	.LBB16:
 215              		.loc 1 164 0
 216 0006 2023     		movs	r3, #32
 217              	.LVL17:
 218              	@ 164 "./os/hal/src/adc.c" 1
 219 0008 83F31188 		msr     BASEPRI, r3
 220              	@ 0 "" 2
 221              	.LVL18:
 222              		.thumb
 223              	.LBE16:
ARM GAS  /tmp/cczF9pup.s 			page 5


 224              	.LBB17:
 225              	.LBB18:
 226              		.loc 1 204 0
 227 000c 0323     		movs	r3, #3
 228              	.LVL19:
 229 000e 0370     		strb	r3, [r0, #0]
 230              		.loc 1 201 0
 231 0010 8260     		str	r2, [r0, #8]
 232              		.loc 1 202 0
 233 0012 C560     		str	r5, [r0, #12]
 234              		.loc 1 203 0
 235 0014 0161     		str	r1, [r0, #16]
 236              		.loc 1 205 0
 237 0016 FFF7FEFF 		bl	adc_lld_start_conversion
 238              	.LVL20:
 239              	.LBE18:
 240              	.LBE17:
 241              	.LBB19:
 242              		.loc 1 166 0
 243 001a 0023     		movs	r3, #0
 244              	.LVL21:
 245              	@ 166 "./os/hal/src/adc.c" 1
 246 001c 83F31188 		msr     BASEPRI, r3
 247              	@ 0 "" 2
 248              	.LVL22:
 249              		.thumb
 250 0020 38BD     		pop	{r3, r4, r5, pc}
 251              	.LBE19:
 252              		.cfi_endproc
 253              	.LFE121:
 254              		.size	adcStartConversion, .-adcStartConversion
 255 0022 00BFAFF3 		.section	.text.adcStartConversionI,"ax",%progbits
 255      0080AFF3 
 255      0080AFF3 
 255      0080
 256              		.align	2
 257              		.p2align 4,,15
 258              		.global	adcStartConversionI
 259              		.thumb
 260              		.thumb_func
 261              		.type	adcStartConversionI, %function
 262              	adcStartConversionI:
 263              	.LFB122:
 264              		.loc 1 190 0
 265              		.cfi_startproc
 266              		@ args = 0, pretend = 0, frame = 0
 267              		@ frame_needed = 0, uses_anonymous_args = 0
 268              		@ link register save eliminated.
 269              	.LVL23:
 270 0000 10B4     		push	{r4}
 271              	.LCFI3:
 272              		.cfi_def_cfa_offset 4
 273              		.cfi_offset 4, -4
 274              		.loc 1 202 0
 275 0002 C360     		str	r3, [r0, #12]
 276              		.loc 1 190 0
 277 0004 0446     		mov	r4, r0
ARM GAS  /tmp/cczF9pup.s 			page 6


 278              		.loc 1 204 0
 279 0006 0323     		movs	r3, #3
 280              	.LVL24:
 281              		.loc 1 201 0
 282 0008 8260     		str	r2, [r0, #8]
 283              		.loc 1 203 0
 284 000a 0161     		str	r1, [r0, #16]
 285              		.loc 1 204 0
 286 000c 0370     		strb	r3, [r0, #0]
 287              		.loc 1 206 0
 288 000e 10BC     		pop	{r4}
 289              		.loc 1 205 0
 290 0010 FFF7FEBF 		b	adc_lld_start_conversion
 291              	.LVL25:
 292              		.cfi_endproc
 293              	.LFE122:
 294              		.size	adcStartConversionI, .-adcStartConversionI
 295 0014 AFF30080 		.section	.text.adcStopConversion,"ax",%progbits
 295      AFF30080 
 295      AFF30080 
 296              		.align	2
 297              		.p2align 4,,15
 298              		.global	adcStopConversion
 299              		.thumb
 300              		.thumb_func
 301              		.type	adcStopConversion, %function
 302              	adcStopConversion:
 303              	.LFB123:
 304              		.loc 1 218 0
 305              		.cfi_startproc
 306              		@ args = 0, pretend = 0, frame = 0
 307              		@ frame_needed = 0, uses_anonymous_args = 0
 308              	.LVL26:
 309 0000 10B5     		push	{r4, lr}
 310              	.LCFI4:
 311              		.cfi_def_cfa_offset 8
 312              		.cfi_offset 4, -8
 313              		.cfi_offset 14, -4
 314              	.LBB20:
 315              		.loc 1 222 0
 316 0002 2023     		movs	r3, #32
 317              	.LVL27:
 318              	.LBE20:
 319              		.loc 1 218 0
 320 0004 0446     		mov	r4, r0
 321              	.LBB21:
 322              		.loc 1 222 0
 323              	@ 222 "./os/hal/src/adc.c" 1
 324 0006 83F31188 		msr     BASEPRI, r3
 325              	@ 0 "" 2
 326              	.LVL28:
 327              		.thumb
 328              	.LBE21:
 329              		.loc 1 226 0
 330 000a 0378     		ldrb	r3, [r0, #0]	@ zero_extendqisi2
 331              	.LVL29:
 332 000c 022B     		cmp	r3, #2
ARM GAS  /tmp/cczF9pup.s 			page 7


 333 000e 0CD0     		beq	.L9
 334              		.loc 1 227 0
 335 0010 FFF7FEFF 		bl	adc_lld_stop_conversion
 336              	.LVL30:
 337              		.loc 1 230 0
 338 0014 6069     		ldr	r0, [r4, #20]
 339              		.loc 1 228 0
 340 0016 0023     		movs	r3, #0
 341              		.loc 1 229 0
 342 0018 0222     		movs	r2, #2
 343              		.loc 1 228 0
 344 001a 2361     		str	r3, [r4, #16]
 345              		.loc 1 229 0
 346 001c 2270     		strb	r2, [r4, #0]
 347              		.loc 1 230 0
 348 001e 20B1     		cbz	r0, .L9
 349              	.LVL31:
 350              	.LBB22:
 351              		.loc 1 230 0 is_stmt 0 discriminator 1
 352 0020 6361     		str	r3, [r4, #20]
 353 0022 6FF00101 		mvn	r1, #1
 354 0026 FFF7FEFF 		bl	chSchWakeupS
 355              	.LVL32:
 356              	.L9:
 357              	.LBE22:
 358              	.LBB23:
 359              		.loc 1 232 0 is_stmt 1
 360 002a 0023     		movs	r3, #0
 361              	.LVL33:
 362              	@ 232 "./os/hal/src/adc.c" 1
 363 002c 83F31188 		msr     BASEPRI, r3
 364              	@ 0 "" 2
 365              	.LVL34:
 366              		.thumb
 367 0030 10BD     		pop	{r4, pc}
 368              	.LBE23:
 369              		.cfi_endproc
 370              	.LFE123:
 371              		.size	adcStopConversion, .-adcStopConversion
 372 0032 00BFAFF3 		.section	.text.adcStopConversionI,"ax",%progbits
 372      0080AFF3 
 372      0080AFF3 
 372      0080
 373              		.align	2
 374              		.p2align 4,,15
 375              		.global	adcStopConversionI
 376              		.thumb
 377              		.thumb_func
 378              		.type	adcStopConversionI, %function
 379              	adcStopConversionI:
 380              	.LFB124:
 381              		.loc 1 245 0
 382              		.cfi_startproc
 383              		@ args = 0, pretend = 0, frame = 0
 384              		@ frame_needed = 0, uses_anonymous_args = 0
 385              	.LVL35:
 386              		.loc 1 254 0
ARM GAS  /tmp/cczF9pup.s 			page 8


 387 0000 0378     		ldrb	r3, [r0, #0]	@ zero_extendqisi2
 388 0002 022B     		cmp	r3, #2
 389              		.loc 1 245 0
 390 0004 10B5     		push	{r4, lr}
 391              	.LCFI5:
 392              		.cfi_def_cfa_offset 8
 393              		.cfi_offset 4, -8
 394              		.cfi_offset 14, -4
 395              		.loc 1 245 0
 396 0006 0446     		mov	r4, r0
 397              		.loc 1 254 0
 398 0008 10D0     		beq	.L15
 399              		.loc 1 255 0
 400 000a FFF7FEFF 		bl	adc_lld_stop_conversion
 401              	.LVL36:
 402              		.loc 1 258 0
 403 000e 6369     		ldr	r3, [r4, #20]
 404              		.loc 1 256 0
 405 0010 0022     		movs	r2, #0
 406              		.loc 1 257 0
 407 0012 0221     		movs	r1, #2
 408              		.loc 1 256 0
 409 0014 2261     		str	r2, [r4, #16]
 410              		.loc 1 257 0
 411 0016 2170     		strb	r1, [r4, #0]
 412              		.loc 1 258 0
 413 0018 43B1     		cbz	r3, .L15
 414              	.LVL37:
 415              	.LBB24:
 416              		.loc 1 258 0 is_stmt 0 discriminator 1
 417 001a 6261     		str	r2, [r4, #20]
 418 001c 1846     		mov	r0, r3
 419 001e 6FF00102 		mvn	r2, #1
 420 0022 5A62     		str	r2, [r3, #36]
 421              	.LBE24:
 422              		.loc 1 260 0 is_stmt 1 discriminator 1
 423 0024 BDE81040 		pop	{r4, lr}
 424              	.LBB25:
 425              		.loc 1 258 0 discriminator 1
 426 0028 FFF7FEBF 		b	chSchReadyI
 427              	.LVL38:
 428              	.L15:
 429 002c 10BD     		pop	{r4, pc}
 430              	.LBE25:
 431              		.cfi_endproc
 432              	.LFE124:
 433              		.size	adcStopConversionI, .-adcStopConversionI
 434 002e 00BF     		.section	.text.adcConvert,"ax",%progbits
 435              		.align	2
 436              		.p2align 4,,15
 437              		.global	adcConvert
 438              		.thumb
 439              		.thumb_func
 440              		.type	adcConvert, %function
 441              	adcConvert:
 442              	.LFB125:
 443              		.loc 1 289 0
ARM GAS  /tmp/cczF9pup.s 			page 9


 444              		.cfi_startproc
 445              		@ args = 0, pretend = 0, frame = 0
 446              		@ frame_needed = 0, uses_anonymous_args = 0
 447              	.LVL39:
 448 0000 70B5     		push	{r4, r5, r6, lr}
 449              	.LCFI6:
 450              		.cfi_def_cfa_offset 16
 451              		.cfi_offset 4, -16
 452              		.cfi_offset 5, -12
 453              		.cfi_offset 6, -8
 454              		.cfi_offset 14, -4
 455              		.loc 1 289 0
 456 0002 1E46     		mov	r6, r3
 457 0004 0446     		mov	r4, r0
 458              	.LBB26:
 459              		.loc 1 292 0
 460 0006 2023     		movs	r3, #32
 461              	.LVL40:
 462              	@ 292 "./os/hal/src/adc.c" 1
 463 0008 83F31188 		msr     BASEPRI, r3
 464              	@ 0 "" 2
 465              	.LVL41:
 466              		.thumb
 467              	.LBE26:
 468              		.loc 1 295 0
 469 000c 40F20005 		movw	r5, #:lower16:rlist
 470              	.LBB27:
 471              	.LBB28:
 472              		.loc 1 204 0
 473 0010 0323     		movs	r3, #3
 474              	.LVL42:
 475              	.LBE28:
 476              	.LBE27:
 477              		.loc 1 295 0
 478 0012 C0F20005 		movt	r5, #:upper16:rlist
 479              	.LBB30:
 480              	.LBB29:
 481              		.loc 1 201 0
 482 0016 8260     		str	r2, [r0, #8]
 483              		.loc 1 203 0
 484 0018 0161     		str	r1, [r0, #16]
 485              		.loc 1 202 0
 486 001a C660     		str	r6, [r0, #12]
 487              		.loc 1 204 0
 488 001c 0370     		strb	r3, [r0, #0]
 489              		.loc 1 205 0
 490 001e FFF7FEFF 		bl	adc_lld_start_conversion
 491              	.LVL43:
 492              	.LBE29:
 493              	.LBE30:
 494              		.loc 1 295 0
 495 0022 EB69     		ldr	r3, [r5, #28]
 496              		.loc 1 296 0
 497 0024 0220     		movs	r0, #2
 498              		.loc 1 295 0
 499 0026 6361     		str	r3, [r4, #20]
 500              		.loc 1 296 0
ARM GAS  /tmp/cczF9pup.s 			page 10


 501 0028 FFF7FEFF 		bl	chSchGoSleepS
 502              	.LVL44:
 503              		.loc 1 297 0
 504 002c EA69     		ldr	r2, [r5, #28]
 505              	.LBB31:
 506              		.loc 1 298 0
 507 002e 0023     		movs	r3, #0
 508              	.LVL45:
 509              	.LBE31:
 510              		.loc 1 297 0
 511 0030 506A     		ldr	r0, [r2, #36]
 512              	.LVL46:
 513              	.LBB32:
 514              		.loc 1 298 0
 515              	@ 298 "./os/hal/src/adc.c" 1
 516 0032 83F31188 		msr     BASEPRI, r3
 517              	@ 0 "" 2
 518              	.LVL47:
 519              		.thumb
 520              	.LBE32:
 521              		.loc 1 300 0
 522 0036 70BD     		pop	{r4, r5, r6, pc}
 523              		.cfi_endproc
 524              	.LFE125:
 525              		.size	adcConvert, .-adcConvert
 526 0038 AFF30080 		.section	.text.adcAcquireBus,"ax",%progbits
 526      AFF30080 
 527              		.align	2
 528              		.p2align 4,,15
 529              		.global	adcAcquireBus
 530              		.thumb
 531              		.thumb_func
 532              		.type	adcAcquireBus, %function
 533              	adcAcquireBus:
 534              	.LFB126:
 535              		.loc 1 315 0
 536              		.cfi_startproc
 537              		@ args = 0, pretend = 0, frame = 0
 538              		@ frame_needed = 0, uses_anonymous_args = 0
 539              		@ link register save eliminated.
 540              	.LVL48:
 541              		.loc 1 320 0
 542 0000 1830     		adds	r0, r0, #24
 543              	.LVL49:
 544              		.loc 1 324 0
 545              		.loc 1 320 0
 546 0002 FFF7FEBF 		b	chMtxLock
 547              	.LVL50:
 548              		.cfi_endproc
 549              	.LFE126:
 550              		.size	adcAcquireBus, .-adcAcquireBus
 551 0006 00BFAFF3 		.section	.text.adcReleaseBus,"ax",%progbits
 551      0080AFF3 
 551      0080
 552              		.align	2
 553              		.p2align 4,,15
 554              		.global	adcReleaseBus
ARM GAS  /tmp/cczF9pup.s 			page 11


 555              		.thumb
 556              		.thumb_func
 557              		.type	adcReleaseBus, %function
 558              	adcReleaseBus:
 559              	.LFB127:
 560              		.loc 1 335 0
 561              		.cfi_startproc
 562              		@ args = 0, pretend = 0, frame = 0
 563              		@ frame_needed = 0, uses_anonymous_args = 0
 564              		@ link register save eliminated.
 565              	.LVL51:
 566              		.loc 1 345 0
 567              		.loc 1 341 0
 568 0000 FFF7FEBF 		b	chMtxUnlock
 569              	.LVL52:
 570              		.cfi_endproc
 571              	.LFE127:
 572              		.size	adcReleaseBus, .-adcReleaseBus
 573 0004 AFF30080 		.text
 573      AFF30080 
 573      AFF30080 
 574              	.Letext0:
 575              		.file 2 "/home/mitchd/Documents/FOX-1/amsat-fox/x86_64-toolchain/arm/bin/../lib/gcc/arm-none-eabi/
 576              		.file 3 "/home/mitchd/Documents/FOX-1/amsat-fox/x86_64-toolchain/arm/bin/../lib/gcc/arm-none-eabi/
 577              		.file 4 "./os/ports/GCC/ARMCMx/chtypes.h"
 578              		.file 5 "./os/kernel/include/chlists.h"
 579              		.file 6 "./os/kernel/include/chthreads.h"
 580              		.file 7 "./os/ports/GCC/ARMCMx/chcore_v7m.h"
 581              		.file 8 "./os/kernel/include/chschd.h"
 582              		.file 9 "./os/kernel/include/chmtx.h"
 583              		.file 10 "./os/hal/platforms/STM32F4xx/stm32f4xx.h"
 584              		.file 11 "./os/hal/platforms/STM32F4xx/stm32_dma.h"
 585              		.file 12 "./os/hal/include/adc.h"
 586              		.file 13 "./os/hal/platforms/STM32F4xx/adc_lld.h"
 587              		.file 14 "./os/ports/common/ARMCMx/CMSIS/include/core_cm4.h"
 588              		.section	.debug_info,"",%progbits
 589              	.Ldebug_info0:
 590 0000 FB0E0000 		.4byte	0xefb
 591 0004 0200     		.2byte	0x2
 592 0006 00000000 		.4byte	.Ldebug_abbrev0
 593 000a 04       		.byte	0x4
 594 000b 01       		.uleb128 0x1
 595 000c 25030000 		.4byte	.LASF147
 596 0010 01       		.byte	0x1
 597 0011 FF020000 		.4byte	.LASF148
 598 0015 AC040000 		.4byte	.LASF149
 599 0019 90000000 		.4byte	.Ldebug_ranges0+0x90
 600 001d 00000000 		.4byte	0
 601 0021 00000000 		.4byte	0
 602 0025 00000000 		.4byte	.Ldebug_line0
 603 0029 02       		.uleb128 0x2
 604 002a 04       		.byte	0x4
 605 002b 05       		.byte	0x5
 606 002c 696E7400 		.ascii	"int\000"
 607 0030 03       		.uleb128 0x3
 608 0031 05000000 		.4byte	.LASF2
 609 0035 02       		.byte	0x2
ARM GAS  /tmp/cczF9pup.s 			page 12


 610 0036 D5       		.byte	0xd5
 611 0037 3B000000 		.4byte	0x3b
 612 003b 04       		.uleb128 0x4
 613 003c 04       		.byte	0x4
 614 003d 07       		.byte	0x7
 615 003e EA010000 		.4byte	.LASF0
 616 0042 04       		.uleb128 0x4
 617 0043 01       		.byte	0x1
 618 0044 06       		.byte	0x6
 619 0045 8E000000 		.4byte	.LASF1
 620 0049 03       		.uleb128 0x3
 621 004a 51050000 		.4byte	.LASF3
 622 004e 03       		.byte	0x3
 623 004f 2A       		.byte	0x2a
 624 0050 54000000 		.4byte	0x54
 625 0054 04       		.uleb128 0x4
 626 0055 01       		.byte	0x1
 627 0056 08       		.byte	0x8
 628 0057 9E030000 		.4byte	.LASF4
 629 005b 04       		.uleb128 0x4
 630 005c 02       		.byte	0x2
 631 005d 05       		.byte	0x5
 632 005e 7C020000 		.4byte	.LASF5
 633 0062 03       		.uleb128 0x3
 634 0063 42010000 		.4byte	.LASF6
 635 0067 03       		.byte	0x3
 636 0068 36       		.byte	0x36
 637 0069 6D000000 		.4byte	0x6d
 638 006d 04       		.uleb128 0x4
 639 006e 02       		.byte	0x2
 640 006f 07       		.byte	0x7
 641 0070 26020000 		.4byte	.LASF7
 642 0074 03       		.uleb128 0x3
 643 0075 96030000 		.4byte	.LASF8
 644 0079 03       		.byte	0x3
 645 007a 4F       		.byte	0x4f
 646 007b 7F000000 		.4byte	0x7f
 647 007f 04       		.uleb128 0x4
 648 0080 04       		.byte	0x4
 649 0081 05       		.byte	0x5
 650 0082 DC000000 		.4byte	.LASF9
 651 0086 03       		.uleb128 0x3
 652 0087 2D040000 		.4byte	.LASF10
 653 008b 03       		.byte	0x3
 654 008c 50       		.byte	0x50
 655 008d 91000000 		.4byte	0x91
 656 0091 04       		.uleb128 0x4
 657 0092 04       		.byte	0x4
 658 0093 07       		.byte	0x7
 659 0094 4A040000 		.4byte	.LASF11
 660 0098 04       		.uleb128 0x4
 661 0099 08       		.byte	0x8
 662 009a 05       		.byte	0x5
 663 009b 34010000 		.4byte	.LASF12
 664 009f 04       		.uleb128 0x4
 665 00a0 08       		.byte	0x8
 666 00a1 07       		.byte	0x7
ARM GAS  /tmp/cczF9pup.s 			page 13


 667 00a2 42000000 		.4byte	.LASF13
 668 00a6 03       		.uleb128 0x3
 669 00a7 A2000000 		.4byte	.LASF14
 670 00ab 04       		.byte	0x4
 671 00ac 2E       		.byte	0x2e
 672 00ad 74000000 		.4byte	0x74
 673 00b1 03       		.uleb128 0x3
 674 00b2 4F020000 		.4byte	.LASF15
 675 00b6 04       		.byte	0x4
 676 00b7 2F       		.byte	0x2f
 677 00b8 49000000 		.4byte	0x49
 678 00bc 03       		.uleb128 0x3
 679 00bd 24010000 		.4byte	.LASF16
 680 00c1 04       		.byte	0x4
 681 00c2 30       		.byte	0x30
 682 00c3 49000000 		.4byte	0x49
 683 00c7 03       		.uleb128 0x3
 684 00c8 66030000 		.4byte	.LASF17
 685 00cc 04       		.byte	0x4
 686 00cd 31       		.byte	0x31
 687 00ce 49000000 		.4byte	0x49
 688 00d2 03       		.uleb128 0x3
 689 00d3 88030000 		.4byte	.LASF18
 690 00d7 04       		.byte	0x4
 691 00d8 32       		.byte	0x32
 692 00d9 86000000 		.4byte	0x86
 693 00dd 03       		.uleb128 0x3
 694 00de 49020000 		.4byte	.LASF19
 695 00e2 04       		.byte	0x4
 696 00e3 33       		.byte	0x33
 697 00e4 74000000 		.4byte	0x74
 698 00e8 03       		.uleb128 0x3
 699 00e9 70020000 		.4byte	.LASF20
 700 00ed 04       		.byte	0x4
 701 00ee 35       		.byte	0x35
 702 00ef 86000000 		.4byte	0x86
 703 00f3 03       		.uleb128 0x3
 704 00f4 77040000 		.4byte	.LASF21
 705 00f8 04       		.byte	0x4
 706 00f9 36       		.byte	0x36
 707 00fa 86000000 		.4byte	0x86
 708 00fe 03       		.uleb128 0x3
 709 00ff E4010000 		.4byte	.LASF22
 710 0103 04       		.byte	0x4
 711 0104 37       		.byte	0x37
 712 0105 74000000 		.4byte	0x74
 713 0109 03       		.uleb128 0x3
 714 010a 08040000 		.4byte	.LASF23
 715 010e 05       		.byte	0x5
 716 010f 2A       		.byte	0x2a
 717 0110 14010000 		.4byte	0x114
 718 0114 05       		.uleb128 0x5
 719 0115 08040000 		.4byte	.LASF23
 720 0119 48       		.byte	0x48
 721 011a 06       		.byte	0x6
 722 011b 5E       		.byte	0x5e
 723 011c 2B020000 		.4byte	0x22b
ARM GAS  /tmp/cczF9pup.s 			page 14


 724 0120 06       		.uleb128 0x6
 725 0121 ED030000 		.4byte	.LASF24
 726 0125 06       		.byte	0x6
 727 0126 5F       		.byte	0x5f
 728 0127 50020000 		.4byte	0x250
 729 012b 02       		.byte	0x2
 730 012c 23       		.byte	0x23
 731 012d 00       		.uleb128 0
 732 012e 06       		.uleb128 0x6
 733 012f 6E030000 		.4byte	.LASF25
 734 0133 06       		.byte	0x6
 735 0134 61       		.byte	0x61
 736 0135 50020000 		.4byte	0x250
 737 0139 02       		.byte	0x2
 738 013a 23       		.byte	0x23
 739 013b 04       		.uleb128 0x4
 740 013c 06       		.uleb128 0x6
 741 013d 76000000 		.4byte	.LASF26
 742 0141 06       		.byte	0x6
 743 0142 63       		.byte	0x63
 744 0143 D2000000 		.4byte	0xd2
 745 0147 02       		.byte	0x2
 746 0148 23       		.byte	0x23
 747 0149 08       		.uleb128 0x8
 748 014a 06       		.uleb128 0x6
 749 014b F9050000 		.4byte	.LASF27
 750 014f 06       		.byte	0x6
 751 0150 64       		.byte	0x64
 752 0151 1D030000 		.4byte	0x31d
 753 0155 02       		.byte	0x2
 754 0156 23       		.byte	0x23
 755 0157 0C       		.uleb128 0xc
 756 0158 06       		.uleb128 0x6
 757 0159 5E010000 		.4byte	.LASF28
 758 015d 06       		.byte	0x6
 759 015e 66       		.byte	0x66
 760 015f 50020000 		.4byte	0x250
 761 0163 02       		.byte	0x2
 762 0164 23       		.byte	0x23
 763 0165 10       		.uleb128 0x10
 764 0166 06       		.uleb128 0x6
 765 0167 E4020000 		.4byte	.LASF29
 766 016b 06       		.byte	0x6
 767 016c 67       		.byte	0x67
 768 016d 50020000 		.4byte	0x250
 769 0171 02       		.byte	0x2
 770 0172 23       		.byte	0x23
 771 0173 14       		.uleb128 0x14
 772 0174 06       		.uleb128 0x6
 773 0175 A7050000 		.4byte	.LASF30
 774 0179 06       		.byte	0x6
 775 017a 6E       		.byte	0x6e
 776 017b 44040000 		.4byte	0x444
 777 017f 02       		.byte	0x2
 778 0180 23       		.byte	0x23
 779 0181 18       		.uleb128 0x18
 780 0182 06       		.uleb128 0x6
ARM GAS  /tmp/cczF9pup.s 			page 15


 781 0183 CE030000 		.4byte	.LASF31
 782 0187 06       		.byte	0x6
 783 0188 79       		.byte	0x79
 784 0189 BC000000 		.4byte	0xbc
 785 018d 02       		.byte	0x2
 786 018e 23       		.byte	0x23
 787 018f 1C       		.uleb128 0x1c
 788 0190 06       		.uleb128 0x6
 789 0191 F4030000 		.4byte	.LASF32
 790 0195 06       		.byte	0x6
 791 0196 7D       		.byte	0x7d
 792 0197 B1000000 		.4byte	0xb1
 793 019b 02       		.byte	0x2
 794 019c 23       		.byte	0x23
 795 019d 1D       		.uleb128 0x1d
 796 019e 06       		.uleb128 0x6
 797 019f 2E050000 		.4byte	.LASF33
 798 01a3 06       		.byte	0x6
 799 01a4 82       		.byte	0x82
 800 01a5 C7000000 		.4byte	0xc7
 801 01a9 02       		.byte	0x2
 802 01aa 23       		.byte	0x23
 803 01ab 1E       		.uleb128 0x1e
 804 01ac 06       		.uleb128 0x6
 805 01ad 4B010000 		.4byte	.LASF34
 806 01b1 06       		.byte	0x6
 807 01b2 89       		.byte	0x89
 808 01b3 4C030000 		.4byte	0x34c
 809 01b7 02       		.byte	0x2
 810 01b8 23       		.byte	0x23
 811 01b9 20       		.uleb128 0x20
 812 01ba 07       		.uleb128 0x7
 813 01bb 705F7500 		.ascii	"p_u\000"
 814 01bf 06       		.byte	0x6
 815 01c0 AE       		.byte	0xae
 816 01c1 0F040000 		.4byte	0x40f
 817 01c5 02       		.byte	0x2
 818 01c6 23       		.byte	0x23
 819 01c7 24       		.uleb128 0x24
 820 01c8 06       		.uleb128 0x6
 821 01c9 FF050000 		.4byte	.LASF35
 822 01cd 06       		.byte	0x6
 823 01ce B3       		.byte	0xb3
 824 01cf 78020000 		.4byte	0x278
 825 01d3 02       		.byte	0x2
 826 01d4 23       		.byte	0x23
 827 01d5 28       		.uleb128 0x28
 828 01d6 06       		.uleb128 0x6
 829 01d7 05020000 		.4byte	.LASF36
 830 01db 06       		.byte	0x6
 831 01dc B9       		.byte	0xb9
 832 01dd 56020000 		.4byte	0x256
 833 01e1 02       		.byte	0x2
 834 01e2 23       		.byte	0x23
 835 01e3 2C       		.uleb128 0x2c
 836 01e4 06       		.uleb128 0x6
 837 01e5 C1050000 		.4byte	.LASF37
ARM GAS  /tmp/cczF9pup.s 			page 16


 838 01e9 06       		.byte	0x6
 839 01ea BD       		.byte	0xbd
 840 01eb DD000000 		.4byte	0xdd
 841 01ef 02       		.byte	0x2
 842 01f0 23       		.byte	0x23
 843 01f1 34       		.uleb128 0x34
 844 01f2 06       		.uleb128 0x6
 845 01f3 1D040000 		.4byte	.LASF38
 846 01f7 06       		.byte	0x6
 847 01f8 C3       		.byte	0xc3
 848 01f9 E8000000 		.4byte	0xe8
 849 01fd 02       		.byte	0x2
 850 01fe 23       		.byte	0x23
 851 01ff 38       		.uleb128 0x38
 852 0200 06       		.uleb128 0x6
 853 0201 AC030000 		.4byte	.LASF39
 854 0205 06       		.byte	0x6
 855 0206 CA       		.byte	0xca
 856 0207 56040000 		.4byte	0x456
 857 020b 02       		.byte	0x2
 858 020c 23       		.byte	0x23
 859 020d 3C       		.uleb128 0x3c
 860 020e 06       		.uleb128 0x6
 861 020f 81040000 		.4byte	.LASF40
 862 0213 06       		.byte	0x6
 863 0214 CE       		.byte	0xce
 864 0215 D2000000 		.4byte	0xd2
 865 0219 02       		.byte	0x2
 866 021a 23       		.byte	0x23
 867 021b 40       		.uleb128 0x40
 868 021c 06       		.uleb128 0x6
 869 021d 9A000000 		.4byte	.LASF41
 870 0221 06       		.byte	0x6
 871 0222 D4       		.byte	0xd4
 872 0223 8E020000 		.4byte	0x28e
 873 0227 02       		.byte	0x2
 874 0228 23       		.byte	0x23
 875 0229 44       		.uleb128 0x44
 876 022a 00       		.byte	0
 877 022b 08       		.uleb128 0x8
 878 022c 08       		.byte	0x8
 879 022d 05       		.byte	0x5
 880 022e 61       		.byte	0x61
 881 022f 50020000 		.4byte	0x250
 882 0233 06       		.uleb128 0x6
 883 0234 ED030000 		.4byte	.LASF24
 884 0238 05       		.byte	0x5
 885 0239 62       		.byte	0x62
 886 023a 50020000 		.4byte	0x250
 887 023e 02       		.byte	0x2
 888 023f 23       		.byte	0x23
 889 0240 00       		.uleb128 0
 890 0241 06       		.uleb128 0x6
 891 0242 6E030000 		.4byte	.LASF25
 892 0246 05       		.byte	0x5
 893 0247 64       		.byte	0x64
 894 0248 50020000 		.4byte	0x250
ARM GAS  /tmp/cczF9pup.s 			page 17


 895 024c 02       		.byte	0x2
 896 024d 23       		.byte	0x23
 897 024e 04       		.uleb128 0x4
 898 024f 00       		.byte	0
 899 0250 09       		.uleb128 0x9
 900 0251 04       		.byte	0x4
 901 0252 09010000 		.4byte	0x109
 902 0256 03       		.uleb128 0x3
 903 0257 F2020000 		.4byte	.LASF42
 904 025b 05       		.byte	0x5
 905 025c 66       		.byte	0x66
 906 025d 2B020000 		.4byte	0x22b
 907 0261 08       		.uleb128 0x8
 908 0262 04       		.byte	0x4
 909 0263 05       		.byte	0x5
 910 0264 6B       		.byte	0x6b
 911 0265 78020000 		.4byte	0x278
 912 0269 06       		.uleb128 0x6
 913 026a ED030000 		.4byte	.LASF24
 914 026e 05       		.byte	0x5
 915 026f 6D       		.byte	0x6d
 916 0270 50020000 		.4byte	0x250
 917 0274 02       		.byte	0x2
 918 0275 23       		.byte	0x23
 919 0276 00       		.uleb128 0
 920 0277 00       		.byte	0
 921 0278 03       		.uleb128 0x3
 922 0279 64020000 		.4byte	.LASF43
 923 027d 05       		.byte	0x5
 924 027e 70       		.byte	0x70
 925 027f 61020000 		.4byte	0x261
 926 0283 03       		.uleb128 0x3
 927 0284 A4010000 		.4byte	.LASF44
 928 0288 07       		.byte	0x7
 929 0289 D7       		.byte	0xd7
 930 028a 8E020000 		.4byte	0x28e
 931 028e 0A       		.uleb128 0xa
 932 028f 04       		.byte	0x4
 933 0290 05       		.uleb128 0x5
 934 0291 F4040000 		.4byte	.LASF45
 935 0295 24       		.byte	0x24
 936 0296 07       		.byte	0x7
 937 0297 FE       		.byte	0xfe
 938 0298 1D030000 		.4byte	0x31d
 939 029c 0B       		.uleb128 0xb
 940 029d 723400   		.ascii	"r4\000"
 941 02a0 07       		.byte	0x7
 942 02a1 1101     		.2byte	0x111
 943 02a3 83020000 		.4byte	0x283
 944 02a7 02       		.byte	0x2
 945 02a8 23       		.byte	0x23
 946 02a9 00       		.uleb128 0
 947 02aa 0B       		.uleb128 0xb
 948 02ab 723500   		.ascii	"r5\000"
 949 02ae 07       		.byte	0x7
 950 02af 1201     		.2byte	0x112
 951 02b1 83020000 		.4byte	0x283
ARM GAS  /tmp/cczF9pup.s 			page 18


 952 02b5 02       		.byte	0x2
 953 02b6 23       		.byte	0x23
 954 02b7 04       		.uleb128 0x4
 955 02b8 0B       		.uleb128 0xb
 956 02b9 723600   		.ascii	"r6\000"
 957 02bc 07       		.byte	0x7
 958 02bd 1301     		.2byte	0x113
 959 02bf 83020000 		.4byte	0x283
 960 02c3 02       		.byte	0x2
 961 02c4 23       		.byte	0x23
 962 02c5 08       		.uleb128 0x8
 963 02c6 0B       		.uleb128 0xb
 964 02c7 723700   		.ascii	"r7\000"
 965 02ca 07       		.byte	0x7
 966 02cb 1401     		.2byte	0x114
 967 02cd 83020000 		.4byte	0x283
 968 02d1 02       		.byte	0x2
 969 02d2 23       		.byte	0x23
 970 02d3 0C       		.uleb128 0xc
 971 02d4 0B       		.uleb128 0xb
 972 02d5 723800   		.ascii	"r8\000"
 973 02d8 07       		.byte	0x7
 974 02d9 1501     		.2byte	0x115
 975 02db 83020000 		.4byte	0x283
 976 02df 02       		.byte	0x2
 977 02e0 23       		.byte	0x23
 978 02e1 10       		.uleb128 0x10
 979 02e2 0B       		.uleb128 0xb
 980 02e3 723900   		.ascii	"r9\000"
 981 02e6 07       		.byte	0x7
 982 02e7 1601     		.2byte	0x116
 983 02e9 83020000 		.4byte	0x283
 984 02ed 02       		.byte	0x2
 985 02ee 23       		.byte	0x23
 986 02ef 14       		.uleb128 0x14
 987 02f0 0B       		.uleb128 0xb
 988 02f1 72313000 		.ascii	"r10\000"
 989 02f5 07       		.byte	0x7
 990 02f6 1701     		.2byte	0x117
 991 02f8 83020000 		.4byte	0x283
 992 02fc 02       		.byte	0x2
 993 02fd 23       		.byte	0x23
 994 02fe 18       		.uleb128 0x18
 995 02ff 0B       		.uleb128 0xb
 996 0300 72313100 		.ascii	"r11\000"
 997 0304 07       		.byte	0x7
 998 0305 1801     		.2byte	0x118
 999 0307 83020000 		.4byte	0x283
 1000 030b 02       		.byte	0x2
 1001 030c 23       		.byte	0x23
 1002 030d 1C       		.uleb128 0x1c
 1003 030e 0B       		.uleb128 0xb
 1004 030f 6C7200   		.ascii	"lr\000"
 1005 0312 07       		.byte	0x7
 1006 0313 1901     		.2byte	0x119
 1007 0315 83020000 		.4byte	0x283
 1008 0319 02       		.byte	0x2
ARM GAS  /tmp/cczF9pup.s 			page 19


 1009 031a 23       		.byte	0x23
 1010 031b 20       		.uleb128 0x20
 1011 031c 00       		.byte	0
 1012 031d 0C       		.uleb128 0xc
 1013 031e A4040000 		.4byte	.LASF46
 1014 0322 04       		.byte	0x4
 1015 0323 07       		.byte	0x7
 1016 0324 2301     		.2byte	0x123
 1017 0326 3A030000 		.4byte	0x33a
 1018 032a 0B       		.uleb128 0xb
 1019 032b 72313300 		.ascii	"r13\000"
 1020 032f 07       		.byte	0x7
 1021 0330 2401     		.2byte	0x124
 1022 0332 3A030000 		.4byte	0x33a
 1023 0336 02       		.byte	0x2
 1024 0337 23       		.byte	0x23
 1025 0338 00       		.uleb128 0
 1026 0339 00       		.byte	0
 1027 033a 09       		.uleb128 0x9
 1028 033b 04       		.byte	0x4
 1029 033c 90020000 		.4byte	0x290
 1030 0340 0D       		.uleb128 0xd
 1031 0341 86000000 		.4byte	0x86
 1032 0345 04       		.uleb128 0x4
 1033 0346 04       		.byte	0x4
 1034 0347 07       		.byte	0x7
 1035 0348 C2020000 		.4byte	.LASF47
 1036 034c 0D       		.uleb128 0xd
 1037 034d F3000000 		.4byte	0xf3
 1038 0351 08       		.uleb128 0x8
 1039 0352 20       		.byte	0x20
 1040 0353 08       		.byte	0x8
 1041 0354 5E       		.byte	0x5e
 1042 0355 BC030000 		.4byte	0x3bc
 1043 0359 06       		.uleb128 0x6
 1044 035a 36040000 		.4byte	.LASF48
 1045 035e 08       		.byte	0x8
 1046 035f 5F       		.byte	0x5f
 1047 0360 56020000 		.4byte	0x256
 1048 0364 02       		.byte	0x2
 1049 0365 23       		.byte	0x23
 1050 0366 00       		.uleb128 0
 1051 0367 06       		.uleb128 0x6
 1052 0368 DF030000 		.4byte	.LASF49
 1053 036c 08       		.byte	0x8
 1054 036d 60       		.byte	0x60
 1055 036e D2000000 		.4byte	0xd2
 1056 0372 02       		.byte	0x2
 1057 0373 23       		.byte	0x23
 1058 0374 08       		.uleb128 0x8
 1059 0375 06       		.uleb128 0x6
 1060 0376 EC020000 		.4byte	.LASF50
 1061 037a 08       		.byte	0x8
 1062 037b 62       		.byte	0x62
 1063 037c 1D030000 		.4byte	0x31d
 1064 0380 02       		.byte	0x2
 1065 0381 23       		.byte	0x23
ARM GAS  /tmp/cczF9pup.s 			page 20


 1066 0382 0C       		.uleb128 0xc
 1067 0383 06       		.uleb128 0x6
 1068 0384 92010000 		.4byte	.LASF51
 1069 0388 08       		.byte	0x8
 1070 0389 65       		.byte	0x65
 1071 038a 50020000 		.4byte	0x250
 1072 038e 02       		.byte	0x2
 1073 038f 23       		.byte	0x23
 1074 0390 10       		.uleb128 0x10
 1075 0391 06       		.uleb128 0x6
 1076 0392 3B030000 		.4byte	.LASF52
 1077 0396 08       		.byte	0x8
 1078 0397 66       		.byte	0x66
 1079 0398 50020000 		.4byte	0x250
 1080 039c 02       		.byte	0x2
 1081 039d 23       		.byte	0x23
 1082 039e 14       		.uleb128 0x14
 1083 039f 06       		.uleb128 0x6
 1084 03a0 C7050000 		.4byte	.LASF53
 1085 03a4 08       		.byte	0x8
 1086 03a5 6A       		.byte	0x6a
 1087 03a6 FE000000 		.4byte	0xfe
 1088 03aa 02       		.byte	0x2
 1089 03ab 23       		.byte	0x23
 1090 03ac 18       		.uleb128 0x18
 1091 03ad 06       		.uleb128 0x6
 1092 03ae 31030000 		.4byte	.LASF54
 1093 03b2 08       		.byte	0x8
 1094 03b3 6C       		.byte	0x6c
 1095 03b4 50020000 		.4byte	0x250
 1096 03b8 02       		.byte	0x2
 1097 03b9 23       		.byte	0x23
 1098 03ba 1C       		.uleb128 0x1c
 1099 03bb 00       		.byte	0
 1100 03bc 03       		.uleb128 0x3
 1101 03bd 35050000 		.4byte	.LASF55
 1102 03c1 08       		.byte	0x8
 1103 03c2 6E       		.byte	0x6e
 1104 03c3 51030000 		.4byte	0x351
 1105 03c7 05       		.uleb128 0x5
 1106 03c8 CB020000 		.4byte	.LASF56
 1107 03cc 10       		.byte	0x10
 1108 03cd 09       		.byte	0x9
 1109 03ce 2C       		.byte	0x2c
 1110 03cf FE030000 		.4byte	0x3fe
 1111 03d3 06       		.uleb128 0x6
 1112 03d4 A9000000 		.4byte	.LASF57
 1113 03d8 09       		.byte	0x9
 1114 03d9 2D       		.byte	0x2d
 1115 03da 56020000 		.4byte	0x256
 1116 03de 02       		.byte	0x2
 1117 03df 23       		.byte	0x23
 1118 03e0 00       		.uleb128 0
 1119 03e1 06       		.uleb128 0x6
 1120 03e2 E3050000 		.4byte	.LASF58
 1121 03e6 09       		.byte	0x9
 1122 03e7 2F       		.byte	0x2f
ARM GAS  /tmp/cczF9pup.s 			page 21


 1123 03e8 50020000 		.4byte	0x250
 1124 03ec 02       		.byte	0x2
 1125 03ed 23       		.byte	0x23
 1126 03ee 08       		.uleb128 0x8
 1127 03ef 06       		.uleb128 0x6
 1128 03f0 1E030000 		.4byte	.LASF59
 1129 03f4 09       		.byte	0x9
 1130 03f5 31       		.byte	0x31
 1131 03f6 FE030000 		.4byte	0x3fe
 1132 03fa 02       		.byte	0x2
 1133 03fb 23       		.byte	0x23
 1134 03fc 0C       		.uleb128 0xc
 1135 03fd 00       		.byte	0
 1136 03fe 09       		.uleb128 0x9
 1137 03ff 04       		.byte	0x4
 1138 0400 C7030000 		.4byte	0x3c7
 1139 0404 03       		.uleb128 0x3
 1140 0405 CB020000 		.4byte	.LASF56
 1141 0409 09       		.byte	0x9
 1142 040a 33       		.byte	0x33
 1143 040b C7030000 		.4byte	0x3c7
 1144 040f 0E       		.uleb128 0xe
 1145 0410 04       		.byte	0x4
 1146 0411 06       		.byte	0x6
 1147 0412 90       		.byte	0x90
 1148 0413 44040000 		.4byte	0x444
 1149 0417 0F       		.uleb128 0xf
 1150 0418 0C000000 		.4byte	.LASF60
 1151 041c 06       		.byte	0x6
 1152 041d 97       		.byte	0x97
 1153 041e DD000000 		.4byte	0xdd
 1154 0422 0F       		.uleb128 0xf
 1155 0423 59000000 		.4byte	.LASF61
 1156 0427 06       		.byte	0x6
 1157 0428 9E       		.byte	0x9e
 1158 0429 DD000000 		.4byte	0xdd
 1159 042d 0F       		.uleb128 0xf
 1160 042e 93050000 		.4byte	.LASF62
 1161 0432 06       		.byte	0x6
 1162 0433 A5       		.byte	0xa5
 1163 0434 8E020000 		.4byte	0x28e
 1164 0438 0F       		.uleb128 0xf
 1165 0439 E6030000 		.4byte	.LASF63
 1166 043d 06       		.byte	0x6
 1167 043e AC       		.byte	0xac
 1168 043f E8000000 		.4byte	0xe8
 1169 0443 00       		.byte	0
 1170 0444 09       		.uleb128 0x9
 1171 0445 04       		.byte	0x4
 1172 0446 4A040000 		.4byte	0x44a
 1173 044a 10       		.uleb128 0x10
 1174 044b 4F040000 		.4byte	0x44f
 1175 044f 04       		.uleb128 0x4
 1176 0450 01       		.byte	0x1
 1177 0451 08       		.byte	0x8
 1178 0452 5C040000 		.4byte	.LASF64
 1179 0456 09       		.uleb128 0x9
ARM GAS  /tmp/cczF9pup.s 			page 22


 1180 0457 04       		.byte	0x4
 1181 0458 04040000 		.4byte	0x404
 1182 045c 0D       		.uleb128 0xd
 1183 045d 74000000 		.4byte	0x74
 1184 0461 11       		.uleb128 0x11
 1185 0462 50       		.byte	0x50
 1186 0463 0A       		.byte	0xa
 1187 0464 2C01     		.2byte	0x12c
 1188 0466 95050000 		.4byte	0x595
 1189 046a 0B       		.uleb128 0xb
 1190 046b 535200   		.ascii	"SR\000"
 1191 046e 0A       		.byte	0xa
 1192 046f 2E01     		.2byte	0x12e
 1193 0471 40030000 		.4byte	0x340
 1194 0475 02       		.byte	0x2
 1195 0476 23       		.byte	0x23
 1196 0477 00       		.uleb128 0
 1197 0478 0B       		.uleb128 0xb
 1198 0479 43523100 		.ascii	"CR1\000"
 1199 047d 0A       		.byte	0xa
 1200 047e 2F01     		.2byte	0x12f
 1201 0480 40030000 		.4byte	0x340
 1202 0484 02       		.byte	0x2
 1203 0485 23       		.byte	0x23
 1204 0486 04       		.uleb128 0x4
 1205 0487 0B       		.uleb128 0xb
 1206 0488 43523200 		.ascii	"CR2\000"
 1207 048c 0A       		.byte	0xa
 1208 048d 3001     		.2byte	0x130
 1209 048f 40030000 		.4byte	0x340
 1210 0493 02       		.byte	0x2
 1211 0494 23       		.byte	0x23
 1212 0495 08       		.uleb128 0x8
 1213 0496 12       		.uleb128 0x12
 1214 0497 12030000 		.4byte	.LASF65
 1215 049b 0A       		.byte	0xa
 1216 049c 3101     		.2byte	0x131
 1217 049e 40030000 		.4byte	0x340
 1218 04a2 02       		.byte	0x2
 1219 04a3 23       		.byte	0x23
 1220 04a4 0C       		.uleb128 0xc
 1221 04a5 12       		.uleb128 0x12
 1222 04a6 18030000 		.4byte	.LASF66
 1223 04aa 0A       		.byte	0xa
 1224 04ab 3201     		.2byte	0x132
 1225 04ad 40030000 		.4byte	0x340
 1226 04b1 02       		.byte	0x2
 1227 04b2 23       		.byte	0x23
 1228 04b3 10       		.uleb128 0x10
 1229 04b4 12       		.uleb128 0x12
 1230 04b5 A1020000 		.4byte	.LASF67
 1231 04b9 0A       		.byte	0xa
 1232 04ba 3301     		.2byte	0x133
 1233 04bc 40030000 		.4byte	0x340
 1234 04c0 02       		.byte	0x2
 1235 04c1 23       		.byte	0x23
 1236 04c2 14       		.uleb128 0x14
ARM GAS  /tmp/cczF9pup.s 			page 23


 1237 04c3 12       		.uleb128 0x12
 1238 04c4 A7020000 		.4byte	.LASF68
 1239 04c8 0A       		.byte	0xa
 1240 04c9 3401     		.2byte	0x134
 1241 04cb 40030000 		.4byte	0x340
 1242 04cf 02       		.byte	0x2
 1243 04d0 23       		.byte	0x23
 1244 04d1 18       		.uleb128 0x18
 1245 04d2 12       		.uleb128 0x12
 1246 04d3 FC030000 		.4byte	.LASF69
 1247 04d7 0A       		.byte	0xa
 1248 04d8 3501     		.2byte	0x135
 1249 04da 40030000 		.4byte	0x340
 1250 04de 02       		.byte	0x2
 1251 04df 23       		.byte	0x23
 1252 04e0 1C       		.uleb128 0x1c
 1253 04e1 12       		.uleb128 0x12
 1254 04e2 02040000 		.4byte	.LASF70
 1255 04e6 0A       		.byte	0xa
 1256 04e7 3601     		.2byte	0x136
 1257 04e9 40030000 		.4byte	0x340
 1258 04ed 02       		.byte	0x2
 1259 04ee 23       		.byte	0x23
 1260 04ef 20       		.uleb128 0x20
 1261 04f0 0B       		.uleb128 0xb
 1262 04f1 48545200 		.ascii	"HTR\000"
 1263 04f5 0A       		.byte	0xa
 1264 04f6 3701     		.2byte	0x137
 1265 04f8 40030000 		.4byte	0x340
 1266 04fc 02       		.byte	0x2
 1267 04fd 23       		.byte	0x23
 1268 04fe 24       		.uleb128 0x24
 1269 04ff 0B       		.uleb128 0xb
 1270 0500 4C545200 		.ascii	"LTR\000"
 1271 0504 0A       		.byte	0xa
 1272 0505 3801     		.2byte	0x138
 1273 0507 40030000 		.4byte	0x340
 1274 050b 02       		.byte	0x2
 1275 050c 23       		.byte	0x23
 1276 050d 28       		.uleb128 0x28
 1277 050e 12       		.uleb128 0x12
 1278 050f 43030000 		.4byte	.LASF71
 1279 0513 0A       		.byte	0xa
 1280 0514 3901     		.2byte	0x139
 1281 0516 40030000 		.4byte	0x340
 1282 051a 02       		.byte	0x2
 1283 051b 23       		.byte	0x23
 1284 051c 2C       		.uleb128 0x2c
 1285 051d 12       		.uleb128 0x12
 1286 051e 48030000 		.4byte	.LASF72
 1287 0522 0A       		.byte	0xa
 1288 0523 3A01     		.2byte	0x13a
 1289 0525 40030000 		.4byte	0x340
 1290 0529 02       		.byte	0x2
 1291 052a 23       		.byte	0x23
 1292 052b 30       		.uleb128 0x30
 1293 052c 12       		.uleb128 0x12
ARM GAS  /tmp/cczF9pup.s 			page 24


 1294 052d 4D030000 		.4byte	.LASF73
 1295 0531 0A       		.byte	0xa
 1296 0532 3B01     		.2byte	0x13b
 1297 0534 40030000 		.4byte	0x340
 1298 0538 02       		.byte	0x2
 1299 0539 23       		.byte	0x23
 1300 053a 34       		.uleb128 0x34
 1301 053b 12       		.uleb128 0x12
 1302 053c 7D000000 		.4byte	.LASF74
 1303 0540 0A       		.byte	0xa
 1304 0541 3C01     		.2byte	0x13c
 1305 0543 40030000 		.4byte	0x340
 1306 0547 02       		.byte	0x2
 1307 0548 23       		.byte	0x23
 1308 0549 38       		.uleb128 0x38
 1309 054a 12       		.uleb128 0x12
 1310 054b 7F050000 		.4byte	.LASF75
 1311 054f 0A       		.byte	0xa
 1312 0550 3D01     		.2byte	0x13d
 1313 0552 40030000 		.4byte	0x340
 1314 0556 02       		.byte	0x2
 1315 0557 23       		.byte	0x23
 1316 0558 3C       		.uleb128 0x3c
 1317 0559 12       		.uleb128 0x12
 1318 055a 84050000 		.4byte	.LASF76
 1319 055e 0A       		.byte	0xa
 1320 055f 3E01     		.2byte	0x13e
 1321 0561 40030000 		.4byte	0x340
 1322 0565 02       		.byte	0x2
 1323 0566 23       		.byte	0x23
 1324 0567 40       		.uleb128 0x40
 1325 0568 12       		.uleb128 0x12
 1326 0569 89050000 		.4byte	.LASF77
 1327 056d 0A       		.byte	0xa
 1328 056e 3F01     		.2byte	0x13f
 1329 0570 40030000 		.4byte	0x340
 1330 0574 02       		.byte	0x2
 1331 0575 23       		.byte	0x23
 1332 0576 44       		.uleb128 0x44
 1333 0577 12       		.uleb128 0x12
 1334 0578 8E050000 		.4byte	.LASF78
 1335 057c 0A       		.byte	0xa
 1336 057d 4001     		.2byte	0x140
 1337 057f 40030000 		.4byte	0x340
 1338 0583 02       		.byte	0x2
 1339 0584 23       		.byte	0x23
 1340 0585 48       		.uleb128 0x48
 1341 0586 0B       		.uleb128 0xb
 1342 0587 445200   		.ascii	"DR\000"
 1343 058a 0A       		.byte	0xa
 1344 058b 4101     		.2byte	0x141
 1345 058d 40030000 		.4byte	0x340
 1346 0591 02       		.byte	0x2
 1347 0592 23       		.byte	0x23
 1348 0593 4C       		.uleb128 0x4c
 1349 0594 00       		.byte	0
 1350 0595 13       		.uleb128 0x13
ARM GAS  /tmp/cczF9pup.s 			page 25


 1351 0596 52010000 		.4byte	.LASF79
 1352 059a 0A       		.byte	0xa
 1353 059b 4201     		.2byte	0x142
 1354 059d 61040000 		.4byte	0x461
 1355 05a1 11       		.uleb128 0x11
 1356 05a2 18       		.byte	0x18
 1357 05a3 0A       		.byte	0xa
 1358 05a4 D301     		.2byte	0x1d3
 1359 05a6 04060000 		.4byte	0x604
 1360 05aa 0B       		.uleb128 0xb
 1361 05ab 435200   		.ascii	"CR\000"
 1362 05ae 0A       		.byte	0xa
 1363 05af D501     		.2byte	0x1d5
 1364 05b1 40030000 		.4byte	0x340
 1365 05b5 02       		.byte	0x2
 1366 05b6 23       		.byte	0x23
 1367 05b7 00       		.uleb128 0
 1368 05b8 12       		.uleb128 0x12
 1369 05b9 8C040000 		.4byte	.LASF80
 1370 05bd 0A       		.byte	0xa
 1371 05be D601     		.2byte	0x1d6
 1372 05c0 40030000 		.4byte	0x340
 1373 05c4 02       		.byte	0x2
 1374 05c5 23       		.byte	0x23
 1375 05c6 04       		.uleb128 0x4
 1376 05c7 0B       		.uleb128 0xb
 1377 05c8 50415200 		.ascii	"PAR\000"
 1378 05cc 0A       		.byte	0xa
 1379 05cd D701     		.2byte	0x1d7
 1380 05cf 40030000 		.4byte	0x340
 1381 05d3 02       		.byte	0x2
 1382 05d4 23       		.byte	0x23
 1383 05d5 08       		.uleb128 0x8
 1384 05d6 12       		.uleb128 0x12
 1385 05d7 00000000 		.4byte	.LASF81
 1386 05db 0A       		.byte	0xa
 1387 05dc D801     		.2byte	0x1d8
 1388 05de 40030000 		.4byte	0x340
 1389 05e2 02       		.byte	0x2
 1390 05e3 23       		.byte	0x23
 1391 05e4 0C       		.uleb128 0xc
 1392 05e5 12       		.uleb128 0x12
 1393 05e6 FB040000 		.4byte	.LASF82
 1394 05ea 0A       		.byte	0xa
 1395 05eb D901     		.2byte	0x1d9
 1396 05ed 40030000 		.4byte	0x340
 1397 05f1 02       		.byte	0x2
 1398 05f2 23       		.byte	0x23
 1399 05f3 10       		.uleb128 0x10
 1400 05f4 0B       		.uleb128 0xb
 1401 05f5 46435200 		.ascii	"FCR\000"
 1402 05f9 0A       		.byte	0xa
 1403 05fa DA01     		.2byte	0x1da
 1404 05fc 40030000 		.4byte	0x340
 1405 0600 02       		.byte	0x2
 1406 0601 23       		.byte	0x23
 1407 0602 14       		.uleb128 0x14
ARM GAS  /tmp/cczF9pup.s 			page 26


 1408 0603 00       		.byte	0
 1409 0604 13       		.uleb128 0x13
 1410 0605 91040000 		.4byte	.LASF83
 1411 0609 0A       		.byte	0xa
 1412 060a DB01     		.2byte	0x1db
 1413 060c A1050000 		.4byte	0x5a1
 1414 0610 08       		.uleb128 0x8
 1415 0611 0C       		.byte	0xc
 1416 0612 0B       		.byte	0xb
 1417 0613 DB       		.byte	0xdb
 1418 0614 5F060000 		.4byte	0x65f
 1419 0618 06       		.uleb128 0x6
 1420 0619 2E000000 		.4byte	.LASF84
 1421 061d 0B       		.byte	0xb
 1422 061e DC       		.byte	0xdc
 1423 061f 5F060000 		.4byte	0x65f
 1424 0623 02       		.byte	0x2
 1425 0624 23       		.byte	0x23
 1426 0625 00       		.uleb128 0
 1427 0626 06       		.uleb128 0x6
 1428 0627 28040000 		.4byte	.LASF85
 1429 062b 0B       		.byte	0xb
 1430 062c DD       		.byte	0xdd
 1431 062d 65060000 		.4byte	0x665
 1432 0631 02       		.byte	0x2
 1433 0632 23       		.byte	0x23
 1434 0633 04       		.uleb128 0x4
 1435 0634 06       		.uleb128 0x6
 1436 0635 1F020000 		.4byte	.LASF86
 1437 0639 0B       		.byte	0xb
 1438 063a DE       		.byte	0xde
 1439 063b 49000000 		.4byte	0x49
 1440 063f 02       		.byte	0x2
 1441 0640 23       		.byte	0x23
 1442 0641 08       		.uleb128 0x8
 1443 0642 06       		.uleb128 0x6
 1444 0643 AD010000 		.4byte	.LASF87
 1445 0647 0B       		.byte	0xb
 1446 0648 E0       		.byte	0xe0
 1447 0649 49000000 		.4byte	0x49
 1448 064d 02       		.byte	0x2
 1449 064e 23       		.byte	0x23
 1450 064f 09       		.uleb128 0x9
 1451 0650 06       		.uleb128 0x6
 1452 0651 62000000 		.4byte	.LASF88
 1453 0655 0B       		.byte	0xb
 1454 0656 E1       		.byte	0xe1
 1455 0657 49000000 		.4byte	0x49
 1456 065b 02       		.byte	0x2
 1457 065c 23       		.byte	0x23
 1458 065d 0A       		.uleb128 0xa
 1459 065e 00       		.byte	0
 1460 065f 09       		.uleb128 0x9
 1461 0660 04       		.byte	0x4
 1462 0661 04060000 		.4byte	0x604
 1463 0665 09       		.uleb128 0x9
 1464 0666 04       		.byte	0x4
ARM GAS  /tmp/cczF9pup.s 			page 27


 1465 0667 40030000 		.4byte	0x340
 1466 066b 03       		.uleb128 0x3
 1467 066c 75030000 		.4byte	.LASF89
 1468 0670 0B       		.byte	0xb
 1469 0671 E2       		.byte	0xe2
 1470 0672 10060000 		.4byte	0x610
 1471 0676 14       		.uleb128 0x14
 1472 0677 01       		.byte	0x1
 1473 0678 0C       		.byte	0xc
 1474 0679 55       		.byte	0x55
 1475 067a A3060000 		.4byte	0x6a3
 1476 067e 15       		.uleb128 0x15
 1477 067f BD010000 		.4byte	.LASF90
 1478 0683 00       		.sleb128 0
 1479 0684 15       		.uleb128 0x15
 1480 0685 D1020000 		.4byte	.LASF91
 1481 0689 01       		.sleb128 1
 1482 068a 15       		.uleb128 0x15
 1483 068b 39020000 		.4byte	.LASF92
 1484 068f 02       		.sleb128 2
 1485 0690 15       		.uleb128 0x15
 1486 0691 D9010000 		.4byte	.LASF93
 1487 0695 03       		.sleb128 3
 1488 0696 15       		.uleb128 0x15
 1489 0697 9A050000 		.4byte	.LASF94
 1490 069b 04       		.sleb128 4
 1491 069c 15       		.uleb128 0x15
 1492 069d C3000000 		.4byte	.LASF95
 1493 06a1 05       		.sleb128 5
 1494 06a2 00       		.byte	0
 1495 06a3 03       		.uleb128 0x3
 1496 06a4 1B000000 		.4byte	.LASF96
 1497 06a8 0C       		.byte	0xc
 1498 06a9 5C       		.byte	0x5c
 1499 06aa 76060000 		.4byte	0x676
 1500 06ae 13       		.uleb128 0x13
 1501 06af 86010000 		.4byte	.LASF97
 1502 06b3 0D       		.byte	0xd
 1503 06b4 2E01     		.2byte	0x12e
 1504 06b6 62000000 		.4byte	0x62
 1505 06ba 13       		.uleb128 0x13
 1506 06bb AE050000 		.4byte	.LASF98
 1507 06bf 0D       		.byte	0xd
 1508 06c0 3301     		.2byte	0x133
 1509 06c2 62000000 		.4byte	0x62
 1510 06c6 16       		.uleb128 0x16
 1511 06c7 01       		.byte	0x1
 1512 06c8 0D       		.byte	0xd
 1513 06c9 3A01     		.2byte	0x13a
 1514 06cb DC060000 		.4byte	0x6dc
 1515 06cf 15       		.uleb128 0x15
 1516 06d0 E5000000 		.4byte	.LASF99
 1517 06d4 00       		.sleb128 0
 1518 06d5 15       		.uleb128 0x15
 1519 06d6 C8010000 		.4byte	.LASF100
 1520 06da 01       		.sleb128 1
 1521 06db 00       		.byte	0
ARM GAS  /tmp/cczF9pup.s 			page 28


 1522 06dc 13       		.uleb128 0x13
 1523 06dd B1000000 		.4byte	.LASF101
 1524 06e1 0D       		.byte	0xd
 1525 06e2 3D01     		.2byte	0x13d
 1526 06e4 C6060000 		.4byte	0x6c6
 1527 06e8 13       		.uleb128 0x13
 1528 06e9 10020000 		.4byte	.LASF102
 1529 06ed 0D       		.byte	0xd
 1530 06ee 4201     		.2byte	0x142
 1531 06f0 F4060000 		.4byte	0x6f4
 1532 06f4 0C       		.uleb128 0xc
 1533 06f5 10020000 		.4byte	.LASF102
 1534 06f9 34       		.byte	0x34
 1535 06fa 0D       		.byte	0xd
 1536 06fb A601     		.2byte	0x1a6
 1537 06fd 98070000 		.4byte	0x798
 1538 0701 12       		.uleb128 0x12
 1539 0702 CD000000 		.4byte	.LASF103
 1540 0706 0D       		.byte	0xd
 1541 0707 AA01     		.2byte	0x1aa
 1542 0709 A3060000 		.4byte	0x6a3
 1543 070d 02       		.byte	0x2
 1544 070e 23       		.byte	0x23
 1545 070f 00       		.uleb128 0
 1546 0710 12       		.uleb128 0x12
 1547 0711 61040000 		.4byte	.LASF104
 1548 0715 0D       		.byte	0xd
 1549 0716 AE01     		.2byte	0x1ae
 1550 0718 CF080000 		.4byte	0x8cf
 1551 071c 02       		.byte	0x2
 1552 071d 23       		.byte	0x23
 1553 071e 04       		.uleb128 0x4
 1554 071f 12       		.uleb128 0x12
 1555 0720 BA020000 		.4byte	.LASF105
 1556 0724 0D       		.byte	0xd
 1557 0725 B201     		.2byte	0x1b2
 1558 0727 C6070000 		.4byte	0x7c6
 1559 072b 02       		.byte	0x2
 1560 072c 23       		.byte	0x23
 1561 072d 08       		.uleb128 0x8
 1562 072e 12       		.uleb128 0x12
 1563 072f 43020000 		.4byte	.LASF106
 1564 0733 0D       		.byte	0xd
 1565 0734 B601     		.2byte	0x1b6
 1566 0736 30000000 		.4byte	0x30
 1567 073a 02       		.byte	0x2
 1568 073b 23       		.byte	0x23
 1569 073c 0C       		.uleb128 0xc
 1570 073d 12       		.uleb128 0x12
 1571 073e 9C020000 		.4byte	.LASF107
 1572 0742 0D       		.byte	0xd
 1573 0743 BA01     		.2byte	0x1ba
 1574 0745 DA080000 		.4byte	0x8da
 1575 0749 02       		.byte	0x2
 1576 074a 23       		.byte	0x23
 1577 074b 10       		.uleb128 0x10
 1578 074c 12       		.uleb128 0x12
ARM GAS  /tmp/cczF9pup.s 			page 29


 1579 074d 2D010000 		.4byte	.LASF108
 1580 0751 0D       		.byte	0xd
 1581 0752 BF01     		.2byte	0x1bf
 1582 0754 50020000 		.4byte	0x250
 1583 0758 02       		.byte	0x2
 1584 0759 23       		.byte	0x23
 1585 075a 14       		.uleb128 0x14
 1586 075b 12       		.uleb128 0x12
 1587 075c 90030000 		.4byte	.LASF109
 1588 0760 0D       		.byte	0xd
 1589 0761 C601     		.2byte	0x1c6
 1590 0763 04040000 		.4byte	0x404
 1591 0767 02       		.byte	0x2
 1592 0768 23       		.byte	0x23
 1593 0769 18       		.uleb128 0x18
 1594 076a 0B       		.uleb128 0xb
 1595 076b 61646300 		.ascii	"adc\000"
 1596 076f 0D       		.byte	0xd
 1597 0770 D201     		.2byte	0x1d2
 1598 0772 E5080000 		.4byte	0x8e5
 1599 0776 02       		.byte	0x2
 1600 0777 23       		.byte	0x23
 1601 0778 28       		.uleb128 0x28
 1602 0779 12       		.uleb128 0x12
 1603 077a BC000000 		.4byte	.LASF110
 1604 077e 0D       		.byte	0xd
 1605 077f D601     		.2byte	0x1d6
 1606 0781 EB080000 		.4byte	0x8eb
 1607 0785 02       		.byte	0x2
 1608 0786 23       		.byte	0x23
 1609 0787 2C       		.uleb128 0x2c
 1610 0788 12       		.uleb128 0x12
 1611 0789 13000000 		.4byte	.LASF111
 1612 078d 0D       		.byte	0xd
 1613 078e DA01     		.2byte	0x1da
 1614 0790 86000000 		.4byte	0x86
 1615 0794 02       		.byte	0x2
 1616 0795 23       		.byte	0x23
 1617 0796 30       		.uleb128 0x30
 1618 0797 00       		.byte	0
 1619 0798 13       		.uleb128 0x13
 1620 0799 6D010000 		.4byte	.LASF112
 1621 079d 0D       		.byte	0xd
 1622 079e 4C01     		.2byte	0x14c
 1623 07a0 A4070000 		.4byte	0x7a4
 1624 07a4 09       		.uleb128 0x9
 1625 07a5 04       		.byte	0x4
 1626 07a6 AA070000 		.4byte	0x7aa
 1627 07aa 17       		.uleb128 0x17
 1628 07ab 01       		.byte	0x1
 1629 07ac C0070000 		.4byte	0x7c0
 1630 07b0 18       		.uleb128 0x18
 1631 07b1 C0070000 		.4byte	0x7c0
 1632 07b5 18       		.uleb128 0x18
 1633 07b6 C6070000 		.4byte	0x7c6
 1634 07ba 18       		.uleb128 0x18
 1635 07bb 30000000 		.4byte	0x30
ARM GAS  /tmp/cczF9pup.s 			page 30


 1636 07bf 00       		.byte	0
 1637 07c0 09       		.uleb128 0x9
 1638 07c1 04       		.byte	0x4
 1639 07c2 E8060000 		.4byte	0x6e8
 1640 07c6 09       		.uleb128 0x9
 1641 07c7 04       		.byte	0x4
 1642 07c8 AE060000 		.4byte	0x6ae
 1643 07cc 13       		.uleb128 0x13
 1644 07cd 11010000 		.4byte	.LASF113
 1645 07d1 0D       		.byte	0xd
 1646 07d2 5501     		.2byte	0x155
 1647 07d4 D8070000 		.4byte	0x7d8
 1648 07d8 09       		.uleb128 0x9
 1649 07d9 04       		.byte	0x4
 1650 07da DE070000 		.4byte	0x7de
 1651 07de 17       		.uleb128 0x17
 1652 07df 01       		.byte	0x1
 1653 07e0 EF070000 		.4byte	0x7ef
 1654 07e4 18       		.uleb128 0x18
 1655 07e5 C0070000 		.4byte	0x7c0
 1656 07e9 18       		.uleb128 0x18
 1657 07ea DC060000 		.4byte	0x6dc
 1658 07ee 00       		.byte	0
 1659 07ef 11       		.uleb128 0x11
 1660 07f0 2C       		.byte	0x2c
 1661 07f1 0D       		.byte	0xd
 1662 07f2 5F01     		.2byte	0x15f
 1663 07f4 9E080000 		.4byte	0x89e
 1664 07f8 12       		.uleb128 0x12
 1665 07f9 D3000000 		.4byte	.LASF114
 1666 07fd 0D       		.byte	0xd
 1667 07fe 6301     		.2byte	0x163
 1668 0800 A6000000 		.4byte	0xa6
 1669 0804 02       		.byte	0x2
 1670 0805 23       		.byte	0x23
 1671 0806 00       		.uleb128 0
 1672 0807 12       		.uleb128 0x12
 1673 0808 57020000 		.4byte	.LASF115
 1674 080c 0D       		.byte	0xd
 1675 080d 6701     		.2byte	0x167
 1676 080f BA060000 		.4byte	0x6ba
 1677 0813 02       		.byte	0x2
 1678 0814 23       		.byte	0x23
 1679 0815 04       		.uleb128 0x4
 1680 0816 12       		.uleb128 0x12
 1681 0817 66010000 		.4byte	.LASF116
 1682 081b 0D       		.byte	0xd
 1683 081c 6B01     		.2byte	0x16b
 1684 081e 98070000 		.4byte	0x798
 1685 0822 02       		.byte	0x2
 1686 0823 23       		.byte	0x23
 1687 0824 08       		.uleb128 0x8
 1688 0825 12       		.uleb128 0x12
 1689 0826 D6030000 		.4byte	.LASF117
 1690 082a 0D       		.byte	0xd
 1691 082b 6F01     		.2byte	0x16f
 1692 082d CC070000 		.4byte	0x7cc
ARM GAS  /tmp/cczF9pup.s 			page 31


 1693 0831 02       		.byte	0x2
 1694 0832 23       		.byte	0x23
 1695 0833 0C       		.uleb128 0xc
 1696 0834 0B       		.uleb128 0xb
 1697 0835 63723100 		.ascii	"cr1\000"
 1698 0839 0D       		.byte	0xd
 1699 083a 7601     		.2byte	0x176
 1700 083c 86000000 		.4byte	0x86
 1701 0840 02       		.byte	0x2
 1702 0841 23       		.byte	0x23
 1703 0842 10       		.uleb128 0x10
 1704 0843 0B       		.uleb128 0xb
 1705 0844 63723200 		.ascii	"cr2\000"
 1706 0848 0D       		.byte	0xd
 1707 0849 7D01     		.2byte	0x17d
 1708 084b 86000000 		.4byte	0x86
 1709 084f 02       		.byte	0x2
 1710 0850 23       		.byte	0x23
 1711 0851 14       		.uleb128 0x14
 1712 0852 12       		.uleb128 0x12
 1713 0853 3F050000 		.4byte	.LASF118
 1714 0857 0D       		.byte	0xd
 1715 0858 8301     		.2byte	0x183
 1716 085a 86000000 		.4byte	0x86
 1717 085e 02       		.byte	0x2
 1718 085f 23       		.byte	0x23
 1719 0860 18       		.uleb128 0x18
 1720 0861 12       		.uleb128 0x12
 1721 0862 45050000 		.4byte	.LASF119
 1722 0866 0D       		.byte	0xd
 1723 0867 8901     		.2byte	0x189
 1724 0869 86000000 		.4byte	0x86
 1725 086d 02       		.byte	0x2
 1726 086e 23       		.byte	0x23
 1727 086f 1C       		.uleb128 0x1c
 1728 0870 12       		.uleb128 0x12
 1729 0871 68040000 		.4byte	.LASF120
 1730 0875 0D       		.byte	0xd
 1731 0876 8E01     		.2byte	0x18e
 1732 0878 86000000 		.4byte	0x86
 1733 087c 02       		.byte	0x2
 1734 087d 23       		.byte	0x23
 1735 087e 20       		.uleb128 0x20
 1736 087f 12       		.uleb128 0x12
 1737 0880 6D040000 		.4byte	.LASF121
 1738 0884 0D       		.byte	0xd
 1739 0885 9301     		.2byte	0x193
 1740 0887 86000000 		.4byte	0x86
 1741 088b 02       		.byte	0x2
 1742 088c 23       		.byte	0x23
 1743 088d 24       		.uleb128 0x24
 1744 088e 12       		.uleb128 0x12
 1745 088f 72040000 		.4byte	.LASF122
 1746 0893 0D       		.byte	0xd
 1747 0894 9801     		.2byte	0x198
 1748 0896 86000000 		.4byte	0x86
 1749 089a 02       		.byte	0x2
ARM GAS  /tmp/cczF9pup.s 			page 32


 1750 089b 23       		.byte	0x23
 1751 089c 28       		.uleb128 0x28
 1752 089d 00       		.byte	0
 1753 089e 13       		.uleb128 0x13
 1754 089f 6C050000 		.4byte	.LASF123
 1755 08a3 0D       		.byte	0xd
 1756 08a4 9901     		.2byte	0x199
 1757 08a6 EF070000 		.4byte	0x7ef
 1758 08aa 11       		.uleb128 0x11
 1759 08ab 04       		.byte	0x4
 1760 08ac 0D       		.byte	0xd
 1761 08ad 9F01     		.2byte	0x19f
 1762 08af C3080000 		.4byte	0x8c3
 1763 08b3 12       		.uleb128 0x12
 1764 08b4 B7010000 		.4byte	.LASF124
 1765 08b8 0D       		.byte	0xd
 1766 08b9 A001     		.2byte	0x1a0
 1767 08bb 86000000 		.4byte	0x86
 1768 08bf 02       		.byte	0x2
 1769 08c0 23       		.byte	0x23
 1770 08c1 00       		.uleb128 0
 1771 08c2 00       		.byte	0
 1772 08c3 13       		.uleb128 0x13
 1773 08c4 9A010000 		.4byte	.LASF125
 1774 08c8 0D       		.byte	0xd
 1775 08c9 A101     		.2byte	0x1a1
 1776 08cb AA080000 		.4byte	0x8aa
 1777 08cf 09       		.uleb128 0x9
 1778 08d0 04       		.byte	0x4
 1779 08d1 D5080000 		.4byte	0x8d5
 1780 08d5 10       		.uleb128 0x10
 1781 08d6 C3080000 		.4byte	0x8c3
 1782 08da 09       		.uleb128 0x9
 1783 08db 04       		.byte	0x4
 1784 08dc E0080000 		.4byte	0x8e0
 1785 08e0 10       		.uleb128 0x10
 1786 08e1 9E080000 		.4byte	0x89e
 1787 08e5 09       		.uleb128 0x9
 1788 08e6 04       		.byte	0x4
 1789 08e7 95050000 		.4byte	0x595
 1790 08eb 09       		.uleb128 0x9
 1791 08ec 04       		.byte	0x4
 1792 08ed F1080000 		.4byte	0x8f1
 1793 08f1 10       		.uleb128 0x10
 1794 08f2 6B060000 		.4byte	0x66b
 1795 08f6 19       		.uleb128 0x19
 1796 08f7 01       		.byte	0x1
 1797 08f8 52030000 		.4byte	.LASF138
 1798 08fc 01       		.byte	0x1
 1799 08fd BB       		.byte	0xbb
 1800 08fe 01       		.byte	0x1
 1801 08ff 01       		.byte	0x1
 1802 0900 31090000 		.4byte	0x931
 1803 0904 1A       		.uleb128 0x1a
 1804 0905 1A020000 		.4byte	.LASF126
 1805 0909 01       		.byte	0x1
 1806 090a BB       		.byte	0xbb
ARM GAS  /tmp/cczF9pup.s 			page 33


 1807 090b C0070000 		.4byte	0x7c0
 1808 090f 1A       		.uleb128 0x1a
 1809 0910 9C020000 		.4byte	.LASF107
 1810 0914 01       		.byte	0x1
 1811 0915 BC       		.byte	0xbc
 1812 0916 DA080000 		.4byte	0x8da
 1813 091a 1A       		.uleb128 0x1a
 1814 091b BA020000 		.4byte	.LASF105
 1815 091f 01       		.byte	0x1
 1816 0920 BD       		.byte	0xbd
 1817 0921 C6070000 		.4byte	0x7c6
 1818 0925 1A       		.uleb128 0x1a
 1819 0926 43020000 		.4byte	.LASF106
 1820 092a 01       		.byte	0x1
 1821 092b BE       		.byte	0xbe
 1822 092c 30000000 		.4byte	0x30
 1823 0930 00       		.byte	0
 1824 0931 1B       		.uleb128 0x1b
 1825 0932 01       		.byte	0x1
 1826 0933 86020000 		.4byte	.LASF127
 1827 0937 01       		.byte	0x1
 1828 0938 44       		.byte	0x44
 1829 0939 01       		.byte	0x1
 1830 093a 00000000 		.4byte	.LFB117
 1831 093e 04000000 		.4byte	.LFE117
 1832 0942 02       		.byte	0x2
 1833 0943 7D       		.byte	0x7d
 1834 0944 00       		.sleb128 0
 1835 0945 01       		.byte	0x1
 1836 0946 55090000 		.4byte	0x955
 1837 094a 1C       		.uleb128 0x1c
 1838 094b 04000000 		.4byte	.LVL0
 1839 094f 01       		.byte	0x1
 1840 0950 240E0000 		.4byte	0xe24
 1841 0954 00       		.byte	0
 1842 0955 1B       		.uleb128 0x1b
 1843 0956 01       		.byte	0x1
 1844 0957 F7010000 		.4byte	.LASF128
 1845 095b 01       		.byte	0x1
 1846 095c 50       		.byte	0x50
 1847 095d 01       		.byte	0x1
 1848 095e 00000000 		.4byte	.LFB118
 1849 0962 16000000 		.4byte	.LFE118
 1850 0966 02       		.byte	0x2
 1851 0967 7D       		.byte	0x7d
 1852 0968 00       		.sleb128 0
 1853 0969 01       		.byte	0x1
 1854 096a 92090000 		.4byte	0x992
 1855 096e 1D       		.uleb128 0x1d
 1856 096f 1A020000 		.4byte	.LASF126
 1857 0973 01       		.byte	0x1
 1858 0974 50       		.byte	0x50
 1859 0975 C0070000 		.4byte	0x7c0
 1860 0979 00000000 		.4byte	.LLST0
 1861 097d 1E       		.uleb128 0x1e
 1862 097e 16000000 		.4byte	.LVL3
 1863 0982 01       		.byte	0x1
ARM GAS  /tmp/cczF9pup.s 			page 34


 1864 0983 2F0E0000 		.4byte	0xe2f
 1865 0987 1F       		.uleb128 0x1f
 1866 0988 01       		.byte	0x1
 1867 0989 50       		.byte	0x50
 1868 098a 05       		.byte	0x5
 1869 098b F3       		.byte	0xf3
 1870 098c 01       		.uleb128 0x1
 1871 098d 50       		.byte	0x50
 1872 098e 23       		.byte	0x23
 1873 098f 18       		.uleb128 0x18
 1874 0990 00       		.byte	0
 1875 0991 00       		.byte	0
 1876 0992 20       		.uleb128 0x20
 1877 0993 01       		.byte	0x1
 1878 0994 25050000 		.4byte	.LASF129
 1879 0998 01       		.byte	0x1
 1880 0999 6F       		.byte	0x6f
 1881 099a 01       		.byte	0x1
 1882 099b 00000000 		.4byte	.LFB119
 1883 099f 1C000000 		.4byte	.LFE119
 1884 09a3 2E000000 		.4byte	.LLST1
 1885 09a7 01       		.byte	0x1
 1886 09a8 110A0000 		.4byte	0xa11
 1887 09ac 1D       		.uleb128 0x1d
 1888 09ad 1A020000 		.4byte	.LASF126
 1889 09b1 01       		.byte	0x1
 1890 09b2 6F       		.byte	0x6f
 1891 09b3 C0070000 		.4byte	0x7c0
 1892 09b7 4E000000 		.4byte	.LLST2
 1893 09bb 1D       		.uleb128 0x1d
 1894 09bc 61040000 		.4byte	.LASF104
 1895 09c0 01       		.byte	0x1
 1896 09c1 6F       		.byte	0x6f
 1897 09c2 CF080000 		.4byte	0x8cf
 1898 09c6 6C000000 		.4byte	.LLST3
 1899 09ca 21       		.uleb128 0x21
 1900 09cb 00000000 		.4byte	.Ldebug_ranges0+0
 1901 09cf E3090000 		.4byte	0x9e3
 1902 09d3 22       		.uleb128 0x22
 1903 09d4 746D7000 		.ascii	"tmp\000"
 1904 09d8 01       		.byte	0x1
 1905 09d9 73       		.byte	0x73
 1906 09da 86000000 		.4byte	0x86
 1907 09de 8D000000 		.4byte	.LLST4
 1908 09e2 00       		.byte	0
 1909 09e3 23       		.uleb128 0x23
 1910 09e4 14000000 		.4byte	.LBB12
 1911 09e8 1C000000 		.4byte	.LBE12
 1912 09ec 000A0000 		.4byte	0xa00
 1913 09f0 22       		.uleb128 0x22
 1914 09f1 746D7000 		.ascii	"tmp\000"
 1915 09f5 01       		.byte	0x1
 1916 09f6 79       		.byte	0x79
 1917 09f7 86000000 		.4byte	0x86
 1918 09fb A0000000 		.4byte	.LLST5
 1919 09ff 00       		.byte	0
 1920 0a00 24       		.uleb128 0x24
ARM GAS  /tmp/cczF9pup.s 			page 35


 1921 0a01 10000000 		.4byte	.LVL7
 1922 0a05 430E0000 		.4byte	0xe43
 1923 0a09 1F       		.uleb128 0x1f
 1924 0a0a 01       		.byte	0x1
 1925 0a0b 50       		.byte	0x50
 1926 0a0c 02       		.byte	0x2
 1927 0a0d 74       		.byte	0x74
 1928 0a0e 00       		.sleb128 0
 1929 0a0f 00       		.byte	0
 1930 0a10 00       		.byte	0
 1931 0a11 20       		.uleb128 0x20
 1932 0a12 01       		.byte	0x1
 1933 0a13 26000000 		.4byte	.LASF130
 1934 0a17 01       		.byte	0x1
 1935 0a18 83       		.byte	0x83
 1936 0a19 01       		.byte	0x1
 1937 0a1a 00000000 		.4byte	.LFB120
 1938 0a1e 1A000000 		.4byte	.LFE120
 1939 0a22 B3000000 		.4byte	.LLST6
 1940 0a26 01       		.byte	0x1
 1941 0a27 810A0000 		.4byte	0xa81
 1942 0a2b 1D       		.uleb128 0x1d
 1943 0a2c 1A020000 		.4byte	.LASF126
 1944 0a30 01       		.byte	0x1
 1945 0a31 83       		.byte	0x83
 1946 0a32 C0070000 		.4byte	0x7c0
 1947 0a36 D3000000 		.4byte	.LLST7
 1948 0a3a 21       		.uleb128 0x21
 1949 0a3b 18000000 		.4byte	.Ldebug_ranges0+0x18
 1950 0a3f 530A0000 		.4byte	0xa53
 1951 0a43 22       		.uleb128 0x22
 1952 0a44 746D7000 		.ascii	"tmp\000"
 1953 0a48 01       		.byte	0x1
 1954 0a49 87       		.byte	0x87
 1955 0a4a 86000000 		.4byte	0x86
 1956 0a4e F1000000 		.4byte	.LLST8
 1957 0a52 00       		.byte	0
 1958 0a53 23       		.uleb128 0x23
 1959 0a54 12000000 		.4byte	.LBB15
 1960 0a58 1A000000 		.4byte	.LBE15
 1961 0a5c 700A0000 		.4byte	0xa70
 1962 0a60 22       		.uleb128 0x22
 1963 0a61 746D7000 		.ascii	"tmp\000"
 1964 0a65 01       		.byte	0x1
 1965 0a66 8C       		.byte	0x8c
 1966 0a67 86000000 		.4byte	0x86
 1967 0a6b 04010000 		.4byte	.LLST9
 1968 0a6f 00       		.byte	0
 1969 0a70 24       		.uleb128 0x24
 1970 0a71 0E000000 		.4byte	.LVL13
 1971 0a75 580E0000 		.4byte	0xe58
 1972 0a79 1F       		.uleb128 0x1f
 1973 0a7a 01       		.byte	0x1
 1974 0a7b 50       		.byte	0x50
 1975 0a7c 02       		.byte	0x2
 1976 0a7d 74       		.byte	0x74
 1977 0a7e 00       		.sleb128 0
ARM GAS  /tmp/cczF9pup.s 			page 36


 1978 0a7f 00       		.byte	0
 1979 0a80 00       		.byte	0
 1980 0a81 20       		.uleb128 0x20
 1981 0a82 01       		.byte	0x1
 1982 0a83 E1040000 		.4byte	.LASF131
 1983 0a87 01       		.byte	0x1
 1984 0a88 9F       		.byte	0x9f
 1985 0a89 01       		.byte	0x1
 1986 0a8a 00000000 		.4byte	.LFB121
 1987 0a8e 22000000 		.4byte	.LFE121
 1988 0a92 17010000 		.4byte	.LLST10
 1989 0a96 01       		.byte	0x1
 1990 0a97 540B0000 		.4byte	0xb54
 1991 0a9b 1D       		.uleb128 0x1d
 1992 0a9c 1A020000 		.4byte	.LASF126
 1993 0aa0 01       		.byte	0x1
 1994 0aa1 9F       		.byte	0x9f
 1995 0aa2 C0070000 		.4byte	0x7c0
 1996 0aa6 37010000 		.4byte	.LLST11
 1997 0aaa 1D       		.uleb128 0x1d
 1998 0aab 9C020000 		.4byte	.LASF107
 1999 0aaf 01       		.byte	0x1
 2000 0ab0 A0       		.byte	0xa0
 2001 0ab1 DA080000 		.4byte	0x8da
 2002 0ab5 55010000 		.4byte	.LLST12
 2003 0ab9 1D       		.uleb128 0x1d
 2004 0aba BA020000 		.4byte	.LASF105
 2005 0abe 01       		.byte	0x1
 2006 0abf A1       		.byte	0xa1
 2007 0ac0 C6070000 		.4byte	0x7c6
 2008 0ac4 76010000 		.4byte	.LLST13
 2009 0ac8 1D       		.uleb128 0x1d
 2010 0ac9 43020000 		.4byte	.LASF106
 2011 0acd 01       		.byte	0x1
 2012 0ace A2       		.byte	0xa2
 2013 0acf 30000000 		.4byte	0x30
 2014 0ad3 97010000 		.4byte	.LLST14
 2015 0ad7 23       		.uleb128 0x23
 2016 0ad8 06000000 		.4byte	.LBB16
 2017 0adc 0C000000 		.4byte	.LBE16
 2018 0ae0 F40A0000 		.4byte	0xaf4
 2019 0ae4 22       		.uleb128 0x22
 2020 0ae5 746D7000 		.ascii	"tmp\000"
 2021 0ae9 01       		.byte	0x1
 2022 0aea A4       		.byte	0xa4
 2023 0aeb 86000000 		.4byte	0x86
 2024 0aef B5010000 		.4byte	.LLST15
 2025 0af3 00       		.byte	0
 2026 0af4 25       		.uleb128 0x25
 2027 0af5 F6080000 		.4byte	0x8f6
 2028 0af9 0C000000 		.4byte	.LBB17
 2029 0afd 1A000000 		.4byte	.LBE17
 2030 0b01 01       		.byte	0x1
 2031 0b02 A5       		.byte	0xa5
 2032 0b03 3A0B0000 		.4byte	0xb3a
 2033 0b07 26       		.uleb128 0x26
 2034 0b08 25090000 		.4byte	0x925
ARM GAS  /tmp/cczF9pup.s 			page 37


 2035 0b0c 01       		.byte	0x1
 2036 0b0d 55       		.byte	0x55
 2037 0b0e 27       		.uleb128 0x27
 2038 0b0f 1A090000 		.4byte	0x91a
 2039 0b13 C8010000 		.4byte	.LLST16
 2040 0b17 27       		.uleb128 0x27
 2041 0b18 0F090000 		.4byte	0x90f
 2042 0b1c E9010000 		.4byte	.LLST17
 2043 0b20 27       		.uleb128 0x27
 2044 0b21 04090000 		.4byte	0x904
 2045 0b25 0A020000 		.4byte	.LLST18
 2046 0b29 24       		.uleb128 0x24
 2047 0b2a 1A000000 		.4byte	.LVL20
 2048 0b2e 6D0E0000 		.4byte	0xe6d
 2049 0b32 1F       		.uleb128 0x1f
 2050 0b33 01       		.byte	0x1
 2051 0b34 50       		.byte	0x50
 2052 0b35 02       		.byte	0x2
 2053 0b36 74       		.byte	0x74
 2054 0b37 00       		.sleb128 0
 2055 0b38 00       		.byte	0
 2056 0b39 00       		.byte	0
 2057 0b3a 28       		.uleb128 0x28
 2058 0b3b 1A000000 		.4byte	.LBB19
 2059 0b3f 22000000 		.4byte	.LBE19
 2060 0b43 22       		.uleb128 0x22
 2061 0b44 746D7000 		.ascii	"tmp\000"
 2062 0b48 01       		.byte	0x1
 2063 0b49 A6       		.byte	0xa6
 2064 0b4a 86000000 		.4byte	0x86
 2065 0b4e 28020000 		.4byte	.LLST19
 2066 0b52 00       		.byte	0
 2067 0b53 00       		.byte	0
 2068 0b54 29       		.uleb128 0x29
 2069 0b55 F6080000 		.4byte	0x8f6
 2070 0b59 00000000 		.4byte	.LFB122
 2071 0b5d 14000000 		.4byte	.LFE122
 2072 0b61 3B020000 		.4byte	.LLST20
 2073 0b65 01       		.byte	0x1
 2074 0b66 A00B0000 		.4byte	0xba0
 2075 0b6a 27       		.uleb128 0x27
 2076 0b6b 04090000 		.4byte	0x904
 2077 0b6f 5B020000 		.4byte	.LLST21
 2078 0b73 27       		.uleb128 0x27
 2079 0b74 0F090000 		.4byte	0x90f
 2080 0b78 79020000 		.4byte	.LLST22
 2081 0b7c 27       		.uleb128 0x27
 2082 0b7d 1A090000 		.4byte	0x91a
 2083 0b81 9A020000 		.4byte	.LLST23
 2084 0b85 27       		.uleb128 0x27
 2085 0b86 25090000 		.4byte	0x925
 2086 0b8a BB020000 		.4byte	.LLST24
 2087 0b8e 1E       		.uleb128 0x1e
 2088 0b8f 14000000 		.4byte	.LVL25
 2089 0b93 01       		.byte	0x1
 2090 0b94 6D0E0000 		.4byte	0xe6d
 2091 0b98 1F       		.uleb128 0x1f
ARM GAS  /tmp/cczF9pup.s 			page 38


 2092 0b99 01       		.byte	0x1
 2093 0b9a 50       		.byte	0x50
 2094 0b9b 02       		.byte	0x2
 2095 0b9c 74       		.byte	0x74
 2096 0b9d 00       		.sleb128 0
 2097 0b9e 00       		.byte	0
 2098 0b9f 00       		.byte	0
 2099 0ba0 20       		.uleb128 0x20
 2100 0ba1 01       		.byte	0x1
 2101 0ba2 D1050000 		.4byte	.LASF132
 2102 0ba6 01       		.byte	0x1
 2103 0ba7 DA       		.byte	0xda
 2104 0ba8 01       		.byte	0x1
 2105 0ba9 00000000 		.4byte	.LFB123
 2106 0bad 32000000 		.4byte	.LFE123
 2107 0bb1 E8020000 		.4byte	.LLST25
 2108 0bb5 01       		.byte	0x1
 2109 0bb6 3C0C0000 		.4byte	0xc3c
 2110 0bba 1D       		.uleb128 0x1d
 2111 0bbb 1A020000 		.4byte	.LASF126
 2112 0bbf 01       		.byte	0x1
 2113 0bc0 DA       		.byte	0xda
 2114 0bc1 C0070000 		.4byte	0x7c0
 2115 0bc5 08030000 		.4byte	.LLST26
 2116 0bc9 21       		.uleb128 0x21
 2117 0bca 30000000 		.4byte	.Ldebug_ranges0+0x30
 2118 0bce E20B0000 		.4byte	0xbe2
 2119 0bd2 22       		.uleb128 0x22
 2120 0bd3 746D7000 		.ascii	"tmp\000"
 2121 0bd7 01       		.byte	0x1
 2122 0bd8 DE       		.byte	0xde
 2123 0bd9 86000000 		.4byte	0x86
 2124 0bdd 26030000 		.4byte	.LLST27
 2125 0be1 00       		.byte	0
 2126 0be2 23       		.uleb128 0x23
 2127 0be3 20000000 		.4byte	.LBB22
 2128 0be7 2A000000 		.4byte	.LBE22
 2129 0beb 0E0C0000 		.4byte	0xc0e
 2130 0bef 22       		.uleb128 0x22
 2131 0bf0 747000   		.ascii	"tp\000"
 2132 0bf3 01       		.byte	0x1
 2133 0bf4 E6       		.byte	0xe6
 2134 0bf5 50020000 		.4byte	0x250
 2135 0bf9 39030000 		.4byte	.LLST28
 2136 0bfd 24       		.uleb128 0x24
 2137 0bfe 2A000000 		.4byte	.LVL32
 2138 0c02 820E0000 		.4byte	0xe82
 2139 0c06 1F       		.uleb128 0x1f
 2140 0c07 01       		.byte	0x1
 2141 0c08 51       		.byte	0x51
 2142 0c09 02       		.byte	0x2
 2143 0c0a 09       		.byte	0x9
 2144 0c0b FE       		.byte	0xfe
 2145 0c0c 00       		.byte	0
 2146 0c0d 00       		.byte	0
 2147 0c0e 23       		.uleb128 0x23
 2148 0c0f 2A000000 		.4byte	.LBB23
ARM GAS  /tmp/cczF9pup.s 			page 39


 2149 0c13 32000000 		.4byte	.LBE23
 2150 0c17 2B0C0000 		.4byte	0xc2b
 2151 0c1b 22       		.uleb128 0x22
 2152 0c1c 746D7000 		.ascii	"tmp\000"
 2153 0c20 01       		.byte	0x1
 2154 0c21 E8       		.byte	0xe8
 2155 0c22 86000000 		.4byte	0x86
 2156 0c26 4C030000 		.4byte	.LLST29
 2157 0c2a 00       		.byte	0
 2158 0c2b 24       		.uleb128 0x24
 2159 0c2c 14000000 		.4byte	.LVL30
 2160 0c30 9B0E0000 		.4byte	0xe9b
 2161 0c34 1F       		.uleb128 0x1f
 2162 0c35 01       		.byte	0x1
 2163 0c36 50       		.byte	0x50
 2164 0c37 02       		.byte	0x2
 2165 0c38 74       		.byte	0x74
 2166 0c39 00       		.sleb128 0
 2167 0c3a 00       		.byte	0
 2168 0c3b 00       		.byte	0
 2169 0c3c 20       		.uleb128 0x20
 2170 0c3d 01       		.byte	0x1
 2171 0c3e 59050000 		.4byte	.LASF133
 2172 0c42 01       		.byte	0x1
 2173 0c43 F5       		.byte	0xf5
 2174 0c44 01       		.byte	0x1
 2175 0c45 00000000 		.4byte	.LFB124
 2176 0c49 2E000000 		.4byte	.LFE124
 2177 0c4d 5F030000 		.4byte	.LLST30
 2178 0c51 01       		.byte	0x1
 2179 0c52 990C0000 		.4byte	0xc99
 2180 0c56 1D       		.uleb128 0x1d
 2181 0c57 1A020000 		.4byte	.LASF126
 2182 0c5b 01       		.byte	0x1
 2183 0c5c F5       		.byte	0xf5
 2184 0c5d C0070000 		.4byte	0x7c0
 2185 0c61 7F030000 		.4byte	.LLST31
 2186 0c65 21       		.uleb128 0x21
 2187 0c66 48000000 		.4byte	.Ldebug_ranges0+0x48
 2188 0c6a 880C0000 		.4byte	0xc88
 2189 0c6e 2A       		.uleb128 0x2a
 2190 0c6f 747000   		.ascii	"tp\000"
 2191 0c72 01       		.byte	0x1
 2192 0c73 0201     		.2byte	0x102
 2193 0c75 50020000 		.4byte	0x250
 2194 0c79 9D030000 		.4byte	.LLST32
 2195 0c7d 1C       		.uleb128 0x1c
 2196 0c7e 2C000000 		.4byte	.LVL38
 2197 0c82 01       		.byte	0x1
 2198 0c83 B00E0000 		.4byte	0xeb0
 2199 0c87 00       		.byte	0
 2200 0c88 24       		.uleb128 0x24
 2201 0c89 0E000000 		.4byte	.LVL36
 2202 0c8d 9B0E0000 		.4byte	0xe9b
 2203 0c91 1F       		.uleb128 0x1f
 2204 0c92 01       		.byte	0x1
 2205 0c93 50       		.byte	0x50
ARM GAS  /tmp/cczF9pup.s 			page 40


 2206 0c94 02       		.byte	0x2
 2207 0c95 74       		.byte	0x74
 2208 0c96 00       		.sleb128 0
 2209 0c97 00       		.byte	0
 2210 0c98 00       		.byte	0
 2211 0c99 2B       		.uleb128 0x2b
 2212 0c9a 01       		.byte	0x1
 2213 0c9b 7B010000 		.4byte	.LASF150
 2214 0c9f 01       		.byte	0x1
 2215 0ca0 1E01     		.2byte	0x11e
 2216 0ca2 01       		.byte	0x1
 2217 0ca3 DD000000 		.4byte	0xdd
 2218 0ca7 00000000 		.4byte	.LFB125
 2219 0cab 38000000 		.4byte	.LFE125
 2220 0caf B0030000 		.4byte	.LLST33
 2221 0cb3 01       		.byte	0x1
 2222 0cb4 950D0000 		.4byte	0xd95
 2223 0cb8 2C       		.uleb128 0x2c
 2224 0cb9 1A020000 		.4byte	.LASF126
 2225 0cbd 01       		.byte	0x1
 2226 0cbe 1E01     		.2byte	0x11e
 2227 0cc0 C0070000 		.4byte	0x7c0
 2228 0cc4 D0030000 		.4byte	.LLST34
 2229 0cc8 2C       		.uleb128 0x2c
 2230 0cc9 9C020000 		.4byte	.LASF107
 2231 0ccd 01       		.byte	0x1
 2232 0cce 1F01     		.2byte	0x11f
 2233 0cd0 DA080000 		.4byte	0x8da
 2234 0cd4 EE030000 		.4byte	.LLST35
 2235 0cd8 2C       		.uleb128 0x2c
 2236 0cd9 BA020000 		.4byte	.LASF105
 2237 0cdd 01       		.byte	0x1
 2238 0cde 2001     		.2byte	0x120
 2239 0ce0 C6070000 		.4byte	0x7c6
 2240 0ce4 0F040000 		.4byte	.LLST36
 2241 0ce8 2C       		.uleb128 0x2c
 2242 0ce9 43020000 		.4byte	.LASF106
 2243 0ced 01       		.byte	0x1
 2244 0cee 2101     		.2byte	0x121
 2245 0cf0 30000000 		.4byte	0x30
 2246 0cf4 30040000 		.4byte	.LLST37
 2247 0cf8 2D       		.uleb128 0x2d
 2248 0cf9 6D736700 		.ascii	"msg\000"
 2249 0cfd 01       		.byte	0x1
 2250 0cfe 2201     		.2byte	0x122
 2251 0d00 DD000000 		.4byte	0xdd
 2252 0d04 01       		.byte	0x1
 2253 0d05 50       		.byte	0x50
 2254 0d06 23       		.uleb128 0x23
 2255 0d07 06000000 		.4byte	.LBB26
 2256 0d0b 0C000000 		.4byte	.LBE26
 2257 0d0f 240D0000 		.4byte	0xd24
 2258 0d13 2A       		.uleb128 0x2a
 2259 0d14 746D7000 		.ascii	"tmp\000"
 2260 0d18 01       		.byte	0x1
 2261 0d19 2401     		.2byte	0x124
 2262 0d1b 86000000 		.4byte	0x86
ARM GAS  /tmp/cczF9pup.s 			page 41


 2263 0d1f 4E040000 		.4byte	.LLST38
 2264 0d23 00       		.byte	0
 2265 0d24 2E       		.uleb128 0x2e
 2266 0d25 F6080000 		.4byte	0x8f6
 2267 0d29 10000000 		.4byte	.LBB27
 2268 0d2d 60000000 		.4byte	.Ldebug_ranges0+0x60
 2269 0d31 01       		.byte	0x1
 2270 0d32 2601     		.2byte	0x126
 2271 0d34 6B0D0000 		.4byte	0xd6b
 2272 0d38 26       		.uleb128 0x26
 2273 0d39 25090000 		.4byte	0x925
 2274 0d3d 01       		.byte	0x1
 2275 0d3e 56       		.byte	0x56
 2276 0d3f 27       		.uleb128 0x27
 2277 0d40 1A090000 		.4byte	0x91a
 2278 0d44 61040000 		.4byte	.LLST39
 2279 0d48 27       		.uleb128 0x27
 2280 0d49 0F090000 		.4byte	0x90f
 2281 0d4d 82040000 		.4byte	.LLST40
 2282 0d51 27       		.uleb128 0x27
 2283 0d52 04090000 		.4byte	0x904
 2284 0d56 A3040000 		.4byte	.LLST41
 2285 0d5a 24       		.uleb128 0x24
 2286 0d5b 22000000 		.4byte	.LVL43
 2287 0d5f 6D0E0000 		.4byte	0xe6d
 2288 0d63 1F       		.uleb128 0x1f
 2289 0d64 01       		.byte	0x1
 2290 0d65 50       		.byte	0x50
 2291 0d66 02       		.byte	0x2
 2292 0d67 74       		.byte	0x74
 2293 0d68 00       		.sleb128 0
 2294 0d69 00       		.byte	0
 2295 0d6a 00       		.byte	0
 2296 0d6b 21       		.uleb128 0x21
 2297 0d6c 78000000 		.4byte	.Ldebug_ranges0+0x78
 2298 0d70 850D0000 		.4byte	0xd85
 2299 0d74 2A       		.uleb128 0x2a
 2300 0d75 746D7000 		.ascii	"tmp\000"
 2301 0d79 01       		.byte	0x1
 2302 0d7a 2A01     		.2byte	0x12a
 2303 0d7c 86000000 		.4byte	0x86
 2304 0d80 C1040000 		.4byte	.LLST42
 2305 0d84 00       		.byte	0
 2306 0d85 24       		.uleb128 0x24
 2307 0d86 2C000000 		.4byte	.LVL44
 2308 0d8a C80E0000 		.4byte	0xec8
 2309 0d8e 1F       		.uleb128 0x1f
 2310 0d8f 01       		.byte	0x1
 2311 0d90 50       		.byte	0x50
 2312 0d91 01       		.byte	0x1
 2313 0d92 32       		.byte	0x32
 2314 0d93 00       		.byte	0
 2315 0d94 00       		.byte	0
 2316 0d95 2F       		.uleb128 0x2f
 2317 0d96 01       		.byte	0x1
 2318 0d97 EB050000 		.4byte	.LASF134
 2319 0d9b 01       		.byte	0x1
ARM GAS  /tmp/cczF9pup.s 			page 42


 2320 0d9c 3B01     		.2byte	0x13b
 2321 0d9e 01       		.byte	0x1
 2322 0d9f 00000000 		.4byte	.LFB126
 2323 0da3 06000000 		.4byte	.LFE126
 2324 0da7 02       		.byte	0x2
 2325 0da8 7D       		.byte	0x7d
 2326 0da9 00       		.sleb128 0
 2327 0daa 01       		.byte	0x1
 2328 0dab D40D0000 		.4byte	0xdd4
 2329 0daf 2C       		.uleb128 0x2c
 2330 0db0 1A020000 		.4byte	.LASF126
 2331 0db4 01       		.byte	0x1
 2332 0db5 3B01     		.2byte	0x13b
 2333 0db7 C0070000 		.4byte	0x7c0
 2334 0dbb D4040000 		.4byte	.LLST43
 2335 0dbf 1E       		.uleb128 0x1e
 2336 0dc0 06000000 		.4byte	.LVL50
 2337 0dc4 01       		.byte	0x1
 2338 0dc5 DC0E0000 		.4byte	0xedc
 2339 0dc9 1F       		.uleb128 0x1f
 2340 0dca 01       		.byte	0x1
 2341 0dcb 50       		.byte	0x50
 2342 0dcc 05       		.byte	0x5
 2343 0dcd F3       		.byte	0xf3
 2344 0dce 01       		.uleb128 0x1
 2345 0dcf 50       		.byte	0x50
 2346 0dd0 23       		.byte	0x23
 2347 0dd1 18       		.uleb128 0x18
 2348 0dd2 00       		.byte	0
 2349 0dd3 00       		.byte	0
 2350 0dd4 2F       		.uleb128 0x2f
 2351 0dd5 01       		.byte	0x1
 2352 0dd6 8E020000 		.4byte	.LASF135
 2353 0dda 01       		.byte	0x1
 2354 0ddb 4F01     		.2byte	0x14f
 2355 0ddd 01       		.byte	0x1
 2356 0dde 00000000 		.4byte	.LFB127
 2357 0de2 04000000 		.4byte	.LFE127
 2358 0de6 02       		.byte	0x2
 2359 0de7 7D       		.byte	0x7d
 2360 0de8 00       		.sleb128 0
 2361 0de9 01       		.byte	0x1
 2362 0dea 090E0000 		.4byte	0xe09
 2363 0dee 2C       		.uleb128 0x2c
 2364 0def 1A020000 		.4byte	.LASF126
 2365 0df3 01       		.byte	0x1
 2366 0df4 4F01     		.2byte	0x14f
 2367 0df6 C0070000 		.4byte	0x7c0
 2368 0dfa 02050000 		.4byte	.LLST44
 2369 0dfe 1C       		.uleb128 0x1c
 2370 0dff 04000000 		.4byte	.LVL52
 2371 0e03 01       		.byte	0x1
 2372 0e04 F00E0000 		.4byte	0xef0
 2373 0e08 00       		.byte	0
 2374 0e09 30       		.uleb128 0x30
 2375 0e0a 4B050000 		.4byte	.LASF136
 2376 0e0e 08       		.byte	0x8
ARM GAS  /tmp/cczF9pup.s 			page 43


 2377 0e0f 72       		.byte	0x72
 2378 0e10 BC030000 		.4byte	0x3bc
 2379 0e14 01       		.byte	0x1
 2380 0e15 01       		.byte	0x1
 2381 0e16 31       		.uleb128 0x31
 2382 0e17 69000000 		.4byte	.LASF137
 2383 0e1b 0E       		.byte	0xe
 2384 0e1c 1A05     		.2byte	0x51a
 2385 0e1e 5C040000 		.4byte	0x45c
 2386 0e22 01       		.byte	0x1
 2387 0e23 01       		.byte	0x1
 2388 0e24 32       		.uleb128 0x32
 2389 0e25 01       		.byte	0x1
 2390 0e26 AD020000 		.4byte	.LASF151
 2391 0e2a 0D       		.byte	0xd
 2392 0e2b 2D02     		.2byte	0x22d
 2393 0e2d 01       		.byte	0x1
 2394 0e2e 01       		.byte	0x1
 2395 0e2f 33       		.uleb128 0x33
 2396 0e30 01       		.byte	0x1
 2397 0e31 1B050000 		.4byte	.LASF139
 2398 0e35 09       		.byte	0x9
 2399 0e36 38       		.byte	0x38
 2400 0e37 01       		.byte	0x1
 2401 0e38 01       		.byte	0x1
 2402 0e39 430E0000 		.4byte	0xe43
 2403 0e3d 18       		.uleb128 0x18
 2404 0e3e 56040000 		.4byte	0x456
 2405 0e42 00       		.byte	0
 2406 0e43 34       		.uleb128 0x34
 2407 0e44 01       		.byte	0x1
 2408 0e45 00050000 		.4byte	.LASF140
 2409 0e49 0D       		.byte	0xd
 2410 0e4a 2E02     		.2byte	0x22e
 2411 0e4c 01       		.byte	0x1
 2412 0e4d 01       		.byte	0x1
 2413 0e4e 580E0000 		.4byte	0xe58
 2414 0e52 18       		.uleb128 0x18
 2415 0e53 C0070000 		.4byte	0x7c0
 2416 0e57 00       		.byte	0
 2417 0e58 34       		.uleb128 0x34
 2418 0e59 01       		.byte	0x1
 2419 0e5a 35000000 		.4byte	.LASF141
 2420 0e5e 0D       		.byte	0xd
 2421 0e5f 2F02     		.2byte	0x22f
 2422 0e61 01       		.byte	0x1
 2423 0e62 01       		.byte	0x1
 2424 0e63 6D0E0000 		.4byte	0xe6d
 2425 0e67 18       		.uleb128 0x18
 2426 0e68 C0070000 		.4byte	0x7c0
 2427 0e6c 00       		.byte	0
 2428 0e6d 34       		.uleb128 0x34
 2429 0e6e 01       		.byte	0x1
 2430 0e6f F8000000 		.4byte	.LASF142
 2431 0e73 0D       		.byte	0xd
 2432 0e74 3002     		.2byte	0x230
 2433 0e76 01       		.byte	0x1
ARM GAS  /tmp/cczF9pup.s 			page 44


 2434 0e77 01       		.byte	0x1
 2435 0e78 820E0000 		.4byte	0xe82
 2436 0e7c 18       		.uleb128 0x18
 2437 0e7d C0070000 		.4byte	0x7c0
 2438 0e81 00       		.byte	0
 2439 0e82 33       		.uleb128 0x33
 2440 0e83 01       		.byte	0x1
 2441 0e84 0E050000 		.4byte	.LASF143
 2442 0e88 08       		.byte	0x8
 2443 0e89 9C       		.byte	0x9c
 2444 0e8a 01       		.byte	0x1
 2445 0e8b 01       		.byte	0x1
 2446 0e8c 9B0E0000 		.4byte	0xe9b
 2447 0e90 18       		.uleb128 0x18
 2448 0e91 50020000 		.4byte	0x250
 2449 0e95 18       		.uleb128 0x18
 2450 0e96 DD000000 		.4byte	0xdd
 2451 0e9a 00       		.byte	0
 2452 0e9b 34       		.uleb128 0x34
 2453 0e9c 01       		.byte	0x1
 2454 0e9d B6030000 		.4byte	.LASF144
 2455 0ea1 0D       		.byte	0xd
 2456 0ea2 3102     		.2byte	0x231
 2457 0ea4 01       		.byte	0x1
 2458 0ea5 01       		.byte	0x1
 2459 0ea6 B00E0000 		.4byte	0xeb0
 2460 0eaa 18       		.uleb128 0x18
 2461 0eab C0070000 		.4byte	0x7c0
 2462 0eaf 00       		.byte	0
 2463 0eb0 35       		.uleb128 0x35
 2464 0eb1 01       		.byte	0x1
 2465 0eb2 3E040000 		.4byte	.LASF152
 2466 0eb6 08       		.byte	0x8
 2467 0eb7 93       		.byte	0x93
 2468 0eb8 01       		.byte	0x1
 2469 0eb9 50020000 		.4byte	0x250
 2470 0ebd 01       		.byte	0x1
 2471 0ebe C80E0000 		.4byte	0xec8
 2472 0ec2 18       		.uleb128 0x18
 2473 0ec3 50020000 		.4byte	0x250
 2474 0ec7 00       		.byte	0
 2475 0ec8 33       		.uleb128 0x33
 2476 0ec9 01       		.byte	0x1
 2477 0eca 0F040000 		.4byte	.LASF145
 2478 0ece 08       		.byte	0x8
 2479 0ecf 96       		.byte	0x96
 2480 0ed0 01       		.byte	0x1
 2481 0ed1 01       		.byte	0x1
 2482 0ed2 DC0E0000 		.4byte	0xedc
 2483 0ed6 18       		.uleb128 0x18
 2484 0ed7 BC000000 		.4byte	0xbc
 2485 0edb 00       		.byte	0
 2486 0edc 33       		.uleb128 0x33
 2487 0edd 01       		.byte	0x1
 2488 0ede DA020000 		.4byte	.LASF146
 2489 0ee2 09       		.byte	0x9
 2490 0ee3 39       		.byte	0x39
ARM GAS  /tmp/cczF9pup.s 			page 45


 2491 0ee4 01       		.byte	0x1
 2492 0ee5 01       		.byte	0x1
 2493 0ee6 F00E0000 		.4byte	0xef0
 2494 0eea 18       		.uleb128 0x18
 2495 0eeb 56040000 		.4byte	0x456
 2496 0eef 00       		.byte	0
 2497 0ef0 36       		.uleb128 0x36
 2498 0ef1 01       		.byte	0x1
 2499 0ef2 82000000 		.4byte	.LASF153
 2500 0ef6 09       		.byte	0x9
 2501 0ef7 3D       		.byte	0x3d
 2502 0ef8 01       		.byte	0x1
 2503 0ef9 56040000 		.4byte	0x456
 2504 0efd 01       		.byte	0x1
 2505 0efe 00       		.byte	0
 2506              		.section	.debug_abbrev,"",%progbits
 2507              	.Ldebug_abbrev0:
 2508 0000 01       		.uleb128 0x1
 2509 0001 11       		.uleb128 0x11
 2510 0002 01       		.byte	0x1
 2511 0003 25       		.uleb128 0x25
 2512 0004 0E       		.uleb128 0xe
 2513 0005 13       		.uleb128 0x13
 2514 0006 0B       		.uleb128 0xb
 2515 0007 03       		.uleb128 0x3
 2516 0008 0E       		.uleb128 0xe
 2517 0009 1B       		.uleb128 0x1b
 2518 000a 0E       		.uleb128 0xe
 2519 000b 55       		.uleb128 0x55
 2520 000c 06       		.uleb128 0x6
 2521 000d 11       		.uleb128 0x11
 2522 000e 01       		.uleb128 0x1
 2523 000f 52       		.uleb128 0x52
 2524 0010 01       		.uleb128 0x1
 2525 0011 10       		.uleb128 0x10
 2526 0012 06       		.uleb128 0x6
 2527 0013 00       		.byte	0
 2528 0014 00       		.byte	0
 2529 0015 02       		.uleb128 0x2
 2530 0016 24       		.uleb128 0x24
 2531 0017 00       		.byte	0
 2532 0018 0B       		.uleb128 0xb
 2533 0019 0B       		.uleb128 0xb
 2534 001a 3E       		.uleb128 0x3e
 2535 001b 0B       		.uleb128 0xb
 2536 001c 03       		.uleb128 0x3
 2537 001d 08       		.uleb128 0x8
 2538 001e 00       		.byte	0
 2539 001f 00       		.byte	0
 2540 0020 03       		.uleb128 0x3
 2541 0021 16       		.uleb128 0x16
 2542 0022 00       		.byte	0
 2543 0023 03       		.uleb128 0x3
 2544 0024 0E       		.uleb128 0xe
 2545 0025 3A       		.uleb128 0x3a
 2546 0026 0B       		.uleb128 0xb
 2547 0027 3B       		.uleb128 0x3b
ARM GAS  /tmp/cczF9pup.s 			page 46


 2548 0028 0B       		.uleb128 0xb
 2549 0029 49       		.uleb128 0x49
 2550 002a 13       		.uleb128 0x13
 2551 002b 00       		.byte	0
 2552 002c 00       		.byte	0
 2553 002d 04       		.uleb128 0x4
 2554 002e 24       		.uleb128 0x24
 2555 002f 00       		.byte	0
 2556 0030 0B       		.uleb128 0xb
 2557 0031 0B       		.uleb128 0xb
 2558 0032 3E       		.uleb128 0x3e
 2559 0033 0B       		.uleb128 0xb
 2560 0034 03       		.uleb128 0x3
 2561 0035 0E       		.uleb128 0xe
 2562 0036 00       		.byte	0
 2563 0037 00       		.byte	0
 2564 0038 05       		.uleb128 0x5
 2565 0039 13       		.uleb128 0x13
 2566 003a 01       		.byte	0x1
 2567 003b 03       		.uleb128 0x3
 2568 003c 0E       		.uleb128 0xe
 2569 003d 0B       		.uleb128 0xb
 2570 003e 0B       		.uleb128 0xb
 2571 003f 3A       		.uleb128 0x3a
 2572 0040 0B       		.uleb128 0xb
 2573 0041 3B       		.uleb128 0x3b
 2574 0042 0B       		.uleb128 0xb
 2575 0043 01       		.uleb128 0x1
 2576 0044 13       		.uleb128 0x13
 2577 0045 00       		.byte	0
 2578 0046 00       		.byte	0
 2579 0047 06       		.uleb128 0x6
 2580 0048 0D       		.uleb128 0xd
 2581 0049 00       		.byte	0
 2582 004a 03       		.uleb128 0x3
 2583 004b 0E       		.uleb128 0xe
 2584 004c 3A       		.uleb128 0x3a
 2585 004d 0B       		.uleb128 0xb
 2586 004e 3B       		.uleb128 0x3b
 2587 004f 0B       		.uleb128 0xb
 2588 0050 49       		.uleb128 0x49
 2589 0051 13       		.uleb128 0x13
 2590 0052 38       		.uleb128 0x38
 2591 0053 0A       		.uleb128 0xa
 2592 0054 00       		.byte	0
 2593 0055 00       		.byte	0
 2594 0056 07       		.uleb128 0x7
 2595 0057 0D       		.uleb128 0xd
 2596 0058 00       		.byte	0
 2597 0059 03       		.uleb128 0x3
 2598 005a 08       		.uleb128 0x8
 2599 005b 3A       		.uleb128 0x3a
 2600 005c 0B       		.uleb128 0xb
 2601 005d 3B       		.uleb128 0x3b
 2602 005e 0B       		.uleb128 0xb
 2603 005f 49       		.uleb128 0x49
 2604 0060 13       		.uleb128 0x13
ARM GAS  /tmp/cczF9pup.s 			page 47


 2605 0061 38       		.uleb128 0x38
 2606 0062 0A       		.uleb128 0xa
 2607 0063 00       		.byte	0
 2608 0064 00       		.byte	0
 2609 0065 08       		.uleb128 0x8
 2610 0066 13       		.uleb128 0x13
 2611 0067 01       		.byte	0x1
 2612 0068 0B       		.uleb128 0xb
 2613 0069 0B       		.uleb128 0xb
 2614 006a 3A       		.uleb128 0x3a
 2615 006b 0B       		.uleb128 0xb
 2616 006c 3B       		.uleb128 0x3b
 2617 006d 0B       		.uleb128 0xb
 2618 006e 01       		.uleb128 0x1
 2619 006f 13       		.uleb128 0x13
 2620 0070 00       		.byte	0
 2621 0071 00       		.byte	0
 2622 0072 09       		.uleb128 0x9
 2623 0073 0F       		.uleb128 0xf
 2624 0074 00       		.byte	0
 2625 0075 0B       		.uleb128 0xb
 2626 0076 0B       		.uleb128 0xb
 2627 0077 49       		.uleb128 0x49
 2628 0078 13       		.uleb128 0x13
 2629 0079 00       		.byte	0
 2630 007a 00       		.byte	0
 2631 007b 0A       		.uleb128 0xa
 2632 007c 0F       		.uleb128 0xf
 2633 007d 00       		.byte	0
 2634 007e 0B       		.uleb128 0xb
 2635 007f 0B       		.uleb128 0xb
 2636 0080 00       		.byte	0
 2637 0081 00       		.byte	0
 2638 0082 0B       		.uleb128 0xb
 2639 0083 0D       		.uleb128 0xd
 2640 0084 00       		.byte	0
 2641 0085 03       		.uleb128 0x3
 2642 0086 08       		.uleb128 0x8
 2643 0087 3A       		.uleb128 0x3a
 2644 0088 0B       		.uleb128 0xb
 2645 0089 3B       		.uleb128 0x3b
 2646 008a 05       		.uleb128 0x5
 2647 008b 49       		.uleb128 0x49
 2648 008c 13       		.uleb128 0x13
 2649 008d 38       		.uleb128 0x38
 2650 008e 0A       		.uleb128 0xa
 2651 008f 00       		.byte	0
 2652 0090 00       		.byte	0
 2653 0091 0C       		.uleb128 0xc
 2654 0092 13       		.uleb128 0x13
 2655 0093 01       		.byte	0x1
 2656 0094 03       		.uleb128 0x3
 2657 0095 0E       		.uleb128 0xe
 2658 0096 0B       		.uleb128 0xb
 2659 0097 0B       		.uleb128 0xb
 2660 0098 3A       		.uleb128 0x3a
 2661 0099 0B       		.uleb128 0xb
ARM GAS  /tmp/cczF9pup.s 			page 48


 2662 009a 3B       		.uleb128 0x3b
 2663 009b 05       		.uleb128 0x5
 2664 009c 01       		.uleb128 0x1
 2665 009d 13       		.uleb128 0x13
 2666 009e 00       		.byte	0
 2667 009f 00       		.byte	0
 2668 00a0 0D       		.uleb128 0xd
 2669 00a1 35       		.uleb128 0x35
 2670 00a2 00       		.byte	0
 2671 00a3 49       		.uleb128 0x49
 2672 00a4 13       		.uleb128 0x13
 2673 00a5 00       		.byte	0
 2674 00a6 00       		.byte	0
 2675 00a7 0E       		.uleb128 0xe
 2676 00a8 17       		.uleb128 0x17
 2677 00a9 01       		.byte	0x1
 2678 00aa 0B       		.uleb128 0xb
 2679 00ab 0B       		.uleb128 0xb
 2680 00ac 3A       		.uleb128 0x3a
 2681 00ad 0B       		.uleb128 0xb
 2682 00ae 3B       		.uleb128 0x3b
 2683 00af 0B       		.uleb128 0xb
 2684 00b0 01       		.uleb128 0x1
 2685 00b1 13       		.uleb128 0x13
 2686 00b2 00       		.byte	0
 2687 00b3 00       		.byte	0
 2688 00b4 0F       		.uleb128 0xf
 2689 00b5 0D       		.uleb128 0xd
 2690 00b6 00       		.byte	0
 2691 00b7 03       		.uleb128 0x3
 2692 00b8 0E       		.uleb128 0xe
 2693 00b9 3A       		.uleb128 0x3a
 2694 00ba 0B       		.uleb128 0xb
 2695 00bb 3B       		.uleb128 0x3b
 2696 00bc 0B       		.uleb128 0xb
 2697 00bd 49       		.uleb128 0x49
 2698 00be 13       		.uleb128 0x13
 2699 00bf 00       		.byte	0
 2700 00c0 00       		.byte	0
 2701 00c1 10       		.uleb128 0x10
 2702 00c2 26       		.uleb128 0x26
 2703 00c3 00       		.byte	0
 2704 00c4 49       		.uleb128 0x49
 2705 00c5 13       		.uleb128 0x13
 2706 00c6 00       		.byte	0
 2707 00c7 00       		.byte	0
 2708 00c8 11       		.uleb128 0x11
 2709 00c9 13       		.uleb128 0x13
 2710 00ca 01       		.byte	0x1
 2711 00cb 0B       		.uleb128 0xb
 2712 00cc 0B       		.uleb128 0xb
 2713 00cd 3A       		.uleb128 0x3a
 2714 00ce 0B       		.uleb128 0xb
 2715 00cf 3B       		.uleb128 0x3b
 2716 00d0 05       		.uleb128 0x5
 2717 00d1 01       		.uleb128 0x1
 2718 00d2 13       		.uleb128 0x13
ARM GAS  /tmp/cczF9pup.s 			page 49


 2719 00d3 00       		.byte	0
 2720 00d4 00       		.byte	0
 2721 00d5 12       		.uleb128 0x12
 2722 00d6 0D       		.uleb128 0xd
 2723 00d7 00       		.byte	0
 2724 00d8 03       		.uleb128 0x3
 2725 00d9 0E       		.uleb128 0xe
 2726 00da 3A       		.uleb128 0x3a
 2727 00db 0B       		.uleb128 0xb
 2728 00dc 3B       		.uleb128 0x3b
 2729 00dd 05       		.uleb128 0x5
 2730 00de 49       		.uleb128 0x49
 2731 00df 13       		.uleb128 0x13
 2732 00e0 38       		.uleb128 0x38
 2733 00e1 0A       		.uleb128 0xa
 2734 00e2 00       		.byte	0
 2735 00e3 00       		.byte	0
 2736 00e4 13       		.uleb128 0x13
 2737 00e5 16       		.uleb128 0x16
 2738 00e6 00       		.byte	0
 2739 00e7 03       		.uleb128 0x3
 2740 00e8 0E       		.uleb128 0xe
 2741 00e9 3A       		.uleb128 0x3a
 2742 00ea 0B       		.uleb128 0xb
 2743 00eb 3B       		.uleb128 0x3b
 2744 00ec 05       		.uleb128 0x5
 2745 00ed 49       		.uleb128 0x49
 2746 00ee 13       		.uleb128 0x13
 2747 00ef 00       		.byte	0
 2748 00f0 00       		.byte	0
 2749 00f1 14       		.uleb128 0x14
 2750 00f2 04       		.uleb128 0x4
 2751 00f3 01       		.byte	0x1
 2752 00f4 0B       		.uleb128 0xb
 2753 00f5 0B       		.uleb128 0xb
 2754 00f6 3A       		.uleb128 0x3a
 2755 00f7 0B       		.uleb128 0xb
 2756 00f8 3B       		.uleb128 0x3b
 2757 00f9 0B       		.uleb128 0xb
 2758 00fa 01       		.uleb128 0x1
 2759 00fb 13       		.uleb128 0x13
 2760 00fc 00       		.byte	0
 2761 00fd 00       		.byte	0
 2762 00fe 15       		.uleb128 0x15
 2763 00ff 28       		.uleb128 0x28
 2764 0100 00       		.byte	0
 2765 0101 03       		.uleb128 0x3
 2766 0102 0E       		.uleb128 0xe
 2767 0103 1C       		.uleb128 0x1c
 2768 0104 0D       		.uleb128 0xd
 2769 0105 00       		.byte	0
 2770 0106 00       		.byte	0
 2771 0107 16       		.uleb128 0x16
 2772 0108 04       		.uleb128 0x4
 2773 0109 01       		.byte	0x1
 2774 010a 0B       		.uleb128 0xb
 2775 010b 0B       		.uleb128 0xb
ARM GAS  /tmp/cczF9pup.s 			page 50


 2776 010c 3A       		.uleb128 0x3a
 2777 010d 0B       		.uleb128 0xb
 2778 010e 3B       		.uleb128 0x3b
 2779 010f 05       		.uleb128 0x5
 2780 0110 01       		.uleb128 0x1
 2781 0111 13       		.uleb128 0x13
 2782 0112 00       		.byte	0
 2783 0113 00       		.byte	0
 2784 0114 17       		.uleb128 0x17
 2785 0115 15       		.uleb128 0x15
 2786 0116 01       		.byte	0x1
 2787 0117 27       		.uleb128 0x27
 2788 0118 0C       		.uleb128 0xc
 2789 0119 01       		.uleb128 0x1
 2790 011a 13       		.uleb128 0x13
 2791 011b 00       		.byte	0
 2792 011c 00       		.byte	0
 2793 011d 18       		.uleb128 0x18
 2794 011e 05       		.uleb128 0x5
 2795 011f 00       		.byte	0
 2796 0120 49       		.uleb128 0x49
 2797 0121 13       		.uleb128 0x13
 2798 0122 00       		.byte	0
 2799 0123 00       		.byte	0
 2800 0124 19       		.uleb128 0x19
 2801 0125 2E       		.uleb128 0x2e
 2802 0126 01       		.byte	0x1
 2803 0127 3F       		.uleb128 0x3f
 2804 0128 0C       		.uleb128 0xc
 2805 0129 03       		.uleb128 0x3
 2806 012a 0E       		.uleb128 0xe
 2807 012b 3A       		.uleb128 0x3a
 2808 012c 0B       		.uleb128 0xb
 2809 012d 3B       		.uleb128 0x3b
 2810 012e 0B       		.uleb128 0xb
 2811 012f 27       		.uleb128 0x27
 2812 0130 0C       		.uleb128 0xc
 2813 0131 20       		.uleb128 0x20
 2814 0132 0B       		.uleb128 0xb
 2815 0133 01       		.uleb128 0x1
 2816 0134 13       		.uleb128 0x13
 2817 0135 00       		.byte	0
 2818 0136 00       		.byte	0
 2819 0137 1A       		.uleb128 0x1a
 2820 0138 05       		.uleb128 0x5
 2821 0139 00       		.byte	0
 2822 013a 03       		.uleb128 0x3
 2823 013b 0E       		.uleb128 0xe
 2824 013c 3A       		.uleb128 0x3a
 2825 013d 0B       		.uleb128 0xb
 2826 013e 3B       		.uleb128 0x3b
 2827 013f 0B       		.uleb128 0xb
 2828 0140 49       		.uleb128 0x49
 2829 0141 13       		.uleb128 0x13
 2830 0142 00       		.byte	0
 2831 0143 00       		.byte	0
 2832 0144 1B       		.uleb128 0x1b
ARM GAS  /tmp/cczF9pup.s 			page 51


 2833 0145 2E       		.uleb128 0x2e
 2834 0146 01       		.byte	0x1
 2835 0147 3F       		.uleb128 0x3f
 2836 0148 0C       		.uleb128 0xc
 2837 0149 03       		.uleb128 0x3
 2838 014a 0E       		.uleb128 0xe
 2839 014b 3A       		.uleb128 0x3a
 2840 014c 0B       		.uleb128 0xb
 2841 014d 3B       		.uleb128 0x3b
 2842 014e 0B       		.uleb128 0xb
 2843 014f 27       		.uleb128 0x27
 2844 0150 0C       		.uleb128 0xc
 2845 0151 11       		.uleb128 0x11
 2846 0152 01       		.uleb128 0x1
 2847 0153 12       		.uleb128 0x12
 2848 0154 01       		.uleb128 0x1
 2849 0155 40       		.uleb128 0x40
 2850 0156 0A       		.uleb128 0xa
 2851 0157 9742     		.uleb128 0x2117
 2852 0159 0C       		.uleb128 0xc
 2853 015a 01       		.uleb128 0x1
 2854 015b 13       		.uleb128 0x13
 2855 015c 00       		.byte	0
 2856 015d 00       		.byte	0
 2857 015e 1C       		.uleb128 0x1c
 2858 015f 898201   		.uleb128 0x4109
 2859 0162 00       		.byte	0
 2860 0163 11       		.uleb128 0x11
 2861 0164 01       		.uleb128 0x1
 2862 0165 9542     		.uleb128 0x2115
 2863 0167 0C       		.uleb128 0xc
 2864 0168 31       		.uleb128 0x31
 2865 0169 13       		.uleb128 0x13
 2866 016a 00       		.byte	0
 2867 016b 00       		.byte	0
 2868 016c 1D       		.uleb128 0x1d
 2869 016d 05       		.uleb128 0x5
 2870 016e 00       		.byte	0
 2871 016f 03       		.uleb128 0x3
 2872 0170 0E       		.uleb128 0xe
 2873 0171 3A       		.uleb128 0x3a
 2874 0172 0B       		.uleb128 0xb
 2875 0173 3B       		.uleb128 0x3b
 2876 0174 0B       		.uleb128 0xb
 2877 0175 49       		.uleb128 0x49
 2878 0176 13       		.uleb128 0x13
 2879 0177 02       		.uleb128 0x2
 2880 0178 06       		.uleb128 0x6
 2881 0179 00       		.byte	0
 2882 017a 00       		.byte	0
 2883 017b 1E       		.uleb128 0x1e
 2884 017c 898201   		.uleb128 0x4109
 2885 017f 01       		.byte	0x1
 2886 0180 11       		.uleb128 0x11
 2887 0181 01       		.uleb128 0x1
 2888 0182 9542     		.uleb128 0x2115
 2889 0184 0C       		.uleb128 0xc
ARM GAS  /tmp/cczF9pup.s 			page 52


 2890 0185 31       		.uleb128 0x31
 2891 0186 13       		.uleb128 0x13
 2892 0187 00       		.byte	0
 2893 0188 00       		.byte	0
 2894 0189 1F       		.uleb128 0x1f
 2895 018a 8A8201   		.uleb128 0x410a
 2896 018d 00       		.byte	0
 2897 018e 02       		.uleb128 0x2
 2898 018f 0A       		.uleb128 0xa
 2899 0190 9142     		.uleb128 0x2111
 2900 0192 0A       		.uleb128 0xa
 2901 0193 00       		.byte	0
 2902 0194 00       		.byte	0
 2903 0195 20       		.uleb128 0x20
 2904 0196 2E       		.uleb128 0x2e
 2905 0197 01       		.byte	0x1
 2906 0198 3F       		.uleb128 0x3f
 2907 0199 0C       		.uleb128 0xc
 2908 019a 03       		.uleb128 0x3
 2909 019b 0E       		.uleb128 0xe
 2910 019c 3A       		.uleb128 0x3a
 2911 019d 0B       		.uleb128 0xb
 2912 019e 3B       		.uleb128 0x3b
 2913 019f 0B       		.uleb128 0xb
 2914 01a0 27       		.uleb128 0x27
 2915 01a1 0C       		.uleb128 0xc
 2916 01a2 11       		.uleb128 0x11
 2917 01a3 01       		.uleb128 0x1
 2918 01a4 12       		.uleb128 0x12
 2919 01a5 01       		.uleb128 0x1
 2920 01a6 40       		.uleb128 0x40
 2921 01a7 06       		.uleb128 0x6
 2922 01a8 9742     		.uleb128 0x2117
 2923 01aa 0C       		.uleb128 0xc
 2924 01ab 01       		.uleb128 0x1
 2925 01ac 13       		.uleb128 0x13
 2926 01ad 00       		.byte	0
 2927 01ae 00       		.byte	0
 2928 01af 21       		.uleb128 0x21
 2929 01b0 0B       		.uleb128 0xb
 2930 01b1 01       		.byte	0x1
 2931 01b2 55       		.uleb128 0x55
 2932 01b3 06       		.uleb128 0x6
 2933 01b4 01       		.uleb128 0x1
 2934 01b5 13       		.uleb128 0x13
 2935 01b6 00       		.byte	0
 2936 01b7 00       		.byte	0
 2937 01b8 22       		.uleb128 0x22
 2938 01b9 34       		.uleb128 0x34
 2939 01ba 00       		.byte	0
 2940 01bb 03       		.uleb128 0x3
 2941 01bc 08       		.uleb128 0x8
 2942 01bd 3A       		.uleb128 0x3a
 2943 01be 0B       		.uleb128 0xb
 2944 01bf 3B       		.uleb128 0x3b
 2945 01c0 0B       		.uleb128 0xb
 2946 01c1 49       		.uleb128 0x49
ARM GAS  /tmp/cczF9pup.s 			page 53


 2947 01c2 13       		.uleb128 0x13
 2948 01c3 02       		.uleb128 0x2
 2949 01c4 06       		.uleb128 0x6
 2950 01c5 00       		.byte	0
 2951 01c6 00       		.byte	0
 2952 01c7 23       		.uleb128 0x23
 2953 01c8 0B       		.uleb128 0xb
 2954 01c9 01       		.byte	0x1
 2955 01ca 11       		.uleb128 0x11
 2956 01cb 01       		.uleb128 0x1
 2957 01cc 12       		.uleb128 0x12
 2958 01cd 01       		.uleb128 0x1
 2959 01ce 01       		.uleb128 0x1
 2960 01cf 13       		.uleb128 0x13
 2961 01d0 00       		.byte	0
 2962 01d1 00       		.byte	0
 2963 01d2 24       		.uleb128 0x24
 2964 01d3 898201   		.uleb128 0x4109
 2965 01d6 01       		.byte	0x1
 2966 01d7 11       		.uleb128 0x11
 2967 01d8 01       		.uleb128 0x1
 2968 01d9 31       		.uleb128 0x31
 2969 01da 13       		.uleb128 0x13
 2970 01db 00       		.byte	0
 2971 01dc 00       		.byte	0
 2972 01dd 25       		.uleb128 0x25
 2973 01de 1D       		.uleb128 0x1d
 2974 01df 01       		.byte	0x1
 2975 01e0 31       		.uleb128 0x31
 2976 01e1 13       		.uleb128 0x13
 2977 01e2 11       		.uleb128 0x11
 2978 01e3 01       		.uleb128 0x1
 2979 01e4 12       		.uleb128 0x12
 2980 01e5 01       		.uleb128 0x1
 2981 01e6 58       		.uleb128 0x58
 2982 01e7 0B       		.uleb128 0xb
 2983 01e8 59       		.uleb128 0x59
 2984 01e9 0B       		.uleb128 0xb
 2985 01ea 01       		.uleb128 0x1
 2986 01eb 13       		.uleb128 0x13
 2987 01ec 00       		.byte	0
 2988 01ed 00       		.byte	0
 2989 01ee 26       		.uleb128 0x26
 2990 01ef 05       		.uleb128 0x5
 2991 01f0 00       		.byte	0
 2992 01f1 31       		.uleb128 0x31
 2993 01f2 13       		.uleb128 0x13
 2994 01f3 02       		.uleb128 0x2
 2995 01f4 0A       		.uleb128 0xa
 2996 01f5 00       		.byte	0
 2997 01f6 00       		.byte	0
 2998 01f7 27       		.uleb128 0x27
 2999 01f8 05       		.uleb128 0x5
 3000 01f9 00       		.byte	0
 3001 01fa 31       		.uleb128 0x31
 3002 01fb 13       		.uleb128 0x13
 3003 01fc 02       		.uleb128 0x2
ARM GAS  /tmp/cczF9pup.s 			page 54


 3004 01fd 06       		.uleb128 0x6
 3005 01fe 00       		.byte	0
 3006 01ff 00       		.byte	0
 3007 0200 28       		.uleb128 0x28
 3008 0201 0B       		.uleb128 0xb
 3009 0202 01       		.byte	0x1
 3010 0203 11       		.uleb128 0x11
 3011 0204 01       		.uleb128 0x1
 3012 0205 12       		.uleb128 0x12
 3013 0206 01       		.uleb128 0x1
 3014 0207 00       		.byte	0
 3015 0208 00       		.byte	0
 3016 0209 29       		.uleb128 0x29
 3017 020a 2E       		.uleb128 0x2e
 3018 020b 01       		.byte	0x1
 3019 020c 31       		.uleb128 0x31
 3020 020d 13       		.uleb128 0x13
 3021 020e 11       		.uleb128 0x11
 3022 020f 01       		.uleb128 0x1
 3023 0210 12       		.uleb128 0x12
 3024 0211 01       		.uleb128 0x1
 3025 0212 40       		.uleb128 0x40
 3026 0213 06       		.uleb128 0x6
 3027 0214 9742     		.uleb128 0x2117
 3028 0216 0C       		.uleb128 0xc
 3029 0217 01       		.uleb128 0x1
 3030 0218 13       		.uleb128 0x13
 3031 0219 00       		.byte	0
 3032 021a 00       		.byte	0
 3033 021b 2A       		.uleb128 0x2a
 3034 021c 34       		.uleb128 0x34
 3035 021d 00       		.byte	0
 3036 021e 03       		.uleb128 0x3
 3037 021f 08       		.uleb128 0x8
 3038 0220 3A       		.uleb128 0x3a
 3039 0221 0B       		.uleb128 0xb
 3040 0222 3B       		.uleb128 0x3b
 3041 0223 05       		.uleb128 0x5
 3042 0224 49       		.uleb128 0x49
 3043 0225 13       		.uleb128 0x13
 3044 0226 02       		.uleb128 0x2
 3045 0227 06       		.uleb128 0x6
 3046 0228 00       		.byte	0
 3047 0229 00       		.byte	0
 3048 022a 2B       		.uleb128 0x2b
 3049 022b 2E       		.uleb128 0x2e
 3050 022c 01       		.byte	0x1
 3051 022d 3F       		.uleb128 0x3f
 3052 022e 0C       		.uleb128 0xc
 3053 022f 03       		.uleb128 0x3
 3054 0230 0E       		.uleb128 0xe
 3055 0231 3A       		.uleb128 0x3a
 3056 0232 0B       		.uleb128 0xb
 3057 0233 3B       		.uleb128 0x3b
 3058 0234 05       		.uleb128 0x5
 3059 0235 27       		.uleb128 0x27
 3060 0236 0C       		.uleb128 0xc
ARM GAS  /tmp/cczF9pup.s 			page 55


 3061 0237 49       		.uleb128 0x49
 3062 0238 13       		.uleb128 0x13
 3063 0239 11       		.uleb128 0x11
 3064 023a 01       		.uleb128 0x1
 3065 023b 12       		.uleb128 0x12
 3066 023c 01       		.uleb128 0x1
 3067 023d 40       		.uleb128 0x40
 3068 023e 06       		.uleb128 0x6
 3069 023f 9742     		.uleb128 0x2117
 3070 0241 0C       		.uleb128 0xc
 3071 0242 01       		.uleb128 0x1
 3072 0243 13       		.uleb128 0x13
 3073 0244 00       		.byte	0
 3074 0245 00       		.byte	0
 3075 0246 2C       		.uleb128 0x2c
 3076 0247 05       		.uleb128 0x5
 3077 0248 00       		.byte	0
 3078 0249 03       		.uleb128 0x3
 3079 024a 0E       		.uleb128 0xe
 3080 024b 3A       		.uleb128 0x3a
 3081 024c 0B       		.uleb128 0xb
 3082 024d 3B       		.uleb128 0x3b
 3083 024e 05       		.uleb128 0x5
 3084 024f 49       		.uleb128 0x49
 3085 0250 13       		.uleb128 0x13
 3086 0251 02       		.uleb128 0x2
 3087 0252 06       		.uleb128 0x6
 3088 0253 00       		.byte	0
 3089 0254 00       		.byte	0
 3090 0255 2D       		.uleb128 0x2d
 3091 0256 34       		.uleb128 0x34
 3092 0257 00       		.byte	0
 3093 0258 03       		.uleb128 0x3
 3094 0259 08       		.uleb128 0x8
 3095 025a 3A       		.uleb128 0x3a
 3096 025b 0B       		.uleb128 0xb
 3097 025c 3B       		.uleb128 0x3b
 3098 025d 05       		.uleb128 0x5
 3099 025e 49       		.uleb128 0x49
 3100 025f 13       		.uleb128 0x13
 3101 0260 02       		.uleb128 0x2
 3102 0261 0A       		.uleb128 0xa
 3103 0262 00       		.byte	0
 3104 0263 00       		.byte	0
 3105 0264 2E       		.uleb128 0x2e
 3106 0265 1D       		.uleb128 0x1d
 3107 0266 01       		.byte	0x1
 3108 0267 31       		.uleb128 0x31
 3109 0268 13       		.uleb128 0x13
 3110 0269 52       		.uleb128 0x52
 3111 026a 01       		.uleb128 0x1
 3112 026b 55       		.uleb128 0x55
 3113 026c 06       		.uleb128 0x6
 3114 026d 58       		.uleb128 0x58
 3115 026e 0B       		.uleb128 0xb
 3116 026f 59       		.uleb128 0x59
 3117 0270 05       		.uleb128 0x5
ARM GAS  /tmp/cczF9pup.s 			page 56


 3118 0271 01       		.uleb128 0x1
 3119 0272 13       		.uleb128 0x13
 3120 0273 00       		.byte	0
 3121 0274 00       		.byte	0
 3122 0275 2F       		.uleb128 0x2f
 3123 0276 2E       		.uleb128 0x2e
 3124 0277 01       		.byte	0x1
 3125 0278 3F       		.uleb128 0x3f
 3126 0279 0C       		.uleb128 0xc
 3127 027a 03       		.uleb128 0x3
 3128 027b 0E       		.uleb128 0xe
 3129 027c 3A       		.uleb128 0x3a
 3130 027d 0B       		.uleb128 0xb
 3131 027e 3B       		.uleb128 0x3b
 3132 027f 05       		.uleb128 0x5
 3133 0280 27       		.uleb128 0x27
 3134 0281 0C       		.uleb128 0xc
 3135 0282 11       		.uleb128 0x11
 3136 0283 01       		.uleb128 0x1
 3137 0284 12       		.uleb128 0x12
 3138 0285 01       		.uleb128 0x1
 3139 0286 40       		.uleb128 0x40
 3140 0287 0A       		.uleb128 0xa
 3141 0288 9742     		.uleb128 0x2117
 3142 028a 0C       		.uleb128 0xc
 3143 028b 01       		.uleb128 0x1
 3144 028c 13       		.uleb128 0x13
 3145 028d 00       		.byte	0
 3146 028e 00       		.byte	0
 3147 028f 30       		.uleb128 0x30
 3148 0290 34       		.uleb128 0x34
 3149 0291 00       		.byte	0
 3150 0292 03       		.uleb128 0x3
 3151 0293 0E       		.uleb128 0xe
 3152 0294 3A       		.uleb128 0x3a
 3153 0295 0B       		.uleb128 0xb
 3154 0296 3B       		.uleb128 0x3b
 3155 0297 0B       		.uleb128 0xb
 3156 0298 49       		.uleb128 0x49
 3157 0299 13       		.uleb128 0x13
 3158 029a 3F       		.uleb128 0x3f
 3159 029b 0C       		.uleb128 0xc
 3160 029c 3C       		.uleb128 0x3c
 3161 029d 0C       		.uleb128 0xc
 3162 029e 00       		.byte	0
 3163 029f 00       		.byte	0
 3164 02a0 31       		.uleb128 0x31
 3165 02a1 34       		.uleb128 0x34
 3166 02a2 00       		.byte	0
 3167 02a3 03       		.uleb128 0x3
 3168 02a4 0E       		.uleb128 0xe
 3169 02a5 3A       		.uleb128 0x3a
 3170 02a6 0B       		.uleb128 0xb
 3171 02a7 3B       		.uleb128 0x3b
 3172 02a8 05       		.uleb128 0x5
 3173 02a9 49       		.uleb128 0x49
 3174 02aa 13       		.uleb128 0x13
ARM GAS  /tmp/cczF9pup.s 			page 57


 3175 02ab 3F       		.uleb128 0x3f
 3176 02ac 0C       		.uleb128 0xc
 3177 02ad 3C       		.uleb128 0x3c
 3178 02ae 0C       		.uleb128 0xc
 3179 02af 00       		.byte	0
 3180 02b0 00       		.byte	0
 3181 02b1 32       		.uleb128 0x32
 3182 02b2 2E       		.uleb128 0x2e
 3183 02b3 00       		.byte	0
 3184 02b4 3F       		.uleb128 0x3f
 3185 02b5 0C       		.uleb128 0xc
 3186 02b6 03       		.uleb128 0x3
 3187 02b7 0E       		.uleb128 0xe
 3188 02b8 3A       		.uleb128 0x3a
 3189 02b9 0B       		.uleb128 0xb
 3190 02ba 3B       		.uleb128 0x3b
 3191 02bb 05       		.uleb128 0x5
 3192 02bc 27       		.uleb128 0x27
 3193 02bd 0C       		.uleb128 0xc
 3194 02be 3C       		.uleb128 0x3c
 3195 02bf 0C       		.uleb128 0xc
 3196 02c0 00       		.byte	0
 3197 02c1 00       		.byte	0
 3198 02c2 33       		.uleb128 0x33
 3199 02c3 2E       		.uleb128 0x2e
 3200 02c4 01       		.byte	0x1
 3201 02c5 3F       		.uleb128 0x3f
 3202 02c6 0C       		.uleb128 0xc
 3203 02c7 03       		.uleb128 0x3
 3204 02c8 0E       		.uleb128 0xe
 3205 02c9 3A       		.uleb128 0x3a
 3206 02ca 0B       		.uleb128 0xb
 3207 02cb 3B       		.uleb128 0x3b
 3208 02cc 0B       		.uleb128 0xb
 3209 02cd 27       		.uleb128 0x27
 3210 02ce 0C       		.uleb128 0xc
 3211 02cf 3C       		.uleb128 0x3c
 3212 02d0 0C       		.uleb128 0xc
 3213 02d1 01       		.uleb128 0x1
 3214 02d2 13       		.uleb128 0x13
 3215 02d3 00       		.byte	0
 3216 02d4 00       		.byte	0
 3217 02d5 34       		.uleb128 0x34
 3218 02d6 2E       		.uleb128 0x2e
 3219 02d7 01       		.byte	0x1
 3220 02d8 3F       		.uleb128 0x3f
 3221 02d9 0C       		.uleb128 0xc
 3222 02da 03       		.uleb128 0x3
 3223 02db 0E       		.uleb128 0xe
 3224 02dc 3A       		.uleb128 0x3a
 3225 02dd 0B       		.uleb128 0xb
 3226 02de 3B       		.uleb128 0x3b
 3227 02df 05       		.uleb128 0x5
 3228 02e0 27       		.uleb128 0x27
 3229 02e1 0C       		.uleb128 0xc
 3230 02e2 3C       		.uleb128 0x3c
 3231 02e3 0C       		.uleb128 0xc
ARM GAS  /tmp/cczF9pup.s 			page 58


 3232 02e4 01       		.uleb128 0x1
 3233 02e5 13       		.uleb128 0x13
 3234 02e6 00       		.byte	0
 3235 02e7 00       		.byte	0
 3236 02e8 35       		.uleb128 0x35
 3237 02e9 2E       		.uleb128 0x2e
 3238 02ea 01       		.byte	0x1
 3239 02eb 3F       		.uleb128 0x3f
 3240 02ec 0C       		.uleb128 0xc
 3241 02ed 03       		.uleb128 0x3
 3242 02ee 0E       		.uleb128 0xe
 3243 02ef 3A       		.uleb128 0x3a
 3244 02f0 0B       		.uleb128 0xb
 3245 02f1 3B       		.uleb128 0x3b
 3246 02f2 0B       		.uleb128 0xb
 3247 02f3 27       		.uleb128 0x27
 3248 02f4 0C       		.uleb128 0xc
 3249 02f5 49       		.uleb128 0x49
 3250 02f6 13       		.uleb128 0x13
 3251 02f7 3C       		.uleb128 0x3c
 3252 02f8 0C       		.uleb128 0xc
 3253 02f9 01       		.uleb128 0x1
 3254 02fa 13       		.uleb128 0x13
 3255 02fb 00       		.byte	0
 3256 02fc 00       		.byte	0
 3257 02fd 36       		.uleb128 0x36
 3258 02fe 2E       		.uleb128 0x2e
 3259 02ff 00       		.byte	0
 3260 0300 3F       		.uleb128 0x3f
 3261 0301 0C       		.uleb128 0xc
 3262 0302 03       		.uleb128 0x3
 3263 0303 0E       		.uleb128 0xe
 3264 0304 3A       		.uleb128 0x3a
 3265 0305 0B       		.uleb128 0xb
 3266 0306 3B       		.uleb128 0x3b
 3267 0307 0B       		.uleb128 0xb
 3268 0308 27       		.uleb128 0x27
 3269 0309 0C       		.uleb128 0xc
 3270 030a 49       		.uleb128 0x49
 3271 030b 13       		.uleb128 0x13
 3272 030c 3C       		.uleb128 0x3c
 3273 030d 0C       		.uleb128 0xc
 3274 030e 00       		.byte	0
 3275 030f 00       		.byte	0
 3276 0310 00       		.byte	0
 3277              		.section	.debug_loc,"",%progbits
 3278              	.Ldebug_loc0:
 3279              	.LLST0:
 3280 0000 00000000 		.4byte	.LVL1
 3281 0004 12000000 		.4byte	.LVL2
 3282 0008 0100     		.2byte	0x1
 3283 000a 50       		.byte	0x50
 3284 000b 12000000 		.4byte	.LVL2
 3285 000f 15000000 		.4byte	.LVL3-1
 3286 0013 0300     		.2byte	0x3
 3287 0015 70       		.byte	0x70
 3288 0016 68       		.sleb128 -24
ARM GAS  /tmp/cczF9pup.s 			page 59


 3289 0017 9F       		.byte	0x9f
 3290 0018 15000000 		.4byte	.LVL3-1
 3291 001c 16000000 		.4byte	.LFE118
 3292 0020 0400     		.2byte	0x4
 3293 0022 F3       		.byte	0xf3
 3294 0023 01       		.uleb128 0x1
 3295 0024 50       		.byte	0x50
 3296 0025 9F       		.byte	0x9f
 3297 0026 00000000 		.4byte	0
 3298 002a 00000000 		.4byte	0
 3299              	.LLST1:
 3300 002e 00000000 		.4byte	.LFB119
 3301 0032 02000000 		.4byte	.LCFI0
 3302 0036 0200     		.2byte	0x2
 3303 0038 7D       		.byte	0x7d
 3304 0039 00       		.sleb128 0
 3305 003a 02000000 		.4byte	.LCFI0
 3306 003e 1C000000 		.4byte	.LFE119
 3307 0042 0200     		.2byte	0x2
 3308 0044 7D       		.byte	0x7d
 3309 0045 08       		.sleb128 8
 3310 0046 00000000 		.4byte	0
 3311 004a 00000000 		.4byte	0
 3312              	.LLST2:
 3313 004e 00000000 		.4byte	.LVL4
 3314 0052 0F000000 		.4byte	.LVL7-1
 3315 0056 0100     		.2byte	0x1
 3316 0058 50       		.byte	0x50
 3317 0059 0F000000 		.4byte	.LVL7-1
 3318 005d 1C000000 		.4byte	.LFE119
 3319 0061 0100     		.2byte	0x1
 3320 0063 54       		.byte	0x54
 3321 0064 00000000 		.4byte	0
 3322 0068 00000000 		.4byte	0
 3323              	.LLST3:
 3324 006c 00000000 		.4byte	.LVL4
 3325 0070 0F000000 		.4byte	.LVL7-1
 3326 0074 0100     		.2byte	0x1
 3327 0076 51       		.byte	0x51
 3328 0077 0F000000 		.4byte	.LVL7-1
 3329 007b 1C000000 		.4byte	.LFE119
 3330 007f 0400     		.2byte	0x4
 3331 0081 F3       		.byte	0xf3
 3332 0082 01       		.uleb128 0x1
 3333 0083 51       		.byte	0x51
 3334 0084 9F       		.byte	0x9f
 3335 0085 00000000 		.4byte	0
 3336 0089 00000000 		.4byte	0
 3337              	.LLST4:
 3338 008d 0A000000 		.4byte	.LVL6
 3339 0091 0F000000 		.4byte	.LVL7-1
 3340 0095 0100     		.2byte	0x1
 3341 0097 53       		.byte	0x53
 3342 0098 00000000 		.4byte	0
 3343 009c 00000000 		.4byte	0
 3344              	.LLST5:
 3345 00a0 1A000000 		.4byte	.LVL9
ARM GAS  /tmp/cczF9pup.s 			page 60


 3346 00a4 1C000000 		.4byte	.LFE119
 3347 00a8 0100     		.2byte	0x1
 3348 00aa 53       		.byte	0x53
 3349 00ab 00000000 		.4byte	0
 3350 00af 00000000 		.4byte	0
 3351              	.LLST6:
 3352 00b3 00000000 		.4byte	.LFB120
 3353 00b7 02000000 		.4byte	.LCFI1
 3354 00bb 0200     		.2byte	0x2
 3355 00bd 7D       		.byte	0x7d
 3356 00be 00       		.sleb128 0
 3357 00bf 02000000 		.4byte	.LCFI1
 3358 00c3 1A000000 		.4byte	.LFE120
 3359 00c7 0200     		.2byte	0x2
 3360 00c9 7D       		.byte	0x7d
 3361 00ca 08       		.sleb128 8
 3362 00cb 00000000 		.4byte	0
 3363 00cf 00000000 		.4byte	0
 3364              	.LLST7:
 3365 00d3 00000000 		.4byte	.LVL10
 3366 00d7 0D000000 		.4byte	.LVL13-1
 3367 00db 0100     		.2byte	0x1
 3368 00dd 50       		.byte	0x50
 3369 00de 0D000000 		.4byte	.LVL13-1
 3370 00e2 1A000000 		.4byte	.LFE120
 3371 00e6 0100     		.2byte	0x1
 3372 00e8 54       		.byte	0x54
 3373 00e9 00000000 		.4byte	0
 3374 00ed 00000000 		.4byte	0
 3375              	.LLST8:
 3376 00f1 0A000000 		.4byte	.LVL12
 3377 00f5 0D000000 		.4byte	.LVL13-1
 3378 00f9 0100     		.2byte	0x1
 3379 00fb 53       		.byte	0x53
 3380 00fc 00000000 		.4byte	0
 3381 0100 00000000 		.4byte	0
 3382              	.LLST9:
 3383 0104 18000000 		.4byte	.LVL15
 3384 0108 1A000000 		.4byte	.LFE120
 3385 010c 0100     		.2byte	0x1
 3386 010e 53       		.byte	0x53
 3387 010f 00000000 		.4byte	0
 3388 0113 00000000 		.4byte	0
 3389              	.LLST10:
 3390 0117 00000000 		.4byte	.LFB121
 3391 011b 02000000 		.4byte	.LCFI2
 3392 011f 0200     		.2byte	0x2
 3393 0121 7D       		.byte	0x7d
 3394 0122 00       		.sleb128 0
 3395 0123 02000000 		.4byte	.LCFI2
 3396 0127 22000000 		.4byte	.LFE121
 3397 012b 0200     		.2byte	0x2
 3398 012d 7D       		.byte	0x7d
 3399 012e 10       		.sleb128 16
 3400 012f 00000000 		.4byte	0
 3401 0133 00000000 		.4byte	0
 3402              	.LLST11:
ARM GAS  /tmp/cczF9pup.s 			page 61


 3403 0137 00000000 		.4byte	.LVL16
 3404 013b 19000000 		.4byte	.LVL20-1
 3405 013f 0100     		.2byte	0x1
 3406 0141 50       		.byte	0x50
 3407 0142 19000000 		.4byte	.LVL20-1
 3408 0146 22000000 		.4byte	.LFE121
 3409 014a 0100     		.2byte	0x1
 3410 014c 54       		.byte	0x54
 3411 014d 00000000 		.4byte	0
 3412 0151 00000000 		.4byte	0
 3413              	.LLST12:
 3414 0155 00000000 		.4byte	.LVL16
 3415 0159 19000000 		.4byte	.LVL20-1
 3416 015d 0100     		.2byte	0x1
 3417 015f 51       		.byte	0x51
 3418 0160 19000000 		.4byte	.LVL20-1
 3419 0164 22000000 		.4byte	.LFE121
 3420 0168 0400     		.2byte	0x4
 3421 016a F3       		.byte	0xf3
 3422 016b 01       		.uleb128 0x1
 3423 016c 51       		.byte	0x51
 3424 016d 9F       		.byte	0x9f
 3425 016e 00000000 		.4byte	0
 3426 0172 00000000 		.4byte	0
 3427              	.LLST13:
 3428 0176 00000000 		.4byte	.LVL16
 3429 017a 19000000 		.4byte	.LVL20-1
 3430 017e 0100     		.2byte	0x1
 3431 0180 52       		.byte	0x52
 3432 0181 19000000 		.4byte	.LVL20-1
 3433 0185 22000000 		.4byte	.LFE121
 3434 0189 0400     		.2byte	0x4
 3435 018b F3       		.byte	0xf3
 3436 018c 01       		.uleb128 0x1
 3437 018d 52       		.byte	0x52
 3438 018e 9F       		.byte	0x9f
 3439 018f 00000000 		.4byte	0
 3440 0193 00000000 		.4byte	0
 3441              	.LLST14:
 3442 0197 00000000 		.4byte	.LVL16
 3443 019b 08000000 		.4byte	.LVL17
 3444 019f 0100     		.2byte	0x1
 3445 01a1 53       		.byte	0x53
 3446 01a2 08000000 		.4byte	.LVL17
 3447 01a6 22000000 		.4byte	.LFE121
 3448 01aa 0100     		.2byte	0x1
 3449 01ac 55       		.byte	0x55
 3450 01ad 00000000 		.4byte	0
 3451 01b1 00000000 		.4byte	0
 3452              	.LLST15:
 3453 01b5 0C000000 		.4byte	.LVL18
 3454 01b9 0E000000 		.4byte	.LVL19
 3455 01bd 0100     		.2byte	0x1
 3456 01bf 53       		.byte	0x53
 3457 01c0 00000000 		.4byte	0
 3458 01c4 00000000 		.4byte	0
 3459              	.LLST16:
ARM GAS  /tmp/cczF9pup.s 			page 62


 3460 01c8 0C000000 		.4byte	.LVL18
 3461 01cc 19000000 		.4byte	.LVL20-1
 3462 01d0 0100     		.2byte	0x1
 3463 01d2 52       		.byte	0x52
 3464 01d3 19000000 		.4byte	.LVL20-1
 3465 01d7 22000000 		.4byte	.LFE121
 3466 01db 0400     		.2byte	0x4
 3467 01dd F3       		.byte	0xf3
 3468 01de 01       		.uleb128 0x1
 3469 01df 52       		.byte	0x52
 3470 01e0 9F       		.byte	0x9f
 3471 01e1 00000000 		.4byte	0
 3472 01e5 00000000 		.4byte	0
 3473              	.LLST17:
 3474 01e9 0C000000 		.4byte	.LVL18
 3475 01ed 19000000 		.4byte	.LVL20-1
 3476 01f1 0100     		.2byte	0x1
 3477 01f3 51       		.byte	0x51
 3478 01f4 19000000 		.4byte	.LVL20-1
 3479 01f8 22000000 		.4byte	.LFE121
 3480 01fc 0400     		.2byte	0x4
 3481 01fe F3       		.byte	0xf3
 3482 01ff 01       		.uleb128 0x1
 3483 0200 51       		.byte	0x51
 3484 0201 9F       		.byte	0x9f
 3485 0202 00000000 		.4byte	0
 3486 0206 00000000 		.4byte	0
 3487              	.LLST18:
 3488 020a 0C000000 		.4byte	.LVL18
 3489 020e 19000000 		.4byte	.LVL20-1
 3490 0212 0100     		.2byte	0x1
 3491 0214 50       		.byte	0x50
 3492 0215 19000000 		.4byte	.LVL20-1
 3493 0219 22000000 		.4byte	.LFE121
 3494 021d 0100     		.2byte	0x1
 3495 021f 54       		.byte	0x54
 3496 0220 00000000 		.4byte	0
 3497 0224 00000000 		.4byte	0
 3498              	.LLST19:
 3499 0228 20000000 		.4byte	.LVL22
 3500 022c 22000000 		.4byte	.LFE121
 3501 0230 0100     		.2byte	0x1
 3502 0232 53       		.byte	0x53
 3503 0233 00000000 		.4byte	0
 3504 0237 00000000 		.4byte	0
 3505              	.LLST20:
 3506 023b 00000000 		.4byte	.LFB122
 3507 023f 02000000 		.4byte	.LCFI3
 3508 0243 0200     		.2byte	0x2
 3509 0245 7D       		.byte	0x7d
 3510 0246 00       		.sleb128 0
 3511 0247 02000000 		.4byte	.LCFI3
 3512 024b 14000000 		.4byte	.LFE122
 3513 024f 0200     		.2byte	0x2
 3514 0251 7D       		.byte	0x7d
 3515 0252 04       		.sleb128 4
 3516 0253 00000000 		.4byte	0
ARM GAS  /tmp/cczF9pup.s 			page 63


 3517 0257 00000000 		.4byte	0
 3518              	.LLST21:
 3519 025b 00000000 		.4byte	.LVL23
 3520 025f 13000000 		.4byte	.LVL25-1
 3521 0263 0100     		.2byte	0x1
 3522 0265 50       		.byte	0x50
 3523 0266 13000000 		.4byte	.LVL25-1
 3524 026a 14000000 		.4byte	.LFE122
 3525 026e 0100     		.2byte	0x1
 3526 0270 54       		.byte	0x54
 3527 0271 00000000 		.4byte	0
 3528 0275 00000000 		.4byte	0
 3529              	.LLST22:
 3530 0279 00000000 		.4byte	.LVL23
 3531 027d 13000000 		.4byte	.LVL25-1
 3532 0281 0100     		.2byte	0x1
 3533 0283 51       		.byte	0x51
 3534 0284 13000000 		.4byte	.LVL25-1
 3535 0288 14000000 		.4byte	.LFE122
 3536 028c 0400     		.2byte	0x4
 3537 028e F3       		.byte	0xf3
 3538 028f 01       		.uleb128 0x1
 3539 0290 51       		.byte	0x51
 3540 0291 9F       		.byte	0x9f
 3541 0292 00000000 		.4byte	0
 3542 0296 00000000 		.4byte	0
 3543              	.LLST23:
 3544 029a 00000000 		.4byte	.LVL23
 3545 029e 13000000 		.4byte	.LVL25-1
 3546 02a2 0100     		.2byte	0x1
 3547 02a4 52       		.byte	0x52
 3548 02a5 13000000 		.4byte	.LVL25-1
 3549 02a9 14000000 		.4byte	.LFE122
 3550 02ad 0400     		.2byte	0x4
 3551 02af F3       		.byte	0xf3
 3552 02b0 01       		.uleb128 0x1
 3553 02b1 52       		.byte	0x52
 3554 02b2 9F       		.byte	0x9f
 3555 02b3 00000000 		.4byte	0
 3556 02b7 00000000 		.4byte	0
 3557              	.LLST24:
 3558 02bb 00000000 		.4byte	.LVL23
 3559 02bf 08000000 		.4byte	.LVL24
 3560 02c3 0100     		.2byte	0x1
 3561 02c5 53       		.byte	0x53
 3562 02c6 08000000 		.4byte	.LVL24
 3563 02ca 13000000 		.4byte	.LVL25-1
 3564 02ce 0200     		.2byte	0x2
 3565 02d0 70       		.byte	0x70
 3566 02d1 0C       		.sleb128 12
 3567 02d2 13000000 		.4byte	.LVL25-1
 3568 02d6 14000000 		.4byte	.LFE122
 3569 02da 0400     		.2byte	0x4
 3570 02dc F3       		.byte	0xf3
 3571 02dd 01       		.uleb128 0x1
 3572 02de 53       		.byte	0x53
 3573 02df 9F       		.byte	0x9f
ARM GAS  /tmp/cczF9pup.s 			page 64


 3574 02e0 00000000 		.4byte	0
 3575 02e4 00000000 		.4byte	0
 3576              	.LLST25:
 3577 02e8 00000000 		.4byte	.LFB123
 3578 02ec 02000000 		.4byte	.LCFI4
 3579 02f0 0200     		.2byte	0x2
 3580 02f2 7D       		.byte	0x7d
 3581 02f3 00       		.sleb128 0
 3582 02f4 02000000 		.4byte	.LCFI4
 3583 02f8 32000000 		.4byte	.LFE123
 3584 02fc 0200     		.2byte	0x2
 3585 02fe 7D       		.byte	0x7d
 3586 02ff 08       		.sleb128 8
 3587 0300 00000000 		.4byte	0
 3588 0304 00000000 		.4byte	0
 3589              	.LLST26:
 3590 0308 00000000 		.4byte	.LVL26
 3591 030c 13000000 		.4byte	.LVL30-1
 3592 0310 0100     		.2byte	0x1
 3593 0312 50       		.byte	0x50
 3594 0313 13000000 		.4byte	.LVL30-1
 3595 0317 32000000 		.4byte	.LFE123
 3596 031b 0100     		.2byte	0x1
 3597 031d 54       		.byte	0x54
 3598 031e 00000000 		.4byte	0
 3599 0322 00000000 		.4byte	0
 3600              	.LLST27:
 3601 0326 0A000000 		.4byte	.LVL28
 3602 032a 0C000000 		.4byte	.LVL29
 3603 032e 0100     		.2byte	0x1
 3604 0330 53       		.byte	0x53
 3605 0331 00000000 		.4byte	0
 3606 0335 00000000 		.4byte	0
 3607              	.LLST28:
 3608 0339 20000000 		.4byte	.LVL31
 3609 033d 29000000 		.4byte	.LVL32-1
 3610 0341 0100     		.2byte	0x1
 3611 0343 50       		.byte	0x50
 3612 0344 00000000 		.4byte	0
 3613 0348 00000000 		.4byte	0
 3614              	.LLST29:
 3615 034c 30000000 		.4byte	.LVL34
 3616 0350 32000000 		.4byte	.LFE123
 3617 0354 0100     		.2byte	0x1
 3618 0356 53       		.byte	0x53
 3619 0357 00000000 		.4byte	0
 3620 035b 00000000 		.4byte	0
 3621              	.LLST30:
 3622 035f 00000000 		.4byte	.LFB124
 3623 0363 06000000 		.4byte	.LCFI5
 3624 0367 0200     		.2byte	0x2
 3625 0369 7D       		.byte	0x7d
 3626 036a 00       		.sleb128 0
 3627 036b 06000000 		.4byte	.LCFI5
 3628 036f 2E000000 		.4byte	.LFE124
 3629 0373 0200     		.2byte	0x2
 3630 0375 7D       		.byte	0x7d
ARM GAS  /tmp/cczF9pup.s 			page 65


 3631 0376 08       		.sleb128 8
 3632 0377 00000000 		.4byte	0
 3633 037b 00000000 		.4byte	0
 3634              	.LLST31:
 3635 037f 00000000 		.4byte	.LVL35
 3636 0383 0D000000 		.4byte	.LVL36-1
 3637 0387 0100     		.2byte	0x1
 3638 0389 50       		.byte	0x50
 3639 038a 0D000000 		.4byte	.LVL36-1
 3640 038e 2E000000 		.4byte	.LFE124
 3641 0392 0100     		.2byte	0x1
 3642 0394 54       		.byte	0x54
 3643 0395 00000000 		.4byte	0
 3644 0399 00000000 		.4byte	0
 3645              	.LLST32:
 3646 039d 1A000000 		.4byte	.LVL37
 3647 03a1 2B000000 		.4byte	.LVL38-1
 3648 03a5 0100     		.2byte	0x1
 3649 03a7 53       		.byte	0x53
 3650 03a8 00000000 		.4byte	0
 3651 03ac 00000000 		.4byte	0
 3652              	.LLST33:
 3653 03b0 00000000 		.4byte	.LFB125
 3654 03b4 02000000 		.4byte	.LCFI6
 3655 03b8 0200     		.2byte	0x2
 3656 03ba 7D       		.byte	0x7d
 3657 03bb 00       		.sleb128 0
 3658 03bc 02000000 		.4byte	.LCFI6
 3659 03c0 38000000 		.4byte	.LFE125
 3660 03c4 0200     		.2byte	0x2
 3661 03c6 7D       		.byte	0x7d
 3662 03c7 10       		.sleb128 16
 3663 03c8 00000000 		.4byte	0
 3664 03cc 00000000 		.4byte	0
 3665              	.LLST34:
 3666 03d0 00000000 		.4byte	.LVL39
 3667 03d4 21000000 		.4byte	.LVL43-1
 3668 03d8 0100     		.2byte	0x1
 3669 03da 50       		.byte	0x50
 3670 03db 21000000 		.4byte	.LVL43-1
 3671 03df 38000000 		.4byte	.LFE125
 3672 03e3 0100     		.2byte	0x1
 3673 03e5 54       		.byte	0x54
 3674 03e6 00000000 		.4byte	0
 3675 03ea 00000000 		.4byte	0
 3676              	.LLST35:
 3677 03ee 00000000 		.4byte	.LVL39
 3678 03f2 21000000 		.4byte	.LVL43-1
 3679 03f6 0100     		.2byte	0x1
 3680 03f8 51       		.byte	0x51
 3681 03f9 21000000 		.4byte	.LVL43-1
 3682 03fd 38000000 		.4byte	.LFE125
 3683 0401 0400     		.2byte	0x4
 3684 0403 F3       		.byte	0xf3
 3685 0404 01       		.uleb128 0x1
 3686 0405 51       		.byte	0x51
 3687 0406 9F       		.byte	0x9f
ARM GAS  /tmp/cczF9pup.s 			page 66


 3688 0407 00000000 		.4byte	0
 3689 040b 00000000 		.4byte	0
 3690              	.LLST36:
 3691 040f 00000000 		.4byte	.LVL39
 3692 0413 21000000 		.4byte	.LVL43-1
 3693 0417 0100     		.2byte	0x1
 3694 0419 52       		.byte	0x52
 3695 041a 21000000 		.4byte	.LVL43-1
 3696 041e 38000000 		.4byte	.LFE125
 3697 0422 0400     		.2byte	0x4
 3698 0424 F3       		.byte	0xf3
 3699 0425 01       		.uleb128 0x1
 3700 0426 52       		.byte	0x52
 3701 0427 9F       		.byte	0x9f
 3702 0428 00000000 		.4byte	0
 3703 042c 00000000 		.4byte	0
 3704              	.LLST37:
 3705 0430 00000000 		.4byte	.LVL39
 3706 0434 08000000 		.4byte	.LVL40
 3707 0438 0100     		.2byte	0x1
 3708 043a 53       		.byte	0x53
 3709 043b 08000000 		.4byte	.LVL40
 3710 043f 38000000 		.4byte	.LFE125
 3711 0443 0100     		.2byte	0x1
 3712 0445 56       		.byte	0x56
 3713 0446 00000000 		.4byte	0
 3714 044a 00000000 		.4byte	0
 3715              	.LLST38:
 3716 044e 0C000000 		.4byte	.LVL41
 3717 0452 12000000 		.4byte	.LVL42
 3718 0456 0100     		.2byte	0x1
 3719 0458 53       		.byte	0x53
 3720 0459 00000000 		.4byte	0
 3721 045d 00000000 		.4byte	0
 3722              	.LLST39:
 3723 0461 0C000000 		.4byte	.LVL41
 3724 0465 21000000 		.4byte	.LVL43-1
 3725 0469 0100     		.2byte	0x1
 3726 046b 52       		.byte	0x52
 3727 046c 21000000 		.4byte	.LVL43-1
 3728 0470 38000000 		.4byte	.LFE125
 3729 0474 0400     		.2byte	0x4
 3730 0476 F3       		.byte	0xf3
 3731 0477 01       		.uleb128 0x1
 3732 0478 52       		.byte	0x52
 3733 0479 9F       		.byte	0x9f
 3734 047a 00000000 		.4byte	0
 3735 047e 00000000 		.4byte	0
 3736              	.LLST40:
 3737 0482 0C000000 		.4byte	.LVL41
 3738 0486 21000000 		.4byte	.LVL43-1
 3739 048a 0100     		.2byte	0x1
 3740 048c 51       		.byte	0x51
 3741 048d 21000000 		.4byte	.LVL43-1
 3742 0491 38000000 		.4byte	.LFE125
 3743 0495 0400     		.2byte	0x4
 3744 0497 F3       		.byte	0xf3
ARM GAS  /tmp/cczF9pup.s 			page 67


 3745 0498 01       		.uleb128 0x1
 3746 0499 51       		.byte	0x51
 3747 049a 9F       		.byte	0x9f
 3748 049b 00000000 		.4byte	0
 3749 049f 00000000 		.4byte	0
 3750              	.LLST41:
 3751 04a3 0C000000 		.4byte	.LVL41
 3752 04a7 21000000 		.4byte	.LVL43-1
 3753 04ab 0100     		.2byte	0x1
 3754 04ad 50       		.byte	0x50
 3755 04ae 21000000 		.4byte	.LVL43-1
 3756 04b2 38000000 		.4byte	.LFE125
 3757 04b6 0100     		.2byte	0x1
 3758 04b8 54       		.byte	0x54
 3759 04b9 00000000 		.4byte	0
 3760 04bd 00000000 		.4byte	0
 3761              	.LLST42:
 3762 04c1 36000000 		.4byte	.LVL47
 3763 04c5 38000000 		.4byte	.LFE125
 3764 04c9 0100     		.2byte	0x1
 3765 04cb 53       		.byte	0x53
 3766 04cc 00000000 		.4byte	0
 3767 04d0 00000000 		.4byte	0
 3768              	.LLST43:
 3769 04d4 00000000 		.4byte	.LVL48
 3770 04d8 02000000 		.4byte	.LVL49
 3771 04dc 0100     		.2byte	0x1
 3772 04de 50       		.byte	0x50
 3773 04df 02000000 		.4byte	.LVL49
 3774 04e3 05000000 		.4byte	.LVL50-1
 3775 04e7 0300     		.2byte	0x3
 3776 04e9 70       		.byte	0x70
 3777 04ea 68       		.sleb128 -24
 3778 04eb 9F       		.byte	0x9f
 3779 04ec 05000000 		.4byte	.LVL50-1
 3780 04f0 06000000 		.4byte	.LFE126
 3781 04f4 0400     		.2byte	0x4
 3782 04f6 F3       		.byte	0xf3
 3783 04f7 01       		.uleb128 0x1
 3784 04f8 50       		.byte	0x50
 3785 04f9 9F       		.byte	0x9f
 3786 04fa 00000000 		.4byte	0
 3787 04fe 00000000 		.4byte	0
 3788              	.LLST44:
 3789 0502 00000000 		.4byte	.LVL51
 3790 0506 03000000 		.4byte	.LVL52-1
 3791 050a 0100     		.2byte	0x1
 3792 050c 50       		.byte	0x50
 3793 050d 03000000 		.4byte	.LVL52-1
 3794 0511 04000000 		.4byte	.LFE127
 3795 0515 0400     		.2byte	0x4
 3796 0517 F3       		.byte	0xf3
 3797 0518 01       		.uleb128 0x1
 3798 0519 50       		.byte	0x50
 3799 051a 9F       		.byte	0x9f
 3800 051b 00000000 		.4byte	0
 3801 051f 00000000 		.4byte	0
ARM GAS  /tmp/cczF9pup.s 			page 68


 3802              		.section	.debug_aranges,"",%progbits
 3803 0000 6C000000 		.4byte	0x6c
 3804 0004 0200     		.2byte	0x2
 3805 0006 00000000 		.4byte	.Ldebug_info0
 3806 000a 04       		.byte	0x4
 3807 000b 00       		.byte	0
 3808 000c 0000     		.2byte	0
 3809 000e 0000     		.2byte	0
 3810 0010 00000000 		.4byte	.LFB117
 3811 0014 04000000 		.4byte	.LFE117-.LFB117
 3812 0018 00000000 		.4byte	.LFB118
 3813 001c 16000000 		.4byte	.LFE118-.LFB118
 3814 0020 00000000 		.4byte	.LFB119
 3815 0024 1C000000 		.4byte	.LFE119-.LFB119
 3816 0028 00000000 		.4byte	.LFB120
 3817 002c 1A000000 		.4byte	.LFE120-.LFB120
 3818 0030 00000000 		.4byte	.LFB121
 3819 0034 22000000 		.4byte	.LFE121-.LFB121
 3820 0038 00000000 		.4byte	.LFB122
 3821 003c 14000000 		.4byte	.LFE122-.LFB122
 3822 0040 00000000 		.4byte	.LFB123
 3823 0044 32000000 		.4byte	.LFE123-.LFB123
 3824 0048 00000000 		.4byte	.LFB124
 3825 004c 2E000000 		.4byte	.LFE124-.LFB124
 3826 0050 00000000 		.4byte	.LFB125
 3827 0054 38000000 		.4byte	.LFE125-.LFB125
 3828 0058 00000000 		.4byte	.LFB126
 3829 005c 06000000 		.4byte	.LFE126-.LFB126
 3830 0060 00000000 		.4byte	.LFB127
 3831 0064 04000000 		.4byte	.LFE127-.LFB127
 3832 0068 00000000 		.4byte	0
 3833 006c 00000000 		.4byte	0
 3834              		.section	.debug_ranges,"",%progbits
 3835              	.Ldebug_ranges0:
 3836 0000 02000000 		.4byte	.LBB10
 3837 0004 04000000 		.4byte	.LBE10
 3838 0008 06000000 		.4byte	.LBB11
 3839 000c 0A000000 		.4byte	.LBE11
 3840 0010 00000000 		.4byte	0
 3841 0014 00000000 		.4byte	0
 3842 0018 02000000 		.4byte	.LBB13
 3843 001c 04000000 		.4byte	.LBE13
 3844 0020 06000000 		.4byte	.LBB14
 3845 0024 0A000000 		.4byte	.LBE14
 3846 0028 00000000 		.4byte	0
 3847 002c 00000000 		.4byte	0
 3848 0030 02000000 		.4byte	.LBB20
 3849 0034 04000000 		.4byte	.LBE20
 3850 0038 06000000 		.4byte	.LBB21
 3851 003c 0A000000 		.4byte	.LBE21
 3852 0040 00000000 		.4byte	0
 3853 0044 00000000 		.4byte	0
 3854 0048 1A000000 		.4byte	.LBB24
 3855 004c 24000000 		.4byte	.LBE24
 3856 0050 28000000 		.4byte	.LBB25
 3857 0054 2E000000 		.4byte	.LBE25
 3858 0058 00000000 		.4byte	0
ARM GAS  /tmp/cczF9pup.s 			page 69


 3859 005c 00000000 		.4byte	0
 3860 0060 10000000 		.4byte	.LBB27
 3861 0064 12000000 		.4byte	.LBE27
 3862 0068 16000000 		.4byte	.LBB30
 3863 006c 22000000 		.4byte	.LBE30
 3864 0070 00000000 		.4byte	0
 3865 0074 00000000 		.4byte	0
 3866 0078 2E000000 		.4byte	.LBB31
 3867 007c 30000000 		.4byte	.LBE31
 3868 0080 32000000 		.4byte	.LBB32
 3869 0084 36000000 		.4byte	.LBE32
 3870 0088 00000000 		.4byte	0
 3871 008c 00000000 		.4byte	0
 3872 0090 00000000 		.4byte	.LFB117
 3873 0094 04000000 		.4byte	.LFE117
 3874 0098 00000000 		.4byte	.LFB118
 3875 009c 16000000 		.4byte	.LFE118
 3876 00a0 00000000 		.4byte	.LFB119
 3877 00a4 1C000000 		.4byte	.LFE119
 3878 00a8 00000000 		.4byte	.LFB120
 3879 00ac 1A000000 		.4byte	.LFE120
 3880 00b0 00000000 		.4byte	.LFB121
 3881 00b4 22000000 		.4byte	.LFE121
 3882 00b8 00000000 		.4byte	.LFB122
 3883 00bc 14000000 		.4byte	.LFE122
 3884 00c0 00000000 		.4byte	.LFB123
 3885 00c4 32000000 		.4byte	.LFE123
 3886 00c8 00000000 		.4byte	.LFB124
 3887 00cc 2E000000 		.4byte	.LFE124
 3888 00d0 00000000 		.4byte	.LFB125
 3889 00d4 38000000 		.4byte	.LFE125
 3890 00d8 00000000 		.4byte	.LFB126
 3891 00dc 06000000 		.4byte	.LFE126
 3892 00e0 00000000 		.4byte	.LFB127
 3893 00e4 04000000 		.4byte	.LFE127
 3894 00e8 00000000 		.4byte	0
 3895 00ec 00000000 		.4byte	0
 3896              		.section	.debug_line,"",%progbits
 3897              	.Ldebug_line0:
 3898 0000 84030000 		.section	.debug_str,"MS",%progbits,1
 3898      02003E02 
 3898      00000201 
 3898      FB0E0D00 
 3898      01010101 
 3899              	.LASF81:
 3900 0000 4D304152 		.ascii	"M0AR\000"
 3900      00
 3901              	.LASF2:
 3902 0005 73697A65 		.ascii	"size_t\000"
 3902      5F7400
 3903              	.LASF60:
 3904 000c 7264796D 		.ascii	"rdymsg\000"
 3904      736700
 3905              	.LASF111:
 3906 0013 646D616D 		.ascii	"dmamode\000"
 3906      6F646500 
 3907              	.LASF96:
ARM GAS  /tmp/cczF9pup.s 			page 70


 3908 001b 61646373 		.ascii	"adcstate_t\000"
 3908      74617465 
 3908      5F7400
 3909              	.LASF130:
 3910 0026 61646353 		.ascii	"adcStop\000"
 3910      746F7000 
 3911              	.LASF84:
 3912 002e 73747265 		.ascii	"stream\000"
 3912      616D00
 3913              	.LASF141:
 3914 0035 6164635F 		.ascii	"adc_lld_stop\000"
 3914      6C6C645F 
 3914      73746F70 
 3914      00
 3915              	.LASF13:
 3916 0042 6C6F6E67 		.ascii	"long long unsigned int\000"
 3916      206C6F6E 
 3916      6720756E 
 3916      7369676E 
 3916      65642069 
 3917              	.LASF61:
 3918 0059 65786974 		.ascii	"exitcode\000"
 3918      636F6465 
 3918      00
 3919              	.LASF88:
 3920 0062 76656374 		.ascii	"vector\000"
 3920      6F7200
 3921              	.LASF137:
 3922 0069 49544D5F 		.ascii	"ITM_RxBuffer\000"
 3922      52784275 
 3922      66666572 
 3922      00
 3923              	.LASF26:
 3924 0076 705F7072 		.ascii	"p_prio\000"
 3924      696F00
 3925              	.LASF74:
 3926 007d 4A535152 		.ascii	"JSQR\000"
 3926      00
 3927              	.LASF153:
 3928 0082 63684D74 		.ascii	"chMtxUnlock\000"
 3928      78556E6C 
 3928      6F636B00 
 3929              	.LASF1:
 3930 008e 7369676E 		.ascii	"signed char\000"
 3930      65642063 
 3930      68617200 
 3931              	.LASF41:
 3932 009a 705F6D70 		.ascii	"p_mpool\000"
 3932      6F6F6C00 
 3933              	.LASF14:
 3934 00a2 626F6F6C 		.ascii	"bool_t\000"
 3934      5F7400
 3935              	.LASF57:
 3936 00a9 6D5F7175 		.ascii	"m_queue\000"
 3936      65756500 
 3937              	.LASF101:
 3938 00b1 61646365 		.ascii	"adcerror_t\000"
ARM GAS  /tmp/cczF9pup.s 			page 71


 3938      72726F72 
 3938      5F7400
 3939              	.LASF110:
 3940 00bc 646D6173 		.ascii	"dmastp\000"
 3940      747000
 3941              	.LASF95:
 3942 00c3 4144435F 		.ascii	"ADC_ERROR\000"
 3942      4552524F 
 3942      5200
 3943              	.LASF103:
 3944 00cd 73746174 		.ascii	"state\000"
 3944      6500
 3945              	.LASF114:
 3946 00d3 63697263 		.ascii	"circular\000"
 3946      756C6172 
 3946      00
 3947              	.LASF9:
 3948 00dc 6C6F6E67 		.ascii	"long int\000"
 3948      20696E74 
 3948      00
 3949              	.LASF99:
 3950 00e5 4144435F 		.ascii	"ADC_ERR_DMAFAILURE\000"
 3950      4552525F 
 3950      444D4146 
 3950      41494C55 
 3950      524500
 3951              	.LASF142:
 3952 00f8 6164635F 		.ascii	"adc_lld_start_conversion\000"
 3952      6C6C645F 
 3952      73746172 
 3952      745F636F 
 3952      6E766572 
 3953              	.LASF113:
 3954 0111 61646365 		.ascii	"adcerrorcallback_t\000"
 3954      72726F72 
 3954      63616C6C 
 3954      6261636B 
 3954      5F7400
 3955              	.LASF16:
 3956 0124 74737461 		.ascii	"tstate_t\000"
 3956      74655F74 
 3956      00
 3957              	.LASF108:
 3958 012d 74687265 		.ascii	"thread\000"
 3958      616400
 3959              	.LASF12:
 3960 0134 6C6F6E67 		.ascii	"long long int\000"
 3960      206C6F6E 
 3960      6720696E 
 3960      7400
 3961              	.LASF6:
 3962 0142 75696E74 		.ascii	"uint16_t\000"
 3962      31365F74 
 3962      00
 3963              	.LASF34:
 3964 014b 705F7469 		.ascii	"p_time\000"
 3964      6D6500
ARM GAS  /tmp/cczF9pup.s 			page 72


 3965              	.LASF79:
 3966 0152 4144435F 		.ascii	"ADC_TypeDef\000"
 3966      54797065 
 3966      44656600 
 3967              	.LASF28:
 3968 015e 705F6E65 		.ascii	"p_newer\000"
 3968      77657200 
 3969              	.LASF116:
 3970 0166 656E645F 		.ascii	"end_cb\000"
 3970      636200
 3971              	.LASF112:
 3972 016d 61646363 		.ascii	"adccallback_t\000"
 3972      616C6C62 
 3972      61636B5F 
 3972      7400
 3973              	.LASF150:
 3974 017b 61646343 		.ascii	"adcConvert\000"
 3974      6F6E7665 
 3974      727400
 3975              	.LASF97:
 3976 0186 61646373 		.ascii	"adcsample_t\000"
 3976      616D706C 
 3976      655F7400 
 3977              	.LASF51:
 3978 0192 725F6E65 		.ascii	"r_newer\000"
 3978      77657200 
 3979              	.LASF125:
 3980 019a 41444343 		.ascii	"ADCConfig\000"
 3980      6F6E6669 
 3980      6700
 3981              	.LASF44:
 3982 01a4 72656761 		.ascii	"regarm_t\000"
 3982      726D5F74 
 3982      00
 3983              	.LASF87:
 3984 01ad 73656C66 		.ascii	"selfindex\000"
 3984      696E6465 
 3984      7800
 3985              	.LASF124:
 3986 01b7 64756D6D 		.ascii	"dummy\000"
 3986      7900
 3987              	.LASF90:
 3988 01bd 4144435F 		.ascii	"ADC_UNINIT\000"
 3988      554E494E 
 3988      495400
 3989              	.LASF100:
 3990 01c8 4144435F 		.ascii	"ADC_ERR_OVERFLOW\000"
 3990      4552525F 
 3990      4F564552 
 3990      464C4F57 
 3990      00
 3991              	.LASF93:
 3992 01d9 4144435F 		.ascii	"ADC_ACTIVE\000"
 3992      41435449 
 3992      564500
 3993              	.LASF22:
 3994 01e4 636E745F 		.ascii	"cnt_t\000"
ARM GAS  /tmp/cczF9pup.s 			page 73


 3994      7400
 3995              	.LASF0:
 3996 01ea 756E7369 		.ascii	"unsigned int\000"
 3996      676E6564 
 3996      20696E74 
 3996      00
 3997              	.LASF128:
 3998 01f7 6164634F 		.ascii	"adcObjectInit\000"
 3998      626A6563 
 3998      74496E69 
 3998      7400
 3999              	.LASF36:
 4000 0205 705F6D73 		.ascii	"p_msgqueue\000"
 4000      67717565 
 4000      756500
 4001              	.LASF102:
 4002 0210 41444344 		.ascii	"ADCDriver\000"
 4002      72697665 
 4002      7200
 4003              	.LASF126:
 4004 021a 61646370 		.ascii	"adcp\000"
 4004      00
 4005              	.LASF86:
 4006 021f 69736869 		.ascii	"ishift\000"
 4006      667400
 4007              	.LASF7:
 4008 0226 73686F72 		.ascii	"short unsigned int\000"
 4008      7420756E 
 4008      7369676E 
 4008      65642069 
 4008      6E7400
 4009              	.LASF92:
 4010 0239 4144435F 		.ascii	"ADC_READY\000"
 4010      52454144 
 4010      5900
 4011              	.LASF106:
 4012 0243 64657074 		.ascii	"depth\000"
 4012      6800
 4013              	.LASF19:
 4014 0249 6D73675F 		.ascii	"msg_t\000"
 4014      7400
 4015              	.LASF15:
 4016 024f 746D6F64 		.ascii	"tmode_t\000"
 4016      655F7400 
 4017              	.LASF115:
 4018 0257 6E756D5F 		.ascii	"num_channels\000"
 4018      6368616E 
 4018      6E656C73 
 4018      00
 4019              	.LASF43:
 4020 0264 54687265 		.ascii	"ThreadsList\000"
 4020      6164734C 
 4020      69737400 
 4021              	.LASF20:
 4022 0270 6576656E 		.ascii	"eventmask_t\000"
 4022      746D6173 
 4022      6B5F7400 
ARM GAS  /tmp/cczF9pup.s 			page 74


 4023              	.LASF5:
 4024 027c 73686F72 		.ascii	"short int\000"
 4024      7420696E 
 4024      7400
 4025              	.LASF127:
 4026 0286 61646349 		.ascii	"adcInit\000"
 4026      6E697400 
 4027              	.LASF135:
 4028 028e 61646352 		.ascii	"adcReleaseBus\000"
 4028      656C6561 
 4028      73654275 
 4028      7300
 4029              	.LASF107:
 4030 029c 67727070 		.ascii	"grpp\000"
 4030      00
 4031              	.LASF67:
 4032 02a1 4A4F4652 		.ascii	"JOFR1\000"
 4032      3100
 4033              	.LASF68:
 4034 02a7 4A4F4652 		.ascii	"JOFR2\000"
 4034      3200
 4035              	.LASF151:
 4036 02ad 6164635F 		.ascii	"adc_lld_init\000"
 4036      6C6C645F 
 4036      696E6974 
 4036      00
 4037              	.LASF105:
 4038 02ba 73616D70 		.ascii	"samples\000"
 4038      6C657300 
 4039              	.LASF47:
 4040 02c2 73697A65 		.ascii	"sizetype\000"
 4040      74797065 
 4040      00
 4041              	.LASF56:
 4042 02cb 4D757465 		.ascii	"Mutex\000"
 4042      7800
 4043              	.LASF91:
 4044 02d1 4144435F 		.ascii	"ADC_STOP\000"
 4044      53544F50 
 4044      00
 4045              	.LASF146:
 4046 02da 63684D74 		.ascii	"chMtxLock\000"
 4046      784C6F63 
 4046      6B00
 4047              	.LASF29:
 4048 02e4 705F6F6C 		.ascii	"p_older\000"
 4048      64657200 
 4049              	.LASF50:
 4050 02ec 725F6374 		.ascii	"r_ctx\000"
 4050      7800
 4051              	.LASF42:
 4052 02f2 54687265 		.ascii	"ThreadsQueue\000"
 4052      61647351 
 4052      75657565 
 4052      00
 4053              	.LASF148:
 4054 02ff 2E2F6F73 		.ascii	"./os/hal/src/adc.c\000"
ARM GAS  /tmp/cczF9pup.s 			page 75


 4054      2F68616C 
 4054      2F737263 
 4054      2F616463 
 4054      2E6300
 4055              	.LASF65:
 4056 0312 534D5052 		.ascii	"SMPR1\000"
 4056      3100
 4057              	.LASF66:
 4058 0318 534D5052 		.ascii	"SMPR2\000"
 4058      3200
 4059              	.LASF59:
 4060 031e 6D5F6E65 		.ascii	"m_next\000"
 4060      787400
 4061              	.LASF147:
 4062 0325 474E5520 		.ascii	"GNU C 4.7.2\000"
 4062      4320342E 
 4062      372E3200 
 4063              	.LASF54:
 4064 0331 725F6375 		.ascii	"r_current\000"
 4064      7272656E 
 4064      7400
 4065              	.LASF52:
 4066 033b 725F6F6C 		.ascii	"r_older\000"
 4066      64657200 
 4067              	.LASF71:
 4068 0343 53515231 		.ascii	"SQR1\000"
 4068      00
 4069              	.LASF72:
 4070 0348 53515232 		.ascii	"SQR2\000"
 4070      00
 4071              	.LASF73:
 4072 034d 53515233 		.ascii	"SQR3\000"
 4072      00
 4073              	.LASF138:
 4074 0352 61646353 		.ascii	"adcStartConversionI\000"
 4074      74617274 
 4074      436F6E76 
 4074      65727369 
 4074      6F6E4900 
 4075              	.LASF17:
 4076 0366 74726566 		.ascii	"trefs_t\000"
 4076      735F7400 
 4077              	.LASF25:
 4078 036e 705F7072 		.ascii	"p_prev\000"
 4078      657600
 4079              	.LASF89:
 4080 0375 73746D33 		.ascii	"stm32_dma_stream_t\000"
 4080      325F646D 
 4080      615F7374 
 4080      7265616D 
 4080      5F7400
 4081              	.LASF18:
 4082 0388 74707269 		.ascii	"tprio_t\000"
 4082      6F5F7400 
 4083              	.LASF109:
 4084 0390 6D757465 		.ascii	"mutex\000"
 4084      7800
ARM GAS  /tmp/cczF9pup.s 			page 76


 4085              	.LASF8:
 4086 0396 696E7433 		.ascii	"int32_t\000"
 4086      325F7400 
 4087              	.LASF4:
 4088 039e 756E7369 		.ascii	"unsigned char\000"
 4088      676E6564 
 4088      20636861 
 4088      7200
 4089              	.LASF39:
 4090 03ac 705F6D74 		.ascii	"p_mtxlist\000"
 4090      786C6973 
 4090      7400
 4091              	.LASF144:
 4092 03b6 6164635F 		.ascii	"adc_lld_stop_conversion\000"
 4092      6C6C645F 
 4092      73746F70 
 4092      5F636F6E 
 4092      76657273 
 4093              	.LASF31:
 4094 03ce 705F7374 		.ascii	"p_state\000"
 4094      61746500 
 4095              	.LASF117:
 4096 03d6 6572726F 		.ascii	"error_cb\000"
 4096      725F6362 
 4096      00
 4097              	.LASF49:
 4098 03df 725F7072 		.ascii	"r_prio\000"
 4098      696F00
 4099              	.LASF63:
 4100 03e6 65776D61 		.ascii	"ewmask\000"
 4100      736B00
 4101              	.LASF24:
 4102 03ed 705F6E65 		.ascii	"p_next\000"
 4102      787400
 4103              	.LASF32:
 4104 03f4 705F666C 		.ascii	"p_flags\000"
 4104      61677300 
 4105              	.LASF69:
 4106 03fc 4A4F4652 		.ascii	"JOFR3\000"
 4106      3300
 4107              	.LASF70:
 4108 0402 4A4F4652 		.ascii	"JOFR4\000"
 4108      3400
 4109              	.LASF23:
 4110 0408 54687265 		.ascii	"Thread\000"
 4110      616400
 4111              	.LASF145:
 4112 040f 63685363 		.ascii	"chSchGoSleepS\000"
 4112      68476F53 
 4112      6C656570 
 4112      5300
 4113              	.LASF38:
 4114 041d 705F6570 		.ascii	"p_epending\000"
 4114      656E6469 
 4114      6E6700
 4115              	.LASF85:
 4116 0428 69666372 		.ascii	"ifcr\000"
ARM GAS  /tmp/cczF9pup.s 			page 77


 4116      00
 4117              	.LASF10:
 4118 042d 75696E74 		.ascii	"uint32_t\000"
 4118      33325F74 
 4118      00
 4119              	.LASF48:
 4120 0436 725F7175 		.ascii	"r_queue\000"
 4120      65756500 
 4121              	.LASF152:
 4122 043e 63685363 		.ascii	"chSchReadyI\000"
 4122      68526561 
 4122      64794900 
 4123              	.LASF11:
 4124 044a 6C6F6E67 		.ascii	"long unsigned int\000"
 4124      20756E73 
 4124      69676E65 
 4124      6420696E 
 4124      7400
 4125              	.LASF64:
 4126 045c 63686172 		.ascii	"char\000"
 4126      00
 4127              	.LASF104:
 4128 0461 636F6E66 		.ascii	"config\000"
 4128      696700
 4129              	.LASF120:
 4130 0468 73717231 		.ascii	"sqr1\000"
 4130      00
 4131              	.LASF121:
 4132 046d 73717232 		.ascii	"sqr2\000"
 4132      00
 4133              	.LASF122:
 4134 0472 73717233 		.ascii	"sqr3\000"
 4134      00
 4135              	.LASF21:
 4136 0477 73797374 		.ascii	"systime_t\000"
 4136      696D655F 
 4136      7400
 4137              	.LASF40:
 4138 0481 705F7265 		.ascii	"p_realprio\000"
 4138      616C7072 
 4138      696F00
 4139              	.LASF80:
 4140 048c 4E445452 		.ascii	"NDTR\000"
 4140      00
 4141              	.LASF83:
 4142 0491 444D415F 		.ascii	"DMA_Stream_TypeDef\000"
 4142      53747265 
 4142      616D5F54 
 4142      79706544 
 4142      656600
 4143              	.LASF46:
 4144 04a4 636F6E74 		.ascii	"context\000"
 4144      65787400 
 4145              	.LASF149:
 4146 04ac 2F686F6D 		.ascii	"/home/mitchd/Documents/FOX-1/amsat-fox/stm32f4-deve"
 4146      652F6D69 
 4146      74636864 
ARM GAS  /tmp/cczF9pup.s 			page 78


 4146      2F446F63 
 4146      756D656E 
 4147 04df 6C00     		.ascii	"l\000"
 4148              	.LASF131:
 4149 04e1 61646353 		.ascii	"adcStartConversion\000"
 4149      74617274 
 4149      436F6E76 
 4149      65727369 
 4149      6F6E00
 4150              	.LASF45:
 4151 04f4 696E7463 		.ascii	"intctx\000"
 4151      747800
 4152              	.LASF82:
 4153 04fb 4D314152 		.ascii	"M1AR\000"
 4153      00
 4154              	.LASF140:
 4155 0500 6164635F 		.ascii	"adc_lld_start\000"
 4155      6C6C645F 
 4155      73746172 
 4155      7400
 4156              	.LASF143:
 4157 050e 63685363 		.ascii	"chSchWakeupS\000"
 4157      6857616B 
 4157      65757053 
 4157      00
 4158              	.LASF139:
 4159 051b 63684D74 		.ascii	"chMtxInit\000"
 4159      78496E69 
 4159      7400
 4160              	.LASF129:
 4161 0525 61646353 		.ascii	"adcStart\000"
 4161      74617274 
 4161      00
 4162              	.LASF33:
 4163 052e 705F7265 		.ascii	"p_refs\000"
 4163      667300
 4164              	.LASF55:
 4165 0535 52656164 		.ascii	"ReadyList\000"
 4165      794C6973 
 4165      7400
 4166              	.LASF118:
 4167 053f 736D7072 		.ascii	"smpr1\000"
 4167      3100
 4168              	.LASF119:
 4169 0545 736D7072 		.ascii	"smpr2\000"
 4169      3200
 4170              	.LASF136:
 4171 054b 726C6973 		.ascii	"rlist\000"
 4171      7400
 4172              	.LASF3:
 4173 0551 75696E74 		.ascii	"uint8_t\000"
 4173      385F7400 
 4174              	.LASF133:
 4175 0559 61646353 		.ascii	"adcStopConversionI\000"
 4175      746F7043 
 4175      6F6E7665 
 4175      7273696F 
ARM GAS  /tmp/cczF9pup.s 			page 79


 4175      6E4900
 4176              	.LASF123:
 4177 056c 41444343 		.ascii	"ADCConversionGroup\000"
 4177      6F6E7665 
 4177      7273696F 
 4177      6E47726F 
 4177      757000
 4178              	.LASF75:
 4179 057f 4A445231 		.ascii	"JDR1\000"
 4179      00
 4180              	.LASF76:
 4181 0584 4A445232 		.ascii	"JDR2\000"
 4181      00
 4182              	.LASF77:
 4183 0589 4A445233 		.ascii	"JDR3\000"
 4183      00
 4184              	.LASF78:
 4185 058e 4A445234 		.ascii	"JDR4\000"
 4185      00
 4186              	.LASF62:
 4187 0593 77746F62 		.ascii	"wtobjp\000"
 4187      6A7000
 4188              	.LASF94:
 4189 059a 4144435F 		.ascii	"ADC_COMPLETE\000"
 4189      434F4D50 
 4189      4C455445 
 4189      00
 4190              	.LASF30:
 4191 05a7 705F6E61 		.ascii	"p_name\000"
 4191      6D6500
 4192              	.LASF98:
 4193 05ae 6164635F 		.ascii	"adc_channels_num_t\000"
 4193      6368616E 
 4193      6E656C73 
 4193      5F6E756D 
 4193      5F7400
 4194              	.LASF37:
 4195 05c1 705F6D73 		.ascii	"p_msg\000"
 4195      6700
 4196              	.LASF53:
 4197 05c7 725F7072 		.ascii	"r_preempt\000"
 4197      65656D70 
 4197      7400
 4198              	.LASF132:
 4199 05d1 61646353 		.ascii	"adcStopConversion\000"
 4199      746F7043 
 4199      6F6E7665 
 4199      7273696F 
 4199      6E00
 4200              	.LASF58:
 4201 05e3 6D5F6F77 		.ascii	"m_owner\000"
 4201      6E657200 
 4202              	.LASF134:
 4203 05eb 61646341 		.ascii	"adcAcquireBus\000"
 4203      63717569 
 4203      72654275 
 4203      7300
ARM GAS  /tmp/cczF9pup.s 			page 80


 4204              	.LASF27:
 4205 05f9 705F6374 		.ascii	"p_ctx\000"
 4205      7800
 4206              	.LASF35:
 4207 05ff 705F7761 		.ascii	"p_waiting\000"
 4207      6974696E 
 4207      6700
 4208              		.ident	"GCC: (GNU) 4.7.2"
ARM GAS  /tmp/cczF9pup.s 			page 81


DEFINED SYMBOLS
                            *ABS*:0000000000000000 adc.c
     /tmp/cczF9pup.s:19     .text.adcInit:0000000000000000 $t
     /tmp/cczF9pup.s:25     .text.adcInit:0000000000000000 adcInit
     /tmp/cczF9pup.s:41     .text.adcObjectInit:0000000000000000 $t
     /tmp/cczF9pup.s:47     .text.adcObjectInit:0000000000000000 adcObjectInit
     /tmp/cczF9pup.s:81     .text.adcStart:0000000000000000 $t
     /tmp/cczF9pup.s:87     .text.adcStart:0000000000000000 adcStart
     /tmp/cczF9pup.s:137    .text.adcStop:0000000000000000 $t
     /tmp/cczF9pup.s:143    .text.adcStop:0000000000000000 adcStop
     /tmp/cczF9pup.s:191    .text.adcStartConversion:0000000000000000 $t
     /tmp/cczF9pup.s:197    .text.adcStartConversion:0000000000000000 adcStartConversion
     /tmp/cczF9pup.s:256    .text.adcStartConversionI:0000000000000000 $t
     /tmp/cczF9pup.s:262    .text.adcStartConversionI:0000000000000000 adcStartConversionI
     /tmp/cczF9pup.s:296    .text.adcStopConversion:0000000000000000 $t
     /tmp/cczF9pup.s:302    .text.adcStopConversion:0000000000000000 adcStopConversion
     /tmp/cczF9pup.s:373    .text.adcStopConversionI:0000000000000000 $t
     /tmp/cczF9pup.s:379    .text.adcStopConversionI:0000000000000000 adcStopConversionI
     /tmp/cczF9pup.s:435    .text.adcConvert:0000000000000000 $t
     /tmp/cczF9pup.s:441    .text.adcConvert:0000000000000000 adcConvert
     /tmp/cczF9pup.s:527    .text.adcAcquireBus:0000000000000000 $t
     /tmp/cczF9pup.s:533    .text.adcAcquireBus:0000000000000000 adcAcquireBus
     /tmp/cczF9pup.s:552    .text.adcReleaseBus:0000000000000000 $t
     /tmp/cczF9pup.s:558    .text.adcReleaseBus:0000000000000000 adcReleaseBus
                     .debug_frame:0000000000000010 $d

UNDEFINED SYMBOLS
adc_lld_init
chMtxInit
adc_lld_start
adc_lld_stop
adc_lld_start_conversion
adc_lld_stop_conversion
chSchWakeupS
chSchReadyI
rlist
chSchGoSleepS
chMtxLock
chMtxUnlock
