ARM GAS  /tmp/cccvYDS5.s 			page 1


   1              		.syntax unified
   2              		.cpu cortex-m4
   3              		.fpu softvfp
   4              		.eabi_attribute 20, 1
   5              		.eabi_attribute 21, 1
   6              		.eabi_attribute 23, 3
   7              		.eabi_attribute 24, 1
   8              		.eabi_attribute 25, 1
   9              		.eabi_attribute 26, 1
  10              		.eabi_attribute 30, 2
  11              		.eabi_attribute 34, 1
  12              		.eabi_attribute 18, 4
  13              		.thumb
  14              		.file	"adc_lld.c"
  15              		.text
  16              	.Ltext0:
  17              		.cfi_sections	.debug_frame
  18              		.section	.text.adc_lld_init,"ax",%progbits
  19              		.align	2
  20              		.p2align 4,,15
  21              		.global	adc_lld_init
  22              		.thumb
  23              		.thumb_func
  24              		.type	adc_lld_init, %function
  25              	adc_lld_init:
  26              	.LFB119:
  27              		.file 1 "./os/hal/platforms/STM32F4xx/adc_lld.c"
  28              		.loc 1 182 0
  29              		.cfi_startproc
  30              		@ args = 0, pretend = 0, frame = 0
  31              		@ frame_needed = 0, uses_anonymous_args = 0
  32 0000 F8B5     		push	{r3, r4, r5, r6, r7, lr}
  33              	.LCFI0:
  34              		.cfi_def_cfa_offset 24
  35              		.cfi_offset 3, -24
  36              		.cfi_offset 4, -20
  37              		.cfi_offset 5, -16
  38              		.cfi_offset 6, -12
  39              		.cfi_offset 7, -8
  40              		.cfi_offset 14, -4
  41              		.loc 1 186 0
  42 0002 40F20006 		movw	r6, #:lower16:.LANCHOR0
  43 0006 C0F20006 		movt	r6, #:upper16:.LANCHOR0
  44 000a 3046     		mov	r0, r6
  45              		.loc 1 199 0
  46 000c 40F20005 		movw	r5, #:lower16:.LANCHOR1
  47              		.loc 1 186 0
  48 0010 FFF7FEFF 		bl	adcObjectInit
  49              	.LVL0:
  50              		.loc 1 199 0
  51 0014 C0F20005 		movt	r5, #:upper16:.LANCHOR1
  52              		.loc 1 188 0
  53 0018 1A4F     		ldr	r7, .L2
  54              		.loc 1 187 0
  55 001a 4FF40052 		mov	r2, #8192
  56              		.loc 1 189 0
  57 001e 42F61643 		movw	r3, #11286
ARM GAS  /tmp/cccvYDS5.s 			page 2


  58              		.loc 1 187 0
  59 0022 C4F20102 		movt	r2, 16385
  60              		.loc 1 189 0
  61 0026 C0F20203 		movt	r3, 2
  62              		.loc 1 199 0
  63 002a 2846     		mov	r0, r5
  64              		.loc 1 212 0
  65 002c 40F20004 		movw	r4, #:lower16:.LANCHOR2
  66 0030 C0F20004 		movt	r4, #:upper16:.LANCHOR2
  67              		.loc 1 187 0
  68 0034 B262     		str	r2, [r6, #40]
  69              		.loc 1 188 0
  70 0036 F762     		str	r7, [r6, #44]
  71              		.loc 1 189 0
  72 0038 3363     		str	r3, [r6, #48]
  73              		.loc 1 199 0
  74 003a FFF7FEFF 		bl	adcObjectInit
  75              	.LVL1:
  76              		.loc 1 200 0
  77 003e 4FF40452 		mov	r2, #8448
  78              		.loc 1 202 0
  79 0042 42F61643 		movw	r3, #11286
  80              		.loc 1 201 0
  81 0046 A7F11801 		sub	r1, r7, #24
  82              		.loc 1 200 0
  83 004a C4F20102 		movt	r2, 16385
  84              		.loc 1 202 0
  85 004e C0F20223 		movt	r3, 514
  86              		.loc 1 212 0
  87 0052 2046     		mov	r0, r4
  88              		.loc 1 200 0
  89 0054 AA62     		str	r2, [r5, #40]
  90              		.loc 1 201 0
  91 0056 E962     		str	r1, [r5, #44]
  92              		.loc 1 202 0
  93 0058 2B63     		str	r3, [r5, #48]
  94              		.loc 1 212 0
  95 005a FFF7FEFF 		bl	adcObjectInit
  96              	.LVL2:
  97              		.loc 1 213 0
  98 005e 4FF40852 		mov	r2, #8704
  99              		.loc 1 215 0
 100 0062 42F61643 		movw	r3, #11286
 101              		.loc 1 213 0
 102 0066 C4F20102 		movt	r2, 16385
 103              		.loc 1 214 0
 104 006a 243F     		subs	r7, r7, #36
 105              		.loc 1 215 0
 106 006c C0F20243 		movt	r3, 1026
 107              		.loc 1 225 0
 108 0070 1220     		movs	r0, #18
 109 0072 5021     		movs	r1, #80
 110              		.loc 1 213 0
 111 0074 A262     		str	r2, [r4, #40]
 112              		.loc 1 214 0
 113 0076 E762     		str	r7, [r4, #44]
 114              		.loc 1 215 0
ARM GAS  /tmp/cccvYDS5.s 			page 3


 115 0078 2363     		str	r3, [r4, #48]
 116              		.loc 1 226 0
 117 007a BDE8F840 		pop	{r3, r4, r5, r6, r7, lr}
 118              		.loc 1 225 0
 119 007e FFF7FEBF 		b	nvicEnableVector
 120              	.LVL3:
 121              	.L3:
 122 0082 00BF     		.align	2
 123              	.L2:
 124 0084 90000000 		.word	_stm32_dma_streams+144
 125              		.cfi_endproc
 126              	.LFE119:
 127              		.size	adc_lld_init, .-adc_lld_init
 128 0088 AFF30080 		.section	.text.adc_lld_start,"ax",%progbits
 128      AFF30080 
 129              		.align	2
 130              		.p2align 4,,15
 131              		.global	adc_lld_start
 132              		.thumb
 133              		.thumb_func
 134              		.type	adc_lld_start, %function
 135              	adc_lld_start:
 136              	.LFB120:
 137              		.loc 1 235 0
 138              		.cfi_startproc
 139              		@ args = 0, pretend = 0, frame = 0
 140              		@ frame_needed = 0, uses_anonymous_args = 0
 141              	.LVL4:
 142              		.loc 1 238 0
 143 0000 0378     		ldrb	r3, [r0, #0]	@ zero_extendqisi2
 144 0002 012B     		cmp	r3, #1
 145              		.loc 1 235 0
 146 0004 10B5     		push	{r4, lr}
 147              	.LCFI1:
 148              		.cfi_def_cfa_offset 8
 149              		.cfi_offset 4, -8
 150              		.cfi_offset 14, -4
 151              		.loc 1 235 0
 152 0006 0446     		mov	r4, r0
 153              		.loc 1 238 0
 154 0008 00D0     		beq	.L10
 155 000a 10BD     		pop	{r4, pc}
 156              	.L10:
 157              		.loc 1 240 0
 158 000c 2C4B     		ldr	r3, .L14
 159 000e 9842     		cmp	r0, r3
 160 0010 13D0     		beq	.L11
 161              		.loc 1 253 0
 162 0012 2C4B     		ldr	r3, .L14+4
 163 0014 9842     		cmp	r0, r3
 164 0016 26D0     		beq	.L12
 165              		.loc 1 266 0
 166 0018 2B4B     		ldr	r3, .L14+8
 167 001a 9842     		cmp	r0, r3
 168 001c 39D0     		beq	.L13
 169              	.LVL5:
 170              	.L7:
ARM GAS  /tmp/cccvYDS5.s 			page 4


 171              		.loc 1 280 0
 172 001e 4FF40C51 		mov	r1, #8960
 173              		.loc 1 284 0
 174 0022 A36A     		ldr	r3, [r4, #40]
 175              		.loc 1 280 0
 176 0024 C4F20101 		movt	r1, 16385
 177              		.loc 1 284 0
 178 0028 0022     		movs	r2, #0
 179              		.loc 1 280 0
 180 002a 4FF48030 		mov	r0, #65536
 181 002e 4860     		str	r0, [r1, #4]
 182              		.loc 1 284 0
 183 0030 5A60     		str	r2, [r3, #4]
 184              		.loc 1 285 0
 185 0032 9A60     		str	r2, [r3, #8]
 186              		.loc 1 286 0
 187 0034 0122     		movs	r2, #1
 188 0036 9A60     		str	r2, [r3, #8]
 189 0038 10BD     		pop	{r4, pc}
 190              	.LVL6:
 191              	.L11:
 192              	.LBB2:
 193              		.loc 1 242 0
 194 003a 244A     		ldr	r2, .L14+12
 195 003c C06A     		ldr	r0, [r0, #44]
 196              	.LVL7:
 197 003e 0521     		movs	r1, #5
 198 0040 2346     		mov	r3, r4
 199 0042 FFF7FEFF 		bl	dmaStreamAllocate
 200              	.LVL8:
 201              		.loc 1 247 0
 202 0046 E36A     		ldr	r3, [r4, #44]
 203 0048 42F24C02 		movw	r2, #8268
 204 004c 1968     		ldr	r1, [r3, #0]
 205              		.loc 1 248 0
 206 004e 4FF46053 		mov	r3, #14336
 207 0052 C4F20203 		movt	r3, 16386
 208              		.loc 1 247 0
 209 0056 C4F20102 		movt	r2, 16385
 210 005a 8A60     		str	r2, [r1, #8]
 211              		.loc 1 248 0
 212 005c 5A6C     		ldr	r2, [r3, #68]
 213 005e 42F48072 		orr	r2, r2, #256
 214 0062 5A64     		str	r2, [r3, #68]
 215 0064 DBE7     		b	.L7
 216              	.LVL9:
 217              	.L12:
 218              	.LBE2:
 219              	.LBB3:
 220              		.loc 1 255 0
 221 0066 194A     		ldr	r2, .L14+12
 222 0068 C06A     		ldr	r0, [r0, #44]
 223              	.LVL10:
 224 006a 0521     		movs	r1, #5
 225 006c 2346     		mov	r3, r4
 226 006e FFF7FEFF 		bl	dmaStreamAllocate
 227              	.LVL11:
ARM GAS  /tmp/cccvYDS5.s 			page 5


 228              		.loc 1 260 0
 229 0072 E36A     		ldr	r3, [r4, #44]
 230 0074 42F24C12 		movw	r2, #8524
 231 0078 1968     		ldr	r1, [r3, #0]
 232              		.loc 1 261 0
 233 007a 4FF46053 		mov	r3, #14336
 234 007e C4F20203 		movt	r3, 16386
 235              		.loc 1 260 0
 236 0082 C4F20102 		movt	r2, 16385
 237 0086 8A60     		str	r2, [r1, #8]
 238              		.loc 1 261 0
 239 0088 5A6C     		ldr	r2, [r3, #68]
 240 008a 42F40072 		orr	r2, r2, #512
 241 008e 5A64     		str	r2, [r3, #68]
 242 0090 C5E7     		b	.L7
 243              	.LVL12:
 244              	.L13:
 245              	.LBE3:
 246              	.LBB4:
 247              		.loc 1 268 0
 248 0092 0E4A     		ldr	r2, .L14+12
 249 0094 C06A     		ldr	r0, [r0, #44]
 250              	.LVL13:
 251 0096 0521     		movs	r1, #5
 252 0098 2346     		mov	r3, r4
 253 009a FFF7FEFF 		bl	dmaStreamAllocate
 254              	.LVL14:
 255              		.loc 1 273 0
 256 009e E36A     		ldr	r3, [r4, #44]
 257 00a0 42F24C22 		movw	r2, #8780
 258 00a4 1968     		ldr	r1, [r3, #0]
 259              		.loc 1 274 0
 260 00a6 4FF46053 		mov	r3, #14336
 261 00aa C4F20203 		movt	r3, 16386
 262              		.loc 1 273 0
 263 00ae C4F20102 		movt	r2, 16385
 264 00b2 8A60     		str	r2, [r1, #8]
 265              		.loc 1 274 0
 266 00b4 5A6C     		ldr	r2, [r3, #68]
 267 00b6 42F48062 		orr	r2, r2, #1024
 268 00ba 5A64     		str	r2, [r3, #68]
 269 00bc AFE7     		b	.L7
 270              	.L15:
 271 00be 00BF     		.align	2
 272              	.L14:
 273 00c0 00000000 		.word	.LANCHOR0
 274 00c4 00000000 		.word	.LANCHOR1
 275 00c8 00000000 		.word	.LANCHOR2
 276 00cc 00000000 		.word	adc_lld_serve_rx_interrupt
 277              	.LBE4:
 278              		.cfi_endproc
 279              	.LFE120:
 280              		.size	adc_lld_start, .-adc_lld_start
 281              		.section	.text.adc_lld_stop,"ax",%progbits
 282              		.align	2
 283              		.p2align 4,,15
 284              		.global	adc_lld_stop
ARM GAS  /tmp/cccvYDS5.s 			page 6


 285              		.thumb
 286              		.thumb_func
 287              		.type	adc_lld_stop, %function
 288              	adc_lld_stop:
 289              	.LFB121:
 290              		.loc 1 297 0
 291              		.cfi_startproc
 292              		@ args = 0, pretend = 0, frame = 0
 293              		@ frame_needed = 0, uses_anonymous_args = 0
 294              	.LVL15:
 295              		.loc 1 300 0
 296 0000 0378     		ldrb	r3, [r0, #0]	@ zero_extendqisi2
 297 0002 022B     		cmp	r3, #2
 298              		.loc 1 297 0
 299 0004 10B5     		push	{r4, lr}
 300              	.LCFI2:
 301              		.cfi_def_cfa_offset 8
 302              		.cfi_offset 4, -8
 303              		.cfi_offset 14, -4
 304              		.loc 1 297 0
 305 0006 0446     		mov	r4, r0
 306              		.loc 1 300 0
 307 0008 00D0     		beq	.L22
 308 000a 10BD     		pop	{r4, pc}
 309              	.L22:
 310              		.loc 1 301 0
 311 000c C06A     		ldr	r0, [r0, #44]
 312              	.LVL16:
 313 000e FFF7FEFF 		bl	dmaStreamRelease
 314              	.LVL17:
 315              		.loc 1 302 0
 316 0012 A36A     		ldr	r3, [r4, #40]
 317 0014 0022     		movs	r2, #0
 318 0016 5A60     		str	r2, [r3, #4]
 319              		.loc 1 303 0
 320 0018 9A60     		str	r2, [r3, #8]
 321              		.loc 1 306 0
 322 001a 124B     		ldr	r3, .L25
 323 001c 9C42     		cmp	r4, r3
 324 001e 0FD0     		beq	.L23
 325              		.loc 1 311 0
 326 0020 114B     		ldr	r3, .L25+4
 327 0022 9C42     		cmp	r4, r3
 328 0024 15D0     		beq	.L24
 329              		.loc 1 316 0
 330 0026 114B     		ldr	r3, .L25+8
 331 0028 9C42     		cmp	r4, r3
 332              		.loc 1 317 0
 333 002a 01BF     		itttt	eq
 334 002c 4FF46053 		moveq	r3, #14336
 335 0030 C4F20203 		movteq	r3, 16386
 336 0034 5A6C     		ldreq	r2, [r3, #68]
 337 0036 22F48062 		biceq	r2, r2, #1024
 338 003a 08BF     		it	eq
 339 003c 5A64     		streq	r2, [r3, #68]
 340 003e 10BD     		pop	{r4, pc}
 341              	.L23:
ARM GAS  /tmp/cccvYDS5.s 			page 7


 342              		.loc 1 307 0
 343 0040 4FF46053 		mov	r3, #14336
 344 0044 C4F20203 		movt	r3, 16386
 345 0048 5A6C     		ldr	r2, [r3, #68]
 346 004a 22F48072 		bic	r2, r2, #256
 347 004e 5A64     		str	r2, [r3, #68]
 348 0050 10BD     		pop	{r4, pc}
 349              	.L24:
 350              		.loc 1 312 0
 351 0052 4FF46053 		mov	r3, #14336
 352 0056 C4F20203 		movt	r3, 16386
 353 005a 5A6C     		ldr	r2, [r3, #68]
 354 005c 22F40072 		bic	r2, r2, #512
 355 0060 5A64     		str	r2, [r3, #68]
 356 0062 10BD     		pop	{r4, pc}
 357              	.L26:
 358              		.align	2
 359              	.L25:
 360 0064 00000000 		.word	.LANCHOR0
 361 0068 00000000 		.word	.LANCHOR1
 362 006c 00000000 		.word	.LANCHOR2
 363              		.cfi_endproc
 364              	.LFE121:
 365              		.size	adc_lld_stop, .-adc_lld_stop
 366              		.section	.text.adc_lld_start_conversion,"ax",%progbits
 367              		.align	2
 368              		.p2align 4,,15
 369              		.global	adc_lld_start_conversion
 370              		.thumb
 371              		.thumb_func
 372              		.type	adc_lld_start_conversion, %function
 373              	adc_lld_start_conversion:
 374              	.LFB122:
 375              		.loc 1 329 0
 376              		.cfi_startproc
 377              		@ args = 0, pretend = 0, frame = 0
 378              		@ frame_needed = 0, uses_anonymous_args = 0
 379              		@ link register save eliminated.
 380              	.LVL18:
 381              		.loc 1 331 0
 382 0000 0369     		ldr	r3, [r0, #16]
 383              	.LVL19:
 384              		.loc 1 334 0
 385 0002 026B     		ldr	r2, [r0, #48]
 386              	.LVL20:
 387              		.loc 1 335 0
 388 0004 1968     		ldr	r1, [r3, #0]
 389              		.loc 1 329 0
 390 0006 2DE9F007 		push	{r4, r5, r6, r7, r8, r9, sl}
 391              	.LCFI3:
 392              		.cfi_def_cfa_offset 28
 393              		.cfi_offset 4, -28
 394              		.cfi_offset 5, -24
 395              		.cfi_offset 6, -20
 396              		.cfi_offset 7, -16
 397              		.cfi_offset 8, -12
 398              		.cfi_offset 9, -8
ARM GAS  /tmp/cccvYDS5.s 			page 8


 399              		.cfi_offset 10, -4
 400              		.loc 1 335 0
 401 000a 09B1     		cbz	r1, .L28
 402              		.loc 1 336 0
 403 000c 42F48072 		orr	r2, r2, #256
 404              	.LVL21:
 405              	.L28:
 406              		.loc 1 338 0
 407 0010 C468     		ldr	r4, [r0, #12]
 408              		.loc 1 343 0
 409 0012 C16A     		ldr	r1, [r0, #44]
 410              		.loc 1 344 0
 411 0014 9E88     		ldrh	r6, [r3, #4]
 412              		.loc 1 343 0
 413 0016 0968     		ldr	r1, [r1, #0]
 414 0018 8568     		ldr	r5, [r0, #8]
 415              		.loc 1 359 0
 416 001a D3F81090 		ldr	r9, [r3, #16]
 417              		.loc 1 361 0
 418 001e D3F814A0 		ldr	sl, [r3, #20]
 419              		.loc 1 343 0
 420 0022 CD60     		str	r5, [r1, #12]
 421              		.loc 1 338 0
 422 0024 012C     		cmp	r4, #1
 423              		.loc 1 341 0
 424 0026 88BF     		it	hi
 425 0028 42F00802 		orrhi	r2, r2, #8
 426              	.LVL22:
 427              		.loc 1 344 0
 428 002c 04FB06F4 		mul	r4, r4, r6
 429 0030 4C60     		str	r4, [r1, #4]
 430              		.loc 1 346 0
 431 0032 0A60     		str	r2, [r1, #0]
 432              		.loc 1 347 0
 433 0034 D1F80080 		ldr	r8, [r1, #0]
 434              		.loc 1 350 0
 435 0038 826A     		ldr	r2, [r0, #40]
 436              	.LVL23:
 437              		.loc 1 351 0
 438 003a D3F818C0 		ldr	ip, [r3, #24]
 439              		.loc 1 352 0
 440 003e DF69     		ldr	r7, [r3, #28]
 441              		.loc 1 353 0
 442 0040 1E6A     		ldr	r6, [r3, #32]
 443              		.loc 1 354 0
 444 0042 5D6A     		ldr	r5, [r3, #36]
 445              		.loc 1 355 0
 446 0044 9C6A     		ldr	r4, [r3, #40]
 447              		.loc 1 359 0
 448 0046 49F08060 		orr	r0, r9, #67108864
 449              	.LVL24:
 450              		.loc 1 361 0
 451 004a 4AF44073 		orr	r3, sl, #768
 452              	.LVL25:
 453              		.loc 1 347 0
 454 004e 48F00108 		orr	r8, r8, #1
 455 0052 C1F80080 		str	r8, [r1, #0]
ARM GAS  /tmp/cccvYDS5.s 			page 9


 456              		.loc 1 359 0
 457 0056 40F48070 		orr	r0, r0, #256
 458              		.loc 1 361 0
 459 005a 43F00303 		orr	r3, r3, #3
 460              		.loc 1 350 0
 461 005e 0021     		movs	r1, #0
 462              	.LVL26:
 463 0060 1160     		str	r1, [r2, #0]
 464              		.loc 1 351 0
 465 0062 C2F80CC0 		str	ip, [r2, #12]
 466              		.loc 1 352 0
 467 0066 1761     		str	r7, [r2, #16]
 468              		.loc 1 353 0
 469 0068 D662     		str	r6, [r2, #44]
 470              		.loc 1 354 0
 471 006a 1563     		str	r5, [r2, #48]
 472              		.loc 1 355 0
 473 006c 5463     		str	r4, [r2, #52]
 474              		.loc 1 359 0
 475 006e 5060     		str	r0, [r2, #4]
 476              		.loc 1 360 0
 477 0070 9360     		str	r3, [r2, #8]
 478              		.loc 1 362 0
 479 0072 BDE8F007 		pop	{r4, r5, r6, r7, r8, r9, sl}
 480 0076 7047     		bx	lr
 481              		.cfi_endproc
 482              	.LFE122:
 483              		.size	adc_lld_start_conversion, .-adc_lld_start_conversion
 484 0078 AFF30080 		.section	.text.adc_lld_stop_conversion,"ax",%progbits
 484      AFF30080 
 485              		.align	2
 486              		.p2align 4,,15
 487              		.global	adc_lld_stop_conversion
 488              		.thumb
 489              		.thumb_func
 490              		.type	adc_lld_stop_conversion, %function
 491              	adc_lld_stop_conversion:
 492              	.LFB123:
 493              		.loc 1 371 0
 494              		.cfi_startproc
 495              		@ args = 0, pretend = 0, frame = 0
 496              		@ frame_needed = 0, uses_anonymous_args = 0
 497              		@ link register save eliminated.
 498              	.LVL27:
 499              		.loc 1 373 0
 500 0000 C16A     		ldr	r1, [r0, #44]
 501 0002 0A68     		ldr	r2, [r1, #0]
 502 0004 1368     		ldr	r3, [r2, #0]
 503 0006 23F00103 		bic	r3, r3, #1
 504              		.loc 1 371 0
 505 000a 10B4     		push	{r4}
 506              	.LCFI4:
 507              		.cfi_def_cfa_offset 4
 508              		.cfi_offset 4, -4
 509              		.loc 1 373 0
 510 000c 1360     		str	r3, [r2, #0]
 511              	.L34:
ARM GAS  /tmp/cccvYDS5.s 			page 10


 512              		.loc 1 373 0 is_stmt 0 discriminator 1
 513 000e 1368     		ldr	r3, [r2, #0]
 514 0010 13F00103 		ands	r3, r3, #1
 515 0014 FBD1     		bne	.L34
 516              		.loc 1 373 0 discriminator 2
 517 0016 0C7A     		ldrb	r4, [r1, #8]	@ zero_extendqisi2
 518              		.loc 1 374 0 is_stmt 1 discriminator 2
 519 0018 826A     		ldr	r2, [r0, #40]
 520              		.loc 1 373 0 discriminator 2
 521 001a 4968     		ldr	r1, [r1, #4]
 522 001c 3D20     		movs	r0, #61
 523              	.LVL28:
 524 001e 00FA04F0 		lsl	r0, r0, r4
 525 0022 0860     		str	r0, [r1, #0]
 526              		.loc 1 374 0 discriminator 2
 527 0024 5360     		str	r3, [r2, #4]
 528              		.loc 1 375 0 discriminator 2
 529 0026 9360     		str	r3, [r2, #8]
 530              		.loc 1 376 0 discriminator 2
 531 0028 0123     		movs	r3, #1
 532 002a 9360     		str	r3, [r2, #8]
 533              		.loc 1 377 0 discriminator 2
 534 002c 10BC     		pop	{r4}
 535 002e 7047     		bx	lr
 536              		.cfi_endproc
 537              	.LFE123:
 538              		.size	adc_lld_stop_conversion, .-adc_lld_stop_conversion
 539              		.section	.text.adc_lld_serve_rx_interrupt,"ax",%progbits
 540              		.align	2
 541              		.p2align 4,,15
 542              		.thumb
 543              		.thumb_func
 544              		.type	adc_lld_serve_rx_interrupt, %function
 545              	adc_lld_serve_rx_interrupt:
 546              	.LFB117:
 547              		.loc 1 87 0
 548              		.cfi_startproc
 549              		@ args = 0, pretend = 0, frame = 0
 550              		@ frame_needed = 0, uses_anonymous_args = 0
 551              	.LVL29:
 552              		.loc 1 90 0
 553 0000 11F00C0F 		tst	r1, #12
 554              		.loc 1 87 0
 555 0004 38B5     		push	{r3, r4, r5, lr}
 556              	.LCFI5:
 557              		.cfi_def_cfa_offset 16
 558              		.cfi_offset 3, -16
 559              		.cfi_offset 4, -12
 560              		.cfi_offset 5, -8
 561              		.cfi_offset 14, -4
 562              		.loc 1 87 0
 563 0006 0D46     		mov	r5, r1
 564 0008 0446     		mov	r4, r0
 565              		.loc 1 90 0
 566 000a 20D1     		bne	.L71
 567              		.loc 1 98 0
 568 000c 0369     		ldr	r3, [r0, #16]
ARM GAS  /tmp/cccvYDS5.s 			page 11


 569 000e 002B     		cmp	r3, #0
 570 0010 3DD0     		beq	.L36
 571              		.loc 1 99 0
 572 0012 CA06     		lsls	r2, r1, #27
 573 0014 05D5     		bpl	.L44
 574              		.loc 1 101 0
 575 0016 9B68     		ldr	r3, [r3, #8]
 576 0018 1BB1     		cbz	r3, .L44
 577              		.loc 1 101 0 is_stmt 0 discriminator 1
 578 001a C268     		ldr	r2, [r0, #12]
 579 001c 8168     		ldr	r1, [r0, #8]
 580              	.LVL30:
 581 001e 5208     		lsrs	r2, r2, #1
 582 0020 9847     		blx	r3
 583              	.LVL31:
 584              	.L44:
 585              		.loc 1 103 0 is_stmt 1
 586 0022 AB06     		lsls	r3, r5, #26
 587 0024 33D5     		bpl	.L36
 588              		.loc 1 105 0
 589 0026 2369     		ldr	r3, [r4, #16]
 590 0028 1A68     		ldr	r2, [r3, #0]
 591 002a 002A     		cmp	r2, #0
 592 002c 34D0     		beq	.L46
 593              		.loc 1 105 0 is_stmt 0 discriminator 1
 594 002e 9D68     		ldr	r5, [r3, #8]
 595              	.LVL32:
 596 0030 002D     		cmp	r5, #0
 597 0032 2CD0     		beq	.L36
 598              		.loc 1 105 0 discriminator 3
 599 0034 E268     		ldr	r2, [r4, #12]
 600 0036 012A     		cmp	r2, #1
 601 0038 2AD9     		bls	.L47
 602              	.LBB5:
 603              		.loc 1 105 0 discriminator 4
 604 003a 9988     		ldrh	r1, [r3, #4]
 605 003c A368     		ldr	r3, [r4, #8]
 606 003e 5208     		lsrs	r2, r2, #1
 607              	.LVL33:
 608 0040 01FB02F1 		mul	r1, r1, r2
 609 0044 2046     		mov	r0, r4
 610 0046 03EB4101 		add	r1, r3, r1, lsl #1
 611 004a A847     		blx	r5
 612              	.LVL34:
 613 004c 38BD     		pop	{r3, r4, r5, pc}
 614              	.LVL35:
 615              	.L71:
 616              	.LBE5:
 617              		.loc 1 93 0 is_stmt 1
 618 004e FFF7FEFF 		bl	adc_lld_stop_conversion
 619              	.LVL36:
 620 0052 2369     		ldr	r3, [r4, #16]
 621 0054 DB68     		ldr	r3, [r3, #12]
 622 0056 4BB1     		cbz	r3, .L39
 623              		.loc 1 93 0 is_stmt 0 discriminator 1
 624 0058 0522     		movs	r2, #5
 625 005a 0021     		movs	r1, #0
ARM GAS  /tmp/cccvYDS5.s 			page 12


 626 005c 2270     		strb	r2, [r4, #0]
 627 005e 2046     		mov	r0, r4
 628 0060 9847     		blx	r3
 629              	.LVL37:
 630 0062 2378     		ldrb	r3, [r4, #0]	@ zero_extendqisi2
 631 0064 052B     		cmp	r3, #5
 632 0066 01D1     		bne	.L39
 633              		.loc 1 93 0 discriminator 3
 634 0068 0223     		movs	r3, #2
 635 006a 2370     		strb	r3, [r4, #0]
 636              	.L39:
 637              		.loc 1 93 0 discriminator 2
 638 006c 0022     		movs	r2, #0
 639 006e 2261     		str	r2, [r4, #16]
 640              	.LBB6:
 641 0070 2023     		movs	r3, #32
 642              	.LVL38:
 643              	@ 93 "./os/hal/platforms/STM32F4xx/adc_lld.c" 1
 644 0072 83F31188 		msr     BASEPRI, r3
 645              	@ 0 "" 2
 646              	.LVL39:
 647              		.thumb
 648              	.LBE6:
 649 0076 6369     		ldr	r3, [r4, #20]
 650              	.LVL40:
 651 0078 33B1     		cbz	r3, .L52
 652              	.LVL41:
 653              	.LBB7:
 654              		.loc 1 93 0 discriminator 4
 655 007a 6261     		str	r2, [r4, #20]
 656 007c 4FF0FF32 		mov	r2, #-1
 657 0080 1846     		mov	r0, r3
 658 0082 5A62     		str	r2, [r3, #36]
 659 0084 FFF7FEFF 		bl	chSchReadyI
 660              	.LVL42:
 661              	.L52:
 662              	.LBE7:
 663              	.LBB8:
 664              		.loc 1 105 0 is_stmt 1 discriminator 14
 665 0088 0023     		movs	r3, #0
 666              	.LVL43:
 667              	@ 105 "./os/hal/platforms/STM32F4xx/adc_lld.c" 1
 668 008a 83F31188 		msr     BASEPRI, r3
 669              	@ 0 "" 2
 670              	.LVL44:
 671              		.thumb
 672              	.L36:
 673 008e 38BD     		pop	{r3, r4, r5, pc}
 674              	.LVL45:
 675              	.L47:
 676              	.LBE8:
 677              		.loc 1 105 0 is_stmt 0 discriminator 5
 678 0090 2046     		mov	r0, r4
 679 0092 A168     		ldr	r1, [r4, #8]
 680 0094 A847     		blx	r5
 681              	.LVL46:
 682 0096 38BD     		pop	{r3, r4, r5, pc}
ARM GAS  /tmp/cccvYDS5.s 			page 13


 683              	.LVL47:
 684              	.L46:
 685              		.loc 1 105 0 discriminator 2
 686 0098 2046     		mov	r0, r4
 687 009a FFF7FEFF 		bl	adc_lld_stop_conversion
 688              	.LVL48:
 689 009e 2169     		ldr	r1, [r4, #16]
 690 00a0 8B68     		ldr	r3, [r1, #8]
 691 00a2 F3B1     		cbz	r3, .L48
 692              		.loc 1 105 0 discriminator 6
 693 00a4 E268     		ldr	r2, [r4, #12]
 694 00a6 0420     		movs	r0, #4
 695 00a8 012A     		cmp	r2, #1
 696 00aa 2070     		strb	r0, [r4, #0]
 697 00ac 1CD9     		bls	.L49
 698              	.LBB9:
 699              		.loc 1 105 0 discriminator 8
 700 00ae 8D88     		ldrh	r5, [r1, #4]
 701              	.LVL49:
 702 00b0 A168     		ldr	r1, [r4, #8]
 703 00b2 5208     		lsrs	r2, r2, #1
 704              	.LVL50:
 705 00b4 05FB02F5 		mul	r5, r5, r2
 706 00b8 2046     		mov	r0, r4
 707 00ba 01EB4501 		add	r1, r1, r5, lsl #1
 708 00be 9847     		blx	r3
 709              	.LVL51:
 710              	.L50:
 711              	.LBE9:
 712              		.loc 1 105 0 discriminator 10
 713 00c0 2378     		ldrb	r3, [r4, #0]	@ zero_extendqisi2
 714 00c2 042B     		cmp	r3, #4
 715 00c4 0DD0     		beq	.L48
 716              	.L51:
 717              		.loc 1 105 0 discriminator 12
 718 00c6 0022     		movs	r2, #0
 719 00c8 2261     		str	r2, [r4, #16]
 720              	.LBB10:
 721 00ca 2023     		movs	r3, #32
 722              	.LVL52:
 723              	@ 105 "./os/hal/platforms/STM32F4xx/adc_lld.c" 1
 724 00cc 83F31188 		msr     BASEPRI, r3
 725              	@ 0 "" 2
 726              	.LVL53:
 727              		.thumb
 728              	.LBE10:
 729 00d0 6369     		ldr	r3, [r4, #20]
 730              	.LVL54:
 731 00d2 002B     		cmp	r3, #0
 732 00d4 D8D0     		beq	.L52
 733              	.LVL55:
 734              	.LBB11:
 735              		.loc 1 105 0 discriminator 13
 736 00d6 6261     		str	r2, [r4, #20]
 737 00d8 1846     		mov	r0, r3
 738 00da 5A62     		str	r2, [r3, #36]
 739 00dc FFF7FEFF 		bl	chSchReadyI
ARM GAS  /tmp/cccvYDS5.s 			page 14


 740              	.LVL56:
 741 00e0 D2E7     		b	.L52
 742              	.L48:
 743              	.LBE11:
 744              		.loc 1 105 0 discriminator 7
 745 00e2 0223     		movs	r3, #2
 746 00e4 2370     		strb	r3, [r4, #0]
 747 00e6 EEE7     		b	.L51
 748              	.LVL57:
 749              	.L49:
 750              		.loc 1 105 0 discriminator 9
 751 00e8 2046     		mov	r0, r4
 752 00ea A168     		ldr	r1, [r4, #8]
 753 00ec 9847     		blx	r3
 754              	.LVL58:
 755 00ee E7E7     		b	.L50
 756              		.cfi_endproc
 757              	.LFE117:
 758              		.size	adc_lld_serve_rx_interrupt, .-adc_lld_serve_rx_interrupt
 759              		.section	.text.Vector88,"ax",%progbits
 760              		.align	2
 761              		.p2align 4,,15
 762              		.global	Vector88
 763              		.thumb
 764              		.thumb_func
 765              		.type	Vector88, %function
 766              	Vector88:
 767              	.LFB118:
 768              		.loc 1 122 0 is_stmt 1
 769              		.cfi_startproc
 770              		@ args = 0, pretend = 0, frame = 0
 771              		@ frame_needed = 0, uses_anonymous_args = 0
 772              		.loc 1 128 0
 773 0000 4FF40053 		mov	r3, #8192
 774 0004 C4F20103 		movt	r3, 16385
 775              		.loc 1 129 0
 776 0008 0021     		movs	r1, #0
 777              		.loc 1 128 0
 778 000a 1A68     		ldr	r2, [r3, #0]
 779              	.LVL59:
 780              		.loc 1 122 0
 781 000c 10B5     		push	{r4, lr}
 782              	.LCFI6:
 783              		.cfi_def_cfa_offset 8
 784              		.cfi_offset 4, -8
 785              		.cfi_offset 14, -4
 786              		.loc 1 129 0
 787 000e 1960     		str	r1, [r3, #0]
 788              		.loc 1 132 0
 789 0010 9306     		lsls	r3, r2, #26
 790 0012 05D5     		bpl	.L73
 791              		.loc 1 132 0 is_stmt 0 discriminator 1
 792 0014 4B4C     		ldr	r4, .L129
 793 0016 E36A     		ldr	r3, [r4, #44]
 794 0018 1B68     		ldr	r3, [r3, #0]
 795 001a 5B68     		ldr	r3, [r3, #4]
 796 001c 002B     		cmp	r3, #0
ARM GAS  /tmp/cccvYDS5.s 			page 15


 797 001e 64D1     		bne	.L124
 798              	.LVL60:
 799              	.L73:
 800              		.loc 1 142 0 is_stmt 1
 801 0020 4FF40453 		mov	r3, #8448
 802              	.LVL61:
 803 0024 C4F20103 		movt	r3, 16385
 804              		.loc 1 143 0
 805 0028 0021     		movs	r1, #0
 806              		.loc 1 142 0
 807 002a 1A68     		ldr	r2, [r3, #0]
 808              	.LVL62:
 809              		.loc 1 143 0
 810 002c 1960     		str	r1, [r3, #0]
 811              		.loc 1 146 0
 812 002e 9006     		lsls	r0, r2, #26
 813 0030 05D5     		bpl	.L78
 814              		.loc 1 146 0 is_stmt 0 discriminator 1
 815 0032 454C     		ldr	r4, .L129+4
 816 0034 E36A     		ldr	r3, [r4, #44]
 817 0036 1B68     		ldr	r3, [r3, #0]
 818 0038 5B68     		ldr	r3, [r3, #4]
 819 003a 002B     		cmp	r3, #0
 820 003c 32D1     		bne	.L125
 821              	.LVL63:
 822              	.L78:
 823              		.loc 1 156 0 is_stmt 1
 824 003e 4FF40853 		mov	r3, #8704
 825              	.LVL64:
 826 0042 C4F20103 		movt	r3, 16385
 827              		.loc 1 157 0
 828 0046 0021     		movs	r1, #0
 829              		.loc 1 156 0
 830 0048 1A68     		ldr	r2, [r3, #0]
 831              	.LVL65:
 832              		.loc 1 157 0
 833 004a 1960     		str	r1, [r3, #0]
 834              		.loc 1 160 0
 835 004c 9106     		lsls	r1, r2, #26
 836 004e 25D5     		bpl	.L83
 837              		.loc 1 160 0 is_stmt 0 discriminator 1
 838 0050 3E4C     		ldr	r4, .L129+8
 839 0052 E36A     		ldr	r3, [r4, #44]
 840 0054 1B68     		ldr	r3, [r3, #0]
 841 0056 5B68     		ldr	r3, [r3, #4]
 842 0058 03B3     		cbz	r3, .L83
 843              		.loc 1 163 0 is_stmt 1
 844 005a 2369     		ldr	r3, [r4, #16]
 845 005c F3B1     		cbz	r3, .L83
 846              		.loc 1 164 0
 847 005e 2046     		mov	r0, r4
 848 0060 FFF7FEFF 		bl	adc_lld_stop_conversion
 849              	.LVL66:
 850 0064 2369     		ldr	r3, [r4, #16]
 851 0066 DB68     		ldr	r3, [r3, #12]
 852 0068 3BB1     		cbz	r3, .L85
 853              		.loc 1 164 0 is_stmt 0 discriminator 1
ARM GAS  /tmp/cccvYDS5.s 			page 16


 854 006a 0522     		movs	r2, #5
 855 006c 0121     		movs	r1, #1
 856 006e 2270     		strb	r2, [r4, #0]
 857 0070 2046     		mov	r0, r4
 858 0072 9847     		blx	r3
 859              	.LVL67:
 860 0074 2378     		ldrb	r3, [r4, #0]	@ zero_extendqisi2
 861 0076 052B     		cmp	r3, #5
 862 0078 5AD0     		beq	.L126
 863              	.L85:
 864              		.loc 1 164 0 discriminator 2
 865 007a 0022     		movs	r2, #0
 866 007c 2261     		str	r2, [r4, #16]
 867              	.LBB12:
 868 007e 2023     		movs	r3, #32
 869              	.LVL68:
 870              	@ 164 "./os/hal/platforms/STM32F4xx/adc_lld.c" 1
 871 0080 83F31188 		msr     BASEPRI, r3
 872              	@ 0 "" 2
 873              	.LVL69:
 874              		.thumb
 875              	.LBE12:
 876 0084 6069     		ldr	r0, [r4, #20]
 877 0086 30B1     		cbz	r0, .L87
 878              	.LVL70:
 879              	.LBB13:
 880              		.loc 1 164 0 discriminator 4
 881 0088 4FF0FF33 		mov	r3, #-1
 882              	.LVL71:
 883 008c 4362     		str	r3, [r0, #36]
 884 008e 2F4B     		ldr	r3, .L129+8
 885 0090 5A61     		str	r2, [r3, #20]
 886 0092 FFF7FEFF 		bl	chSchReadyI
 887              	.LVL72:
 888              	.L87:
 889              	.LBE13:
 890              	.LBB14:
 891              		.loc 1 164 0 discriminator 5
 892 0096 0023     		movs	r3, #0
 893              	.LVL73:
 894              	@ 164 "./os/hal/platforms/STM32F4xx/adc_lld.c" 1
 895 0098 83F31188 		msr     BASEPRI, r3
 896              	@ 0 "" 2
 897              	.LVL74:
 898              		.thumb
 899              	.L83:
 900              	.LBE14:
 901              		.loc 1 170 0 is_stmt 1
 902 009c BDE81040 		pop	{r4, lr}
 903              		.loc 1 169 0
 904 00a0 FFF7FEBF 		b	_port_irq_epilogue
 905              	.LVL75:
 906              	.L125:
 907              		.loc 1 149 0
 908 00a4 2369     		ldr	r3, [r4, #16]
 909 00a6 002B     		cmp	r3, #0
 910 00a8 C9D0     		beq	.L78
ARM GAS  /tmp/cccvYDS5.s 			page 17


 911              		.loc 1 150 0
 912 00aa 2046     		mov	r0, r4
 913 00ac FFF7FEFF 		bl	adc_lld_stop_conversion
 914              	.LVL76:
 915 00b0 2369     		ldr	r3, [r4, #16]
 916 00b2 DB68     		ldr	r3, [r3, #12]
 917 00b4 3BB1     		cbz	r3, .L80
 918              		.loc 1 150 0 is_stmt 0 discriminator 1
 919 00b6 0522     		movs	r2, #5
 920 00b8 0121     		movs	r1, #1
 921 00ba 2270     		strb	r2, [r4, #0]
 922 00bc 2046     		mov	r0, r4
 923 00be 9847     		blx	r3
 924              	.LVL77:
 925 00c0 2378     		ldrb	r3, [r4, #0]	@ zero_extendqisi2
 926 00c2 052B     		cmp	r3, #5
 927 00c4 3AD0     		beq	.L127
 928              	.L80:
 929              		.loc 1 150 0 discriminator 2
 930 00c6 0022     		movs	r2, #0
 931 00c8 2261     		str	r2, [r4, #16]
 932              	.LBB15:
 933 00ca 2023     		movs	r3, #32
 934              	.LVL78:
 935              	@ 150 "./os/hal/platforms/STM32F4xx/adc_lld.c" 1
 936 00cc 83F31188 		msr     BASEPRI, r3
 937              	@ 0 "" 2
 938              	.LVL79:
 939              		.thumb
 940              	.LBE15:
 941 00d0 6069     		ldr	r0, [r4, #20]
 942 00d2 30B1     		cbz	r0, .L82
 943              	.LVL80:
 944              	.LBB16:
 945              		.loc 1 150 0 discriminator 4
 946 00d4 4FF0FF33 		mov	r3, #-1
 947              	.LVL81:
 948 00d8 4362     		str	r3, [r0, #36]
 949 00da 1B4B     		ldr	r3, .L129+4
 950 00dc 5A61     		str	r2, [r3, #20]
 951 00de FFF7FEFF 		bl	chSchReadyI
 952              	.LVL82:
 953              	.L82:
 954              	.LBE16:
 955              	.LBB17:
 956              		.loc 1 150 0 discriminator 5
 957 00e2 0023     		movs	r3, #0
 958              	.LVL83:
 959              	@ 150 "./os/hal/platforms/STM32F4xx/adc_lld.c" 1
 960 00e4 83F31188 		msr     BASEPRI, r3
 961              	@ 0 "" 2
 962              	.LVL84:
 963              		.thumb
 964 00e8 A9E7     		b	.L78
 965              	.LVL85:
 966              	.L124:
 967              	.LBE17:
ARM GAS  /tmp/cccvYDS5.s 			page 18


 968              		.loc 1 135 0 is_stmt 1
 969 00ea 2369     		ldr	r3, [r4, #16]
 970 00ec 002B     		cmp	r3, #0
 971 00ee 97D0     		beq	.L73
 972              		.loc 1 136 0
 973 00f0 2046     		mov	r0, r4
 974 00f2 FFF7FEFF 		bl	adc_lld_stop_conversion
 975              	.LVL86:
 976 00f6 2369     		ldr	r3, [r4, #16]
 977 00f8 DB68     		ldr	r3, [r3, #12]
 978 00fa 3BB1     		cbz	r3, .L75
 979              		.loc 1 136 0 is_stmt 0 discriminator 1
 980 00fc 0522     		movs	r2, #5
 981 00fe 0121     		movs	r1, #1
 982 0100 2270     		strb	r2, [r4, #0]
 983 0102 2046     		mov	r0, r4
 984 0104 9847     		blx	r3
 985              	.LVL87:
 986 0106 2378     		ldrb	r3, [r4, #0]	@ zero_extendqisi2
 987 0108 052B     		cmp	r3, #5
 988 010a 14D0     		beq	.L128
 989              	.L75:
 990              		.loc 1 136 0 discriminator 2
 991 010c 0022     		movs	r2, #0
 992 010e 2261     		str	r2, [r4, #16]
 993              	.LBB18:
 994 0110 2023     		movs	r3, #32
 995              	.LVL88:
 996              	@ 136 "./os/hal/platforms/STM32F4xx/adc_lld.c" 1
 997 0112 83F31188 		msr     BASEPRI, r3
 998              	@ 0 "" 2
 999              	.LVL89:
 1000              		.thumb
 1001              	.LBE18:
 1002 0116 6069     		ldr	r0, [r4, #20]
 1003 0118 30B1     		cbz	r0, .L77
 1004              	.LVL90:
 1005              	.LBB19:
 1006              		.loc 1 136 0 discriminator 4
 1007 011a 4FF0FF33 		mov	r3, #-1
 1008              	.LVL91:
 1009 011e 4362     		str	r3, [r0, #36]
 1010 0120 084B     		ldr	r3, .L129
 1011 0122 5A61     		str	r2, [r3, #20]
 1012 0124 FFF7FEFF 		bl	chSchReadyI
 1013              	.LVL92:
 1014              	.L77:
 1015              	.LBE19:
 1016              	.LBB20:
 1017              		.loc 1 136 0 discriminator 5
 1018 0128 0023     		movs	r3, #0
 1019              	.LVL93:
 1020              	@ 136 "./os/hal/platforms/STM32F4xx/adc_lld.c" 1
 1021 012a 83F31188 		msr     BASEPRI, r3
 1022              	@ 0 "" 2
 1023              	.LVL94:
 1024              		.thumb
ARM GAS  /tmp/cccvYDS5.s 			page 19


 1025 012e 77E7     		b	.L73
 1026              	.LVL95:
 1027              	.L126:
 1028              	.LBE20:
 1029              		.loc 1 164 0 is_stmt 1 discriminator 3
 1030 0130 0223     		movs	r3, #2
 1031 0132 2370     		strb	r3, [r4, #0]
 1032 0134 A1E7     		b	.L85
 1033              	.L128:
 1034              		.loc 1 136 0 discriminator 3
 1035 0136 0223     		movs	r3, #2
 1036 0138 2370     		strb	r3, [r4, #0]
 1037 013a E7E7     		b	.L75
 1038              	.L127:
 1039              		.loc 1 150 0 discriminator 3
 1040 013c 0223     		movs	r3, #2
 1041 013e 2370     		strb	r3, [r4, #0]
 1042 0140 C1E7     		b	.L80
 1043              	.L130:
 1044 0142 00BF     		.align	2
 1045              	.L129:
 1046 0144 00000000 		.word	.LANCHOR0
 1047 0148 00000000 		.word	.LANCHOR1
 1048 014c 00000000 		.word	.LANCHOR2
 1049              		.cfi_endproc
 1050              	.LFE118:
 1051              		.size	Vector88, .-Vector88
 1052              		.section	.text.adcSTM32EnableTSVREFE,"ax",%progbits
 1053              		.align	2
 1054              		.p2align 4,,15
 1055              		.global	adcSTM32EnableTSVREFE
 1056              		.thumb
 1057              		.thumb_func
 1058              		.type	adcSTM32EnableTSVREFE, %function
 1059              	adcSTM32EnableTSVREFE:
 1060              	.LFB124:
 1061              		.loc 1 385 0
 1062              		.cfi_startproc
 1063              		@ args = 0, pretend = 0, frame = 0
 1064              		@ frame_needed = 0, uses_anonymous_args = 0
 1065              		@ link register save eliminated.
 1066              		.loc 1 387 0
 1067 0000 4FF40C53 		mov	r3, #8960
 1068 0004 C4F20103 		movt	r3, 16385
 1069 0008 5A68     		ldr	r2, [r3, #4]
 1070 000a 42F40002 		orr	r2, r2, #8388608
 1071 000e 5A60     		str	r2, [r3, #4]
 1072 0010 7047     		bx	lr
 1073              		.cfi_endproc
 1074              	.LFE124:
 1075              		.size	adcSTM32EnableTSVREFE, .-adcSTM32EnableTSVREFE
 1076 0012 00BFAFF3 		.section	.text.adcSTM32DisableTSVREFE,"ax",%progbits
 1076      0080AFF3 
 1076      0080AFF3 
 1076      0080
 1077              		.align	2
 1078              		.p2align 4,,15
ARM GAS  /tmp/cccvYDS5.s 			page 20


 1079              		.global	adcSTM32DisableTSVREFE
 1080              		.thumb
 1081              		.thumb_func
 1082              		.type	adcSTM32DisableTSVREFE, %function
 1083              	adcSTM32DisableTSVREFE:
 1084              	.LFB125:
 1085              		.loc 1 396 0
 1086              		.cfi_startproc
 1087              		@ args = 0, pretend = 0, frame = 0
 1088              		@ frame_needed = 0, uses_anonymous_args = 0
 1089              		@ link register save eliminated.
 1090              		.loc 1 398 0
 1091 0000 4FF40C53 		mov	r3, #8960
 1092 0004 C4F20103 		movt	r3, 16385
 1093 0008 5A68     		ldr	r2, [r3, #4]
 1094 000a 22F40002 		bic	r2, r2, #8388608
 1095 000e 5A60     		str	r2, [r3, #4]
 1096 0010 7047     		bx	lr
 1097              		.cfi_endproc
 1098              	.LFE125:
 1099              		.size	adcSTM32DisableTSVREFE, .-adcSTM32DisableTSVREFE
 1100 0012 00BFAFF3 		.section	.text.adcSTM32EnableVBATE,"ax",%progbits
 1100      0080AFF3 
 1100      0080AFF3 
 1100      0080
 1101              		.align	2
 1102              		.p2align 4,,15
 1103              		.global	adcSTM32EnableVBATE
 1104              		.thumb
 1105              		.thumb_func
 1106              		.type	adcSTM32EnableVBATE, %function
 1107              	adcSTM32EnableVBATE:
 1108              	.LFB126:
 1109              		.loc 1 406 0
 1110              		.cfi_startproc
 1111              		@ args = 0, pretend = 0, frame = 0
 1112              		@ frame_needed = 0, uses_anonymous_args = 0
 1113              		@ link register save eliminated.
 1114              		.loc 1 408 0
 1115 0000 4FF40C53 		mov	r3, #8960
 1116 0004 C4F20103 		movt	r3, 16385
 1117 0008 5A68     		ldr	r2, [r3, #4]
 1118 000a 42F48002 		orr	r2, r2, #4194304
 1119 000e 5A60     		str	r2, [r3, #4]
 1120 0010 7047     		bx	lr
 1121              		.cfi_endproc
 1122              	.LFE126:
 1123              		.size	adcSTM32EnableVBATE, .-adcSTM32EnableVBATE
 1124 0012 00BFAFF3 		.section	.text.adcSTM32DisableVBATE,"ax",%progbits
 1124      0080AFF3 
 1124      0080AFF3 
 1124      0080
 1125              		.align	2
 1126              		.p2align 4,,15
 1127              		.global	adcSTM32DisableVBATE
 1128              		.thumb
 1129              		.thumb_func
ARM GAS  /tmp/cccvYDS5.s 			page 21


 1130              		.type	adcSTM32DisableVBATE, %function
 1131              	adcSTM32DisableVBATE:
 1132              	.LFB127:
 1133              		.loc 1 416 0
 1134              		.cfi_startproc
 1135              		@ args = 0, pretend = 0, frame = 0
 1136              		@ frame_needed = 0, uses_anonymous_args = 0
 1137              		@ link register save eliminated.
 1138              		.loc 1 418 0
 1139 0000 4FF40C53 		mov	r3, #8960
 1140 0004 C4F20103 		movt	r3, 16385
 1141 0008 5A68     		ldr	r2, [r3, #4]
 1142 000a 22F48002 		bic	r2, r2, #4194304
 1143 000e 5A60     		str	r2, [r3, #4]
 1144 0010 7047     		bx	lr
 1145              		.cfi_endproc
 1146              	.LFE127:
 1147              		.size	adcSTM32DisableVBATE, .-adcSTM32DisableVBATE
 1148              		.global	ADCD3
 1149              		.global	ADCD2
 1150              		.global	ADCD1
 1151 0012 00BFAFF3 		.section	.bss.ADCD1,"aw",%nobits
 1151      0080AFF3 
 1151      0080AFF3 
 1151      0080
 1152              		.align	2
 1153              		.set	.LANCHOR0,. + 0
 1154              		.type	ADCD1, %object
 1155              		.size	ADCD1, 52
 1156              	ADCD1:
 1157 0000 00000000 		.space	52
 1157      00000000 
 1157      00000000 
 1157      00000000 
 1157      00000000 
 1158              		.section	.bss.ADCD2,"aw",%nobits
 1159              		.align	2
 1160              		.set	.LANCHOR1,. + 0
 1161              		.type	ADCD2, %object
 1162              		.size	ADCD2, 52
 1163              	ADCD2:
 1164 0000 00000000 		.space	52
 1164      00000000 
 1164      00000000 
 1164      00000000 
 1164      00000000 
 1165              		.section	.bss.ADCD3,"aw",%nobits
 1166              		.align	2
 1167              		.set	.LANCHOR2,. + 0
 1168              		.type	ADCD3, %object
 1169              		.size	ADCD3, 52
 1170              	ADCD3:
 1171 0000 00000000 		.space	52
 1171      00000000 
 1171      00000000 
 1171      00000000 
 1171      00000000 
ARM GAS  /tmp/cccvYDS5.s 			page 22


 1172              		.text
 1173              	.Letext0:
 1174              		.file 2 "/home/mitchd/Documents/FOX-1/amsat-fox/x86_64-toolchain/arm/bin/../lib/gcc/arm-none-eabi/
 1175              		.file 3 "/home/mitchd/Documents/FOX-1/amsat-fox/x86_64-toolchain/arm/bin/../lib/gcc/arm-none-eabi/
 1176              		.file 4 "./os/ports/GCC/ARMCMx/chtypes.h"
 1177              		.file 5 "./os/kernel/include/chlists.h"
 1178              		.file 6 "./os/kernel/include/chthreads.h"
 1179              		.file 7 "./os/ports/GCC/ARMCMx/chcore_v7m.h"
 1180              		.file 8 "./os/kernel/include/chmtx.h"
 1181              		.file 9 "./os/hal/platforms/STM32F4xx/stm32f4xx.h"
 1182              		.file 10 "./os/hal/platforms/STM32F4xx/stm32_dma.h"
 1183              		.file 11 "./os/hal/include/adc.h"
 1184              		.file 12 "./os/hal/platforms/STM32F4xx/adc_lld.h"
 1185              		.file 13 "./os/ports/common/ARMCMx/CMSIS/include/core_cm4.h"
 1186              		.file 14 "./os/ports/common/ARMCMx/nvic.h"
 1187              		.file 15 "./os/kernel/include/chschd.h"