ARM GAS  /tmp/ccT4fIka.s 			page 1


   1              		.syntax unified
   2              		.cpu cortex-m4
   3              		.fpu softvfp
   4              		.eabi_attribute 20, 1
   5              		.eabi_attribute 21, 1
   6              		.eabi_attribute 23, 3
   7              		.eabi_attribute 24, 1
   8              		.eabi_attribute 25, 1
   9              		.eabi_attribute 26, 1
  10              		.eabi_attribute 30, 2
  11              		.eabi_attribute 34, 1
  12              		.eabi_attribute 18, 4
  13              		.thumb
  14              		.file	"camera_iface.c"
  15              		.text
  16              	.Ltext0:
  17              		.cfi_sections	.debug_frame
  18              		.section	.text.setupI2C,"ax",%progbits
  19              		.align	2
  20              		.p2align 4,,15
  21              		.global	setupI2C
  22              		.thumb
  23              		.thumb_func
  24              		.type	setupI2C, %function
  25              	setupI2C:
  26              	.LFB117:
  27              		.file 1 "./camera_iface/camera_iface.c"
  28              		.loc 1 11 0
  29              		.cfi_startproc
  30              		@ args = 0, pretend = 0, frame = 0
  31              		@ frame_needed = 0, uses_anonymous_args = 0
  32 0000 10B5     		push	{r4, lr}
  33              	.LCFI0:
  34              		.cfi_def_cfa_offset 8
  35              		.cfi_offset 14, -4
  36              		.cfi_offset 4, -8
  37              		.loc 1 12 0
  38 0002 FFF7FEFF 		bl	i2cInit
  39              		.loc 1 16 0
  40 0006 4FF48064 		mov	r4, #1024
  41              		.loc 1 14 0
  42 000a 40F20000 		movw	r0, #:lower16:I2CD1
  43 000e 40F20001 		movw	r1, #:lower16:.LANCHOR0
  44              		.loc 1 16 0
  45 0012 C4F20204 		movt	r4, 16386
  46              		.loc 1 14 0
  47 0016 C0F20000 		movt	r0, #:upper16:I2CD1
  48 001a C0F20001 		movt	r1, #:upper16:.LANCHOR0
  49 001e FFF7FEFF 		bl	i2cStart
  50              		.loc 1 16 0
  51 0022 0821     		movs	r1, #8
  52 0024 2046     		mov	r0, r4
  53 0026 40F20722 		movw	r2, #519
  54 002a FFF7FEFF 		bl	palSetMode
  55              		.loc 1 18 0
  56 002e 2046     		mov	r0, r4
  57 0030 0921     		movs	r1, #9
ARM GAS  /tmp/ccT4fIka.s 			page 2


  58 0032 40F20722 		movw	r2, #519
  59              		.loc 1 20 0
  60 0036 BDE81040 		pop	{r4, lr}
  61              		.loc 1 18 0
  62 003a FFF7FEBF 		b	palSetMode
  63              		.cfi_endproc
  64              	.LFE117:
  65              		.size	setupI2C, .-setupI2C
  66 003e 00BF     		.section	.text.setupCamPort,"ax",%progbits
  67              		.align	2
  68              		.p2align 4,,15
  69              		.global	setupCamPort
  70              		.thumb
  71              		.thumb_func
  72              		.type	setupCamPort, %function
  73              	setupCamPort:
  74              	.LFB118:
  75              		.loc 1 23 0
  76              		.cfi_startproc
  77              		@ args = 0, pretend = 0, frame = 0
  78              		@ frame_needed = 0, uses_anonymous_args = 0
  79 0000 38B5     		push	{r3, r4, r5, lr}
  80              	.LCFI1:
  81              		.cfi_def_cfa_offset 16
  82              		.cfi_offset 14, -4
  83              		.cfi_offset 5, -8
  84              		.cfi_offset 4, -12
  85              		.cfi_offset 3, -16
  86              		.loc 1 24 0
  87 0002 0025     		movs	r5, #0
  88 0004 0121     		movs	r1, #1
  89 0006 C4F20205 		movt	r5, 16386
  90 000a 0A46     		mov	r2, r1
  91 000c 2846     		mov	r0, r5
  92              		.loc 1 26 0
  93 000e 4FF4A054 		mov	r4, #5120
  94 0012 C4F20204 		movt	r4, 16386
  95              		.loc 1 24 0
  96 0016 FFF7FEFF 		bl	palSetMode
  97              		.loc 1 25 0
  98 001a 0221     		movs	r1, #2
  99 001c 0122     		movs	r2, #1
 100 001e 2846     		mov	r0, r5
 101 0020 FFF7FEFF 		bl	palSetMode
 102              		.loc 1 26 0
 103 0024 0821     		movs	r1, #8
 104 0026 0022     		movs	r2, #0
 105 0028 2046     		mov	r0, r4
 106 002a FFF7FEFF 		bl	palSetMode
 107              		.loc 1 27 0
 108 002e 0921     		movs	r1, #9
 109 0030 0022     		movs	r2, #0
 110 0032 2046     		mov	r0, r4
 111 0034 FFF7FEFF 		bl	palSetMode
 112              		.loc 1 28 0
 113 0038 0021     		movs	r1, #0
 114 003a 0A46     		mov	r2, r1
ARM GAS  /tmp/ccT4fIka.s 			page 3


 115 003c 2046     		mov	r0, r4
 116 003e FFF7FEFF 		bl	palSetMode
 117              		.loc 1 29 0
 118 0042 0121     		movs	r1, #1
 119 0044 0022     		movs	r2, #0
 120 0046 2046     		mov	r0, r4
 121 0048 FFF7FEFF 		bl	palSetMode
 122              		.loc 1 30 0
 123 004c 0221     		movs	r1, #2
 124 004e 0022     		movs	r2, #0
 125 0050 2046     		mov	r0, r4
 126 0052 FFF7FEFF 		bl	palSetMode
 127              		.loc 1 31 0
 128 0056 0321     		movs	r1, #3
 129 0058 0022     		movs	r2, #0
 130 005a 2046     		mov	r0, r4
 131 005c FFF7FEFF 		bl	palSetMode
 132              		.loc 1 32 0
 133 0060 0421     		movs	r1, #4
 134 0062 0022     		movs	r2, #0
 135 0064 2046     		mov	r0, r4
 136 0066 FFF7FEFF 		bl	palSetMode
 137              		.loc 1 33 0
 138 006a 0521     		movs	r1, #5
 139 006c 0022     		movs	r2, #0
 140 006e 2046     		mov	r0, r4
 141 0070 FFF7FEFF 		bl	palSetMode
 142              		.loc 1 36 0
 143 0074 4FF40065 		mov	r5, #2048
 144              		.loc 1 34 0
 145 0078 0621     		movs	r1, #6
 146 007a 2046     		mov	r0, r4
 147 007c 0022     		movs	r2, #0
 148 007e FFF7FEFF 		bl	palSetMode
 149              		.loc 1 36 0
 150 0082 C4F20205 		movt	r5, 16386
 151              		.loc 1 35 0
 152 0086 0721     		movs	r1, #7
 153 0088 2046     		mov	r0, r4
 154 008a 0022     		movs	r2, #0
 155 008c FFF7FEFF 		bl	palSetMode
 156              		.loc 1 36 0
 157 0090 0021     		movs	r1, #0
 158 0092 0122     		movs	r2, #1
 159 0094 2846     		mov	r0, r5
 160 0096 FFF7FEFF 		bl	palSetMode
 161              		.loc 1 37 0
 162 009a 0121     		movs	r1, #1
 163 009c 0A46     		mov	r2, r1
 164 009e 2846     		mov	r0, r5
 165 00a0 FFF7FEFF 		bl	palSetMode
 166              		.loc 1 38 0
 167 00a4 0221     		movs	r1, #2
 168 00a6 0122     		movs	r2, #1
 169 00a8 2846     		mov	r0, r5
 170 00aa FFF7FEFF 		bl	palSetMode
 171              		.loc 1 39 0
ARM GAS  /tmp/ccT4fIka.s 			page 4


 172 00ae 2846     		mov	r0, r5
 173 00b0 0321     		movs	r1, #3
 174 00b2 0122     		movs	r2, #1
 175              		.loc 1 40 0
 176 00b4 BDE83840 		pop	{r3, r4, r5, lr}
 177              		.loc 1 39 0
 178 00b8 FFF7FEBF 		b	palSetMode
 179              		.cfi_endproc
 180              	.LFE118:
 181              		.size	setupCamPort, .-setupCamPort
 182 00bc AFF30080 		.section	.text.configureCam,"ax",%progbits
 183              		.align	2
 184              		.p2align 4,,15
 185              		.global	configureCam
 186              		.thumb
 187              		.thumb_func
 188              		.type	configureCam, %function
 189              	configureCam:
 190              	.LFB119:
 191              		.loc 1 43 0
 192              		.cfi_startproc
 193              		@ args = 0, pretend = 0, frame = 40
 194              		@ frame_needed = 0, uses_anonymous_args = 0
 195 0000 2DE9F041 		push	{r4, r5, r6, r7, r8, lr}
 196              	.LCFI2:
 197              		.cfi_def_cfa_offset 24
 198              		.cfi_offset 14, -4
 199              		.cfi_offset 8, -8
 200              		.cfi_offset 7, -12
 201              		.cfi_offset 6, -16
 202              		.cfi_offset 5, -20
 203              		.cfi_offset 4, -24
 204 0004 8EB0     		sub	sp, sp, #56
 205              	.LCFI3:
 206              		.cfi_def_cfa_offset 80
 207              		.loc 1 50 0
 208 0006 0120     		movs	r0, #1
 209 0008 8DF81500 		strb	r0, [sp, #21]
 210              		.loc 1 53 0
 211 000c 0C21     		movs	r1, #12
 212              		.loc 1 55 0
 213 000e 3E20     		movs	r0, #62
 214              		.loc 1 53 0
 215 0010 8DF81810 		strb	r1, [sp, #24]
 216              		.loc 1 55 0
 217 0014 8DF81A00 		strb	r0, [sp, #26]
 218              		.loc 1 57 0
 219 0018 7021     		movs	r1, #112
 220              		.loc 1 58 0
 221 001a 3A20     		movs	r0, #58
 222              	.LBB6:
 223              	.LBB7:
 224              		.loc 1 87 0
 225 001c 0026     		movs	r6, #0
 226              	.LBE7:
 227              	.LBE6:
 228              		.loc 1 49 0
ARM GAS  /tmp/ccT4fIka.s 			page 5


 229 001e 1122     		movs	r2, #17
 230              		.loc 1 57 0
 231 0020 8DF81C10 		strb	r1, [sp, #28]
 232              		.loc 1 58 0
 233 0024 8DF81D00 		strb	r0, [sp, #29]
 234              	.LBB11:
 235              	.LBB8:
 236              		.loc 1 87 0
 237 0028 C4F20206 		movt	r6, 16386
 238              	.LBE8:
 239              	.LBE11:
 240              		.loc 1 59 0
 241 002c 7121     		movs	r1, #113
 242              		.loc 1 60 0
 243 002e 3520     		movs	r0, #53
 244              		.loc 1 72 0
 245 0030 40F20004 		movw	r4, #:lower16:I2CD1
 246              		.loc 1 52 0
 247 0034 0025     		movs	r5, #0
 248              		.loc 1 65 0
 249 0036 A223     		movs	r3, #162
 250              		.loc 1 72 0
 251 0038 C0F20004 		movt	r4, #:upper16:I2CD1
 252              		.loc 1 49 0
 253 003c 8DF81420 		strb	r2, [sp, #20]
 254              		.loc 1 59 0
 255 0040 8DF81E10 		strb	r1, [sp, #30]
 256              		.loc 1 60 0
 257 0044 8DF81F00 		strb	r0, [sp, #31]
 258              		.loc 1 61 0
 259 0048 7221     		movs	r1, #114
 260              		.loc 1 62 0
 261 004a 8DF82120 		strb	r2, [sp, #33]
 262              		.loc 1 51 0
 263 004e 4FF01208 		mov	r8, #18
 264              		.loc 1 64 0
 265 0052 F022     		movs	r2, #240
 266              	.LBB12:
 267              	.LBB9:
 268              		.loc 1 87 0
 269 0054 0427     		movs	r7, #4
 270              	.LBE9:
 271              	.LBE12:
 272              		.loc 1 63 0
 273 0056 7320     		movs	r0, #115
 274              		.loc 1 52 0
 275 0058 8DF81750 		strb	r5, [sp, #23]
 276              		.loc 1 54 0
 277 005c 8DF81950 		strb	r5, [sp, #25]
 278              		.loc 1 56 0
 279 0060 8DF81B50 		strb	r5, [sp, #27]
 280              		.loc 1 61 0
 281 0064 8DF82010 		strb	r1, [sp, #32]
 282              		.loc 1 63 0
 283 0068 8DF82200 		strb	r0, [sp, #34]
 284              		.loc 1 64 0
 285 006c 8DF82320 		strb	r2, [sp, #35]
ARM GAS  /tmp/ccT4fIka.s 			page 6


 286              		.loc 1 65 0
 287 0070 8DF82430 		strb	r3, [sp, #36]
 288              		.loc 1 66 0
 289 0074 8DF82530 		strb	r3, [sp, #37]
 290              		.loc 1 51 0
 291 0078 8DF81680 		strb	r8, [sp, #22]
 292              		.loc 1 72 0
 293 007c 2046     		mov	r0, r4
 294              	.LBB13:
 295              	.LBB10:
 296              		.loc 1 87 0
 297 007e 7783     		strh	r7, [r6, #26]	@ movhi
 298              	.LBE10:
 299              	.LBE13:
 300              		.loc 1 72 0
 301 0080 FFF7FEFF 		bl	i2cAcquireBus
 302              		.loc 1 73 0
 303 0084 0DF1340E 		add	lr, sp, #52
 304 0088 4221     		movs	r1, #66
 305 008a 05AA     		add	r2, sp, #20
 306 008c 4346     		mov	r3, r8
 307 008e 2046     		mov	r0, r4
 308 0090 CDF800E0 		str	lr, [sp, #0]
 309 0094 0195     		str	r5, [sp, #4]
 310 0096 0295     		str	r5, [sp, #8]
 311 0098 FFF7FEFF 		bl	i2cMasterTransmitTimeout
 312 009c 0546     		mov	r5, r0
 313              	.LVL0:
 314              		.loc 1 77 0
 315 009e 2046     		mov	r0, r4
 316              	.LVL1:
 317 00a0 FFF7FEFF 		bl	i2cReleaseBus
 318              	.LBB14:
 319              	.LBB15:
 320              		.loc 1 91 0
 321 00a4 3783     		strh	r7, [r6, #24]	@ movhi
 322              	.LBE15:
 323              	.LBE14:
 324              		.loc 1 84 0
 325 00a6 2846     		mov	r0, r5
 326 00a8 0EB0     		add	sp, sp, #56
 327 00aa BDE8F081 		pop	{r4, r5, r6, r7, r8, pc}
 328              		.cfi_endproc
 329              	.LFE119:
 330              		.size	configureCam, .-configureCam
 331 00ae 00BF     		.section	.text.wakeupCam,"ax",%progbits
 332              		.align	2
 333              		.p2align 4,,15
 334              		.global	wakeupCam
 335              		.thumb
 336              		.thumb_func
 337              		.type	wakeupCam, %function
 338              	wakeupCam:
 339              	.LFB120:
 340              		.loc 1 86 0
 341              		.cfi_startproc
 342              		@ args = 0, pretend = 0, frame = 0
ARM GAS  /tmp/ccT4fIka.s 			page 7


 343              		@ frame_needed = 0, uses_anonymous_args = 0
 344              		@ link register save eliminated.
 345              		.loc 1 87 0
 346 0000 0023     		movs	r3, #0
 347 0002 C4F20203 		movt	r3, 16386
 348 0006 0422     		movs	r2, #4
 349 0008 5A83     		strh	r2, [r3, #26]	@ movhi
 350              		.loc 1 88 0
 351 000a 7047     		bx	lr
 352              		.cfi_endproc
 353              	.LFE120:
 354              		.size	wakeupCam, .-wakeupCam
 355 000c AFF30080 		.section	.text.powerdownCam,"ax",%progbits
 356              		.align	2
 357              		.p2align 4,,15
 358              		.global	powerdownCam
 359              		.thumb
 360              		.thumb_func
 361              		.type	powerdownCam, %function
 362              	powerdownCam:
 363              	.LFB121:
 364              		.loc 1 90 0
 365              		.cfi_startproc
 366              		@ args = 0, pretend = 0, frame = 0
 367              		@ frame_needed = 0, uses_anonymous_args = 0
 368              		@ link register save eliminated.
 369              		.loc 1 91 0
 370 0000 0023     		movs	r3, #0
 371 0002 C4F20203 		movt	r3, 16386
 372 0006 0422     		movs	r2, #4
 373 0008 1A83     		strh	r2, [r3, #24]	@ movhi
 374              		.loc 1 92 0
 375 000a 7047     		bx	lr
 376              		.cfi_endproc
 377              	.LFE121:
 378              		.size	powerdownCam, .-powerdownCam
 379 000c AFF30080 		.section	.text.Camera_Thread,"ax",%progbits
 380              		.align	2
 381              		.p2align 4,,15
 382              		.global	Camera_Thread
 383              		.thumb
 384              		.thumb_func
 385              		.type	Camera_Thread, %function
 386              	Camera_Thread:
 387              	.LFB122:
 388              		.loc 1 94 0
 389              		.cfi_startproc
 390              		@ Volatile: function does not return.
 391              		@ args = 0, pretend = 0, frame = 0
 392              		@ frame_needed = 0, uses_anonymous_args = 0
 393              	.LVL2:
 394 0000 08B5     		push	{r3, lr}
 395              	.LCFI4:
 396              		.cfi_def_cfa_offset 8
 397              		.cfi_offset 14, -4
 398              		.cfi_offset 3, -8
 399              		.loc 1 116 0
ARM GAS  /tmp/ccT4fIka.s 			page 8


 400 0002 0848     		ldr	r0, .L9
 401              	.LVL3:
 402 0004 0849     		ldr	r1, .L9+4
 403 0006 FFF7FEFF 		bl	chprintf
 404              	.L7:
 405              		.loc 1 119 0 discriminator 1
 406 000a 0849     		ldr	r1, .L9+8
 407 000c 0548     		ldr	r0, .L9
 408 000e FFF7FEFF 		bl	chprintf
 409              		.loc 1 120 0 discriminator 1
 410 0012 0220     		movs	r0, #2
 411 0014 FFF7FEFF 		bl	chSchGoSleepS
 412              		.loc 1 122 0 discriminator 1
 413 0018 0549     		ldr	r1, .L9+12
 414 001a 0248     		ldr	r0, .L9
 415 001c FFF7FEFF 		bl	chprintf
 416 0020 F3E7     		b	.L7
 417              	.L10:
 418 0022 00BF     		.align	2
 419              	.L9:
 420 0024 00000000 		.word	SD3
 421 0028 00000000 		.word	.LC0
 422 002c 28000000 		.word	.LC1
 423 0030 50000000 		.word	.LC2
 424              		.cfi_endproc
 425              	.LFE122:
 426              		.size	Camera_Thread, .-Camera_Thread
 427 0034 AFF30080 		.section	.rodata.str1.4,"aMS",%progbits,1
 427      AFF30080 
 427      AFF30080 
 428              		.align	2
 429              	.LC0:
 430 0000 28435429 		.ascii	"(CT) Camera configured and powerd off\000"
 430      2043616D 
 430      65726120 
 430      636F6E66 
 430      69677572 
 431 0026 0000     		.space	2
 432              	.LC1:
 433 0028 28435429 		.ascii	"(CT) Time for Camera Thread to Sleep\000"
 433      2054696D 
 433      6520666F 
 433      72204361 
 433      6D657261 
 434 004d 000000   		.space	3
 435              	.LC2:
 436 0050 28435429 		.ascii	"(CT) Camera Thread has awoken\000"
 436      2043616D 
 436      65726120 
 436      54687265 
 436      61642068 
 437 006e 0000     		.section	.rodata.i2cfg1,"a",%progbits
 438              		.align	2
 439              		.set	.LANCHOR0,. + 0
 440              		.type	i2cfg1, %object
 441              		.size	i2cfg1, 12
 442              	i2cfg1:
ARM GAS  /tmp/ccT4fIka.s 			page 9


 443 0000 01       		.byte	1
 444 0001 000000   		.space	3
 445 0004 801A0600 		.word	400000
 446 0008 02       		.byte	2
 447 0009 000000   		.space	3
 448              		.text
 449              	.Letext0:
 450              		.file 2 "/usr/bin/../lib/gcc/arm-none-eabi/4.6.2/include/stddef.h"
 451              		.file 3 "/usr/bin/../lib/gcc/arm-none-eabi/4.6.2/../../../../arm-none-eabi/include/stdint.h"
 452              		.file 4 "./os/ports/GCC/ARMCMx/chtypes.h"
 453              		.file 5 "./os/kernel/include/chlists.h"
 454              		.file 6 "./os/kernel/include/chthreads.h"
 455              		.file 7 "./os/ports/GCC/ARMCMx/chcore_v7m.h"
 456              		.file 8 "./os/kernel/include/chmtx.h"
 457              		.file 9 "./os/kernel/include/chevents.h"
 458              		.file 10 "./os/kernel/include/chqueues.h"
 459              		.file 11 "./os/kernel/include/chioch.h"
 460              		.file 12 "./os/hal/platforms/STM32F4xx/stm32f4xx.h"
 461              		.file 13 "./os/hal/platforms/STM32F4xx/stm32_dma.h"
 462              		.file 14 "./os/hal/platforms/STM32/GPIOv2/pal_lld.h"
 463              		.file 15 "./os/hal/include/i2c.h"
 464              		.file 16 "./os/hal/platforms/STM32/i2c_lld.h"
 465              		.file 17 "./os/hal/include/serial.h"
 466              		.file 18 "./os/ports/common/ARMCMx/CMSIS/include/core_cm4.h"
 467              		.file 19 "./os/hal/platforms/STM32/serial_lld.h"