ARM GAS  /tmp/ccqbLSm0.s 			page 1


   1              		.syntax unified
   2              		.cpu cortex-m4
   3              		.fpu softvfp
   4              		.eabi_attribute 20, 1
   5              		.eabi_attribute 21, 1
   6              		.eabi_attribute 23, 3
   7              		.eabi_attribute 24, 1
   8              		.eabi_attribute 25, 1
   9              		.eabi_attribute 26, 1
  10              		.eabi_attribute 30, 2
  11              		.eabi_attribute 34, 1
  12              		.eabi_attribute 18, 4
  13              		.thumb
  14              		.file	"chcore_v7m.c"
  15              		.text
  16              	.Ltext0:
  17              		.cfi_sections	.debug_frame
  18              		.section	.text._port_switch_from_isr,"ax",%progbits
  19              		.align	2
  20              		.p2align 4,,15
  21              		.global	_port_switch_from_isr
  22              		.thumb
  23              		.thumb_func
  24              		.type	_port_switch_from_isr, %function
  25              	_port_switch_from_isr:
  26              	.LFB11:
  27              		.file 1 "./os/ports/GCC/ARMCMx/chcore_v7m.c"
  28              		.loc 1 207 0
  29              		.cfi_startproc
  30              		@ Naked Function: prologue and epilogue provided by programmer.
  31              		@ args = 0, pretend = 0, frame = 0
  32              		@ frame_needed = 0, uses_anonymous_args = 0
  33              		.loc 1 210 0
  34 0000 FFF7FEFF 		bl	chSchDoReschedule
  35              	.LVL0:
  36              		.loc 1 212 0
  37              	@ 212 "./os/ports/GCC/ARMCMx/chcore_v7m.c" 1
  38              		_port_exit_from_isr:
  39              	@ 0 "" 2
  40              		.loc 1 214 0
  41              	@ 214 "./os/ports/GCC/ARMCMx/chcore_v7m.c" 1
  42 0004 00DF     		svc     #0
  43              	@ 0 "" 2
  44              		.loc 1 221 0
  45              		.thumb
  46              		.cfi_endproc
  47              	.LFE11:
  48              		.size	_port_switch_from_isr, .-_port_switch_from_isr
  49 0006 00BFAFF3 		.section	.text.SVCallVector,"ax",%progbits
  49      0080AFF3 
  49      0080
  50              		.align	2
  51              		.p2align 4,,15
  52              		.global	SVCallVector
  53              		.thumb
  54              		.thumb_func
  55              		.type	SVCallVector, %function
ARM GAS  /tmp/ccqbLSm0.s 			page 2


  56              	SVCallVector:
  57              	.LFB8:
  58              		.loc 1 65 0
  59              		.cfi_startproc
  60              		@ args = 0, pretend = 0, frame = 0
  61              		@ frame_needed = 0, uses_anonymous_args = 0
  62              		@ link register save eliminated.
  63              		.loc 1 69 0
  64              	@ 69 "./os/ports/GCC/ARMCMx/chcore_v7m.c" 1
  65 0000 EFF30983 		mrs     r3, PSP
  66              	@ 0 "" 2
  67              	.LVL1:
  68              		.loc 1 73 0
  69              		.thumb
  70 0004 2033     		adds	r3, r3, #32
  71              	.LVL2:
  72              		.loc 1 80 0
  73              	@ 80 "./os/ports/GCC/ARMCMx/chcore_v7m.c" 1
  74 0006 83F30988 		msr     PSP, r3
  75              	@ 0 "" 2
  76              		.thumb
  77              	.LBB2:
  78              		.loc 1 81 0
  79 000a 0023     		movs	r3, #0
  80              	.LVL3:
  81              	@ 81 "./os/ports/GCC/ARMCMx/chcore_v7m.c" 1
  82 000c 83F31188 		msr     BASEPRI, r3
  83              	@ 0 "" 2
  84              	.LVL4:
  85              		.thumb
  86 0010 7047     		bx	lr
  87              	.LBE2:
  88              		.cfi_endproc
  89              	.LFE8:
  90              		.size	SVCallVector, .-SVCallVector
  91 0012 00BFAFF3 		.section	.text._port_init,"ax",%progbits
  91      0080AFF3 
  91      0080AFF3 
  91      0080
  92              		.align	2
  93              		.p2align 4,,15
  94              		.global	_port_init
  95              		.thumb
  96              		.thumb_func
  97              		.type	_port_init, %function
  98              	_port_init:
  99              	.LFB9:
 100              		.loc 1 118 0
 101              		.cfi_startproc
 102              		@ args = 0, pretend = 0, frame = 0
 103              		@ frame_needed = 0, uses_anonymous_args = 0
 104 0000 08B5     		push	{r3, lr}
 105              	.LCFI0:
 106              		.cfi_def_cfa_offset 8
 107              		.cfi_offset 3, -8
 108              		.cfi_offset 14, -4
 109              		.loc 1 121 0
ARM GAS  /tmp/ccqbLSm0.s 			page 3


 110 0002 4FF46D43 		mov	r3, #60672
 111 0006 CEF20003 		movt	r3, 57344
 112              		.loc 1 122 0
 113 000a 0022     		movs	r2, #0
 114 000c C0F2FA52 		movt	r2, 1530
 115              		.loc 1 121 0
 116 0010 0021     		movs	r1, #0
 117 0012 9960     		str	r1, [r3, #8]
 118              		.loc 1 125 0
 119 0014 0720     		movs	r0, #7
 120 0016 1021     		movs	r1, #16
 121              		.loc 1 122 0
 122 0018 DA60     		str	r2, [r3, #12]
 123              		.loc 1 125 0
 124 001a FFF7FEFF 		bl	nvicSetSystemHandlerPriority
 125              	.LVL5:
 126              		.loc 1 127 0
 127 001e 0A20     		movs	r0, #10
 128 0020 4FF40071 		mov	r1, #512
 129 0024 FFF7FEFF 		bl	nvicSetSystemHandlerPriority
 130              	.LVL6:
 131              		.loc 1 129 0
 132 0028 0B20     		movs	r0, #11
 133 002a 8021     		movs	r1, #128
 134              		.loc 1 131 0
 135 002c BDE80840 		pop	{r3, lr}
 136              		.loc 1 129 0
 137 0030 FFF7FEBF 		b	nvicSetSystemHandlerPriority
 138              	.LVL7:
 139              		.cfi_endproc
 140              	.LFE9:
 141              		.size	_port_init, .-_port_init
 142 0034 AFF30080 		.section	.text._port_irq_epilogue,"ax",%progbits
 142      AFF30080 
 142      AFF30080 
 143              		.align	2
 144              		.p2align 4,,15
 145              		.global	_port_irq_epilogue
 146              		.thumb
 147              		.thumb_func
 148              		.type	_port_irq_epilogue, %function
 149              	_port_irq_epilogue:
 150              	.LFB10:
 151              		.loc 1 148 0
 152              		.cfi_startproc
 153              		@ args = 0, pretend = 0, frame = 0
 154              		@ frame_needed = 0, uses_anonymous_args = 0
 155              		@ link register save eliminated.
 156              	.LBB3:
 157              		.loc 1 150 0
 158 0000 2023     		movs	r3, #32
 159              	.LVL8:
 160              	@ 150 "./os/ports/GCC/ARMCMx/chcore_v7m.c" 1
 161 0002 83F31188 		msr     BASEPRI, r3
 162              	@ 0 "" 2
 163              	.LVL9:
 164              		.thumb
ARM GAS  /tmp/ccqbLSm0.s 			page 4


 165              	.LBE3:
 166              		.loc 1 151 0
 167 0006 4FF46D43 		mov	r3, #60672
 168              	.LVL10:
 169 000a CEF20003 		movt	r3, 57344
 170 000e 5B68     		ldr	r3, [r3, #4]
 171 0010 13F40063 		ands	r3, r3, #2048
 172 0014 19D0     		beq	.L5
 173              	.LBB4:
 174              		.loc 1 155 0
 175              	@ 155 "./os/ports/GCC/ARMCMx/chcore_v7m.c" 1
 176 0016 EFF30983 		mrs     r3, PSP
 177              	@ 0 "" 2
 178              	.LVL11:
 179              		.loc 1 159 0
 180              		.thumb
 181 001a A3F12002 		sub	r2, r3, #32
 182              	.LVL12:
 183              		.loc 1 160 0
 184              	@ 160 "./os/ports/GCC/ARMCMx/chcore_v7m.c" 1
 185 001e 82F30988 		msr     PSP, r2
 186              	@ 0 "" 2
 187              		.loc 1 165 0
 188              		.thumb
 189 0022 124A     		ldr	r2, .L12
 190              	.LVL13:
 191 0024 9169     		ldr	r1, [r2, #24]
 192              		.loc 1 161 0
 193 0026 4FF08070 		mov	r0, #16777216
 194 002a 43F8040C 		str	r0, [r3, #-4]
 195              		.loc 1 165 0
 196 002e 79B1     		cbz	r1, .L6
 197              		.loc 1 165 0 is_stmt 0 discriminator 1
 198 0030 1168     		ldr	r1, [r2, #0]
 199 0032 D269     		ldr	r2, [r2, #28]
 200 0034 8968     		ldr	r1, [r1, #8]
 201 0036 9268     		ldr	r2, [r2, #8]
 202 0038 9142     		cmp	r1, r2
 203 003a 94BF     		ite	ls
 204 003c 0022     		movls	r2, #0
 205 003e 0122     		movhi	r2, #1
 206 0040 82B1     		cbz	r2, .L8
 207              	.L11:
 208              		.loc 1 167 0 is_stmt 1
 209 0042 0B4A     		ldr	r2, .L12+4
 210 0044 43F8082C 		str	r2, [r3, #-8]
 211 0048 7047     		bx	lr
 212              	.LVL14:
 213              	.L5:
 214              	.LBE4:
 215              	.LBB5:
 216              		.loc 1 197 0
 217              	@ 197 "./os/ports/GCC/ARMCMx/chcore_v7m.c" 1
 218 004a 83F31188 		msr     BASEPRI, r3
 219              	@ 0 "" 2
 220              	.LVL15:
 221              		.thumb
ARM GAS  /tmp/ccqbLSm0.s 			page 5


 222 004e 7047     		bx	lr
 223              	.LVL16:
 224              	.L6:
 225              	.LBE5:
 226              	.LBB6:
 227              		.loc 1 165 0 discriminator 2
 228 0050 1168     		ldr	r1, [r2, #0]
 229 0052 D269     		ldr	r2, [r2, #28]
 230 0054 8968     		ldr	r1, [r1, #8]
 231 0056 9268     		ldr	r2, [r2, #8]
 232 0058 9142     		cmp	r1, r2
 233 005a 34BF     		ite	cc
 234 005c 0022     		movcc	r2, #0
 235 005e 0122     		movcs	r2, #1
 236 0060 002A     		cmp	r2, #0
 237 0062 EED1     		bne	.L11
 238              	.L8:
 239              		.loc 1 176 0
 240 0064 034A     		ldr	r2, .L12+8
 241 0066 43F8082C 		str	r2, [r3, #-8]
 242 006a 7047     		bx	lr
 243              	.L13:
 244              		.align	2
 245              	.L12:
 246 006c 00000000 		.word	rlist
 247 0070 00000000 		.word	_port_switch_from_isr
 248 0074 04000000 		.word	_port_exit_from_isr
 249              	.LBE6:
 250              		.cfi_endproc
 251              	.LFE10:
 252              		.size	_port_irq_epilogue, .-_port_irq_epilogue
 253 0078 AFF30080 		.section	.text.SysTickVector,"ax",%progbits
 253      AFF30080 
 254              		.align	2
 255              		.p2align 4,,15
 256              		.global	SysTickVector
 257              		.thumb
 258              		.thumb_func
 259              		.type	SysTickVector, %function
 260              	SysTickVector:
 261              	.LFB7:
 262              		.loc 1 47 0
 263              		.cfi_startproc
 264              		@ args = 0, pretend = 0, frame = 0
 265              		@ frame_needed = 0, uses_anonymous_args = 0
 266 0000 08B5     		push	{r3, lr}
 267              	.LCFI1:
 268              		.cfi_def_cfa_offset 8
 269              		.cfi_offset 3, -8
 270              		.cfi_offset 14, -4
 271              	.LBB7:
 272              		.loc 1 51 0
 273 0002 2023     		movs	r3, #32
 274              	.LVL17:
 275              	@ 51 "./os/ports/GCC/ARMCMx/chcore_v7m.c" 1
 276 0004 83F31188 		msr     BASEPRI, r3
 277              	@ 0 "" 2
ARM GAS  /tmp/ccqbLSm0.s 			page 6


 278              	.LVL18:
 279              		.thumb
 280              	.LBE7:
 281              		.loc 1 52 0
 282 0008 FFF7FEFF 		bl	chSysTimerHandlerI
 283              	.LVL19:
 284              	.LBB8:
 285              		.loc 1 53 0
 286 000c 0023     		movs	r3, #0
 287              	.LVL20:
 288              	@ 53 "./os/ports/GCC/ARMCMx/chcore_v7m.c" 1
 289 000e 83F31188 		msr     BASEPRI, r3
 290              	@ 0 "" 2
 291              	.LVL21:
 292              		.thumb
 293              	.LBE8:
 294              		.loc 1 56 0
 295 0012 BDE80840 		pop	{r3, lr}
 296              		.loc 1 55 0
 297 0016 FFF7FEBF 		b	_port_irq_epilogue
 298              	.LVL22:
 299              		.cfi_endproc
 300              	.LFE7:
 301              		.size	SysTickVector, .-SysTickVector
 302 001a 00BFAFF3 		.section	.text._port_switch,"ax",%progbits
 302      0080
 303              		.align	2
 304              		.p2align 4,,15
 305              		.global	_port_switch
 306              		.thumb
 307              		.thumb_func
 308              		.type	_port_switch, %function
 309              	_port_switch:
 310              	.LFB12:
 311              		.loc 1 236 0
 312              		.cfi_startproc
 313              		@ Naked Function: prologue and epilogue provided by programmer.
 314              		@ args = 0, pretend = 0, frame = 0
 315              		@ frame_needed = 0, uses_anonymous_args = 0
 316              	.LVL23:
 317              		.loc 1 238 0
 318              	@ 238 "./os/ports/GCC/ARMCMx/chcore_v7m.c" 1
 319 0000 2DE9F04F 		push    {r4, r5, r6, r7, r8, r9, r10, r11, lr}
 320              	@ 0 "" 2
 321              		.loc 1 244 0
 322              	@ 244 "./os/ports/GCC/ARMCMx/chcore_v7m.c" 1
 323 0004 C1F80CD0 		str     sp, [r1, #12]                          
 324 0008 D0F80CD0 		ldr     sp, [r0, #12]
 325              	@ 0 "" 2
 326              		.loc 1 250 0
 327              	@ 250 "./os/ports/GCC/ARMCMx/chcore_v7m.c" 1
 328 000c BDE8F08F 		pop     {r4, r5, r6, r7, r8, r9, r10, r11, pc}
 329              	@ 0 "" 2
 330              		.loc 1 252 0
 331              		.thumb
 332              		.cfi_endproc
 333              	.LFE12:
ARM GAS  /tmp/ccqbLSm0.s 			page 7


 334              		.size	_port_switch, .-_port_switch
 335              		.section	.text._port_thread_start,"ax",%progbits
 336              		.align	2
 337              		.p2align 4,,15
 338              		.global	_port_thread_start
 339              		.thumb
 340              		.thumb_func
 341              		.type	_port_thread_start, %function
 342              	_port_thread_start:
 343              	.LFB13:
 344              		.loc 1 259 0
 345              		.cfi_startproc
 346              		@ args = 0, pretend = 0, frame = 0
 347              		@ frame_needed = 0, uses_anonymous_args = 0
 348              		@ link register save eliminated.
 349              	.LBB9:
 350              		.loc 1 261 0
 351 0000 0023     		movs	r3, #0
 352              	.LVL24:
 353              	@ 261 "./os/ports/GCC/ARMCMx/chcore_v7m.c" 1
 354 0002 83F31188 		msr     BASEPRI, r3
 355              	@ 0 "" 2
 356              	.LVL25:
 357              		.thumb
 358              	.LBE9:
 359              		.loc 1 262 0
 360              	@ 262 "./os/ports/GCC/ARMCMx/chcore_v7m.c" 1
 361 0006 2846     		mov     r0, r5                                 
 362 0008 A047     		blx     r4                                     
 363 000a FFF7FEFF 		bl      chThdExit
 364              	@ 0 "" 2
 365              		.thumb
 366 000e 7047     		bx	lr
 367              		.cfi_endproc
 368              	.LFE13:
 369              		.size	_port_thread_start, .-_port_thread_start
 370              		.text
 371              	.Letext0:
 372              		.file 2 "/home/mitchd/Documents/FOX-1/amsat-fox/x86_64-toolchain/arm/bin/../lib/gcc/arm-none-eabi/
 373              		.file 3 "./os/ports/GCC/ARMCMx/chtypes.h"
 374              		.file 4 "./os/kernel/include/chlists.h"
 375              		.file 5 "./os/kernel/include/chthreads.h"
 376              		.file 6 "./os/ports/GCC/ARMCMx/chcore_v7m.h"
 377              		.file 7 "./os/ports/common/ARMCMx/nvic.h"
 378              		.file 8 "./os/kernel/include/chschd.h"
 379              		.file 9 "./os/kernel/include/chmtx.h"
 380              		.file 10 "./os/kernel/include/chsys.h"