ARM GAS  /tmp/cctVHaAJ.s 			page 1


   1              		.syntax unified
   2              		.cpu cortex-m4
   3              		.fpu softvfp
   4              		.eabi_attribute 20, 1
   5              		.eabi_attribute 21, 1
   6              		.eabi_attribute 23, 3
   7              		.eabi_attribute 24, 1
   8              		.eabi_attribute 25, 1
   9              		.eabi_attribute 26, 1
  10              		.eabi_attribute 30, 2
  11              		.eabi_attribute 34, 1
  12              		.eabi_attribute 18, 4
  13              		.thumb
  14              		.file	"chevents.c"
  15              		.text
  16              	.Ltext0:
  17              		.cfi_sections	.debug_frame
  18              		.section	.text.chEvtRegisterMask,"ax",%progbits
  19              		.align	2
  20              		.p2align 4,,15
  21              		.global	chEvtRegisterMask
  22              		.thumb
  23              		.thumb_func
  24              		.type	chEvtRegisterMask, %function
  25              	chEvtRegisterMask:
  26              	.LFB7:
  27              		.file 1 "./os/kernel/src/chevents.c"
  28              		.loc 1 82 0
  29              		.cfi_startproc
  30              		@ args = 0, pretend = 0, frame = 0
  31              		@ frame_needed = 0, uses_anonymous_args = 0
  32              		@ link register save eliminated.
  33              	.LVL0:
  34 0000 30B4     		push	{r4, r5}
  35              	.LCFI0:
  36              		.cfi_def_cfa_offset 8
  37              		.cfi_offset 5, -4
  38              		.cfi_offset 4, -8
  39              	.LBB2:
  40              		.loc 1 86 0
  41 0002 2023     		movs	r3, #32
  42              	.LVL1:
  43              	@ 86 "./os/kernel/src/chevents.c" 1
  44 0004 83F31188 		msr     BASEPRI, r3
  45              	@ 0 "" 2
  46              	.LVL2:
  47              		.thumb
  48              	.LBE2:
  49              		.loc 1 89 0
  50 0008 40F20003 		movw	r3, #:lower16:rlist
  51              	.LVL3:
  52 000c C0F20003 		movt	r3, #:upper16:rlist
  53              		.loc 1 87 0
  54 0010 0568     		ldr	r5, [r0, #0]
  55              		.loc 1 89 0
  56 0012 DC69     		ldr	r4, [r3, #28]
  57              		.loc 1 87 0
ARM GAS  /tmp/cctVHaAJ.s 			page 2


  58 0014 0D60     		str	r5, [r1, #0]
  59              	.LBB3:
  60              		.loc 1 91 0
  61 0016 0023     		movs	r3, #0
  62              	.LVL4:
  63              	.LBE3:
  64              		.loc 1 88 0
  65 0018 0160     		str	r1, [r0, #0]
  66              		.loc 1 89 0
  67 001a 4C60     		str	r4, [r1, #4]
  68              		.loc 1 90 0
  69 001c 8A60     		str	r2, [r1, #8]
  70              	.LBB4:
  71              		.loc 1 91 0
  72              	@ 91 "./os/kernel/src/chevents.c" 1
  73 001e 83F31188 		msr     BASEPRI, r3
  74              	@ 0 "" 2
  75              	.LVL5:
  76              		.thumb
  77              	.LBE4:
  78              		.loc 1 92 0
  79 0022 30BC     		pop	{r4, r5}
  80 0024 7047     		bx	lr
  81              		.cfi_endproc
  82              	.LFE7:
  83              		.size	chEvtRegisterMask, .-chEvtRegisterMask
  84 0026 00BFAFF3 		.section	.text.chEvtUnregister,"ax",%progbits
  84      0080AFF3 
  84      0080
  85              		.align	2
  86              		.p2align 4,,15
  87              		.global	chEvtUnregister
  88              		.thumb
  89              		.thumb_func
  90              		.type	chEvtUnregister, %function
  91              	chEvtUnregister:
  92              	.LFB8:
  93              		.loc 1 107 0
  94              		.cfi_startproc
  95              		@ args = 0, pretend = 0, frame = 0
  96              		@ frame_needed = 0, uses_anonymous_args = 0
  97              		@ link register save eliminated.
  98              	.LVL6:
  99              	.LBB5:
 100              		.loc 1 113 0
 101 0000 2023     		movs	r3, #32
 102              	.LVL7:
 103              	@ 113 "./os/kernel/src/chevents.c" 1
 104 0002 83F31188 		msr     BASEPRI, r3
 105              	@ 0 "" 2
 106              	.LVL8:
 107              		.thumb
 108              	.LBE5:
 109              		.loc 1 112 0
 110 0006 0246     		mov	r2, r0
 111              		.loc 1 114 0
 112 0008 02E0     		b	.L3
ARM GAS  /tmp/cctVHaAJ.s 			page 3


 113              	.LVL9:
 114              	.L5:
 115              		.loc 1 115 0
 116 000a 9942     		cmp	r1, r3
 117 000c 07D0     		beq	.L8
 118 000e 1A46     		mov	r2, r3
 119              	.LVL10:
 120              	.L3:
 121              		.loc 1 114 0 discriminator 1
 122 0010 1368     		ldr	r3, [r2, #0]
 123              	.LVL11:
 124 0012 8342     		cmp	r3, r0
 125 0014 F9D1     		bne	.L5
 126              	.LBB6:
 127              		.loc 1 121 0
 128 0016 0023     		movs	r3, #0
 129              	.LVL12:
 130              	@ 121 "./os/kernel/src/chevents.c" 1
 131 0018 83F31188 		msr     BASEPRI, r3
 132              	@ 0 "" 2
 133              	.LVL13:
 134              		.thumb
 135              	.LBE6:
 136              		.loc 1 122 0
 137 001c 7047     		bx	lr
 138              	.LVL14:
 139              	.L8:
 140              		.loc 1 116 0
 141 001e 0B68     		ldr	r3, [r1, #0]
 142 0020 1360     		str	r3, [r2, #0]
 143              	.LBB7:
 144              		.loc 1 121 0
 145 0022 0023     		movs	r3, #0
 146              	@ 121 "./os/kernel/src/chevents.c" 1
 147 0024 83F31188 		msr     BASEPRI, r3
 148              	@ 0 "" 2
 149              	.LVL15:
 150              		.thumb
 151              	.LBE7:
 152              		.loc 1 122 0
 153 0028 7047     		bx	lr
 154              		.cfi_endproc
 155              	.LFE8:
 156              		.size	chEvtUnregister, .-chEvtUnregister
 157 002a 00BFAFF3 		.section	.text.chEvtClearFlags,"ax",%progbits
 157      0080
 158              		.align	2
 159              		.p2align 4,,15
 160              		.global	chEvtClearFlags
 161              		.thumb
 162              		.thumb_func
 163              		.type	chEvtClearFlags, %function
 164              	chEvtClearFlags:
 165              	.LFB9:
 166              		.loc 1 132 0
 167              		.cfi_startproc
 168              		@ args = 0, pretend = 0, frame = 0
ARM GAS  /tmp/cctVHaAJ.s 			page 4


 169              		@ frame_needed = 0, uses_anonymous_args = 0
 170              		@ link register save eliminated.
 171              	.LVL16:
 172 0000 10B4     		push	{r4}
 173              	.LCFI1:
 174              		.cfi_def_cfa_offset 4
 175              		.cfi_offset 4, -4
 176              	.LBB8:
 177              		.loc 1 135 0
 178 0002 2023     		movs	r3, #32
 179              	.LVL17:
 180              	@ 135 "./os/kernel/src/chevents.c" 1
 181 0004 83F31188 		msr     BASEPRI, r3
 182              	@ 0 "" 2
 183              	.LVL18:
 184              		.thumb
 185              	.LBE8:
 186              		.loc 1 137 0
 187 0008 40F20004 		movw	r4, #:lower16:rlist
 188 000c C0F20004 		movt	r4, #:upper16:rlist
 189              	.LBB9:
 190              		.loc 1 140 0
 191 0010 0023     		movs	r3, #0
 192              	.LVL19:
 193              	.LBE9:
 194              		.loc 1 137 0
 195 0012 E169     		ldr	r1, [r4, #28]
 196 0014 8A6B     		ldr	r2, [r1, #56]
 197              	.LVL20:
 198              		.loc 1 138 0
 199 0016 22EA0004 		bic	r4, r2, r0
 200              	.LVL21:
 201 001a 8C63     		str	r4, [r1, #56]
 202              	.LBB10:
 203              		.loc 1 140 0
 204              	@ 140 "./os/kernel/src/chevents.c" 1
 205 001c 83F31188 		msr     BASEPRI, r3
 206              	@ 0 "" 2
 207              	.LVL22:
 208              		.thumb
 209              	.LBE10:
 210              		.loc 1 137 0
 211 0020 1040     		ands	r0, r0, r2
 212              	.LVL23:
 213              		.loc 1 142 0
 214 0022 10BC     		pop	{r4}
 215 0024 7047     		bx	lr
 216              		.cfi_endproc
 217              	.LFE9:
 218              		.size	chEvtClearFlags, .-chEvtClearFlags
 219 0026 00BFAFF3 		.section	.text.chEvtAddFlags,"ax",%progbits
 219      0080AFF3 
 219      0080
 220              		.align	2
 221              		.p2align 4,,15
 222              		.global	chEvtAddFlags
 223              		.thumb
ARM GAS  /tmp/cctVHaAJ.s 			page 5


 224              		.thumb_func
 225              		.type	chEvtAddFlags, %function
 226              	chEvtAddFlags:
 227              	.LFB10:
 228              		.loc 1 153 0
 229              		.cfi_startproc
 230              		@ args = 0, pretend = 0, frame = 0
 231              		@ frame_needed = 0, uses_anonymous_args = 0
 232              		@ link register save eliminated.
 233              	.LVL24:
 234              	.LBB11:
 235              		.loc 1 155 0
 236 0000 2023     		movs	r3, #32
 237              	.LVL25:
 238              	@ 155 "./os/kernel/src/chevents.c" 1
 239 0002 83F31188 		msr     BASEPRI, r3
 240              	@ 0 "" 2
 241              	.LVL26:
 242              		.thumb
 243              	.LBE11:
 244              		.loc 1 157 0
 245 0006 40F2000C 		movw	ip, #:lower16:rlist
 246 000a C0F2000C 		movt	ip, #:upper16:rlist
 247              	.LBB12:
 248              		.loc 1 159 0
 249 000e 0023     		movs	r3, #0
 250              	.LVL27:
 251              	.LBE12:
 252              		.loc 1 157 0
 253 0010 DCF81C20 		ldr	r2, [ip, #28]
 254 0014 916B     		ldr	r1, [r2, #56]
 255 0016 0843     		orrs	r0, r0, r1
 256              	.LVL28:
 257 0018 9063     		str	r0, [r2, #56]
 258              	.LVL29:
 259              	.LBB13:
 260              		.loc 1 159 0
 261              	@ 159 "./os/kernel/src/chevents.c" 1
 262 001a 83F31188 		msr     BASEPRI, r3
 263              	@ 0 "" 2
 264              	.LVL30:
 265              		.thumb
 266              	.LBE13:
 267              		.loc 1 161 0
 268 001e 7047     		bx	lr
 269              		.cfi_endproc
 270              	.LFE10:
 271              		.size	chEvtAddFlags, .-chEvtAddFlags
 272              		.section	.text.chEvtSignalFlagsI,"ax",%progbits
 273              		.align	2
 274              		.p2align 4,,15
 275              		.global	chEvtSignalFlagsI
 276              		.thumb
 277              		.thumb_func
 278              		.type	chEvtSignalFlagsI, %function
 279              	chEvtSignalFlagsI:
 280              	.LFB12:
ARM GAS  /tmp/cctVHaAJ.s 			page 6


 281              		.loc 1 193 0
 282              		.cfi_startproc
 283              		@ args = 0, pretend = 0, frame = 0
 284              		@ frame_needed = 0, uses_anonymous_args = 0
 285              	.LVL31:
 286 0000 08B5     		push	{r3, lr}
 287              	.LCFI2:
 288              		.cfi_def_cfa_offset 8
 289              		.cfi_offset 14, -4
 290              		.cfi_offset 3, -8
 291              		.loc 1 198 0
 292 0002 826B     		ldr	r2, [r0, #56]
 293              		.loc 1 200 0
 294 0004 037F     		ldrb	r3, [r0, #28]	@ zero_extendqisi2
 295              		.loc 1 198 0
 296 0006 1143     		orrs	r1, r1, r2
 297              	.LVL32:
 298              		.loc 1 200 0
 299 0008 082B     		cmp	r3, #8
 300              		.loc 1 198 0
 301 000a 8163     		str	r1, [r0, #56]
 302              		.loc 1 200 0
 303 000c 0BD0     		beq	.L15
 304              		.loc 1 201 0
 305 000e 092B     		cmp	r3, #9
 306 0010 00D0     		beq	.L16
 307              	.L11:
 308 0012 08BD     		pop	{r3, pc}
 309              	.L16:
 310              		.loc 1 203 0
 311 0014 426A     		ldr	r2, [r0, #36]
 312 0016 1140     		ands	r1, r1, r2
 313              		.loc 1 202 0
 314 0018 8A42     		cmp	r2, r1
 315 001a FAD1     		bne	.L11
 316              	.L13:
 317              	.LVL33:
 318              	.LBB16:
 319              	.LBB17:
 320              		.loc 1 204 0
 321 001c FFF7FEFF 		bl	chSchReadyI
 322              	.LVL34:
 323 0020 0023     		movs	r3, #0
 324 0022 4362     		str	r3, [r0, #36]
 325 0024 08BD     		pop	{r3, pc}
 326              	.LVL35:
 327              	.L15:
 328              	.LBE17:
 329              	.LBE16:
 330              		.loc 1 201 0 discriminator 1
 331 0026 436A     		ldr	r3, [r0, #36]
 332              		.loc 1 200 0 discriminator 1
 333 0028 1942     		tst	r1, r3
 334 002a F7D1     		bne	.L13
 335 002c 08BD     		pop	{r3, pc}
 336              		.cfi_endproc
 337              	.LFE12:
ARM GAS  /tmp/cctVHaAJ.s 			page 7


 338              		.size	chEvtSignalFlagsI, .-chEvtSignalFlagsI
 339 002e 00BF     		.section	.text.chEvtSignalFlags,"ax",%progbits
 340              		.align	2
 341              		.p2align 4,,15
 342              		.global	chEvtSignalFlags
 343              		.thumb
 344              		.thumb_func
 345              		.type	chEvtSignalFlags, %function
 346              	chEvtSignalFlags:
 347              	.LFB11:
 348              		.loc 1 171 0
 349              		.cfi_startproc
 350              		@ args = 0, pretend = 0, frame = 0
 351              		@ frame_needed = 0, uses_anonymous_args = 0
 352              	.LVL36:
 353 0000 08B5     		push	{r3, lr}
 354              	.LCFI3:
 355              		.cfi_def_cfa_offset 8
 356              		.cfi_offset 14, -4
 357              		.cfi_offset 3, -8
 358              	.LBB18:
 359              		.loc 1 175 0
 360 0002 2023     		movs	r3, #32
 361              	.LVL37:
 362              	@ 175 "./os/kernel/src/chevents.c" 1
 363 0004 83F31188 		msr     BASEPRI, r3
 364              	@ 0 "" 2
 365              	.LVL38:
 366              		.thumb
 367              	.LBE18:
 368              		.loc 1 176 0
 369 0008 FFF7FEFF 		bl	chEvtSignalFlagsI
 370              	.LVL39:
 371              		.loc 1 177 0
 372 000c FFF7FEFF 		bl	chSchRescheduleS
 373              	.LBB19:
 374              		.loc 1 178 0
 375 0010 0023     		movs	r3, #0
 376              	.LVL40:
 377              	@ 178 "./os/kernel/src/chevents.c" 1
 378 0012 83F31188 		msr     BASEPRI, r3
 379              	@ 0 "" 2
 380              	.LVL41:
 381              		.thumb
 382              	.LBE19:
 383              		.loc 1 179 0
 384 0016 08BD     		pop	{r3, pc}
 385              		.cfi_endproc
 386              	.LFE11:
 387              		.size	chEvtSignalFlags, .-chEvtSignalFlags
 388 0018 AFF30080 		.section	.text.chEvtBroadcastFlagsI,"ax",%progbits
 388      AFF30080 
 389              		.align	2
 390              		.p2align 4,,15
 391              		.global	chEvtBroadcastFlagsI
 392              		.thumb
 393              		.thumb_func
ARM GAS  /tmp/cctVHaAJ.s 			page 8


 394              		.type	chEvtBroadcastFlagsI, %function
 395              	chEvtBroadcastFlagsI:
 396              	.LFB14:
 397              		.loc 1 245 0
 398              		.cfi_startproc
 399              		@ args = 0, pretend = 0, frame = 0
 400              		@ frame_needed = 0, uses_anonymous_args = 0
 401              	.LVL42:
 402 0000 70B5     		push	{r4, r5, r6, lr}
 403              	.LCFI4:
 404              		.cfi_def_cfa_offset 16
 405              		.cfi_offset 14, -4
 406              		.cfi_offset 6, -8
 407              		.cfi_offset 5, -12
 408              		.cfi_offset 4, -16
 409              		.loc 1 251 0
 410 0002 0468     		ldr	r4, [r0, #0]
 411              	.LVL43:
 412              		.loc 1 252 0
 413 0004 A042     		cmp	r0, r4
 414              		.loc 1 245 0
 415 0006 0546     		mov	r5, r0
 416 0008 0E46     		mov	r6, r1
 417              		.loc 1 252 0
 418 000a 07D0     		beq	.L18
 419              	.LVL44:
 420              	.L21:
 421              		.loc 1 253 0
 422 000c A168     		ldr	r1, [r4, #8]
 423 000e 6068     		ldr	r0, [r4, #4]
 424 0010 3143     		orrs	r1, r1, r6
 425 0012 FFF7FEFF 		bl	chEvtSignalFlagsI
 426              		.loc 1 254 0
 427 0016 2468     		ldr	r4, [r4, #0]
 428              	.LVL45:
 429              		.loc 1 252 0
 430 0018 A542     		cmp	r5, r4
 431 001a F7D1     		bne	.L21
 432              	.L18:
 433 001c 70BD     		pop	{r4, r5, r6, pc}
 434              		.cfi_endproc
 435              	.LFE14:
 436              		.size	chEvtBroadcastFlagsI, .-chEvtBroadcastFlagsI
 437 001e 00BF     		.section	.text.chEvtBroadcastFlags,"ax",%progbits
 438              		.align	2
 439              		.p2align 4,,15
 440              		.global	chEvtBroadcastFlags
 441              		.thumb
 442              		.thumb_func
 443              		.type	chEvtBroadcastFlags, %function
 444              	chEvtBroadcastFlags:
 445              	.LFB13:
 446              		.loc 1 220 0
 447              		.cfi_startproc
 448              		@ args = 0, pretend = 0, frame = 0
 449              		@ frame_needed = 0, uses_anonymous_args = 0
 450              	.LVL46:
ARM GAS  /tmp/cctVHaAJ.s 			page 9


 451 0000 08B5     		push	{r3, lr}
 452              	.LCFI5:
 453              		.cfi_def_cfa_offset 8
 454              		.cfi_offset 14, -4
 455              		.cfi_offset 3, -8
 456              	.LBB20:
 457              		.loc 1 222 0
 458 0002 2023     		movs	r3, #32
 459              	.LVL47:
 460              	@ 222 "./os/kernel/src/chevents.c" 1
 461 0004 83F31188 		msr     BASEPRI, r3
 462              	@ 0 "" 2
 463              	.LVL48:
 464              		.thumb
 465              	.LBE20:
 466              		.loc 1 223 0
 467 0008 FFF7FEFF 		bl	chEvtBroadcastFlagsI
 468              	.LVL49:
 469              		.loc 1 224 0
 470 000c FFF7FEFF 		bl	chSchRescheduleS
 471              	.LBB21:
 472              		.loc 1 225 0
 473 0010 0023     		movs	r3, #0
 474              	.LVL50:
 475              	@ 225 "./os/kernel/src/chevents.c" 1
 476 0012 83F31188 		msr     BASEPRI, r3
 477              	@ 0 "" 2
 478              	.LVL51:
 479              		.thumb
 480              	.LBE21:
 481              		.loc 1 226 0
 482 0016 08BD     		pop	{r3, pc}
 483              		.cfi_endproc
 484              	.LFE13:
 485              		.size	chEvtBroadcastFlags, .-chEvtBroadcastFlags
 486 0018 AFF30080 		.section	.text.chEvtDispatch,"ax",%progbits
 486      AFF30080 
 487              		.align	2
 488              		.p2align 4,,15
 489              		.global	chEvtDispatch
 490              		.thumb
 491              		.thumb_func
 492              		.type	chEvtDispatch, %function
 493              	chEvtDispatch:
 494              	.LFB15:
 495              		.loc 1 267 0
 496              		.cfi_startproc
 497              		@ args = 0, pretend = 0, frame = 0
 498              		@ frame_needed = 0, uses_anonymous_args = 0
 499              	.LVL52:
 500 0000 F8B5     		push	{r3, r4, r5, r6, r7, lr}
 501              	.LCFI6:
 502              		.cfi_def_cfa_offset 24
 503              		.cfi_offset 14, -4
 504              		.cfi_offset 7, -8
 505              		.cfi_offset 6, -12
 506              		.cfi_offset 5, -16
ARM GAS  /tmp/cctVHaAJ.s 			page 10


 507              		.cfi_offset 4, -20
 508              		.cfi_offset 3, -24
 509              		.loc 1 267 0
 510 0002 0D46     		mov	r5, r1
 511 0004 0746     		mov	r7, r0
 512              		.loc 1 273 0
 513 0006 41B1     		cbz	r1, .L24
 514 0008 0024     		movs	r4, #0
 515              		.loc 1 274 0
 516 000a 0126     		movs	r6, #1
 517              	.LVL53:
 518              	.L27:
 519 000c 06FA04F3 		lsl	r3, r6, r4
 520 0010 2B42     		tst	r3, r5
 521 0012 03D1     		bne	.L29
 522              		.loc 1 281 0
 523 0014 0134     		adds	r4, r4, #1
 524              	.LVL54:
 525              		.loc 1 273 0
 526 0016 002D     		cmp	r5, #0
 527 0018 F8D1     		bne	.L27
 528              	.LVL55:
 529              	.L24:
 530 001a F8BD     		pop	{r3, r4, r5, r6, r7, pc}
 531              	.L29:
 532              		.loc 1 279 0
 533 001c 2046     		mov	r0, r4
 534              		.loc 1 278 0
 535 001e 25EA0305 		bic	r5, r5, r3
 536              	.LVL56:
 537              		.loc 1 279 0
 538 0022 57F82430 		ldr	r3, [r7, r4, lsl #2]
 539 0026 9847     		blx	r3
 540              		.loc 1 281 0
 541 0028 0134     		adds	r4, r4, #1
 542              	.LVL57:
 543              		.loc 1 273 0
 544 002a 002D     		cmp	r5, #0
 545 002c EED1     		bne	.L27
 546 002e F4E7     		b	.L24
 547              		.cfi_endproc
 548              	.LFE15:
 549              		.size	chEvtDispatch, .-chEvtDispatch
 550              		.section	.text.chEvtWaitOne,"ax",%progbits
 551              		.align	2
 552              		.p2align 4,,15
 553              		.global	chEvtWaitOne
 554              		.thumb
 555              		.thumb_func
 556              		.type	chEvtWaitOne, %function
 557              	chEvtWaitOne:
 558              	.LFB16:
 559              		.loc 1 302 0
 560              		.cfi_startproc
 561              		@ args = 0, pretend = 0, frame = 0
 562              		@ frame_needed = 0, uses_anonymous_args = 0
 563              	.LVL58:
ARM GAS  /tmp/cctVHaAJ.s 			page 11


 564 0000 38B5     		push	{r3, r4, r5, lr}
 565              	.LCFI7:
 566              		.cfi_def_cfa_offset 16
 567              		.cfi_offset 14, -4
 568              		.cfi_offset 5, -8
 569              		.cfi_offset 4, -12
 570              		.cfi_offset 3, -16
 571              		.loc 1 303 0
 572 0002 0D4B     		ldr	r3, .L32
 573              		.loc 1 302 0
 574 0004 0546     		mov	r5, r0
 575              		.loc 1 303 0
 576 0006 DC69     		ldr	r4, [r3, #28]
 577              	.LVL59:
 578              	.LBB22:
 579              		.loc 1 306 0
 580 0008 2023     		movs	r3, #32
 581              	.LVL60:
 582              	@ 306 "./os/kernel/src/chevents.c" 1
 583 000a 83F31188 		msr     BASEPRI, r3
 584              	@ 0 "" 2
 585              	.LVL61:
 586              		.thumb
 587              	.LBE22:
 588              		.loc 1 308 0
 589 000e A36B     		ldr	r3, [r4, #56]
 590              	.LVL62:
 591 0010 10EA0302 		ands	r2, r0, r3
 592 0014 06D1     		bne	.L31
 593              	.LVL63:
 594              		.loc 1 309 0
 595 0016 6062     		str	r0, [r4, #36]
 596              		.loc 1 310 0
 597 0018 0820     		movs	r0, #8
 598              	.LVL64:
 599 001a FFF7FEFF 		bl	chSchGoSleepS
 600              	.LVL65:
 601              		.loc 1 311 0
 602 001e A36B     		ldr	r3, [r4, #56]
 603 0020 05EA0302 		and	r2, r5, r3
 604              	.LVL66:
 605              	.L31:
 606              		.loc 1 313 0
 607 0024 5042     		negs	r0, r2
 608 0026 1040     		ands	r0, r0, r2
 609              	.LVL67:
 610              		.loc 1 314 0
 611 0028 23EA0001 		bic	r1, r3, r0
 612 002c A163     		str	r1, [r4, #56]
 613              	.LBB23:
 614              		.loc 1 316 0
 615 002e 0023     		movs	r3, #0
 616              	.LVL68:
 617              	@ 316 "./os/kernel/src/chevents.c" 1
 618 0030 83F31188 		msr     BASEPRI, r3
 619              	@ 0 "" 2
 620              	.LVL69:
ARM GAS  /tmp/cctVHaAJ.s 			page 12


 621              		.thumb
 622              	.LBE23:
 623              		.loc 1 318 0
 624 0034 38BD     		pop	{r3, r4, r5, pc}
 625              	.L33:
 626 0036 00BF     		.align	2
 627              	.L32:
 628 0038 00000000 		.word	rlist
 629              		.cfi_endproc
 630              	.LFE16:
 631              		.size	chEvtWaitOne, .-chEvtWaitOne
 632 003c AFF30080 		.section	.text.chEvtWaitAny,"ax",%progbits
 633              		.align	2
 634              		.p2align 4,,15
 635              		.global	chEvtWaitAny
 636              		.thumb
 637              		.thumb_func
 638              		.type	chEvtWaitAny, %function
 639              	chEvtWaitAny:
 640              	.LFB17:
 641              		.loc 1 331 0
 642              		.cfi_startproc
 643              		@ args = 0, pretend = 0, frame = 0
 644              		@ frame_needed = 0, uses_anonymous_args = 0
 645              	.LVL70:
 646 0000 38B5     		push	{r3, r4, r5, lr}
 647              	.LCFI8:
 648              		.cfi_def_cfa_offset 16
 649              		.cfi_offset 14, -4
 650              		.cfi_offset 5, -8
 651              		.cfi_offset 4, -12
 652              		.cfi_offset 3, -16
 653              		.loc 1 332 0
 654 0002 0B4B     		ldr	r3, .L36
 655              		.loc 1 331 0
 656 0004 0546     		mov	r5, r0
 657              		.loc 1 332 0
 658 0006 DC69     		ldr	r4, [r3, #28]
 659              	.LVL71:
 660              	.LBB24:
 661              		.loc 1 335 0
 662 0008 2023     		movs	r3, #32
 663              	.LVL72:
 664              	@ 335 "./os/kernel/src/chevents.c" 1
 665 000a 83F31188 		msr     BASEPRI, r3
 666              	@ 0 "" 2
 667              	.LVL73:
 668              		.thumb
 669              	.LBE24:
 670              		.loc 1 337 0
 671 000e A36B     		ldr	r3, [r4, #56]
 672              	.LVL74:
 673 0010 1840     		ands	r0, r0, r3
 674              	.LVL75:
 675 0012 06D1     		bne	.L35
 676              		.loc 1 339 0
 677 0014 0820     		movs	r0, #8
ARM GAS  /tmp/cctVHaAJ.s 			page 13


 678              		.loc 1 338 0
 679 0016 6562     		str	r5, [r4, #36]
 680              		.loc 1 339 0
 681 0018 FFF7FEFF 		bl	chSchGoSleepS
 682              	.LVL76:
 683              		.loc 1 340 0
 684 001c A36B     		ldr	r3, [r4, #56]
 685 001e 05EA0300 		and	r0, r5, r3
 686              	.LVL77:
 687              	.L35:
 688              		.loc 1 342 0
 689 0022 23EA0001 		bic	r1, r3, r0
 690 0026 A163     		str	r1, [r4, #56]
 691              	.LBB25:
 692              		.loc 1 344 0
 693 0028 0023     		movs	r3, #0
 694              	.LVL78:
 695              	@ 344 "./os/kernel/src/chevents.c" 1
 696 002a 83F31188 		msr     BASEPRI, r3
 697              	@ 0 "" 2
 698              	.LVL79:
 699              		.thumb
 700              	.LBE25:
 701              		.loc 1 346 0
 702 002e 38BD     		pop	{r3, r4, r5, pc}
 703              	.L37:
 704              		.align	2
 705              	.L36:
 706 0030 00000000 		.word	rlist
 707              		.cfi_endproc
 708              	.LFE17:
 709              		.size	chEvtWaitAny, .-chEvtWaitAny
 710 0034 AFF30080 		.section	.text.chEvtWaitAll,"ax",%progbits
 710      AFF30080 
 710      AFF30080 
 711              		.align	2
 712              		.p2align 4,,15
 713              		.global	chEvtWaitAll
 714              		.thumb
 715              		.thumb_func
 716              		.type	chEvtWaitAll, %function
 717              	chEvtWaitAll:
 718              	.LFB18:
 719              		.loc 1 359 0
 720              		.cfi_startproc
 721              		@ args = 0, pretend = 0, frame = 0
 722              		@ frame_needed = 0, uses_anonymous_args = 0
 723              	.LVL80:
 724 0000 38B5     		push	{r3, r4, r5, lr}
 725              	.LCFI9:
 726              		.cfi_def_cfa_offset 16
 727              		.cfi_offset 14, -4
 728              		.cfi_offset 5, -8
 729              		.cfi_offset 4, -12
 730              		.cfi_offset 3, -16
 731              		.loc 1 360 0
 732 0002 0C4B     		ldr	r3, .L40
ARM GAS  /tmp/cctVHaAJ.s 			page 14


 733              		.loc 1 359 0
 734 0004 0446     		mov	r4, r0
 735              		.loc 1 360 0
 736 0006 DD69     		ldr	r5, [r3, #28]
 737              	.LVL81:
 738              	.LBB26:
 739              		.loc 1 362 0
 740 0008 2023     		movs	r3, #32
 741              	.LVL82:
 742              	@ 362 "./os/kernel/src/chevents.c" 1
 743 000a 83F31188 		msr     BASEPRI, r3
 744              	@ 0 "" 2
 745              	.LVL83:
 746              		.thumb
 747              	.LBE26:
 748              		.loc 1 364 0
 749 000e AB6B     		ldr	r3, [r5, #56]
 750              	.LVL84:
 751 0010 00EA0302 		and	r2, r0, r3
 752 0014 8242     		cmp	r2, r0
 753 0016 04D0     		beq	.L39
 754              		.loc 1 365 0
 755 0018 6862     		str	r0, [r5, #36]
 756              		.loc 1 366 0
 757 001a 0920     		movs	r0, #9
 758              	.LVL85:
 759 001c FFF7FEFF 		bl	chSchGoSleepS
 760              	.LVL86:
 761 0020 AB6B     		ldr	r3, [r5, #56]
 762              	.L39:
 763              		.loc 1 368 0
 764 0022 23EA0400 		bic	r0, r3, r4
 765 0026 A863     		str	r0, [r5, #56]
 766              	.LBB27:
 767              		.loc 1 370 0
 768 0028 0023     		movs	r3, #0
 769              	.LVL87:
 770              	@ 370 "./os/kernel/src/chevents.c" 1
 771 002a 83F31188 		msr     BASEPRI, r3
 772              	@ 0 "" 2
 773              	.LVL88:
 774              		.thumb
 775              	.LBE27:
 776              		.loc 1 372 0
 777 002e 2046     		mov	r0, r4
 778 0030 38BD     		pop	{r3, r4, r5, pc}
 779              	.L41:
 780 0032 00BF     		.align	2
 781              	.L40:
 782 0034 00000000 		.word	rlist
 783              		.cfi_endproc
 784              	.LFE18:
 785              		.size	chEvtWaitAll, .-chEvtWaitAll
 786 0038 AFF30080 		.section	.text.chEvtWaitOneTimeout,"ax",%progbits
 786      AFF30080 
 787              		.align	2
 788              		.p2align 4,,15
ARM GAS  /tmp/cctVHaAJ.s 			page 15


 789              		.global	chEvtWaitOneTimeout
 790              		.thumb
 791              		.thumb_func
 792              		.type	chEvtWaitOneTimeout, %function
 793              	chEvtWaitOneTimeout:
 794              	.LFB19:
 795              		.loc 1 398 0
 796              		.cfi_startproc
 797              		@ args = 0, pretend = 0, frame = 0
 798              		@ frame_needed = 0, uses_anonymous_args = 0
 799              	.LVL89:
 800              		.loc 1 399 0
 801 0000 114B     		ldr	r3, .L48
 802              		.loc 1 398 0
 803 0002 70B5     		push	{r4, r5, r6, lr}
 804              	.LCFI10:
 805              		.cfi_def_cfa_offset 16
 806              		.cfi_offset 14, -4
 807              		.cfi_offset 6, -8
 808              		.cfi_offset 5, -12
 809              		.cfi_offset 4, -16
 810              		.loc 1 399 0
 811 0004 DE69     		ldr	r6, [r3, #28]
 812              	.LVL90:
 813              		.loc 1 398 0
 814 0006 0546     		mov	r5, r0
 815              	.LBB28:
 816              		.loc 1 402 0
 817 0008 2023     		movs	r3, #32
 818              	.LVL91:
 819              	@ 402 "./os/kernel/src/chevents.c" 1
 820 000a 83F31188 		msr     BASEPRI, r3
 821              	@ 0 "" 2
 822              	.LVL92:
 823              		.thumb
 824              	.LBE28:
 825              		.loc 1 404 0
 826 000e B36B     		ldr	r3, [r6, #56]
 827              	.LVL93:
 828 0010 10EA0304 		ands	r4, r0, r3
 829 0014 0ED1     		bne	.L43
 830              		.loc 1 405 0
 831 0016 21B9     		cbnz	r1, .L44
 832              	.LVL94:
 833              	.L47:
 834              	.LBB29:
 835              		.loc 1 411 0
 836 0018 2346     		mov	r3, r4
 837              	.LVL95:
 838              	@ 411 "./os/kernel/src/chevents.c" 1
 839 001a 83F31188 		msr     BASEPRI, r3
 840              	@ 0 "" 2
 841              	.LVL96:
 842              		.thumb
 843              	.LBE29:
 844              		.loc 1 421 0
 845 001e 2046     		mov	r0, r4
ARM GAS  /tmp/cctVHaAJ.s 			page 16


 846 0020 70BD     		pop	{r4, r5, r6, pc}
 847              	.LVL97:
 848              	.L44:
 849              		.loc 1 409 0
 850 0022 7062     		str	r0, [r6, #36]
 851              		.loc 1 410 0
 852 0024 0820     		movs	r0, #8
 853 0026 FFF7FEFF 		bl	chSchGoSleepTimeoutS
 854              	.LVL98:
 855 002a 0028     		cmp	r0, #0
 856 002c F4DB     		blt	.L47
 857              		.loc 1 414 0
 858 002e B36B     		ldr	r3, [r6, #56]
 859 0030 05EA0304 		and	r4, r5, r3
 860              	.LVL99:
 861              	.L43:
 862              		.loc 1 416 0
 863 0034 6242     		negs	r2, r4
 864 0036 1440     		ands	r4, r4, r2
 865              	.LVL100:
 866              		.loc 1 417 0
 867 0038 23EA0400 		bic	r0, r3, r4
 868 003c B063     		str	r0, [r6, #56]
 869              	.LBB30:
 870              		.loc 1 419 0
 871 003e 0023     		movs	r3, #0
 872              	.LVL101:
 873              	@ 419 "./os/kernel/src/chevents.c" 1
 874 0040 83F31188 		msr     BASEPRI, r3
 875              	@ 0 "" 2
 876              	.LVL102:
 877              		.thumb
 878              	.LBE30:
 879              		.loc 1 421 0
 880 0044 2046     		mov	r0, r4
 881 0046 70BD     		pop	{r4, r5, r6, pc}
 882              	.L49:
 883              		.align	2
 884              	.L48:
 885 0048 00000000 		.word	rlist
 886              		.cfi_endproc
 887              	.LFE19:
 888              		.size	chEvtWaitOneTimeout, .-chEvtWaitOneTimeout
 889 004c AFF30080 		.section	.text.chEvtWaitAnyTimeout,"ax",%progbits
 890              		.align	2
 891              		.p2align 4,,15
 892              		.global	chEvtWaitAnyTimeout
 893              		.thumb
 894              		.thumb_func
 895              		.type	chEvtWaitAnyTimeout, %function
 896              	chEvtWaitAnyTimeout:
 897              	.LFB20:
 898              		.loc 1 441 0
 899              		.cfi_startproc
 900              		@ args = 0, pretend = 0, frame = 0
 901              		@ frame_needed = 0, uses_anonymous_args = 0
 902              	.LVL103:
ARM GAS  /tmp/cctVHaAJ.s 			page 17


 903              		.loc 1 442 0
 904 0000 104B     		ldr	r3, .L56
 905              		.loc 1 441 0
 906 0002 70B5     		push	{r4, r5, r6, lr}
 907              	.LCFI11:
 908              		.cfi_def_cfa_offset 16
 909              		.cfi_offset 14, -4
 910              		.cfi_offset 6, -8
 911              		.cfi_offset 5, -12
 912              		.cfi_offset 4, -16
 913              		.loc 1 442 0
 914 0004 DE69     		ldr	r6, [r3, #28]
 915              	.LVL104:
 916              		.loc 1 441 0
 917 0006 0446     		mov	r4, r0
 918              	.LBB31:
 919              		.loc 1 445 0
 920 0008 2023     		movs	r3, #32
 921              	.LVL105:
 922              	@ 445 "./os/kernel/src/chevents.c" 1
 923 000a 83F31188 		msr     BASEPRI, r3
 924              	@ 0 "" 2
 925              	.LVL106:
 926              		.thumb
 927              	.LBE31:
 928              		.loc 1 447 0
 929 000e B36B     		ldr	r3, [r6, #56]
 930              	.LVL107:
 931 0010 10EA0305 		ands	r5, r0, r3
 932 0014 0ED1     		bne	.L51
 933              		.loc 1 448 0
 934 0016 21B9     		cbnz	r1, .L52
 935              	.LVL108:
 936              	.L55:
 937              	.LBB32:
 938              		.loc 1 454 0
 939 0018 2B46     		mov	r3, r5
 940              	.LVL109:
 941              	@ 454 "./os/kernel/src/chevents.c" 1
 942 001a 83F31188 		msr     BASEPRI, r3
 943              	@ 0 "" 2
 944              	.LVL110:
 945              		.thumb
 946              	.LBE32:
 947              		.loc 1 463 0
 948 001e 2846     		mov	r0, r5
 949 0020 70BD     		pop	{r4, r5, r6, pc}
 950              	.LVL111:
 951              	.L52:
 952              		.loc 1 452 0
 953 0022 7062     		str	r0, [r6, #36]
 954              		.loc 1 453 0
 955 0024 0820     		movs	r0, #8
 956 0026 FFF7FEFF 		bl	chSchGoSleepTimeoutS
 957              	.LVL112:
 958 002a 0028     		cmp	r0, #0
 959 002c F4DB     		blt	.L55
ARM GAS  /tmp/cctVHaAJ.s 			page 18


 960              		.loc 1 457 0
 961 002e B36B     		ldr	r3, [r6, #56]
 962 0030 04EA0305 		and	r5, r4, r3
 963              	.LVL113:
 964              	.L51:
 965              		.loc 1 459 0
 966 0034 23EA0500 		bic	r0, r3, r5
 967 0038 B063     		str	r0, [r6, #56]
 968              	.LBB33:
 969              		.loc 1 461 0
 970 003a 0023     		movs	r3, #0
 971              	.LVL114:
 972              	@ 461 "./os/kernel/src/chevents.c" 1
 973 003c 83F31188 		msr     BASEPRI, r3
 974              	@ 0 "" 2
 975              	.LVL115:
 976              		.thumb
 977              	.LBE33:
 978              		.loc 1 463 0
 979 0040 2846     		mov	r0, r5
 980 0042 70BD     		pop	{r4, r5, r6, pc}
 981              	.L57:
 982              		.align	2
 983              	.L56:
 984 0044 00000000 		.word	rlist
 985              		.cfi_endproc
 986              	.LFE20:
 987              		.size	chEvtWaitAnyTimeout, .-chEvtWaitAnyTimeout
 988 0048 AFF30080 		.section	.text.chEvtWaitAllTimeout,"ax",%progbits
 988      AFF30080 
 989              		.align	2
 990              		.p2align 4,,15
 991              		.global	chEvtWaitAllTimeout
 992              		.thumb
 993              		.thumb_func
 994              		.type	chEvtWaitAllTimeout, %function
 995              	chEvtWaitAllTimeout:
 996              	.LFB21:
 997              		.loc 1 482 0
 998              		.cfi_startproc
 999              		@ args = 0, pretend = 0, frame = 0
 1000              		@ frame_needed = 0, uses_anonymous_args = 0
 1001              	.LVL116:
 1002 0000 38B5     		push	{r3, r4, r5, lr}
 1003              	.LCFI12:
 1004              		.cfi_def_cfa_offset 16
 1005              		.cfi_offset 14, -4
 1006              		.cfi_offset 5, -8
 1007              		.cfi_offset 4, -12
 1008              		.cfi_offset 3, -16
 1009              		.loc 1 483 0
 1010 0002 134B     		ldr	r3, .L63
 1011              		.loc 1 482 0
 1012 0004 0446     		mov	r4, r0
 1013              		.loc 1 483 0
 1014 0006 DD69     		ldr	r5, [r3, #28]
 1015              	.LVL117:
ARM GAS  /tmp/cctVHaAJ.s 			page 19


 1016              	.LBB34:
 1017              		.loc 1 485 0
 1018 0008 2023     		movs	r3, #32
 1019              	.LVL118:
 1020              	@ 485 "./os/kernel/src/chevents.c" 1
 1021 000a 83F31188 		msr     BASEPRI, r3
 1022              	@ 0 "" 2
 1023              	.LVL119:
 1024              		.thumb
 1025              	.LBE34:
 1026              		.loc 1 487 0
 1027 000e AB6B     		ldr	r3, [r5, #56]
 1028              	.LVL120:
 1029 0010 00EA0302 		and	r2, r0, r3
 1030 0014 8242     		cmp	r2, r0
 1031 0016 0DD0     		beq	.L59
 1032              		.loc 1 488 0
 1033 0018 29B9     		cbnz	r1, .L60
 1034              	.LBB35:
 1035              		.loc 1 489 0
 1036 001a 0B46     		mov	r3, r1
 1037              	.LVL121:
 1038              	@ 489 "./os/kernel/src/chevents.c" 1
 1039 001c 83F31188 		msr     BASEPRI, r3
 1040              	@ 0 "" 2
 1041              	.LVL122:
 1042              		.thumb
 1043              	.LBE35:
 1044              		.loc 1 490 0
 1045 0020 0C46     		mov	r4, r1
 1046              		.loc 1 502 0
 1047 0022 2046     		mov	r0, r4
 1048              	.LVL123:
 1049 0024 38BD     		pop	{r3, r4, r5, pc}
 1050              	.LVL124:
 1051              	.L60:
 1052              		.loc 1 492 0
 1053 0026 6862     		str	r0, [r5, #36]
 1054              		.loc 1 493 0
 1055 0028 0920     		movs	r0, #9
 1056              	.LVL125:
 1057 002a FFF7FEFF 		bl	chSchGoSleepTimeoutS
 1058              	.LVL126:
 1059 002e 0028     		cmp	r0, #0
 1060 0030 08DB     		blt	.L62
 1061 0032 AB6B     		ldr	r3, [r5, #56]
 1062              	.L59:
 1063              		.loc 1 498 0
 1064 0034 23EA0400 		bic	r0, r3, r4
 1065 0038 A863     		str	r0, [r5, #56]
 1066              	.LBB36:
 1067              		.loc 1 500 0
 1068 003a 0023     		movs	r3, #0
 1069              	.LVL127:
 1070              	@ 500 "./os/kernel/src/chevents.c" 1
 1071 003c 83F31188 		msr     BASEPRI, r3
 1072              	@ 0 "" 2
ARM GAS  /tmp/cctVHaAJ.s 			page 20


 1073              	.LVL128:
 1074              		.thumb
 1075              	.L61:
 1076              	.LBE36:
 1077              		.loc 1 502 0
 1078 0040 2046     		mov	r0, r4
 1079 0042 38BD     		pop	{r3, r4, r5, pc}
 1080              	.LVL129:
 1081              	.L62:
 1082              	.LBB37:
 1083              		.loc 1 494 0
 1084 0044 0023     		movs	r3, #0
 1085              	@ 494 "./os/kernel/src/chevents.c" 1
 1086 0046 83F31188 		msr     BASEPRI, r3
 1087              	@ 0 "" 2
 1088              	.LVL130:
 1089              		.thumb
 1090              	.LBE37:
 1091              		.loc 1 495 0
 1092 004a 1C46     		mov	r4, r3
 1093              	.LVL131:
 1094 004c F8E7     		b	.L61
 1095              	.L64:
 1096 004e 00BF     		.align	2
 1097              	.L63:
 1098 0050 00000000 		.word	rlist
 1099              		.cfi_endproc
 1100              	.LFE21:
 1101              		.size	chEvtWaitAllTimeout, .-chEvtWaitAllTimeout
 1102 0054 AFF30080 		.text
 1102      AFF30080 
 1102      AFF30080 
 1103              	.Letext0:
 1104              		.file 2 "/usr/bin/../lib/gcc/arm-none-eabi/4.6.2/../../../../arm-none-eabi/include/stdint.h"
 1105              		.file 3 "./os/ports/GCC/ARMCMx/chtypes.h"
 1106              		.file 4 "./os/kernel/include/chlists.h"
 1107              		.file 5 "./os/kernel/include/chthreads.h"
 1108              		.file 6 "./os/ports/GCC/ARMCMx/chcore_v7m.h"
 1109              		.file 7 "./os/kernel/include/chschd.h"
 1110              		.file 8 "./os/kernel/include/chmtx.h"
 1111              		.file 9 "./os/kernel/include/chevents.h"