ARM GAS  /tmp/ccssfaEU.s 			page 1


   1              		.syntax unified
   2              		.cpu cortex-m4
   3              		.fpu softvfp
   4              		.eabi_attribute 20, 1
   5              		.eabi_attribute 21, 1
   6              		.eabi_attribute 23, 3
   7              		.eabi_attribute 24, 1
   8              		.eabi_attribute 25, 1
   9              		.eabi_attribute 26, 1
  10              		.eabi_attribute 30, 2
  11              		.eabi_attribute 34, 1
  12              		.eabi_attribute 18, 4
  13              		.thumb
  14              		.file	"chmboxes.c"
  15              		.text
  16              	.Ltext0:
  17              		.cfi_sections	.debug_frame
  18              		.section	.text.chMBInit,"ax",%progbits
  19              		.align	2
  20              		.p2align 4,,15
  21              		.global	chMBInit
  22              		.thumb
  23              		.thumb_func
  24              		.type	chMBInit, %function
  25              	chMBInit:
  26              	.LFB7:
  27              		.file 1 "./os/kernel/src/chmboxes.c"
  28              		.loc 1 72 0
  29              		.cfi_startproc
  30              		@ args = 0, pretend = 0, frame = 0
  31              		@ frame_needed = 0, uses_anonymous_args = 0
  32              	.LVL0:
  33 0000 38B5     		push	{r3, r4, r5, lr}
  34              	.LCFI0:
  35              		.cfi_def_cfa_offset 16
  36              		.cfi_offset 14, -4
  37              		.cfi_offset 5, -8
  38              		.cfi_offset 4, -12
  39              		.cfi_offset 3, -16
  40              		.loc 1 72 0
  41 0002 0446     		mov	r4, r0
  42 0004 0B46     		mov	r3, r1
  43              		.loc 1 77 0
  44 0006 01EB8205 		add	r5, r1, r2, lsl #2
  45              		.loc 1 78 0
  46 000a 00F11C00 		add	r0, r0, #28
  47              	.LVL1:
  48 000e 1146     		mov	r1, r2
  49              	.LVL2:
  50              		.loc 1 76 0
  51 0010 E360     		str	r3, [r4, #12]
  52 0012 A360     		str	r3, [r4, #8]
  53              		.loc 1 77 0
  54 0014 84E82800 		stmia	r4, {r3, r5}
  55              		.loc 1 78 0
  56 0018 FFF7FEFF 		bl	chSemInit
  57              	.LVL3:
ARM GAS  /tmp/ccssfaEU.s 			page 2


  58              		.loc 1 79 0
  59 001c 04F11000 		add	r0, r4, #16
  60 0020 0021     		movs	r1, #0
  61              		.loc 1 80 0
  62 0022 BDE83840 		pop	{r3, r4, r5, lr}
  63              		.loc 1 79 0
  64 0026 FFF7FEBF 		b	chSemInit
  65              		.cfi_endproc
  66              	.LFE7:
  67              		.size	chMBInit, .-chMBInit
  68 002a 00BFAFF3 		.section	.text.chMBReset,"ax",%progbits
  68      0080
  69              		.align	2
  70              		.p2align 4,,15
  71              		.global	chMBReset
  72              		.thumb
  73              		.thumb_func
  74              		.type	chMBReset, %function
  75              	chMBReset:
  76              	.LFB8:
  77              		.loc 1 91 0
  78              		.cfi_startproc
  79              		@ args = 0, pretend = 0, frame = 0
  80              		@ frame_needed = 0, uses_anonymous_args = 0
  81              	.LVL4:
  82 0000 10B5     		push	{r4, lr}
  83              	.LCFI1:
  84              		.cfi_def_cfa_offset 8
  85              		.cfi_offset 14, -4
  86              		.cfi_offset 4, -8
  87              	.LBB2:
  88              		.loc 1 95 0
  89 0002 2023     		movs	r3, #32
  90              	.LVL5:
  91              	.LBE2:
  92              		.loc 1 91 0
  93 0004 0446     		mov	r4, r0
  94              	.LBB3:
  95              		.loc 1 95 0
  96              	@ 95 "./os/kernel/src/chmboxes.c" 1
  97 0006 83F31188 		msr     BASEPRI, r3
  98              	@ 0 "" 2
  99              	.LVL6:
 100              		.thumb
 101              	.LBE3:
 102              		.loc 1 96 0
 103 000a 0368     		ldr	r3, [r0, #0]
 104              	.LVL7:
 105              		.loc 1 97 0
 106 000c 4068     		ldr	r0, [r0, #4]
 107              	.LVL8:
 108              		.loc 1 96 0
 109 000e E360     		str	r3, [r4, #12]
 110              		.loc 1 97 0
 111 0010 C11A     		subs	r1, r0, r3
 112              		.loc 1 96 0
 113 0012 A360     		str	r3, [r4, #8]
ARM GAS  /tmp/ccssfaEU.s 			page 3


 114              		.loc 1 97 0
 115 0014 8910     		asrs	r1, r1, #2
 116 0016 04F11C00 		add	r0, r4, #28
 117 001a FFF7FEFF 		bl	chSemResetI
 118              		.loc 1 98 0
 119 001e 04F11000 		add	r0, r4, #16
 120 0022 0021     		movs	r1, #0
 121 0024 FFF7FEFF 		bl	chSemResetI
 122              		.loc 1 99 0
 123 0028 FFF7FEFF 		bl	chSchRescheduleS
 124              	.LBB4:
 125              		.loc 1 100 0
 126 002c 0023     		movs	r3, #0
 127              	.LVL9:
 128              	@ 100 "./os/kernel/src/chmboxes.c" 1
 129 002e 83F31188 		msr     BASEPRI, r3
 130              	@ 0 "" 2
 131              	.LVL10:
 132              		.thumb
 133              	.LBE4:
 134              		.loc 1 101 0
 135 0032 10BD     		pop	{r4, pc}
 136              		.cfi_endproc
 137              	.LFE8:
 138              		.size	chMBReset, .-chMBReset
 139 0034 AFF30080 		.section	.text.chMBPostS,"ax",%progbits
 139      AFF30080 
 139      AFF30080 
 140              		.align	2
 141              		.p2align 4,,15
 142              		.global	chMBPostS
 143              		.thumb
 144              		.thumb_func
 145              		.type	chMBPostS, %function
 146              	chMBPostS:
 147              	.LFB10:
 148              		.loc 1 150 0
 149              		.cfi_startproc
 150              		@ args = 0, pretend = 0, frame = 0
 151              		@ frame_needed = 0, uses_anonymous_args = 0
 152              	.LVL11:
 153 0000 70B5     		push	{r4, r5, r6, lr}
 154              	.LCFI2:
 155              		.cfi_def_cfa_offset 16
 156              		.cfi_offset 14, -4
 157              		.cfi_offset 6, -8
 158              		.cfi_offset 5, -12
 159              		.cfi_offset 4, -16
 160              		.loc 1 150 0
 161 0002 0446     		mov	r4, r0
 162 0004 0D46     		mov	r5, r1
 163              		.loc 1 156 0
 164 0006 00F11C00 		add	r0, r0, #28
 165              	.LVL12:
 166 000a 1146     		mov	r1, r2
 167              	.LVL13:
 168 000c FFF7FEFF 		bl	chSemWaitTimeoutS
ARM GAS  /tmp/ccssfaEU.s 			page 4


 169              	.LVL14:
 170 0010 0646     		mov	r6, r0
 171              	.LVL15:
 172              		.loc 1 157 0
 173 0012 78B9     		cbnz	r0, .L4
 174              		.loc 1 158 0
 175 0014 A368     		ldr	r3, [r4, #8]
 176              		.loc 1 159 0
 177 0016 6268     		ldr	r2, [r4, #4]
 178              		.loc 1 158 0
 179 0018 43F8045B 		str	r5, [r3], #4
 180              		.loc 1 159 0
 181 001c 9342     		cmp	r3, r2
 182              		.loc 1 158 0
 183 001e A360     		str	r3, [r4, #8]
 184              		.loc 1 160 0
 185 0020 28BF     		it	cs
 186 0022 2368     		ldrcs	r3, [r4, #0]
 187              		.loc 1 161 0
 188 0024 04F11000 		add	r0, r4, #16
 189              	.LVL16:
 190              		.loc 1 160 0
 191 0028 28BF     		it	cs
 192 002a A360     		strcs	r3, [r4, #8]
 193              		.loc 1 161 0
 194 002c FFF7FEFF 		bl	chSemSignalI
 195              		.loc 1 162 0
 196 0030 FFF7FEFF 		bl	chSchRescheduleS
 197              	.L4:
 198              		.loc 1 165 0
 199 0034 3046     		mov	r0, r6
 200 0036 70BD     		pop	{r4, r5, r6, pc}
 201              		.cfi_endproc
 202              	.LFE10:
 203              		.size	chMBPostS, .-chMBPostS
 204 0038 AFF30080 		.section	.text.chMBPost,"ax",%progbits
 204      AFF30080 
 205              		.align	2
 206              		.p2align 4,,15
 207              		.global	chMBPost
 208              		.thumb
 209              		.thumb_func
 210              		.type	chMBPost, %function
 211              	chMBPost:
 212              	.LFB9:
 213              		.loc 1 122 0
 214              		.cfi_startproc
 215              		@ args = 0, pretend = 0, frame = 0
 216              		@ frame_needed = 0, uses_anonymous_args = 0
 217              	.LVL17:
 218 0000 08B5     		push	{r3, lr}
 219              	.LCFI3:
 220              		.cfi_def_cfa_offset 8
 221              		.cfi_offset 14, -4
 222              		.cfi_offset 3, -8
 223              	.LBB5:
 224              		.loc 1 125 0
ARM GAS  /tmp/ccssfaEU.s 			page 5


 225 0002 2023     		movs	r3, #32
 226              	.LVL18:
 227              	@ 125 "./os/kernel/src/chmboxes.c" 1
 228 0004 83F31188 		msr     BASEPRI, r3
 229              	@ 0 "" 2
 230              	.LVL19:
 231              		.thumb
 232              	.LBE5:
 233              		.loc 1 126 0
 234 0008 FFF7FEFF 		bl	chMBPostS
 235              	.LVL20:
 236              	.LBB6:
 237              		.loc 1 127 0
 238 000c 0023     		movs	r3, #0
 239              	.LVL21:
 240              	@ 127 "./os/kernel/src/chmboxes.c" 1
 241 000e 83F31188 		msr     BASEPRI, r3
 242              	@ 0 "" 2
 243              	.LVL22:
 244              		.thumb
 245              	.LBE6:
 246              		.loc 1 129 0
 247 0012 08BD     		pop	{r3, pc}
 248              		.cfi_endproc
 249              	.LFE9:
 250              		.size	chMBPost, .-chMBPost
 251 0014 AFF30080 		.section	.text.chMBPostI,"ax",%progbits
 251      AFF30080 
 251      AFF30080 
 252              		.align	2
 253              		.p2align 4,,15
 254              		.global	chMBPostI
 255              		.thumb
 256              		.thumb_func
 257              		.type	chMBPostI, %function
 258              	chMBPostI:
 259              	.LFB11:
 260              		.loc 1 181 0
 261              		.cfi_startproc
 262              		@ args = 0, pretend = 0, frame = 0
 263              		@ frame_needed = 0, uses_anonymous_args = 0
 264              	.LVL23:
 265              		.loc 1 186 0
 266 0000 436A     		ldr	r3, [r0, #36]
 267 0002 002B     		cmp	r3, #0
 268              		.loc 1 181 0
 269 0004 10B5     		push	{r4, lr}
 270              	.LCFI4:
 271              		.cfi_def_cfa_offset 8
 272              		.cfi_offset 14, -4
 273              		.cfi_offset 4, -8
 274              		.loc 1 186 0
 275 0006 10DD     		ble	.L11
 276              		.loc 1 189 0
 277 0008 8268     		ldr	r2, [r0, #8]
 278              		.loc 1 190 0
 279 000a 4468     		ldr	r4, [r0, #4]
ARM GAS  /tmp/ccssfaEU.s 			page 6


 280              		.loc 1 188 0
 281 000c 013B     		subs	r3, r3, #1
 282 000e 4362     		str	r3, [r0, #36]
 283              		.loc 1 189 0
 284 0010 42F8041B 		str	r1, [r2], #4
 285              		.loc 1 190 0
 286 0014 A242     		cmp	r2, r4
 287              		.loc 1 191 0
 288 0016 28BF     		it	cs
 289 0018 0368     		ldrcs	r3, [r0, #0]
 290              		.loc 1 189 0
 291 001a 8260     		str	r2, [r0, #8]
 292              		.loc 1 191 0
 293 001c 28BF     		it	cs
 294 001e 8360     		strcs	r3, [r0, #8]
 295              		.loc 1 192 0
 296 0020 1030     		adds	r0, r0, #16
 297              	.LVL24:
 298 0022 FFF7FEFF 		bl	chSemSignalI
 299              	.LVL25:
 300              		.loc 1 193 0
 301 0026 0020     		movs	r0, #0
 302 0028 10BD     		pop	{r4, pc}
 303              	.LVL26:
 304              	.L11:
 305              		.loc 1 187 0
 306 002a 4FF0FF30 		mov	r0, #-1
 307              	.LVL27:
 308              		.loc 1 194 0
 309 002e 10BD     		pop	{r4, pc}
 310              		.cfi_endproc
 311              	.LFE11:
 312              		.size	chMBPostI, .-chMBPostI
 313              		.section	.text.chMBPostAheadS,"ax",%progbits
 314              		.align	2
 315              		.p2align 4,,15
 316              		.global	chMBPostAheadS
 317              		.thumb
 318              		.thumb_func
 319              		.type	chMBPostAheadS, %function
 320              	chMBPostAheadS:
 321              	.LFB13:
 322              		.loc 1 243 0
 323              		.cfi_startproc
 324              		@ args = 0, pretend = 0, frame = 0
 325              		@ frame_needed = 0, uses_anonymous_args = 0
 326              	.LVL28:
 327 0000 70B5     		push	{r4, r5, r6, lr}
 328              	.LCFI5:
 329              		.cfi_def_cfa_offset 16
 330              		.cfi_offset 14, -4
 331              		.cfi_offset 6, -8
 332              		.cfi_offset 5, -12
 333              		.cfi_offset 4, -16
 334              		.loc 1 243 0
 335 0002 0446     		mov	r4, r0
 336 0004 0D46     		mov	r5, r1
ARM GAS  /tmp/ccssfaEU.s 			page 7


 337              		.loc 1 249 0
 338 0006 00F11C00 		add	r0, r0, #28
 339              	.LVL29:
 340 000a 1146     		mov	r1, r2
 341              	.LVL30:
 342 000c FFF7FEFF 		bl	chSemWaitTimeoutS
 343              	.LVL31:
 344 0010 0646     		mov	r6, r0
 345              	.LVL32:
 346              		.loc 1 250 0
 347 0012 60B9     		cbnz	r0, .L13
 348              		.loc 1 251 0
 349 0014 E368     		ldr	r3, [r4, #12]
 350 0016 2268     		ldr	r2, [r4, #0]
 351 0018 043B     		subs	r3, r3, #4
 352 001a 9342     		cmp	r3, r2
 353 001c E360     		str	r3, [r4, #12]
 354 001e 08D3     		bcc	.L15
 355              	.LVL33:
 356              	.L14:
 357              		.loc 1 254 0
 358 0020 04F11000 		add	r0, r4, #16
 359              		.loc 1 253 0
 360 0024 1D60     		str	r5, [r3, #0]
 361              		.loc 1 254 0
 362 0026 FFF7FEFF 		bl	chSemSignalI
 363              		.loc 1 255 0
 364 002a FFF7FEFF 		bl	chSchRescheduleS
 365              	.L13:
 366              		.loc 1 258 0
 367 002e 3046     		mov	r0, r6
 368 0030 70BD     		pop	{r4, r5, r6, pc}
 369              	.L15:
 370              		.loc 1 252 0
 371 0032 6068     		ldr	r0, [r4, #4]
 372 0034 031F     		subs	r3, r0, #4
 373 0036 E360     		str	r3, [r4, #12]
 374 0038 F2E7     		b	.L14
 375              		.cfi_endproc
 376              	.LFE13:
 377              		.size	chMBPostAheadS, .-chMBPostAheadS
 378 003a 00BFAFF3 		.section	.text.chMBPostAhead,"ax",%progbits
 378      0080
 379              		.align	2
 380              		.p2align 4,,15
 381              		.global	chMBPostAhead
 382              		.thumb
 383              		.thumb_func
 384              		.type	chMBPostAhead, %function
 385              	chMBPostAhead:
 386              	.LFB12:
 387              		.loc 1 215 0
 388              		.cfi_startproc
 389              		@ args = 0, pretend = 0, frame = 0
 390              		@ frame_needed = 0, uses_anonymous_args = 0
 391              	.LVL34:
 392 0000 08B5     		push	{r3, lr}
ARM GAS  /tmp/ccssfaEU.s 			page 8


 393              	.LCFI6:
 394              		.cfi_def_cfa_offset 8
 395              		.cfi_offset 14, -4
 396              		.cfi_offset 3, -8
 397              	.LBB7:
 398              		.loc 1 218 0
 399 0002 2023     		movs	r3, #32
 400              	.LVL35:
 401              	@ 218 "./os/kernel/src/chmboxes.c" 1
 402 0004 83F31188 		msr     BASEPRI, r3
 403              	@ 0 "" 2
 404              	.LVL36:
 405              		.thumb
 406              	.LBE7:
 407              		.loc 1 219 0
 408 0008 FFF7FEFF 		bl	chMBPostAheadS
 409              	.LVL37:
 410              	.LBB8:
 411              		.loc 1 220 0
 412 000c 0023     		movs	r3, #0
 413              	.LVL38:
 414              	@ 220 "./os/kernel/src/chmboxes.c" 1
 415 000e 83F31188 		msr     BASEPRI, r3
 416              	@ 0 "" 2
 417              	.LVL39:
 418              		.thumb
 419              	.LBE8:
 420              		.loc 1 222 0
 421 0012 08BD     		pop	{r3, pc}
 422              		.cfi_endproc
 423              	.LFE12:
 424              		.size	chMBPostAhead, .-chMBPostAhead
 425 0014 AFF30080 		.section	.text.chMBPostAheadI,"ax",%progbits
 425      AFF30080 
 425      AFF30080 
 426              		.align	2
 427              		.p2align 4,,15
 428              		.global	chMBPostAheadI
 429              		.thumb
 430              		.thumb_func
 431              		.type	chMBPostAheadI, %function
 432              	chMBPostAheadI:
 433              	.LFB14:
 434              		.loc 1 274 0
 435              		.cfi_startproc
 436              		@ args = 0, pretend = 0, frame = 0
 437              		@ frame_needed = 0, uses_anonymous_args = 0
 438              	.LVL40:
 439              		.loc 1 279 0
 440 0000 436A     		ldr	r3, [r0, #36]
 441 0002 002B     		cmp	r3, #0
 442              		.loc 1 274 0
 443 0004 10B5     		push	{r4, lr}
 444              	.LCFI7:
 445              		.cfi_def_cfa_offset 8
 446              		.cfi_offset 14, -4
 447              		.cfi_offset 4, -8
ARM GAS  /tmp/ccssfaEU.s 			page 9


 448              		.loc 1 279 0
 449 0006 10DD     		ble	.L20
 450              		.loc 1 282 0
 451 0008 C268     		ldr	r2, [r0, #12]
 452 000a 0468     		ldr	r4, [r0, #0]
 453 000c 043A     		subs	r2, r2, #4
 454              		.loc 1 281 0
 455 000e 013B     		subs	r3, r3, #1
 456              		.loc 1 282 0
 457 0010 A242     		cmp	r2, r4
 458              		.loc 1 281 0
 459 0012 4362     		str	r3, [r0, #36]
 460              		.loc 1 282 0
 461 0014 C260     		str	r2, [r0, #12]
 462 0016 02D2     		bcs	.L19
 463              		.loc 1 283 0
 464 0018 4368     		ldr	r3, [r0, #4]
 465 001a 1A1F     		subs	r2, r3, #4
 466 001c C260     		str	r2, [r0, #12]
 467              	.L19:
 468              		.loc 1 285 0
 469 001e 1030     		adds	r0, r0, #16
 470              	.LVL41:
 471              		.loc 1 284 0
 472 0020 1160     		str	r1, [r2, #0]
 473              		.loc 1 285 0
 474 0022 FFF7FEFF 		bl	chSemSignalI
 475              	.LVL42:
 476              		.loc 1 286 0
 477 0026 0020     		movs	r0, #0
 478 0028 10BD     		pop	{r4, pc}
 479              	.LVL43:
 480              	.L20:
 481              		.loc 1 280 0
 482 002a 4FF0FF30 		mov	r0, #-1
 483              	.LVL44:
 484              		.loc 1 287 0
 485 002e 10BD     		pop	{r4, pc}
 486              		.cfi_endproc
 487              	.LFE14:
 488              		.size	chMBPostAheadI, .-chMBPostAheadI
 489              		.section	.text.chMBFetchS,"ax",%progbits
 490              		.align	2
 491              		.p2align 4,,15
 492              		.global	chMBFetchS
 493              		.thumb
 494              		.thumb_func
 495              		.type	chMBFetchS, %function
 496              	chMBFetchS:
 497              	.LFB16:
 498              		.loc 1 336 0
 499              		.cfi_startproc
 500              		@ args = 0, pretend = 0, frame = 0
 501              		@ frame_needed = 0, uses_anonymous_args = 0
 502              	.LVL45:
 503 0000 70B5     		push	{r4, r5, r6, lr}
 504              	.LCFI8:
ARM GAS  /tmp/ccssfaEU.s 			page 10


 505              		.cfi_def_cfa_offset 16
 506              		.cfi_offset 14, -4
 507              		.cfi_offset 6, -8
 508              		.cfi_offset 5, -12
 509              		.cfi_offset 4, -16
 510              		.loc 1 336 0
 511 0002 0446     		mov	r4, r0
 512 0004 0D46     		mov	r5, r1
 513              		.loc 1 342 0
 514 0006 00F11000 		add	r0, r0, #16
 515              	.LVL46:
 516 000a 1146     		mov	r1, r2
 517              	.LVL47:
 518 000c FFF7FEFF 		bl	chSemWaitTimeoutS
 519              	.LVL48:
 520 0010 0646     		mov	r6, r0
 521              	.LVL49:
 522              		.loc 1 343 0
 523 0012 80B9     		cbnz	r0, .L22
 524              		.loc 1 344 0
 525 0014 E368     		ldr	r3, [r4, #12]
 526              		.loc 1 345 0
 527 0016 6268     		ldr	r2, [r4, #4]
 528              		.loc 1 344 0
 529 0018 53F8041B 		ldr	r1, [r3], #4
 530              		.loc 1 345 0
 531 001c 9342     		cmp	r3, r2
 532              		.loc 1 344 0
 533 001e 2960     		str	r1, [r5, #0]
 534 0020 E360     		str	r3, [r4, #12]
 535              		.loc 1 346 0
 536 0022 28BF     		it	cs
 537 0024 2368     		ldrcs	r3, [r4, #0]
 538              		.loc 1 347 0
 539 0026 04F11C00 		add	r0, r4, #28
 540              	.LVL50:
 541              		.loc 1 346 0
 542 002a 28BF     		it	cs
 543 002c E360     		strcs	r3, [r4, #12]
 544              		.loc 1 347 0
 545 002e FFF7FEFF 		bl	chSemSignalI
 546              		.loc 1 348 0
 547 0032 FFF7FEFF 		bl	chSchRescheduleS
 548              	.L22:
 549              		.loc 1 351 0
 550 0036 3046     		mov	r0, r6
 551 0038 70BD     		pop	{r4, r5, r6, pc}
 552              		.cfi_endproc
 553              	.LFE16:
 554              		.size	chMBFetchS, .-chMBFetchS
 555 003a 00BFAFF3 		.section	.text.chMBFetch,"ax",%progbits
 555      0080
 556              		.align	2
 557              		.p2align 4,,15
 558              		.global	chMBFetch
 559              		.thumb
 560              		.thumb_func
ARM GAS  /tmp/ccssfaEU.s 			page 11


 561              		.type	chMBFetch, %function
 562              	chMBFetch:
 563              	.LFB15:
 564              		.loc 1 308 0
 565              		.cfi_startproc
 566              		@ args = 0, pretend = 0, frame = 0
 567              		@ frame_needed = 0, uses_anonymous_args = 0
 568              	.LVL51:
 569 0000 08B5     		push	{r3, lr}
 570              	.LCFI9:
 571              		.cfi_def_cfa_offset 8
 572              		.cfi_offset 14, -4
 573              		.cfi_offset 3, -8
 574              	.LBB9:
 575              		.loc 1 311 0
 576 0002 2023     		movs	r3, #32
 577              	.LVL52:
 578              	@ 311 "./os/kernel/src/chmboxes.c" 1
 579 0004 83F31188 		msr     BASEPRI, r3
 580              	@ 0 "" 2
 581              	.LVL53:
 582              		.thumb
 583              	.LBE9:
 584              		.loc 1 312 0
 585 0008 FFF7FEFF 		bl	chMBFetchS
 586              	.LVL54:
 587              	.LBB10:
 588              		.loc 1 313 0
 589 000c 0023     		movs	r3, #0
 590              	.LVL55:
 591              	@ 313 "./os/kernel/src/chmboxes.c" 1
 592 000e 83F31188 		msr     BASEPRI, r3
 593              	@ 0 "" 2
 594              	.LVL56:
 595              		.thumb
 596              	.LBE10:
 597              		.loc 1 315 0
 598 0012 08BD     		pop	{r3, pc}
 599              		.cfi_endproc
 600              	.LFE15:
 601              		.size	chMBFetch, .-chMBFetch
 602 0014 AFF30080 		.section	.text.chMBFetchI,"ax",%progbits
 602      AFF30080 
 602      AFF30080 
 603              		.align	2
 604              		.p2align 4,,15
 605              		.global	chMBFetchI
 606              		.thumb
 607              		.thumb_func
 608              		.type	chMBFetchI, %function
 609              	chMBFetchI:
 610              	.LFB17:
 611              		.loc 1 367 0
 612              		.cfi_startproc
 613              		@ args = 0, pretend = 0, frame = 0
 614              		@ frame_needed = 0, uses_anonymous_args = 0
 615              	.LVL57:
ARM GAS  /tmp/ccssfaEU.s 			page 12


 616              		.loc 1 372 0
 617 0000 8369     		ldr	r3, [r0, #24]
 618 0002 002B     		cmp	r3, #0
 619              		.loc 1 367 0
 620 0004 10B5     		push	{r4, lr}
 621              	.LCFI10:
 622              		.cfi_def_cfa_offset 8
 623              		.cfi_offset 14, -4
 624              		.cfi_offset 4, -8
 625              		.loc 1 372 0
 626 0006 11DD     		ble	.L28
 627              		.loc 1 375 0
 628 0008 C268     		ldr	r2, [r0, #12]
 629              		.loc 1 376 0
 630 000a 4468     		ldr	r4, [r0, #4]
 631              		.loc 1 374 0
 632 000c 013B     		subs	r3, r3, #1
 633 000e 8361     		str	r3, [r0, #24]
 634              		.loc 1 375 0
 635 0010 52F8043B 		ldr	r3, [r2], #4
 636              		.loc 1 376 0
 637 0014 A242     		cmp	r2, r4
 638              		.loc 1 375 0
 639 0016 0B60     		str	r3, [r1, #0]
 640              		.loc 1 377 0
 641 0018 28BF     		it	cs
 642 001a 0368     		ldrcs	r3, [r0, #0]
 643              		.loc 1 375 0
 644 001c C260     		str	r2, [r0, #12]
 645              		.loc 1 377 0
 646 001e 28BF     		it	cs
 647 0020 C360     		strcs	r3, [r0, #12]
 648              		.loc 1 378 0
 649 0022 1C30     		adds	r0, r0, #28
 650              	.LVL58:
 651 0024 FFF7FEFF 		bl	chSemSignalI
 652              	.LVL59:
 653              		.loc 1 379 0
 654 0028 0020     		movs	r0, #0
 655 002a 10BD     		pop	{r4, pc}
 656              	.LVL60:
 657              	.L28:
 658              		.loc 1 373 0
 659 002c 4FF0FF30 		mov	r0, #-1
 660              	.LVL61:
 661              		.loc 1 380 0
 662 0030 10BD     		pop	{r4, pc}
 663              		.cfi_endproc
 664              	.LFE17:
 665              		.size	chMBFetchI, .-chMBFetchI
 666 0032 00BFAFF3 		.text
 666      0080AFF3 
 666      0080AFF3 
 666      0080
 667              	.Letext0:
 668              		.file 2 "/usr/bin/../lib/gcc/arm-none-eabi/4.6.2/../../../../arm-none-eabi/include/stdint.h"
 669              		.file 3 "./os/ports/GCC/ARMCMx/chtypes.h"
ARM GAS  /tmp/ccssfaEU.s 			page 13


 670              		.file 4 "./os/kernel/include/chlists.h"
 671              		.file 5 "./os/kernel/include/chthreads.h"
 672              		.file 6 "./os/ports/GCC/ARMCMx/chcore_v7m.h"
 673              		.file 7 "./os/kernel/include/chsem.h"
 674              		.file 8 "./os/kernel/include/chmtx.h"
 675              		.file 9 "./os/kernel/include/chmboxes.h"