ARM GAS  /tmp/ccDDnQVi.s 			page 1


   1              		.syntax unified
   2              		.cpu cortex-m4
   3              		.fpu softvfp
   4              		.eabi_attribute 20, 1
   5              		.eabi_attribute 21, 1
   6              		.eabi_attribute 23, 3
   7              		.eabi_attribute 24, 1
   8              		.eabi_attribute 25, 1
   9              		.eabi_attribute 26, 1
  10              		.eabi_attribute 30, 2
  11              		.eabi_attribute 34, 1
  12              		.eabi_attribute 18, 4
  13              		.thumb
  14              		.file	"chmempools.c"
  15              		.text
  16              	.Ltext0:
  17              		.cfi_sections	.debug_frame
  18              		.section	.text.chPoolInit,"ax",%progbits
  19              		.align	2
  20              		.p2align 4,,15
  21              		.global	chPoolInit
  22              		.thumb
  23              		.thumb_func
  24              		.type	chPoolInit, %function
  25              	chPoolInit:
  26              	.LFB7:
  27              		.file 1 "./os/kernel/src/chmempools.c"
  28              		.loc 1 61 0
  29              		.cfi_startproc
  30              		@ args = 0, pretend = 0, frame = 0
  31              		@ frame_needed = 0, uses_anonymous_args = 0
  32              		@ link register save eliminated.
  33              	.LVL0:
  34              		.loc 1 66 0
  35 0000 0731     		adds	r1, r1, #7
  36              	.LVL1:
  37 0002 21F00701 		bic	r1, r1, #7
  38              	.LVL2:
  39              		.loc 1 65 0
  40 0006 0023     		movs	r3, #0
  41 0008 0360     		str	r3, [r0, #0]
  42              		.loc 1 66 0
  43 000a 4160     		str	r1, [r0, #4]
  44              		.loc 1 67 0
  45 000c 8260     		str	r2, [r0, #8]
  46 000e 7047     		bx	lr
  47              		.cfi_endproc
  48              	.LFE7:
  49              		.size	chPoolInit, .-chPoolInit
  50              		.section	.text.chPoolAllocI,"ax",%progbits
  51              		.align	2
  52              		.p2align 4,,15
  53              		.global	chPoolAllocI
  54              		.thumb
  55              		.thumb_func
  56              		.type	chPoolAllocI, %function
  57              	chPoolAllocI:
ARM GAS  /tmp/ccDDnQVi.s 			page 2


  58              	.LFB8:
  59              		.loc 1 79 0
  60              		.cfi_startproc
  61              		@ args = 0, pretend = 0, frame = 0
  62              		@ frame_needed = 0, uses_anonymous_args = 0
  63              	.LVL3:
  64 0000 08B5     		push	{r3, lr}
  65              	.LCFI0:
  66              		.cfi_def_cfa_offset 8
  67              		.cfi_offset 3, -8
  68              		.cfi_offset 14, -4
  69              		.loc 1 79 0
  70 0002 0346     		mov	r3, r0
  71              		.loc 1 85 0
  72 0004 0068     		ldr	r0, [r0, #0]
  73              	.LVL4:
  74 0006 10B1     		cbz	r0, .L3
  75              		.loc 1 86 0
  76 0008 0268     		ldr	r2, [r0, #0]
  77 000a 1A60     		str	r2, [r3, #0]
  78 000c 08BD     		pop	{r3, pc}
  79              	.L3:
  80              		.loc 1 87 0
  81 000e 9A68     		ldr	r2, [r3, #8]
  82 0010 0AB1     		cbz	r2, .L4
  83              		.loc 1 88 0
  84 0012 5868     		ldr	r0, [r3, #4]
  85              	.LVL5:
  86 0014 9047     		blx	r2
  87              	.LVL6:
  88              	.L4:
  89              		.loc 1 90 0
  90 0016 08BD     		pop	{r3, pc}
  91              		.cfi_endproc
  92              	.LFE8:
  93              		.size	chPoolAllocI, .-chPoolAllocI
  94 0018 AFF30080 		.section	.text.chPoolAlloc,"ax",%progbits
  94      AFF30080 
  95              		.align	2
  96              		.p2align 4,,15
  97              		.global	chPoolAlloc
  98              		.thumb
  99              		.thumb_func
 100              		.type	chPoolAlloc, %function
 101              	chPoolAlloc:
 102              	.LFB9:
 103              		.loc 1 101 0
 104              		.cfi_startproc
 105              		@ args = 0, pretend = 0, frame = 0
 106              		@ frame_needed = 0, uses_anonymous_args = 0
 107              	.LVL7:
 108 0000 08B5     		push	{r3, lr}
 109              	.LCFI1:
 110              		.cfi_def_cfa_offset 8
 111              		.cfi_offset 3, -8
 112              		.cfi_offset 14, -4
 113              		.loc 1 101 0
ARM GAS  /tmp/ccDDnQVi.s 			page 3


 114 0002 0246     		mov	r2, r0
 115              	.LBB10:
 116              		.loc 1 104 0
 117 0004 2023     		movs	r3, #32
 118              	.LVL8:
 119              	@ 104 "./os/kernel/src/chmempools.c" 1
 120 0006 83F31188 		msr     BASEPRI, r3
 121              	@ 0 "" 2
 122              	.LVL9:
 123              		.thumb
 124              	.LBE10:
 125              	.LBB11:
 126              	.LBB12:
 127              		.loc 1 85 0
 128 000a 0068     		ldr	r0, [r0, #0]
 129              	.LVL10:
 130 000c 28B1     		cbz	r0, .L10
 131              		.loc 1 86 0
 132 000e 0368     		ldr	r3, [r0, #0]
 133              	.LVL11:
 134 0010 1360     		str	r3, [r2, #0]
 135              	.LVL12:
 136              	.L11:
 137              	.LBE12:
 138              	.LBE11:
 139              	.LBB14:
 140              		.loc 1 106 0
 141 0012 0023     		movs	r3, #0
 142              	.LVL13:
 143              	@ 106 "./os/kernel/src/chmempools.c" 1
 144 0014 83F31188 		msr     BASEPRI, r3
 145              	@ 0 "" 2
 146              	.LVL14:
 147              		.thumb
 148              	.LBE14:
 149              		.loc 1 108 0
 150 0018 08BD     		pop	{r3, pc}
 151              	.LVL15:
 152              	.L10:
 153              	.LBB15:
 154              	.LBB13:
 155              		.loc 1 87 0
 156 001a 9368     		ldr	r3, [r2, #8]
 157              	.LVL16:
 158 001c 002B     		cmp	r3, #0
 159 001e F8D0     		beq	.L11
 160              		.loc 1 88 0
 161 0020 5068     		ldr	r0, [r2, #4]
 162              	.LVL17:
 163 0022 9847     		blx	r3
 164              	.LVL18:
 165 0024 F5E7     		b	.L11
 166              	.LBE13:
 167              	.LBE15:
 168              		.cfi_endproc
 169              	.LFE9:
 170              		.size	chPoolAlloc, .-chPoolAlloc
ARM GAS  /tmp/ccDDnQVi.s 			page 4


 171              		.section	.text.chPoolFreeI,"ax",%progbits
 172              		.align	2
 173              		.p2align 4,,15
 174              		.global	chPoolFreeI
 175              		.thumb
 176              		.thumb_func
 177              		.type	chPoolFreeI, %function
 178              	chPoolFreeI:
 179              	.LFB10:
 180              		.loc 1 122 0
 181              		.cfi_startproc
 182              		@ args = 0, pretend = 0, frame = 0
 183              		@ frame_needed = 0, uses_anonymous_args = 0
 184              		@ link register save eliminated.
 185              	.LVL19:
 186              		.loc 1 129 0
 187 0000 0368     		ldr	r3, [r0, #0]
 188 0002 0B60     		str	r3, [r1, #0]
 189              		.loc 1 130 0
 190 0004 0160     		str	r1, [r0, #0]
 191 0006 7047     		bx	lr
 192              		.cfi_endproc
 193              	.LFE10:
 194              		.size	chPoolFreeI, .-chPoolFreeI
 195 0008 AFF30080 		.section	.text.chPoolFree,"ax",%progbits
 195      AFF30080 
 196              		.align	2
 197              		.p2align 4,,15
 198              		.global	chPoolFree
 199              		.thumb
 200              		.thumb_func
 201              		.type	chPoolFree, %function
 202              	chPoolFree:
 203              	.LFB11:
 204              		.loc 1 145 0
 205              		.cfi_startproc
 206              		@ args = 0, pretend = 0, frame = 0
 207              		@ frame_needed = 0, uses_anonymous_args = 0
 208              		@ link register save eliminated.
 209              	.LVL20:
 210              	.LBB16:
 211              		.loc 1 147 0
 212 0000 2023     		movs	r3, #32
 213              	.LVL21:
 214              	@ 147 "./os/kernel/src/chmempools.c" 1
 215 0002 83F31188 		msr     BASEPRI, r3
 216              	@ 0 "" 2
 217              	.LVL22:
 218              		.thumb
 219              	.LBE16:
 220              	.LBB17:
 221              	.LBB18:
 222              		.loc 1 129 0
 223 0006 0268     		ldr	r2, [r0, #0]
 224              	.LBE18:
 225              	.LBE17:
 226              	.LBB20:
ARM GAS  /tmp/ccDDnQVi.s 			page 5


 227              		.loc 1 149 0
 228 0008 0023     		movs	r3, #0
 229              	.LVL23:
 230              	.LBE20:
 231              	.LBB21:
 232              	.LBB19:
 233              		.loc 1 129 0
 234 000a 0A60     		str	r2, [r1, #0]
 235              		.loc 1 130 0
 236 000c 0160     		str	r1, [r0, #0]
 237              	.LBE19:
 238              	.LBE21:
 239              	.LBB22:
 240              		.loc 1 149 0
 241              	@ 149 "./os/kernel/src/chmempools.c" 1
 242 000e 83F31188 		msr     BASEPRI, r3
 243              	@ 0 "" 2
 244              	.LVL24:
 245              		.thumb
 246 0012 7047     		bx	lr
 247              	.LBE22:
 248              		.cfi_endproc
 249              	.LFE11:
 250              		.size	chPoolFree, .-chPoolFree
 251 0014 AFF30080 		.text
 251      AFF30080 
 251      AFF30080 
 252              	.Letext0:
 253              		.file 2 "/home/mitchd/Documents/FOX-1/amsat-fox/x86_64-toolchain/arm/bin/../lib/gcc/arm-none-eabi/
 254              		.file 3 "/home/mitchd/Documents/FOX-1/amsat-fox/x86_64-toolchain/arm/bin/../lib/gcc/arm-none-eabi/
 255              		.file 4 "./os/kernel/include/chmemcore.h"
 256              		.file 5 "./os/kernel/include/chmempools.h"
 257              		.section	.debug_info,"",%progbits
 258              	.Ldebug_info0:
 259 0000 31030000 		.4byte	0x331
 260 0004 0200     		.2byte	0x2
 261 0006 00000000 		.4byte	.Ldebug_abbrev0
 262 000a 04       		.byte	0x4
 263 000b 01       		.uleb128 0x1
 264 000c FC000000 		.4byte	.LASF22
 265 0010 01       		.byte	0x1
 266 0011 16000000 		.4byte	.LASF23
 267 0015 37010000 		.4byte	.LASF24
 268 0019 78000000 		.4byte	.Ldebug_ranges0+0x78
 269 001d 00000000 		.4byte	0
 270 0021 00000000 		.4byte	0
 271 0025 00000000 		.4byte	.Ldebug_line0
 272 0029 02       		.uleb128 0x2
 273 002a 04       		.byte	0x4
 274 002b 05       		.byte	0x5
 275 002c 696E7400 		.ascii	"int\000"
 276 0030 03       		.uleb128 0x3
 277 0031 00000000 		.4byte	.LASF6
 278 0035 02       		.byte	0x2
 279 0036 D5       		.byte	0xd5
 280 0037 3B000000 		.4byte	0x3b
 281 003b 04       		.uleb128 0x4
ARM GAS  /tmp/ccDDnQVi.s 			page 6


 282 003c 04       		.byte	0x4
 283 003d 07       		.byte	0x7
 284 003e A8000000 		.4byte	.LASF0
 285 0042 04       		.uleb128 0x4
 286 0043 01       		.byte	0x1
 287 0044 06       		.byte	0x6
 288 0045 7E010000 		.4byte	.LASF1
 289 0049 04       		.uleb128 0x4
 290 004a 01       		.byte	0x1
 291 004b 08       		.byte	0x8
 292 004c 72000000 		.4byte	.LASF2
 293 0050 04       		.uleb128 0x4
 294 0051 02       		.byte	0x2
 295 0052 05       		.byte	0x5
 296 0053 21010000 		.4byte	.LASF3
 297 0057 04       		.uleb128 0x4
 298 0058 02       		.byte	0x2
 299 0059 07       		.byte	0x7
 300 005a 4A000000 		.4byte	.LASF4
 301 005e 04       		.uleb128 0x4
 302 005f 04       		.byte	0x4
 303 0060 05       		.byte	0x5
 304 0061 75010000 		.4byte	.LASF5
 305 0065 03       		.uleb128 0x3
 306 0066 6C010000 		.4byte	.LASF7
 307 006a 03       		.byte	0x3
 308 006b 50       		.byte	0x50
 309 006c 70000000 		.4byte	0x70
 310 0070 04       		.uleb128 0x4
 311 0071 04       		.byte	0x4
 312 0072 07       		.byte	0x7
 313 0073 38000000 		.4byte	.LASF8
 314 0077 04       		.uleb128 0x4
 315 0078 08       		.byte	0x8
 316 0079 05       		.byte	0x5
 317 007a E9000000 		.4byte	.LASF9
 318 007e 04       		.uleb128 0x4
 319 007f 08       		.byte	0x8
 320 0080 07       		.byte	0x7
 321 0081 B5000000 		.4byte	.LASF10
 322 0085 05       		.uleb128 0x5
 323 0086 04       		.byte	0x4
 324 0087 04       		.uleb128 0x4
 325 0088 04       		.byte	0x4
 326 0089 07       		.byte	0x7
 327 008a D4000000 		.4byte	.LASF11
 328 008e 03       		.uleb128 0x3
 329 008f 08010000 		.4byte	.LASF12
 330 0093 04       		.byte	0x4
 331 0094 2C       		.byte	0x2c
 332 0095 99000000 		.4byte	0x99
 333 0099 06       		.uleb128 0x6
 334 009a 04       		.byte	0x4
 335 009b 9F000000 		.4byte	0x9f
 336 009f 07       		.uleb128 0x7
 337 00a0 01       		.byte	0x1
 338 00a1 85000000 		.4byte	0x85
ARM GAS  /tmp/ccDDnQVi.s 			page 7


 339 00a5 AF000000 		.4byte	0xaf
 340 00a9 08       		.uleb128 0x8
 341 00aa 30000000 		.4byte	0x30
 342 00ae 00       		.byte	0
 343 00af 09       		.uleb128 0x9
 344 00b0 DD000000 		.4byte	.LASF25
 345 00b4 04       		.byte	0x4
 346 00b5 05       		.byte	0x5
 347 00b6 2C       		.byte	0x2c
 348 00b7 CA000000 		.4byte	0xca
 349 00bb 0A       		.uleb128 0xa
 350 00bc CC000000 		.4byte	.LASF13
 351 00c0 05       		.byte	0x5
 352 00c1 2D       		.byte	0x2d
 353 00c2 CA000000 		.4byte	0xca
 354 00c6 02       		.byte	0x2
 355 00c7 23       		.byte	0x23
 356 00c8 00       		.uleb128 0
 357 00c9 00       		.byte	0
 358 00ca 06       		.uleb128 0x6
 359 00cb 04       		.byte	0x4
 360 00cc AF000000 		.4byte	0xaf
 361 00d0 0B       		.uleb128 0xb
 362 00d1 0C       		.byte	0xc
 363 00d2 05       		.byte	0x5
 364 00d3 34       		.byte	0x34
 365 00d4 03010000 		.4byte	0x103
 366 00d8 0A       		.uleb128 0xa
 367 00d9 8A010000 		.4byte	.LASF14
 368 00dd 05       		.byte	0x5
 369 00de 35       		.byte	0x35
 370 00df CA000000 		.4byte	0xca
 371 00e3 02       		.byte	0x2
 372 00e4 23       		.byte	0x23
 373 00e5 00       		.uleb128 0
 374 00e6 0A       		.uleb128 0xa
 375 00e7 07000000 		.4byte	.LASF15
 376 00eb 05       		.byte	0x5
 377 00ec 36       		.byte	0x36
 378 00ed 30000000 		.4byte	0x30
 379 00f1 02       		.byte	0x2
 380 00f2 23       		.byte	0x23
 381 00f3 04       		.uleb128 0x4
 382 00f4 0A       		.uleb128 0xa
 383 00f5 15010000 		.4byte	.LASF16
 384 00f9 05       		.byte	0x5
 385 00fa 38       		.byte	0x38
 386 00fb 8E000000 		.4byte	0x8e
 387 00ff 02       		.byte	0x2
 388 0100 23       		.byte	0x23
 389 0101 08       		.uleb128 0x8
 390 0102 00       		.byte	0
 391 0103 03       		.uleb128 0x3
 392 0104 8B000000 		.4byte	.LASF17
 393 0108 05       		.byte	0x5
 394 0109 3A       		.byte	0x3a
 395 010a D0000000 		.4byte	0xd0
ARM GAS  /tmp/ccDDnQVi.s 			page 8


 396 010e 04       		.uleb128 0x4
 397 010f 01       		.byte	0x1
 398 0110 08       		.byte	0x8
 399 0111 F7000000 		.4byte	.LASF18
 400 0115 0C       		.uleb128 0xc
 401 0116 01       		.byte	0x1
 402 0117 9B000000 		.4byte	.LASF26
 403 011b 01       		.byte	0x1
 404 011c 4F       		.byte	0x4f
 405 011d 01       		.byte	0x1
 406 011e 85000000 		.4byte	0x85
 407 0122 01       		.byte	0x1
 408 0123 3D010000 		.4byte	0x13d
 409 0127 0D       		.uleb128 0xd
 410 0128 6D7000   		.ascii	"mp\000"
 411 012b 01       		.byte	0x1
 412 012c 4F       		.byte	0x4f
 413 012d 3D010000 		.4byte	0x13d
 414 0131 0E       		.uleb128 0xe
 415 0132 96000000 		.4byte	.LASF19
 416 0136 01       		.byte	0x1
 417 0137 50       		.byte	0x50
 418 0138 85000000 		.4byte	0x85
 419 013c 00       		.byte	0
 420 013d 06       		.uleb128 0x6
 421 013e 04       		.byte	0x4
 422 013f 03010000 		.4byte	0x103
 423 0143 0F       		.uleb128 0xf
 424 0144 01       		.byte	0x1
 425 0145 66000000 		.4byte	.LASF27
 426 0149 01       		.byte	0x1
 427 014a 7A       		.byte	0x7a
 428 014b 01       		.byte	0x1
 429 014c 01       		.byte	0x1
 430 014d 72010000 		.4byte	0x172
 431 0151 0D       		.uleb128 0xd
 432 0152 6D7000   		.ascii	"mp\000"
 433 0155 01       		.byte	0x1
 434 0156 7A       		.byte	0x7a
 435 0157 3D010000 		.4byte	0x13d
 436 015b 10       		.uleb128 0x10
 437 015c 96000000 		.4byte	.LASF19
 438 0160 01       		.byte	0x1
 439 0161 7A       		.byte	0x7a
 440 0162 85000000 		.4byte	0x85
 441 0166 11       		.uleb128 0x11
 442 0167 70687000 		.ascii	"php\000"
 443 016b 01       		.byte	0x1
 444 016c 7B       		.byte	0x7b
 445 016d CA000000 		.4byte	0xca
 446 0171 00       		.byte	0
 447 0172 12       		.uleb128 0x12
 448 0173 01       		.byte	0x1
 449 0174 92010000 		.4byte	.LASF28
 450 0178 01       		.byte	0x1
 451 0179 3D       		.byte	0x3d
 452 017a 01       		.byte	0x1
ARM GAS  /tmp/ccDDnQVi.s 			page 9


 453 017b 00000000 		.4byte	.LFB7
 454 017f 10000000 		.4byte	.LFE7
 455 0183 02       		.byte	0x2
 456 0184 7D       		.byte	0x7d
 457 0185 00       		.sleb128 0
 458 0186 01       		.byte	0x1
 459 0187 B4010000 		.4byte	0x1b4
 460 018b 13       		.uleb128 0x13
 461 018c 6D7000   		.ascii	"mp\000"
 462 018f 01       		.byte	0x1
 463 0190 3D       		.byte	0x3d
 464 0191 3D010000 		.4byte	0x13d
 465 0195 01       		.byte	0x1
 466 0196 50       		.byte	0x50
 467 0197 14       		.uleb128 0x14
 468 0198 33000000 		.4byte	.LASF20
 469 019c 01       		.byte	0x1
 470 019d 3D       		.byte	0x3d
 471 019e 30000000 		.4byte	0x30
 472 01a2 00000000 		.4byte	.LLST0
 473 01a6 15       		.uleb128 0x15
 474 01a7 5D000000 		.4byte	.LASF21
 475 01ab 01       		.byte	0x1
 476 01ac 3D       		.byte	0x3d
 477 01ad 8E000000 		.4byte	0x8e
 478 01b1 01       		.byte	0x1
 479 01b2 52       		.byte	0x52
 480 01b3 00       		.byte	0
 481 01b4 16       		.uleb128 0x16
 482 01b5 15010000 		.4byte	0x115
 483 01b9 00000000 		.4byte	.LFB8
 484 01bd 18000000 		.4byte	.LFE8
 485 01c1 2E000000 		.4byte	.LLST1
 486 01c5 01       		.byte	0x1
 487 01c6 DD010000 		.4byte	0x1dd
 488 01ca 17       		.uleb128 0x17
 489 01cb 27010000 		.4byte	0x127
 490 01cf 4E000000 		.4byte	.LLST2
 491 01d3 18       		.uleb128 0x18
 492 01d4 31010000 		.4byte	0x131
 493 01d8 7A000000 		.4byte	.LLST3
 494 01dc 00       		.byte	0
 495 01dd 19       		.uleb128 0x19
 496 01de 01       		.byte	0x1
 497 01df 2B010000 		.4byte	.LASF29
 498 01e3 01       		.byte	0x1
 499 01e4 65       		.byte	0x65
 500 01e5 01       		.byte	0x1
 501 01e6 85000000 		.4byte	0x85
 502 01ea 00000000 		.4byte	.LFB9
 503 01ee 26000000 		.4byte	.LFE9
 504 01f2 A4000000 		.4byte	.LLST4
 505 01f6 01       		.byte	0x1
 506 01f7 79020000 		.4byte	0x279
 507 01fb 1A       		.uleb128 0x1a
 508 01fc 6D7000   		.ascii	"mp\000"
 509 01ff 01       		.byte	0x1
ARM GAS  /tmp/ccDDnQVi.s 			page 10


 510 0200 65       		.byte	0x65
 511 0201 3D010000 		.4byte	0x13d
 512 0205 C4000000 		.4byte	.LLST5
 513 0209 1B       		.uleb128 0x1b
 514 020a 96000000 		.4byte	.LASF19
 515 020e 01       		.byte	0x1
 516 020f 66       		.byte	0x66
 517 0210 85000000 		.4byte	0x85
 518 0214 01       		.byte	0x1
 519 0215 50       		.byte	0x50
 520 0216 1C       		.uleb128 0x1c
 521 0217 04000000 		.4byte	.LBB10
 522 021b 0A000000 		.4byte	.LBE10
 523 021f 33020000 		.4byte	0x233
 524 0223 1D       		.uleb128 0x1d
 525 0224 746D7000 		.ascii	"tmp\000"
 526 0228 01       		.byte	0x1
 527 0229 68       		.byte	0x68
 528 022a 65000000 		.4byte	0x65
 529 022e 09010000 		.4byte	.LLST6
 530 0232 00       		.byte	0
 531 0233 1E       		.uleb128 0x1e
 532 0234 15010000 		.4byte	0x115
 533 0238 0A000000 		.4byte	.LBB11
 534 023c 00000000 		.4byte	.Ldebug_ranges0+0
 535 0240 01       		.byte	0x1
 536 0241 69       		.byte	0x69
 537 0242 5F020000 		.4byte	0x25f
 538 0246 17       		.uleb128 0x17
 539 0247 27010000 		.4byte	0x127
 540 024b 27010000 		.4byte	.LLST7
 541 024f 1F       		.uleb128 0x1f
 542 0250 18000000 		.4byte	.Ldebug_ranges0+0x18
 543 0254 18       		.uleb128 0x18
 544 0255 31010000 		.4byte	0x131
 545 0259 6C010000 		.4byte	.LLST8
 546 025d 00       		.byte	0
 547 025e 00       		.byte	0
 548 025f 20       		.uleb128 0x20
 549 0260 12000000 		.4byte	.LBB14
 550 0264 18000000 		.4byte	.LBE14
 551 0268 1D       		.uleb128 0x1d
 552 0269 746D7000 		.ascii	"tmp\000"
 553 026d 01       		.byte	0x1
 554 026e 6A       		.byte	0x6a
 555 026f 65000000 		.4byte	0x65
 556 0273 96010000 		.4byte	.LLST9
 557 0277 00       		.byte	0
 558 0278 00       		.byte	0
 559 0279 21       		.uleb128 0x21
 560 027a 43010000 		.4byte	0x143
 561 027e 00000000 		.4byte	.LFB10
 562 0282 08000000 		.4byte	.LFE10
 563 0286 02       		.byte	0x2
 564 0287 7D       		.byte	0x7d
 565 0288 00       		.sleb128 0
 566 0289 01       		.byte	0x1
ARM GAS  /tmp/ccDDnQVi.s 			page 11


 567 028a A4020000 		.4byte	0x2a4
 568 028e 22       		.uleb128 0x22
 569 028f 51010000 		.4byte	0x151
 570 0293 01       		.byte	0x1
 571 0294 50       		.byte	0x50
 572 0295 22       		.uleb128 0x22
 573 0296 5B010000 		.4byte	0x15b
 574 029a 01       		.byte	0x1
 575 029b 51       		.byte	0x51
 576 029c 23       		.uleb128 0x23
 577 029d 66010000 		.4byte	0x166
 578 02a1 01       		.byte	0x1
 579 02a2 51       		.byte	0x51
 580 02a3 00       		.byte	0
 581 02a4 24       		.uleb128 0x24
 582 02a5 01       		.byte	0x1
 583 02a6 80000000 		.4byte	.LASF30
 584 02aa 01       		.byte	0x1
 585 02ab 91       		.byte	0x91
 586 02ac 01       		.byte	0x1
 587 02ad 00000000 		.4byte	.LFB11
 588 02b1 14000000 		.4byte	.LFE11
 589 02b5 02       		.byte	0x2
 590 02b6 7D       		.byte	0x7d
 591 02b7 00       		.sleb128 0
 592 02b8 01       		.byte	0x1
 593 02b9 13       		.uleb128 0x13
 594 02ba 6D7000   		.ascii	"mp\000"
 595 02bd 01       		.byte	0x1
 596 02be 91       		.byte	0x91
 597 02bf 3D010000 		.4byte	0x13d
 598 02c3 01       		.byte	0x1
 599 02c4 50       		.byte	0x50
 600 02c5 15       		.uleb128 0x15
 601 02c6 96000000 		.4byte	.LASF19
 602 02ca 01       		.byte	0x1
 603 02cb 91       		.byte	0x91
 604 02cc 85000000 		.4byte	0x85
 605 02d0 01       		.byte	0x1
 606 02d1 51       		.byte	0x51
 607 02d2 1C       		.uleb128 0x1c
 608 02d3 00000000 		.4byte	.LBB16
 609 02d7 06000000 		.4byte	.LBE16
 610 02db EF020000 		.4byte	0x2ef
 611 02df 1D       		.uleb128 0x1d
 612 02e0 746D7000 		.ascii	"tmp\000"
 613 02e4 01       		.byte	0x1
 614 02e5 93       		.byte	0x93
 615 02e6 65000000 		.4byte	0x65
 616 02ea A9010000 		.4byte	.LLST10
 617 02ee 00       		.byte	0
 618 02ef 1E       		.uleb128 0x1e
 619 02f0 43010000 		.4byte	0x143
 620 02f4 06000000 		.4byte	.LBB17
 621 02f8 30000000 		.4byte	.Ldebug_ranges0+0x30
 622 02fc 01       		.byte	0x1
 623 02fd 94       		.byte	0x94
ARM GAS  /tmp/ccDDnQVi.s 			page 12


 624 02fe 1E030000 		.4byte	0x31e
 625 0302 22       		.uleb128 0x22
 626 0303 5B010000 		.4byte	0x15b
 627 0307 01       		.byte	0x1
 628 0308 51       		.byte	0x51
 629 0309 22       		.uleb128 0x22
 630 030a 51010000 		.4byte	0x151
 631 030e 01       		.byte	0x1
 632 030f 50       		.byte	0x50
 633 0310 1F       		.uleb128 0x1f
 634 0311 48000000 		.4byte	.Ldebug_ranges0+0x48
 635 0315 23       		.uleb128 0x23
 636 0316 66010000 		.4byte	0x166
 637 031a 01       		.byte	0x1
 638 031b 51       		.byte	0x51
 639 031c 00       		.byte	0
 640 031d 00       		.byte	0
 641 031e 1F       		.uleb128 0x1f
 642 031f 60000000 		.4byte	.Ldebug_ranges0+0x60
 643 0323 1D       		.uleb128 0x1d
 644 0324 746D7000 		.ascii	"tmp\000"
 645 0328 01       		.byte	0x1
 646 0329 95       		.byte	0x95
 647 032a 65000000 		.4byte	0x65
 648 032e BC010000 		.4byte	.LLST11
 649 0332 00       		.byte	0
 650 0333 00       		.byte	0
 651 0334 00       		.byte	0
 652              		.section	.debug_abbrev,"",%progbits
 653              	.Ldebug_abbrev0:
 654 0000 01       		.uleb128 0x1
 655 0001 11       		.uleb128 0x11
 656 0002 01       		.byte	0x1
 657 0003 25       		.uleb128 0x25
 658 0004 0E       		.uleb128 0xe
 659 0005 13       		.uleb128 0x13
 660 0006 0B       		.uleb128 0xb
 661 0007 03       		.uleb128 0x3
 662 0008 0E       		.uleb128 0xe
 663 0009 1B       		.uleb128 0x1b
 664 000a 0E       		.uleb128 0xe
 665 000b 55       		.uleb128 0x55
 666 000c 06       		.uleb128 0x6
 667 000d 11       		.uleb128 0x11
 668 000e 01       		.uleb128 0x1
 669 000f 52       		.uleb128 0x52
 670 0010 01       		.uleb128 0x1
 671 0011 10       		.uleb128 0x10
 672 0012 06       		.uleb128 0x6
 673 0013 00       		.byte	0
 674 0014 00       		.byte	0
 675 0015 02       		.uleb128 0x2
 676 0016 24       		.uleb128 0x24
 677 0017 00       		.byte	0
 678 0018 0B       		.uleb128 0xb
 679 0019 0B       		.uleb128 0xb
 680 001a 3E       		.uleb128 0x3e
ARM GAS  /tmp/ccDDnQVi.s 			page 13


 681 001b 0B       		.uleb128 0xb
 682 001c 03       		.uleb128 0x3
 683 001d 08       		.uleb128 0x8
 684 001e 00       		.byte	0
 685 001f 00       		.byte	0
 686 0020 03       		.uleb128 0x3
 687 0021 16       		.uleb128 0x16
 688 0022 00       		.byte	0
 689 0023 03       		.uleb128 0x3
 690 0024 0E       		.uleb128 0xe
 691 0025 3A       		.uleb128 0x3a
 692 0026 0B       		.uleb128 0xb
 693 0027 3B       		.uleb128 0x3b
 694 0028 0B       		.uleb128 0xb
 695 0029 49       		.uleb128 0x49
 696 002a 13       		.uleb128 0x13
 697 002b 00       		.byte	0
 698 002c 00       		.byte	0
 699 002d 04       		.uleb128 0x4
 700 002e 24       		.uleb128 0x24
 701 002f 00       		.byte	0
 702 0030 0B       		.uleb128 0xb
 703 0031 0B       		.uleb128 0xb
 704 0032 3E       		.uleb128 0x3e
 705 0033 0B       		.uleb128 0xb
 706 0034 03       		.uleb128 0x3
 707 0035 0E       		.uleb128 0xe
 708 0036 00       		.byte	0
 709 0037 00       		.byte	0
 710 0038 05       		.uleb128 0x5
 711 0039 0F       		.uleb128 0xf
 712 003a 00       		.byte	0
 713 003b 0B       		.uleb128 0xb
 714 003c 0B       		.uleb128 0xb
 715 003d 00       		.byte	0
 716 003e 00       		.byte	0
 717 003f 06       		.uleb128 0x6
 718 0040 0F       		.uleb128 0xf
 719 0041 00       		.byte	0
 720 0042 0B       		.uleb128 0xb
 721 0043 0B       		.uleb128 0xb
 722 0044 49       		.uleb128 0x49
 723 0045 13       		.uleb128 0x13
 724 0046 00       		.byte	0
 725 0047 00       		.byte	0
 726 0048 07       		.uleb128 0x7
 727 0049 15       		.uleb128 0x15
 728 004a 01       		.byte	0x1
 729 004b 27       		.uleb128 0x27
 730 004c 0C       		.uleb128 0xc
 731 004d 49       		.uleb128 0x49
 732 004e 13       		.uleb128 0x13
 733 004f 01       		.uleb128 0x1
 734 0050 13       		.uleb128 0x13
 735 0051 00       		.byte	0
 736 0052 00       		.byte	0
 737 0053 08       		.uleb128 0x8
ARM GAS  /tmp/ccDDnQVi.s 			page 14


 738 0054 05       		.uleb128 0x5
 739 0055 00       		.byte	0
 740 0056 49       		.uleb128 0x49
 741 0057 13       		.uleb128 0x13
 742 0058 00       		.byte	0
 743 0059 00       		.byte	0
 744 005a 09       		.uleb128 0x9
 745 005b 13       		.uleb128 0x13
 746 005c 01       		.byte	0x1
 747 005d 03       		.uleb128 0x3
 748 005e 0E       		.uleb128 0xe
 749 005f 0B       		.uleb128 0xb
 750 0060 0B       		.uleb128 0xb
 751 0061 3A       		.uleb128 0x3a
 752 0062 0B       		.uleb128 0xb
 753 0063 3B       		.uleb128 0x3b
 754 0064 0B       		.uleb128 0xb
 755 0065 01       		.uleb128 0x1
 756 0066 13       		.uleb128 0x13
 757 0067 00       		.byte	0
 758 0068 00       		.byte	0
 759 0069 0A       		.uleb128 0xa
 760 006a 0D       		.uleb128 0xd
 761 006b 00       		.byte	0
 762 006c 03       		.uleb128 0x3
 763 006d 0E       		.uleb128 0xe
 764 006e 3A       		.uleb128 0x3a
 765 006f 0B       		.uleb128 0xb
 766 0070 3B       		.uleb128 0x3b
 767 0071 0B       		.uleb128 0xb
 768 0072 49       		.uleb128 0x49
 769 0073 13       		.uleb128 0x13
 770 0074 38       		.uleb128 0x38
 771 0075 0A       		.uleb128 0xa
 772 0076 00       		.byte	0
 773 0077 00       		.byte	0
 774 0078 0B       		.uleb128 0xb
 775 0079 13       		.uleb128 0x13
 776 007a 01       		.byte	0x1
 777 007b 0B       		.uleb128 0xb
 778 007c 0B       		.uleb128 0xb
 779 007d 3A       		.uleb128 0x3a
 780 007e 0B       		.uleb128 0xb
 781 007f 3B       		.uleb128 0x3b
 782 0080 0B       		.uleb128 0xb
 783 0081 01       		.uleb128 0x1
 784 0082 13       		.uleb128 0x13
 785 0083 00       		.byte	0
 786 0084 00       		.byte	0
 787 0085 0C       		.uleb128 0xc
 788 0086 2E       		.uleb128 0x2e
 789 0087 01       		.byte	0x1
 790 0088 3F       		.uleb128 0x3f
 791 0089 0C       		.uleb128 0xc
 792 008a 03       		.uleb128 0x3
 793 008b 0E       		.uleb128 0xe
 794 008c 3A       		.uleb128 0x3a
ARM GAS  /tmp/ccDDnQVi.s 			page 15


 795 008d 0B       		.uleb128 0xb
 796 008e 3B       		.uleb128 0x3b
 797 008f 0B       		.uleb128 0xb
 798 0090 27       		.uleb128 0x27
 799 0091 0C       		.uleb128 0xc
 800 0092 49       		.uleb128 0x49
 801 0093 13       		.uleb128 0x13
 802 0094 20       		.uleb128 0x20
 803 0095 0B       		.uleb128 0xb
 804 0096 01       		.uleb128 0x1
 805 0097 13       		.uleb128 0x13
 806 0098 00       		.byte	0
 807 0099 00       		.byte	0
 808 009a 0D       		.uleb128 0xd
 809 009b 05       		.uleb128 0x5
 810 009c 00       		.byte	0
 811 009d 03       		.uleb128 0x3
 812 009e 08       		.uleb128 0x8
 813 009f 3A       		.uleb128 0x3a
 814 00a0 0B       		.uleb128 0xb
 815 00a1 3B       		.uleb128 0x3b
 816 00a2 0B       		.uleb128 0xb
 817 00a3 49       		.uleb128 0x49
 818 00a4 13       		.uleb128 0x13
 819 00a5 00       		.byte	0
 820 00a6 00       		.byte	0
 821 00a7 0E       		.uleb128 0xe
 822 00a8 34       		.uleb128 0x34
 823 00a9 00       		.byte	0
 824 00aa 03       		.uleb128 0x3
 825 00ab 0E       		.uleb128 0xe
 826 00ac 3A       		.uleb128 0x3a
 827 00ad 0B       		.uleb128 0xb
 828 00ae 3B       		.uleb128 0x3b
 829 00af 0B       		.uleb128 0xb
 830 00b0 49       		.uleb128 0x49
 831 00b1 13       		.uleb128 0x13
 832 00b2 00       		.byte	0
 833 00b3 00       		.byte	0
 834 00b4 0F       		.uleb128 0xf
 835 00b5 2E       		.uleb128 0x2e
 836 00b6 01       		.byte	0x1
 837 00b7 3F       		.uleb128 0x3f
 838 00b8 0C       		.uleb128 0xc
 839 00b9 03       		.uleb128 0x3
 840 00ba 0E       		.uleb128 0xe
 841 00bb 3A       		.uleb128 0x3a
 842 00bc 0B       		.uleb128 0xb
 843 00bd 3B       		.uleb128 0x3b
 844 00be 0B       		.uleb128 0xb
 845 00bf 27       		.uleb128 0x27
 846 00c0 0C       		.uleb128 0xc
 847 00c1 20       		.uleb128 0x20
 848 00c2 0B       		.uleb128 0xb
 849 00c3 01       		.uleb128 0x1
 850 00c4 13       		.uleb128 0x13
 851 00c5 00       		.byte	0
ARM GAS  /tmp/ccDDnQVi.s 			page 16


 852 00c6 00       		.byte	0
 853 00c7 10       		.uleb128 0x10
 854 00c8 05       		.uleb128 0x5
 855 00c9 00       		.byte	0
 856 00ca 03       		.uleb128 0x3
 857 00cb 0E       		.uleb128 0xe
 858 00cc 3A       		.uleb128 0x3a
 859 00cd 0B       		.uleb128 0xb
 860 00ce 3B       		.uleb128 0x3b
 861 00cf 0B       		.uleb128 0xb
 862 00d0 49       		.uleb128 0x49
 863 00d1 13       		.uleb128 0x13
 864 00d2 00       		.byte	0
 865 00d3 00       		.byte	0
 866 00d4 11       		.uleb128 0x11
 867 00d5 34       		.uleb128 0x34
 868 00d6 00       		.byte	0
 869 00d7 03       		.uleb128 0x3
 870 00d8 08       		.uleb128 0x8
 871 00d9 3A       		.uleb128 0x3a
 872 00da 0B       		.uleb128 0xb
 873 00db 3B       		.uleb128 0x3b
 874 00dc 0B       		.uleb128 0xb
 875 00dd 49       		.uleb128 0x49
 876 00de 13       		.uleb128 0x13
 877 00df 00       		.byte	0
 878 00e0 00       		.byte	0
 879 00e1 12       		.uleb128 0x12
 880 00e2 2E       		.uleb128 0x2e
 881 00e3 01       		.byte	0x1
 882 00e4 3F       		.uleb128 0x3f
 883 00e5 0C       		.uleb128 0xc
 884 00e6 03       		.uleb128 0x3
 885 00e7 0E       		.uleb128 0xe
 886 00e8 3A       		.uleb128 0x3a
 887 00e9 0B       		.uleb128 0xb
 888 00ea 3B       		.uleb128 0x3b
 889 00eb 0B       		.uleb128 0xb
 890 00ec 27       		.uleb128 0x27
 891 00ed 0C       		.uleb128 0xc
 892 00ee 11       		.uleb128 0x11
 893 00ef 01       		.uleb128 0x1
 894 00f0 12       		.uleb128 0x12
 895 00f1 01       		.uleb128 0x1
 896 00f2 40       		.uleb128 0x40
 897 00f3 0A       		.uleb128 0xa
 898 00f4 9742     		.uleb128 0x2117
 899 00f6 0C       		.uleb128 0xc
 900 00f7 01       		.uleb128 0x1
 901 00f8 13       		.uleb128 0x13
 902 00f9 00       		.byte	0
 903 00fa 00       		.byte	0
 904 00fb 13       		.uleb128 0x13
 905 00fc 05       		.uleb128 0x5
 906 00fd 00       		.byte	0
 907 00fe 03       		.uleb128 0x3
 908 00ff 08       		.uleb128 0x8
ARM GAS  /tmp/ccDDnQVi.s 			page 17


 909 0100 3A       		.uleb128 0x3a
 910 0101 0B       		.uleb128 0xb
 911 0102 3B       		.uleb128 0x3b
 912 0103 0B       		.uleb128 0xb
 913 0104 49       		.uleb128 0x49
 914 0105 13       		.uleb128 0x13
 915 0106 02       		.uleb128 0x2
 916 0107 0A       		.uleb128 0xa
 917 0108 00       		.byte	0
 918 0109 00       		.byte	0
 919 010a 14       		.uleb128 0x14
 920 010b 05       		.uleb128 0x5
 921 010c 00       		.byte	0
 922 010d 03       		.uleb128 0x3
 923 010e 0E       		.uleb128 0xe
 924 010f 3A       		.uleb128 0x3a
 925 0110 0B       		.uleb128 0xb
 926 0111 3B       		.uleb128 0x3b
 927 0112 0B       		.uleb128 0xb
 928 0113 49       		.uleb128 0x49
 929 0114 13       		.uleb128 0x13
 930 0115 02       		.uleb128 0x2
 931 0116 06       		.uleb128 0x6
 932 0117 00       		.byte	0
 933 0118 00       		.byte	0
 934 0119 15       		.uleb128 0x15
 935 011a 05       		.uleb128 0x5
 936 011b 00       		.byte	0
 937 011c 03       		.uleb128 0x3
 938 011d 0E       		.uleb128 0xe
 939 011e 3A       		.uleb128 0x3a
 940 011f 0B       		.uleb128 0xb
 941 0120 3B       		.uleb128 0x3b
 942 0121 0B       		.uleb128 0xb
 943 0122 49       		.uleb128 0x49
 944 0123 13       		.uleb128 0x13
 945 0124 02       		.uleb128 0x2
 946 0125 0A       		.uleb128 0xa
 947 0126 00       		.byte	0
 948 0127 00       		.byte	0
 949 0128 16       		.uleb128 0x16
 950 0129 2E       		.uleb128 0x2e
 951 012a 01       		.byte	0x1
 952 012b 31       		.uleb128 0x31
 953 012c 13       		.uleb128 0x13
 954 012d 11       		.uleb128 0x11
 955 012e 01       		.uleb128 0x1
 956 012f 12       		.uleb128 0x12
 957 0130 01       		.uleb128 0x1
 958 0131 40       		.uleb128 0x40
 959 0132 06       		.uleb128 0x6
 960 0133 9642     		.uleb128 0x2116
 961 0135 0C       		.uleb128 0xc
 962 0136 01       		.uleb128 0x1
 963 0137 13       		.uleb128 0x13
 964 0138 00       		.byte	0
 965 0139 00       		.byte	0
ARM GAS  /tmp/ccDDnQVi.s 			page 18


 966 013a 17       		.uleb128 0x17
 967 013b 05       		.uleb128 0x5
 968 013c 00       		.byte	0
 969 013d 31       		.uleb128 0x31
 970 013e 13       		.uleb128 0x13
 971 013f 02       		.uleb128 0x2
 972 0140 06       		.uleb128 0x6
 973 0141 00       		.byte	0
 974 0142 00       		.byte	0
 975 0143 18       		.uleb128 0x18
 976 0144 34       		.uleb128 0x34
 977 0145 00       		.byte	0
 978 0146 31       		.uleb128 0x31
 979 0147 13       		.uleb128 0x13
 980 0148 02       		.uleb128 0x2
 981 0149 06       		.uleb128 0x6
 982 014a 00       		.byte	0
 983 014b 00       		.byte	0
 984 014c 19       		.uleb128 0x19
 985 014d 2E       		.uleb128 0x2e
 986 014e 01       		.byte	0x1
 987 014f 3F       		.uleb128 0x3f
 988 0150 0C       		.uleb128 0xc
 989 0151 03       		.uleb128 0x3
 990 0152 0E       		.uleb128 0xe
 991 0153 3A       		.uleb128 0x3a
 992 0154 0B       		.uleb128 0xb
 993 0155 3B       		.uleb128 0x3b
 994 0156 0B       		.uleb128 0xb
 995 0157 27       		.uleb128 0x27
 996 0158 0C       		.uleb128 0xc
 997 0159 49       		.uleb128 0x49
 998 015a 13       		.uleb128 0x13
 999 015b 11       		.uleb128 0x11
 1000 015c 01       		.uleb128 0x1
 1001 015d 12       		.uleb128 0x12
 1002 015e 01       		.uleb128 0x1
 1003 015f 40       		.uleb128 0x40
 1004 0160 06       		.uleb128 0x6
 1005 0161 9642     		.uleb128 0x2116
 1006 0163 0C       		.uleb128 0xc
 1007 0164 01       		.uleb128 0x1
 1008 0165 13       		.uleb128 0x13
 1009 0166 00       		.byte	0
 1010 0167 00       		.byte	0
 1011 0168 1A       		.uleb128 0x1a
 1012 0169 05       		.uleb128 0x5
 1013 016a 00       		.byte	0
 1014 016b 03       		.uleb128 0x3
 1015 016c 08       		.uleb128 0x8
 1016 016d 3A       		.uleb128 0x3a
 1017 016e 0B       		.uleb128 0xb
 1018 016f 3B       		.uleb128 0x3b
 1019 0170 0B       		.uleb128 0xb
 1020 0171 49       		.uleb128 0x49
 1021 0172 13       		.uleb128 0x13
 1022 0173 02       		.uleb128 0x2
ARM GAS  /tmp/ccDDnQVi.s 			page 19


 1023 0174 06       		.uleb128 0x6
 1024 0175 00       		.byte	0
 1025 0176 00       		.byte	0
 1026 0177 1B       		.uleb128 0x1b
 1027 0178 34       		.uleb128 0x34
 1028 0179 00       		.byte	0
 1029 017a 03       		.uleb128 0x3
 1030 017b 0E       		.uleb128 0xe
 1031 017c 3A       		.uleb128 0x3a
 1032 017d 0B       		.uleb128 0xb
 1033 017e 3B       		.uleb128 0x3b
 1034 017f 0B       		.uleb128 0xb
 1035 0180 49       		.uleb128 0x49
 1036 0181 13       		.uleb128 0x13
 1037 0182 02       		.uleb128 0x2
 1038 0183 0A       		.uleb128 0xa
 1039 0184 00       		.byte	0
 1040 0185 00       		.byte	0
 1041 0186 1C       		.uleb128 0x1c
 1042 0187 0B       		.uleb128 0xb
 1043 0188 01       		.byte	0x1
 1044 0189 11       		.uleb128 0x11
 1045 018a 01       		.uleb128 0x1
 1046 018b 12       		.uleb128 0x12
 1047 018c 01       		.uleb128 0x1
 1048 018d 01       		.uleb128 0x1
 1049 018e 13       		.uleb128 0x13
 1050 018f 00       		.byte	0
 1051 0190 00       		.byte	0
 1052 0191 1D       		.uleb128 0x1d
 1053 0192 34       		.uleb128 0x34
 1054 0193 00       		.byte	0
 1055 0194 03       		.uleb128 0x3
 1056 0195 08       		.uleb128 0x8
 1057 0196 3A       		.uleb128 0x3a
 1058 0197 0B       		.uleb128 0xb
 1059 0198 3B       		.uleb128 0x3b
 1060 0199 0B       		.uleb128 0xb
 1061 019a 49       		.uleb128 0x49
 1062 019b 13       		.uleb128 0x13
 1063 019c 02       		.uleb128 0x2
 1064 019d 06       		.uleb128 0x6
 1065 019e 00       		.byte	0
 1066 019f 00       		.byte	0
 1067 01a0 1E       		.uleb128 0x1e
 1068 01a1 1D       		.uleb128 0x1d
 1069 01a2 01       		.byte	0x1
 1070 01a3 31       		.uleb128 0x31
 1071 01a4 13       		.uleb128 0x13
 1072 01a5 52       		.uleb128 0x52
 1073 01a6 01       		.uleb128 0x1
 1074 01a7 55       		.uleb128 0x55
 1075 01a8 06       		.uleb128 0x6
 1076 01a9 58       		.uleb128 0x58
 1077 01aa 0B       		.uleb128 0xb
 1078 01ab 59       		.uleb128 0x59
 1079 01ac 0B       		.uleb128 0xb
ARM GAS  /tmp/ccDDnQVi.s 			page 20


 1080 01ad 01       		.uleb128 0x1
 1081 01ae 13       		.uleb128 0x13
 1082 01af 00       		.byte	0
 1083 01b0 00       		.byte	0
 1084 01b1 1F       		.uleb128 0x1f
 1085 01b2 0B       		.uleb128 0xb
 1086 01b3 01       		.byte	0x1
 1087 01b4 55       		.uleb128 0x55
 1088 01b5 06       		.uleb128 0x6
 1089 01b6 00       		.byte	0
 1090 01b7 00       		.byte	0
 1091 01b8 20       		.uleb128 0x20
 1092 01b9 0B       		.uleb128 0xb
 1093 01ba 01       		.byte	0x1
 1094 01bb 11       		.uleb128 0x11
 1095 01bc 01       		.uleb128 0x1
 1096 01bd 12       		.uleb128 0x12
 1097 01be 01       		.uleb128 0x1
 1098 01bf 00       		.byte	0
 1099 01c0 00       		.byte	0
 1100 01c1 21       		.uleb128 0x21
 1101 01c2 2E       		.uleb128 0x2e
 1102 01c3 01       		.byte	0x1
 1103 01c4 31       		.uleb128 0x31
 1104 01c5 13       		.uleb128 0x13
 1105 01c6 11       		.uleb128 0x11
 1106 01c7 01       		.uleb128 0x1
 1107 01c8 12       		.uleb128 0x12
 1108 01c9 01       		.uleb128 0x1
 1109 01ca 40       		.uleb128 0x40
 1110 01cb 0A       		.uleb128 0xa
 1111 01cc 9742     		.uleb128 0x2117
 1112 01ce 0C       		.uleb128 0xc
 1113 01cf 01       		.uleb128 0x1
 1114 01d0 13       		.uleb128 0x13
 1115 01d1 00       		.byte	0
 1116 01d2 00       		.byte	0
 1117 01d3 22       		.uleb128 0x22
 1118 01d4 05       		.uleb128 0x5
 1119 01d5 00       		.byte	0
 1120 01d6 31       		.uleb128 0x31
 1121 01d7 13       		.uleb128 0x13
 1122 01d8 02       		.uleb128 0x2
 1123 01d9 0A       		.uleb128 0xa
 1124 01da 00       		.byte	0
 1125 01db 00       		.byte	0
 1126 01dc 23       		.uleb128 0x23
 1127 01dd 34       		.uleb128 0x34
 1128 01de 00       		.byte	0
 1129 01df 31       		.uleb128 0x31
 1130 01e0 13       		.uleb128 0x13
 1131 01e1 02       		.uleb128 0x2
 1132 01e2 0A       		.uleb128 0xa
 1133 01e3 00       		.byte	0
 1134 01e4 00       		.byte	0
 1135 01e5 24       		.uleb128 0x24
 1136 01e6 2E       		.uleb128 0x2e
ARM GAS  /tmp/ccDDnQVi.s 			page 21


 1137 01e7 01       		.byte	0x1
 1138 01e8 3F       		.uleb128 0x3f
 1139 01e9 0C       		.uleb128 0xc
 1140 01ea 03       		.uleb128 0x3
 1141 01eb 0E       		.uleb128 0xe
 1142 01ec 3A       		.uleb128 0x3a
 1143 01ed 0B       		.uleb128 0xb
 1144 01ee 3B       		.uleb128 0x3b
 1145 01ef 0B       		.uleb128 0xb
 1146 01f0 27       		.uleb128 0x27
 1147 01f1 0C       		.uleb128 0xc
 1148 01f2 11       		.uleb128 0x11
 1149 01f3 01       		.uleb128 0x1
 1150 01f4 12       		.uleb128 0x12
 1151 01f5 01       		.uleb128 0x1
 1152 01f6 40       		.uleb128 0x40
 1153 01f7 0A       		.uleb128 0xa
 1154 01f8 9742     		.uleb128 0x2117
 1155 01fa 0C       		.uleb128 0xc
 1156 01fb 00       		.byte	0
 1157 01fc 00       		.byte	0
 1158 01fd 00       		.byte	0
 1159              		.section	.debug_loc,"",%progbits
 1160              	.Ldebug_loc0:
 1161              	.LLST0:
 1162 0000 00000000 		.4byte	.LVL0
 1163 0004 02000000 		.4byte	.LVL1
 1164 0008 0100     		.2byte	0x1
 1165 000a 51       		.byte	0x51
 1166 000b 02000000 		.4byte	.LVL1
 1167 000f 06000000 		.4byte	.LVL2
 1168 0013 0300     		.2byte	0x3
 1169 0015 71       		.byte	0x71
 1170 0016 79       		.sleb128 -7
 1171 0017 9F       		.byte	0x9f
 1172 0018 06000000 		.4byte	.LVL2
 1173 001c 10000000 		.4byte	.LFE7
 1174 0020 0400     		.2byte	0x4
 1175 0022 F3       		.byte	0xf3
 1176 0023 01       		.uleb128 0x1
 1177 0024 51       		.byte	0x51
 1178 0025 9F       		.byte	0x9f
 1179 0026 00000000 		.4byte	0
 1180 002a 00000000 		.4byte	0
 1181              	.LLST1:
 1182 002e 00000000 		.4byte	.LFB8
 1183 0032 02000000 		.4byte	.LCFI0
 1184 0036 0200     		.2byte	0x2
 1185 0038 7D       		.byte	0x7d
 1186 0039 00       		.sleb128 0
 1187 003a 02000000 		.4byte	.LCFI0
 1188 003e 18000000 		.4byte	.LFE8
 1189 0042 0200     		.2byte	0x2
 1190 0044 7D       		.byte	0x7d
 1191 0045 08       		.sleb128 8
 1192 0046 00000000 		.4byte	0
 1193 004a 00000000 		.4byte	0
ARM GAS  /tmp/ccDDnQVi.s 			page 22


 1194              	.LLST2:
 1195 004e 00000000 		.4byte	.LVL3
 1196 0052 06000000 		.4byte	.LVL4
 1197 0056 0100     		.2byte	0x1
 1198 0058 50       		.byte	0x50
 1199 0059 06000000 		.4byte	.LVL4
 1200 005d 15000000 		.4byte	.LVL6-1
 1201 0061 0100     		.2byte	0x1
 1202 0063 53       		.byte	0x53
 1203 0064 15000000 		.4byte	.LVL6-1
 1204 0068 18000000 		.4byte	.LFE8
 1205 006c 0400     		.2byte	0x4
 1206 006e F3       		.byte	0xf3
 1207 006f 01       		.uleb128 0x1
 1208 0070 50       		.byte	0x50
 1209 0071 9F       		.byte	0x9f
 1210 0072 00000000 		.4byte	0
 1211 0076 00000000 		.4byte	0
 1212              	.LLST3:
 1213 007a 06000000 		.4byte	.LVL4
 1214 007e 14000000 		.4byte	.LVL5
 1215 0082 0100     		.2byte	0x1
 1216 0084 50       		.byte	0x50
 1217 0085 14000000 		.4byte	.LVL5
 1218 0089 15000000 		.4byte	.LVL6-1
 1219 008d 0200     		.2byte	0x2
 1220 008f 73       		.byte	0x73
 1221 0090 00       		.sleb128 0
 1222 0091 16000000 		.4byte	.LVL6
 1223 0095 18000000 		.4byte	.LFE8
 1224 0099 0100     		.2byte	0x1
 1225 009b 50       		.byte	0x50
 1226 009c 00000000 		.4byte	0
 1227 00a0 00000000 		.4byte	0
 1228              	.LLST4:
 1229 00a4 00000000 		.4byte	.LFB9
 1230 00a8 02000000 		.4byte	.LCFI1
 1231 00ac 0200     		.2byte	0x2
 1232 00ae 7D       		.byte	0x7d
 1233 00af 00       		.sleb128 0
 1234 00b0 02000000 		.4byte	.LCFI1
 1235 00b4 26000000 		.4byte	.LFE9
 1236 00b8 0200     		.2byte	0x2
 1237 00ba 7D       		.byte	0x7d
 1238 00bb 08       		.sleb128 8
 1239 00bc 00000000 		.4byte	0
 1240 00c0 00000000 		.4byte	0
 1241              	.LLST5:
 1242 00c4 00000000 		.4byte	.LVL7
 1243 00c8 0C000000 		.4byte	.LVL10
 1244 00cc 0100     		.2byte	0x1
 1245 00ce 50       		.byte	0x50
 1246 00cf 0C000000 		.4byte	.LVL10
 1247 00d3 12000000 		.4byte	.LVL12
 1248 00d7 0100     		.2byte	0x1
 1249 00d9 52       		.byte	0x52
 1250 00da 12000000 		.4byte	.LVL12
ARM GAS  /tmp/ccDDnQVi.s 			page 23


 1251 00de 1A000000 		.4byte	.LVL15
 1252 00e2 0400     		.2byte	0x4
 1253 00e4 F3       		.byte	0xf3
 1254 00e5 01       		.uleb128 0x1
 1255 00e6 50       		.byte	0x50
 1256 00e7 9F       		.byte	0x9f
 1257 00e8 1A000000 		.4byte	.LVL15
 1258 00ec 23000000 		.4byte	.LVL18-1
 1259 00f0 0100     		.2byte	0x1
 1260 00f2 52       		.byte	0x52
 1261 00f3 23000000 		.4byte	.LVL18-1
 1262 00f7 26000000 		.4byte	.LFE9
 1263 00fb 0400     		.2byte	0x4
 1264 00fd F3       		.byte	0xf3
 1265 00fe 01       		.uleb128 0x1
 1266 00ff 50       		.byte	0x50
 1267 0100 9F       		.byte	0x9f
 1268 0101 00000000 		.4byte	0
 1269 0105 00000000 		.4byte	0
 1270              	.LLST6:
 1271 0109 0A000000 		.4byte	.LVL9
 1272 010d 10000000 		.4byte	.LVL11
 1273 0111 0100     		.2byte	0x1
 1274 0113 53       		.byte	0x53
 1275 0114 1A000000 		.4byte	.LVL15
 1276 0118 1C000000 		.4byte	.LVL16
 1277 011c 0100     		.2byte	0x1
 1278 011e 53       		.byte	0x53
 1279 011f 00000000 		.4byte	0
 1280 0123 00000000 		.4byte	0
 1281              	.LLST7:
 1282 0127 0A000000 		.4byte	.LVL9
 1283 012b 0C000000 		.4byte	.LVL10
 1284 012f 0100     		.2byte	0x1
 1285 0131 50       		.byte	0x50
 1286 0132 0C000000 		.4byte	.LVL10
 1287 0136 12000000 		.4byte	.LVL12
 1288 013a 0100     		.2byte	0x1
 1289 013c 52       		.byte	0x52
 1290 013d 12000000 		.4byte	.LVL12
 1291 0141 1A000000 		.4byte	.LVL15
 1292 0145 0400     		.2byte	0x4
 1293 0147 F3       		.byte	0xf3
 1294 0148 01       		.uleb128 0x1
 1295 0149 50       		.byte	0x50
 1296 014a 9F       		.byte	0x9f
 1297 014b 1A000000 		.4byte	.LVL15
 1298 014f 23000000 		.4byte	.LVL18-1
 1299 0153 0100     		.2byte	0x1
 1300 0155 52       		.byte	0x52
 1301 0156 23000000 		.4byte	.LVL18-1
 1302 015a 26000000 		.4byte	.LFE9
 1303 015e 0400     		.2byte	0x4
 1304 0160 F3       		.byte	0xf3
 1305 0161 01       		.uleb128 0x1
 1306 0162 50       		.byte	0x50
 1307 0163 9F       		.byte	0x9f
ARM GAS  /tmp/ccDDnQVi.s 			page 24


 1308 0164 00000000 		.4byte	0
 1309 0168 00000000 		.4byte	0
 1310              	.LLST8:
 1311 016c 0C000000 		.4byte	.LVL10
 1312 0170 22000000 		.4byte	.LVL17
 1313 0174 0100     		.2byte	0x1
 1314 0176 50       		.byte	0x50
 1315 0177 22000000 		.4byte	.LVL17
 1316 017b 23000000 		.4byte	.LVL18-1
 1317 017f 0200     		.2byte	0x2
 1318 0181 72       		.byte	0x72
 1319 0182 00       		.sleb128 0
 1320 0183 24000000 		.4byte	.LVL18
 1321 0187 26000000 		.4byte	.LFE9
 1322 018b 0100     		.2byte	0x1
 1323 018d 50       		.byte	0x50
 1324 018e 00000000 		.4byte	0
 1325 0192 00000000 		.4byte	0
 1326              	.LLST9:
 1327 0196 18000000 		.4byte	.LVL14
 1328 019a 1A000000 		.4byte	.LVL15
 1329 019e 0100     		.2byte	0x1
 1330 01a0 53       		.byte	0x53
 1331 01a1 00000000 		.4byte	0
 1332 01a5 00000000 		.4byte	0
 1333              	.LLST10:
 1334 01a9 06000000 		.4byte	.LVL22
 1335 01ad 0A000000 		.4byte	.LVL23
 1336 01b1 0100     		.2byte	0x1
 1337 01b3 53       		.byte	0x53
 1338 01b4 00000000 		.4byte	0
 1339 01b8 00000000 		.4byte	0
 1340              	.LLST11:
 1341 01bc 12000000 		.4byte	.LVL24
 1342 01c0 14000000 		.4byte	.LFE11
 1343 01c4 0100     		.2byte	0x1
 1344 01c6 53       		.byte	0x53
 1345 01c7 00000000 		.4byte	0
 1346 01cb 00000000 		.4byte	0
 1347              		.section	.debug_aranges,"",%progbits
 1348 0000 3C000000 		.4byte	0x3c
 1349 0004 0200     		.2byte	0x2
 1350 0006 00000000 		.4byte	.Ldebug_info0
 1351 000a 04       		.byte	0x4
 1352 000b 00       		.byte	0
 1353 000c 0000     		.2byte	0
 1354 000e 0000     		.2byte	0
 1355 0010 00000000 		.4byte	.LFB7
 1356 0014 10000000 		.4byte	.LFE7-.LFB7
 1357 0018 00000000 		.4byte	.LFB8
 1358 001c 18000000 		.4byte	.LFE8-.LFB8
 1359 0020 00000000 		.4byte	.LFB9
 1360 0024 26000000 		.4byte	.LFE9-.LFB9
 1361 0028 00000000 		.4byte	.LFB10
 1362 002c 08000000 		.4byte	.LFE10-.LFB10
 1363 0030 00000000 		.4byte	.LFB11
 1364 0034 14000000 		.4byte	.LFE11-.LFB11
ARM GAS  /tmp/ccDDnQVi.s 			page 25


 1365 0038 00000000 		.4byte	0
 1366 003c 00000000 		.4byte	0
 1367              		.section	.debug_ranges,"",%progbits
 1368              	.Ldebug_ranges0:
 1369 0000 0A000000 		.4byte	.LBB11
 1370 0004 12000000 		.4byte	.LBE11
 1371 0008 1A000000 		.4byte	.LBB15
 1372 000c 26000000 		.4byte	.LBE15
 1373 0010 00000000 		.4byte	0
 1374 0014 00000000 		.4byte	0
 1375 0018 0A000000 		.4byte	.LBB12
 1376 001c 12000000 		.4byte	.LBE12
 1377 0020 1A000000 		.4byte	.LBB13
 1378 0024 26000000 		.4byte	.LBE13
 1379 0028 00000000 		.4byte	0
 1380 002c 00000000 		.4byte	0
 1381 0030 06000000 		.4byte	.LBB17
 1382 0034 08000000 		.4byte	.LBE17
 1383 0038 0A000000 		.4byte	.LBB21
 1384 003c 0E000000 		.4byte	.LBE21
 1385 0040 00000000 		.4byte	0
 1386 0044 00000000 		.4byte	0
 1387 0048 06000000 		.4byte	.LBB18
 1388 004c 08000000 		.4byte	.LBE18
 1389 0050 0A000000 		.4byte	.LBB19
 1390 0054 0E000000 		.4byte	.LBE19
 1391 0058 00000000 		.4byte	0
 1392 005c 00000000 		.4byte	0
 1393 0060 08000000 		.4byte	.LBB20
 1394 0064 0A000000 		.4byte	.LBE20
 1395 0068 0E000000 		.4byte	.LBB22
 1396 006c 14000000 		.4byte	.LBE22
 1397 0070 00000000 		.4byte	0
 1398 0074 00000000 		.4byte	0
 1399 0078 00000000 		.4byte	.LFB7
 1400 007c 10000000 		.4byte	.LFE7
 1401 0080 00000000 		.4byte	.LFB8
 1402 0084 18000000 		.4byte	.LFE8
 1403 0088 00000000 		.4byte	.LFB9
 1404 008c 26000000 		.4byte	.LFE9
 1405 0090 00000000 		.4byte	.LFB10
 1406 0094 08000000 		.4byte	.LFE10
 1407 0098 00000000 		.4byte	.LFB11
 1408 009c 14000000 		.4byte	.LFE11
 1409 00a0 00000000 		.4byte	0
 1410 00a4 00000000 		.4byte	0
 1411              		.section	.debug_line,"",%progbits
 1412              	.Ldebug_line0:
 1413 0000 E7010000 		.section	.debug_str,"MS",%progbits,1
 1413      02006A01 
 1413      00000201 
 1413      FB0E0D00 
 1413      01010101 
 1414              	.LASF6:
 1415 0000 73697A65 		.ascii	"size_t\000"
 1415      5F7400
 1416              	.LASF15:
ARM GAS  /tmp/ccDDnQVi.s 			page 26


 1417 0007 6D705F6F 		.ascii	"mp_object_size\000"
 1417      626A6563 
 1417      745F7369 
 1417      7A6500
 1418              	.LASF23:
 1419 0016 2E2F6F73 		.ascii	"./os/kernel/src/chmempools.c\000"
 1419      2F6B6572 
 1419      6E656C2F 
 1419      7372632F 
 1419      63686D65 
 1420              	.LASF20:
 1421 0033 73697A65 		.ascii	"size\000"
 1421      00
 1422              	.LASF8:
 1423 0038 6C6F6E67 		.ascii	"long unsigned int\000"
 1423      20756E73 
 1423      69676E65 
 1423      6420696E 
 1423      7400
 1424              	.LASF4:
 1425 004a 73686F72 		.ascii	"short unsigned int\000"
 1425      7420756E 
 1425      7369676E 
 1425      65642069 
 1425      6E7400
 1426              	.LASF21:
 1427 005d 70726F76 		.ascii	"provider\000"
 1427      69646572 
 1427      00
 1428              	.LASF27:
 1429 0066 6368506F 		.ascii	"chPoolFreeI\000"
 1429      6F6C4672 
 1429      65654900 
 1430              	.LASF2:
 1431 0072 756E7369 		.ascii	"unsigned char\000"
 1431      676E6564 
 1431      20636861 
 1431      7200
 1432              	.LASF30:
 1433 0080 6368506F 		.ascii	"chPoolFree\000"
 1433      6F6C4672 
 1433      656500
 1434              	.LASF17:
 1435 008b 4D656D6F 		.ascii	"MemoryPool\000"
 1435      7279506F 
 1435      6F6C00
 1436              	.LASF19:
 1437 0096 6F626A70 		.ascii	"objp\000"
 1437      00
 1438              	.LASF26:
 1439 009b 6368506F 		.ascii	"chPoolAllocI\000"
 1439      6F6C416C 
 1439      6C6F6349 
 1439      00
 1440              	.LASF0:
 1441 00a8 756E7369 		.ascii	"unsigned int\000"
 1441      676E6564 
ARM GAS  /tmp/ccDDnQVi.s 			page 27


 1441      20696E74 
 1441      00
 1442              	.LASF10:
 1443 00b5 6C6F6E67 		.ascii	"long long unsigned int\000"
 1443      206C6F6E 
 1443      6720756E 
 1443      7369676E 
 1443      65642069 
 1444              	.LASF13:
 1445 00cc 70685F6E 		.ascii	"ph_next\000"
 1445      65787400 
 1446              	.LASF11:
 1447 00d4 73697A65 		.ascii	"sizetype\000"
 1447      74797065 
 1447      00
 1448              	.LASF25:
 1449 00dd 706F6F6C 		.ascii	"pool_header\000"
 1449      5F686561 
 1449      64657200 
 1450              	.LASF9:
 1451 00e9 6C6F6E67 		.ascii	"long long int\000"
 1451      206C6F6E 
 1451      6720696E 
 1451      7400
 1452              	.LASF18:
 1453 00f7 63686172 		.ascii	"char\000"
 1453      00
 1454              	.LASF22:
 1455 00fc 474E5520 		.ascii	"GNU C 4.7.2\000"
 1455      4320342E 
 1455      372E3200 
 1456              	.LASF12:
 1457 0108 6D656D67 		.ascii	"memgetfunc_t\000"
 1457      65746675 
 1457      6E635F74 
 1457      00
 1458              	.LASF16:
 1459 0115 6D705F70 		.ascii	"mp_provider\000"
 1459      726F7669 
 1459      64657200 
 1460              	.LASF3:
 1461 0121 73686F72 		.ascii	"short int\000"
 1461      7420696E 
 1461      7400
 1462              	.LASF29:
 1463 012b 6368506F 		.ascii	"chPoolAlloc\000"
 1463      6F6C416C 
 1463      6C6F6300 
 1464              	.LASF24:
 1465 0137 2F686F6D 		.ascii	"/home/mitchd/Documents/FOX-1/amsat-fox/stm32f4-deve"
 1465      652F6D69 
 1465      74636864 
 1465      2F446F63 
 1465      756D656E 
 1466 016a 6C00     		.ascii	"l\000"
 1467              	.LASF7:
 1468 016c 75696E74 		.ascii	"uint32_t\000"
ARM GAS  /tmp/ccDDnQVi.s 			page 28


 1468      33325F74 
 1468      00
 1469              	.LASF5:
 1470 0175 6C6F6E67 		.ascii	"long int\000"
 1470      20696E74 
 1470      00
 1471              	.LASF1:
 1472 017e 7369676E 		.ascii	"signed char\000"
 1472      65642063 
 1472      68617200 
 1473              	.LASF14:
 1474 018a 6D705F6E 		.ascii	"mp_next\000"
 1474      65787400 
 1475              	.LASF28:
 1476 0192 6368506F 		.ascii	"chPoolInit\000"
 1476      6F6C496E 
 1476      697400
 1477              		.ident	"GCC: (GNU) 4.7.2"
ARM GAS  /tmp/ccDDnQVi.s 			page 29


DEFINED SYMBOLS
                            *ABS*:0000000000000000 chmempools.c
     /tmp/ccDDnQVi.s:19     .text.chPoolInit:0000000000000000 $t
     /tmp/ccDDnQVi.s:25     .text.chPoolInit:0000000000000000 chPoolInit
     /tmp/ccDDnQVi.s:51     .text.chPoolAllocI:0000000000000000 $t
     /tmp/ccDDnQVi.s:57     .text.chPoolAllocI:0000000000000000 chPoolAllocI
     /tmp/ccDDnQVi.s:95     .text.chPoolAlloc:0000000000000000 $t
     /tmp/ccDDnQVi.s:101    .text.chPoolAlloc:0000000000000000 chPoolAlloc
     /tmp/ccDDnQVi.s:172    .text.chPoolFreeI:0000000000000000 $t
     /tmp/ccDDnQVi.s:178    .text.chPoolFreeI:0000000000000000 chPoolFreeI
     /tmp/ccDDnQVi.s:196    .text.chPoolFree:0000000000000000 $t
     /tmp/ccDDnQVi.s:202    .text.chPoolFree:0000000000000000 chPoolFree
                     .debug_frame:0000000000000010 $d

NO UNDEFINED SYMBOLS
