ARM GAS  /tmp/ccDDnQVi.s 			page 1


   1              		.syntax unified
   2              		.cpu cortex-m4
   3              		.fpu softvfp
   4              		.eabi_attribute 20, 1
   5              		.eabi_attribute 21, 1
   6              		.eabi_attribute 23, 3
   7              		.eabi_attribute 24, 1
   8              		.eabi_attribute 25, 1
   9              		.eabi_attribute 26, 1
  10              		.eabi_attribute 30, 2
  11              		.eabi_attribute 34, 1
  12              		.eabi_attribute 18, 4
  13              		.thumb
  14              		.file	"chmempools.c"
  15              		.text
  16              	.Ltext0:
  17              		.cfi_sections	.debug_frame
  18              		.section	.text.chPoolInit,"ax",%progbits
  19              		.align	2
  20              		.p2align 4,,15
  21              		.global	chPoolInit
  22              		.thumb
  23              		.thumb_func
  24              		.type	chPoolInit, %function
  25              	chPoolInit:
  26              	.LFB7:
  27              		.file 1 "./os/kernel/src/chmempools.c"
  28              		.loc 1 61 0
  29              		.cfi_startproc
  30              		@ args = 0, pretend = 0, frame = 0
  31              		@ frame_needed = 0, uses_anonymous_args = 0
  32              		@ link register save eliminated.
  33              	.LVL0:
  34              		.loc 1 66 0
  35 0000 0731     		adds	r1, r1, #7
  36              	.LVL1:
  37 0002 21F00701 		bic	r1, r1, #7
  38              	.LVL2:
  39              		.loc 1 65 0
  40 0006 0023     		movs	r3, #0
  41 0008 0360     		str	r3, [r0, #0]
  42              		.loc 1 66 0
  43 000a 4160     		str	r1, [r0, #4]
  44              		.loc 1 67 0
  45 000c 8260     		str	r2, [r0, #8]
  46 000e 7047     		bx	lr
  47              		.cfi_endproc
  48              	.LFE7:
  49              		.size	chPoolInit, .-chPoolInit
  50              		.section	.text.chPoolAllocI,"ax",%progbits
  51              		.align	2
  52              		.p2align 4,,15
  53              		.global	chPoolAllocI
  54              		.thumb
  55              		.thumb_func
  56              		.type	chPoolAllocI, %function
  57              	chPoolAllocI:
ARM GAS  /tmp/ccDDnQVi.s 			page 2


  58              	.LFB8:
  59              		.loc 1 79 0
  60              		.cfi_startproc
  61              		@ args = 0, pretend = 0, frame = 0
  62              		@ frame_needed = 0, uses_anonymous_args = 0
  63              	.LVL3:
  64 0000 08B5     		push	{r3, lr}
  65              	.LCFI0:
  66              		.cfi_def_cfa_offset 8
  67              		.cfi_offset 3, -8
  68              		.cfi_offset 14, -4
  69              		.loc 1 79 0
  70 0002 0346     		mov	r3, r0
  71              		.loc 1 85 0
  72 0004 0068     		ldr	r0, [r0, #0]
  73              	.LVL4:
  74 0006 10B1     		cbz	r0, .L3
  75              		.loc 1 86 0
  76 0008 0268     		ldr	r2, [r0, #0]
  77 000a 1A60     		str	r2, [r3, #0]
  78 000c 08BD     		pop	{r3, pc}
  79              	.L3:
  80              		.loc 1 87 0
  81 000e 9A68     		ldr	r2, [r3, #8]
  82 0010 0AB1     		cbz	r2, .L4
  83              		.loc 1 88 0
  84 0012 5868     		ldr	r0, [r3, #4]
  85              	.LVL5:
  86 0014 9047     		blx	r2
  87              	.LVL6:
  88              	.L4:
  89              		.loc 1 90 0
  90 0016 08BD     		pop	{r3, pc}
  91              		.cfi_endproc
  92              	.LFE8:
  93              		.size	chPoolAllocI, .-chPoolAllocI
  94 0018 AFF30080 		.section	.text.chPoolAlloc,"ax",%progbits
  94      AFF30080 
  95              		.align	2
  96              		.p2align 4,,15
  97              		.global	chPoolAlloc
  98              		.thumb
  99              		.thumb_func
 100              		.type	chPoolAlloc, %function
 101              	chPoolAlloc:
 102              	.LFB9:
 103              		.loc 1 101 0
 104              		.cfi_startproc
 105              		@ args = 0, pretend = 0, frame = 0
 106              		@ frame_needed = 0, uses_anonymous_args = 0
 107              	.LVL7:
 108 0000 08B5     		push	{r3, lr}
 109              	.LCFI1:
 110              		.cfi_def_cfa_offset 8
 111              		.cfi_offset 3, -8
 112              		.cfi_offset 14, -4
 113              		.loc 1 101 0
ARM GAS  /tmp/ccDDnQVi.s 			page 3


 114 0002 0246     		mov	r2, r0
 115              	.LBB10:
 116              		.loc 1 104 0
 117 0004 2023     		movs	r3, #32
 118              	.LVL8:
 119              	@ 104 "./os/kernel/src/chmempools.c" 1
 120 0006 83F31188 		msr     BASEPRI, r3
 121              	@ 0 "" 2
 122              	.LVL9:
 123              		.thumb
 124              	.LBE10:
 125              	.LBB11:
 126              	.LBB12:
 127              		.loc 1 85 0
 128 000a 0068     		ldr	r0, [r0, #0]
 129              	.LVL10:
 130 000c 28B1     		cbz	r0, .L10
 131              		.loc 1 86 0
 132 000e 0368     		ldr	r3, [r0, #0]
 133              	.LVL11:
 134 0010 1360     		str	r3, [r2, #0]
 135              	.LVL12:
 136              	.L11:
 137              	.LBE12:
 138              	.LBE11:
 139              	.LBB14:
 140              		.loc 1 106 0
 141 0012 0023     		movs	r3, #0
 142              	.LVL13:
 143              	@ 106 "./os/kernel/src/chmempools.c" 1
 144 0014 83F31188 		msr     BASEPRI, r3
 145              	@ 0 "" 2
 146              	.LVL14:
 147              		.thumb
 148              	.LBE14:
 149              		.loc 1 108 0
 150 0018 08BD     		pop	{r3, pc}
 151              	.LVL15:
 152              	.L10:
 153              	.LBB15:
 154              	.LBB13:
 155              		.loc 1 87 0
 156 001a 9368     		ldr	r3, [r2, #8]
 157              	.LVL16:
 158 001c 002B     		cmp	r3, #0
 159 001e F8D0     		beq	.L11
 160              		.loc 1 88 0
 161 0020 5068     		ldr	r0, [r2, #4]
 162              	.LVL17:
 163 0022 9847     		blx	r3
 164              	.LVL18:
 165 0024 F5E7     		b	.L11
 166              	.LBE13:
 167              	.LBE15:
 168              		.cfi_endproc
 169              	.LFE9:
 170              		.size	chPoolAlloc, .-chPoolAlloc
ARM GAS  /tmp/ccDDnQVi.s 			page 4


 171              		.section	.text.chPoolFreeI,"ax",%progbits
 172              		.align	2
 173              		.p2align 4,,15
 174              		.global	chPoolFreeI
 175              		.thumb
 176              		.thumb_func
 177              		.type	chPoolFreeI, %function
 178              	chPoolFreeI:
 179              	.LFB10:
 180              		.loc 1 122 0
 181              		.cfi_startproc
 182              		@ args = 0, pretend = 0, frame = 0
 183              		@ frame_needed = 0, uses_anonymous_args = 0
 184              		@ link register save eliminated.
 185              	.LVL19:
 186              		.loc 1 129 0
 187 0000 0368     		ldr	r3, [r0, #0]
 188 0002 0B60     		str	r3, [r1, #0]
 189              		.loc 1 130 0
 190 0004 0160     		str	r1, [r0, #0]
 191 0006 7047     		bx	lr
 192              		.cfi_endproc
 193              	.LFE10:
 194              		.size	chPoolFreeI, .-chPoolFreeI
 195 0008 AFF30080 		.section	.text.chPoolFree,"ax",%progbits
 195      AFF30080 
 196              		.align	2
 197              		.p2align 4,,15
 198              		.global	chPoolFree
 199              		.thumb
 200              		.thumb_func
 201              		.type	chPoolFree, %function
 202              	chPoolFree:
 203              	.LFB11:
 204              		.loc 1 145 0
 205              		.cfi_startproc
 206              		@ args = 0, pretend = 0, frame = 0
 207              		@ frame_needed = 0, uses_anonymous_args = 0
 208              		@ link register save eliminated.
 209              	.LVL20:
 210              	.LBB16:
 211              		.loc 1 147 0
 212 0000 2023     		movs	r3, #32
 213              	.LVL21:
 214              	@ 147 "./os/kernel/src/chmempools.c" 1
 215 0002 83F31188 		msr     BASEPRI, r3
 216              	@ 0 "" 2
 217              	.LVL22:
 218              		.thumb
 219              	.LBE16:
 220              	.LBB17:
 221              	.LBB18:
 222              		.loc 1 129 0
 223 0006 0268     		ldr	r2, [r0, #0]
 224              	.LBE18:
 225              	.LBE17:
 226              	.LBB20:
ARM GAS  /tmp/ccDDnQVi.s 			page 5


 227              		.loc 1 149 0
 228 0008 0023     		movs	r3, #0
 229              	.LVL23:
 230              	.LBE20:
 231              	.LBB21:
 232              	.LBB19:
 233              		.loc 1 129 0
 234 000a 0A60     		str	r2, [r1, #0]
 235              		.loc 1 130 0
 236 000c 0160     		str	r1, [r0, #0]
 237              	.LBE19:
 238              	.LBE21:
 239              	.LBB22:
 240              		.loc 1 149 0
 241              	@ 149 "./os/kernel/src/chmempools.c" 1
 242 000e 83F31188 		msr     BASEPRI, r3
 243              	@ 0 "" 2
 244              	.LVL24:
 245              		.thumb
 246 0012 7047     		bx	lr
 247              	.LBE22:
 248              		.cfi_endproc
 249              	.LFE11:
 250              		.size	chPoolFree, .-chPoolFree
 251 0014 AFF30080 		.text
 251      AFF30080 
 251      AFF30080 
 252              	.Letext0:
 253              		.file 2 "/home/mitchd/Documents/FOX-1/amsat-fox/x86_64-toolchain/arm/bin/../lib/gcc/arm-none-eabi/
 254              		.file 3 "/home/mitchd/Documents/FOX-1/amsat-fox/x86_64-toolchain/arm/bin/../lib/gcc/arm-none-eabi/
 255              		.file 4 "./os/kernel/include/chmemcore.h"
 256              		.file 5 "./os/kernel/include/chmempools.h"