ARM GAS  /tmp/ccjhKKXY.s 			page 1


   1              		.syntax unified
   2              		.cpu cortex-m4
   3              		.fpu softvfp
   4              		.eabi_attribute 20, 1
   5              		.eabi_attribute 21, 1
   6              		.eabi_attribute 23, 3
   7              		.eabi_attribute 24, 1
   8              		.eabi_attribute 25, 1
   9              		.eabi_attribute 26, 1
  10              		.eabi_attribute 30, 2
  11              		.eabi_attribute 34, 1
  12              		.eabi_attribute 18, 4
  13              		.thumb
  14              		.file	"chprintf.c"
  15              		.text
  16              	.Ltext0:
  17              		.cfi_sections	.debug_frame
  18              		.section	.text.chprintf,"ax",%progbits
  19              		.align	2
  20              		.p2align 4,,15
  21              		.global	chprintf
  22              		.thumb
  23              		.thumb_func
  24              		.type	chprintf, %function
  25              	chprintf:
  26              	.LFB8:
  27              		.file 1 "./os/various/chprintf.c"
  28              		.loc 1 86 0
  29              		.cfi_startproc
  30              		@ args = 4, pretend = 12, frame = 32
  31              		@ frame_needed = 0, uses_anonymous_args = 1
  32              	.LVL0:
  33 0000 0EB4     		push	{r1, r2, r3}
  34              	.LCFI0:
  35              		.cfi_def_cfa_offset 12
  36              		.cfi_offset 3, -4
  37              		.cfi_offset 2, -8
  38              		.cfi_offset 1, -12
  39 0002 2DE9F04F 		push	{r4, r5, r6, r7, r8, r9, sl, fp, lr}
  40              	.LCFI1:
  41              		.cfi_def_cfa_offset 48
  42              		.cfi_offset 14, -16
  43              		.cfi_offset 11, -20
  44              		.cfi_offset 10, -24
  45              		.cfi_offset 9, -28
  46              		.cfi_offset 8, -32
  47              		.cfi_offset 7, -36
  48              		.cfi_offset 6, -40
  49              		.cfi_offset 5, -44
  50              		.cfi_offset 4, -48
  51 0006 88B0     		sub	sp, sp, #32
  52              	.LCFI2:
  53              		.cfi_def_cfa_offset 80
  54              		.loc 1 86 0
  55 0008 11A9     		add	r1, sp, #68
  56              		.loc 1 197 0
  57 000a 0DF11107 		add	r7, sp, #17
ARM GAS  /tmp/ccjhKKXY.s 			page 2


  58              		.loc 1 105 0
  59 000e 0DF1100B 		add	fp, sp, #16
  60              		.loc 1 86 0
  61 0012 51F8044B 		ldr	r4, [r1], #4
  62              		.loc 1 197 0
  63 0016 0097     		str	r7, [sp, #0]
  64              	.LBB6:
  65              	.LBB7:
  66              		.loc 1 48 0
  67 0018 4CF6CD42 		movw	r2, #52429
  68              	.LBE7:
  69              	.LBE6:
  70              		.loc 1 197 0
  71 001c CBEB0703 		rsb	r3, fp, r7
  72              	.LBB12:
  73              	.LBB8:
  74              		.loc 1 48 0
  75 0020 CCF6CC42 		movt	r2, 52428
  76              	.LBE8:
  77              	.LBE12:
  78              		.loc 1 86 0
  79 0024 0546     		mov	r5, r0
  80              		.loc 1 94 0
  81 0026 0791     		str	r1, [sp, #28]
  82              		.loc 1 197 0
  83 0028 0293     		str	r3, [sp, #8]
  84              	.LBB13:
  85              	.LBB9:
  86              		.loc 1 48 0
  87 002a 0192     		str	r2, [sp, #4]
  88              	.LVL1:
  89              	.L99:
  90              	.LBE9:
  91              	.LBE13:
  92              		.loc 1 96 0
  93 002c 2178     		ldrb	r1, [r4, #0]	@ zero_extendqisi2
  94              	.LVL2:
  95              		.loc 1 97 0
  96 002e 61B1     		cbz	r1, .L100
  97              	.LVL3:
  98              	.L118:
  99              		.loc 1 96 0
 100 0030 661C     		adds	r6, r4, #1
 101              		.loc 1 101 0
 102 0032 2529     		cmp	r1, #37
 103 0034 0ED0     		beq	.L4
 104              		.loc 1 102 0
 105 0036 2A68     		ldr	r2, [r5, #0]
 106 0038 2846     		mov	r0, r5
 107 003a 1469     		ldr	r4, [r2, #16]
 108 003c 4FF0FF32 		mov	r2, #-1
 109 0040 A047     		blx	r4
 110              		.loc 1 96 0
 111 0042 3446     		mov	r4, r6
 112              	.LVL4:
 113 0044 2178     		ldrb	r1, [r4, #0]	@ zero_extendqisi2
 114              	.LVL5:
ARM GAS  /tmp/ccjhKKXY.s 			page 3


 115              		.loc 1 97 0
 116 0046 0029     		cmp	r1, #0
 117 0048 F2D1     		bne	.L118
 118              	.LVL6:
 119              	.L100:
 120              		.loc 1 222 0
 121 004a 08B0     		add	sp, sp, #32
 122 004c BDE8F04F 		pop	{r4, r5, r6, r7, r8, r9, sl, fp, lr}
 123 0050 03B0     		add	sp, sp, #12
 124 0052 7047     		bx	lr
 125              	.L4:
 126              	.LVL7:
 127              		.loc 1 108 0
 128 0054 6378     		ldrb	r3, [r4, #1]	@ zero_extendqisi2
 129 0056 2D2B     		cmp	r3, #45
 130 0058 00F0F381 		beq	.L119
 131              		.loc 1 107 0
 132 005c 0020     		movs	r0, #0
 133              	.LVL8:
 134              	.L6:
 135              		.loc 1 113 0
 136 005e 2E2B     		cmp	r3, #46
 137 0060 00F0EA81 		beq	.L120
 138              		.loc 1 112 0
 139 0064 4FF02008 		mov	r8, #32
 140              	.LVL9:
 141              	.L7:
 142              		.loc 1 114 0
 143 0068 079F     		ldr	r7, [sp, #28]
 144              		.loc 1 86 0
 145 006a 3446     		mov	r4, r6
 146              		.loc 1 117 0
 147 006c 4FF0000A 		mov	sl, #0
 148 0070 07E0     		b	.L10
 149              	.LVL10:
 150              	.L121:
 151              		.loc 1 123 0
 152 0072 3A78     		ldrb	r2, [r7, #0]	@ zero_extendqisi2
 153              	.LVL11:
 154 0074 0437     		adds	r7, r7, #4
 155              	.LVL12:
 156              	.L8:
 157              		.loc 1 126 0
 158 0076 0AEB8A03 		add	r3, sl, sl, lsl #2
 159 007a 02EB430A 		add	sl, r2, r3, lsl #1
 160              	.LVL13:
 161 007e 16F8013F 		ldrb	r3, [r6, #1]!	@ zero_extendqisi2
 162              	.LVL14:
 163              	.L10:
 164              		.loc 1 120 0
 165 0082 A3F13001 		sub	r1, r3, #48
 166 0086 CAB2     		uxtb	r2, r1
 167              		.loc 1 119 0
 168 0088 0134     		adds	r4, r4, #1
 169              	.LVL15:
 170              		.loc 1 120 0
 171 008a 092A     		cmp	r2, #9
ARM GAS  /tmp/ccjhKKXY.s 			page 4


 172 008c F3D9     		bls	.L8
 173              		.loc 1 122 0
 174 008e 2A2B     		cmp	r3, #42
 175 0090 EFD0     		beq	.L121
 176              		.loc 1 129 0
 177 0092 0021     		movs	r1, #0
 178 0094 2E2B     		cmp	r3, #46
 179              		.loc 1 127 0
 180 0096 0797     		str	r7, [sp, #28]
 181              	.LVL16:
 182              		.loc 1 129 0
 183 0098 4CD0     		beq	.L14
 184              	.LVL17:
 185              		.loc 1 143 0
 186 009a 6C2B     		cmp	r3, #108
 187 009c 56D0     		beq	.L15
 188              	.LVL18:
 189              	.L122:
 190              		.loc 1 143 0 is_stmt 0 discriminator 1
 191 009e 4C2B     		cmp	r3, #76
 192 00a0 54D0     		beq	.L15
 193              		.loc 1 149 0 is_stmt 1
 194 00a2 A3F14107 		sub	r7, r3, #65
 195 00a6 FAB2     		uxtb	r2, r7
 196 00a8 192A     		cmp	r2, #25
 197 00aa 8CBF     		ite	hi
 198 00ac 0022     		movhi	r2, #0
 199 00ae 0122     		movls	r2, #1
 200              	.LVL19:
 201              	.L17:
 202              		.loc 1 152 0
 203 00b0 A3F14406 		sub	r6, r3, #68
 204 00b4 342E     		cmp	r6, #52
 205 00b6 00F2B781 		bhi	.L18
 206 00ba DFE816F0 		tbh	[pc, r6, lsl #1]
 207              	.L25:
 208 00be 7401     		.2byte	(.L19-.L25)/2
 209 00c0 B501     		.2byte	(.L18-.L25)/2
 210 00c2 B501     		.2byte	(.L18-.L25)/2
 211 00c4 B501     		.2byte	(.L18-.L25)/2
 212 00c6 B501     		.2byte	(.L18-.L25)/2
 213 00c8 B501     		.2byte	(.L18-.L25)/2
 214 00ca B501     		.2byte	(.L18-.L25)/2
 215 00cc B501     		.2byte	(.L18-.L25)/2
 216 00ce B501     		.2byte	(.L18-.L25)/2
 217 00d0 B501     		.2byte	(.L18-.L25)/2
 218 00d2 B501     		.2byte	(.L18-.L25)/2
 219 00d4 6C01     		.2byte	(.L20-.L25)/2
 220 00d6 B501     		.2byte	(.L18-.L25)/2
 221 00d8 B501     		.2byte	(.L18-.L25)/2
 222 00da B501     		.2byte	(.L18-.L25)/2
 223 00dc B501     		.2byte	(.L18-.L25)/2
 224 00de B501     		.2byte	(.L18-.L25)/2
 225 00e0 BB01     		.2byte	(.L53-.L25)/2
 226 00e2 B501     		.2byte	(.L18-.L25)/2
 227 00e4 B501     		.2byte	(.L18-.L25)/2
 228 00e6 2F01     		.2byte	(.L22-.L25)/2
ARM GAS  /tmp/ccjhKKXY.s 			page 5


 229 00e8 B501     		.2byte	(.L18-.L25)/2
 230 00ea B501     		.2byte	(.L18-.L25)/2
 231 00ec B501     		.2byte	(.L18-.L25)/2
 232 00ee B501     		.2byte	(.L18-.L25)/2
 233 00f0 B501     		.2byte	(.L18-.L25)/2
 234 00f2 B501     		.2byte	(.L18-.L25)/2
 235 00f4 B501     		.2byte	(.L18-.L25)/2
 236 00f6 B501     		.2byte	(.L18-.L25)/2
 237 00f8 B501     		.2byte	(.L18-.L25)/2
 238 00fa B501     		.2byte	(.L18-.L25)/2
 239 00fc E600     		.2byte	(.L23-.L25)/2
 240 00fe 7401     		.2byte	(.L19-.L25)/2
 241 0100 B501     		.2byte	(.L18-.L25)/2
 242 0102 B501     		.2byte	(.L18-.L25)/2
 243 0104 B501     		.2byte	(.L18-.L25)/2
 244 0106 B501     		.2byte	(.L18-.L25)/2
 245 0108 B501     		.2byte	(.L18-.L25)/2
 246 010a B501     		.2byte	(.L18-.L25)/2
 247 010c B501     		.2byte	(.L18-.L25)/2
 248 010e B501     		.2byte	(.L18-.L25)/2
 249 0110 B501     		.2byte	(.L18-.L25)/2
 250 0112 B501     		.2byte	(.L18-.L25)/2
 251 0114 6C01     		.2byte	(.L20-.L25)/2
 252 0116 B501     		.2byte	(.L18-.L25)/2
 253 0118 B501     		.2byte	(.L18-.L25)/2
 254 011a B501     		.2byte	(.L18-.L25)/2
 255 011c 4F00     		.2byte	(.L24-.L25)/2
 256 011e B501     		.2byte	(.L18-.L25)/2
 257 0120 BB01     		.2byte	(.L53-.L25)/2
 258 0122 B501     		.2byte	(.L18-.L25)/2
 259 0124 B501     		.2byte	(.L18-.L25)/2
 260 0126 2F01     		.2byte	(.L22-.L25)/2
 261              	.LVL20:
 262              	.L13:
 263              		.loc 1 135 0
 264 0128 3A78     		ldrb	r2, [r7, #0]	@ zero_extendqisi2
 265              	.LVL21:
 266 012a 0437     		adds	r7, r7, #4
 267              	.LVL22:
 268              	.L12:
 269              		.loc 1 138 0
 270 012c 01EB8109 		add	r9, r1, r1, lsl #2
 271              	.LVL23:
 272              		.loc 1 139 0
 273 0130 02EB4901 		add	r1, r2, r9, lsl #1
 274              	.LVL24:
 275              	.L14:
 276              		.loc 1 131 0
 277 0134 14F8013B 		ldrb	r3, [r4], #1	@ zero_extendqisi2
 278              	.LVL25:
 279              		.loc 1 132 0
 280 0138 A3F13006 		sub	r6, r3, #48
 281 013c F2B2     		uxtb	r2, r6
 282 013e 092A     		cmp	r2, #9
 283 0140 F4D9     		bls	.L12
 284              		.loc 1 134 0
 285 0142 2A2B     		cmp	r3, #42
ARM GAS  /tmp/ccjhKKXY.s 			page 6


 286 0144 F0D0     		beq	.L13
 287              		.loc 1 143 0
 288 0146 6C2B     		cmp	r3, #108
 289              		.loc 1 134 0
 290 0148 0797     		str	r7, [sp, #28]
 291              		.loc 1 143 0
 292 014a A8D1     		bne	.L122
 293              	.LVL26:
 294              	.L15:
 295              		.loc 1 145 0
 296 014c 2278     		ldrb	r2, [r4, #0]	@ zero_extendqisi2
 297 014e 002A     		cmp	r2, #0
 298 0150 00F07B81 		beq	.L52
 299              	.LVL27:
 300              		.loc 1 146 0
 301 0154 1346     		mov	r3, r2
 302 0156 0134     		adds	r4, r4, #1
 303              	.LVL28:
 304              		.loc 1 144 0
 305 0158 0122     		movs	r2, #1
 306              	.LVL29:
 307 015a A9E7     		b	.L17
 308              	.LVL30:
 309              	.L24:
 310              		.loc 1 159 0
 311 015c 079F     		ldr	r7, [sp, #28]
 312              		.loc 1 160 0
 313 015e A84A     		ldr	r2, .L130
 314              	.LVL31:
 315              		.loc 1 159 0
 316 0160 3B1D     		adds	r3, r7, #4
 317              	.LVL32:
 318 0162 0793     		str	r3, [sp, #28]
 319 0164 3F68     		ldr	r7, [r7, #0]
 320              	.LVL33:
 321              		.loc 1 160 0
 322 0166 002F     		cmp	r7, #0
 323 0168 08BF     		it	eq
 324 016a 1746     		moveq	r7, r2
 325              	.LVL34:
 326              		.loc 1 162 0
 327 016c 47F6FF78 		movw	r8, #32767
 328              		.loc 1 163 0
 329 0170 3B78     		ldrb	r3, [r7, #0]	@ zero_extendqisi2
 330              		.loc 1 162 0
 331 0172 0029     		cmp	r1, #0
 332 0174 08BF     		it	eq
 333 0176 4146     		moveq	r1, r8
 334              	.LVL35:
 335              		.loc 1 163 0
 336 0178 002B     		cmp	r3, #0
 337 017a 00F08281 		beq	.L56
 338 017e FE43     		mvns	r6, r7
 339              	.LVL36:
 340              		.loc 1 86 0
 341 0180 7918     		adds	r1, r7, r1
 342              		.loc 1 163 0
ARM GAS  /tmp/ccjhKKXY.s 			page 7


 343 0182 7A78     		ldrb	r2, [r7, #1]	@ zero_extendqisi2
 344 0184 01EB060C 		add	ip, r1, r6
 345 0188 07F10109 		add	r9, r7, #1
 346 018c 0CF00106 		and	r6, ip, #1
 347 0190 4B46     		mov	r3, r9
 348 0192 A2B1     		cbz	r2, .L104
 349 0194 8945     		cmp	r9, r1
 350 0196 12D0     		beq	.L104
 351 0198 2EB1     		cbz	r6, .L30
 352 019a 13F8012F 		ldrb	r2, [r3, #1]!	@ zero_extendqisi2
 353 019e 09F10109 		add	r9, r9, #1
 354              	.LVL37:
 355 01a2 52B9     		cbnz	r2, .L92
 356 01a4 0BE0     		b	.L104
 357              	.L30:
 358              		.loc 1 163 0 is_stmt 0 discriminator 1
 359 01a6 5A78     		ldrb	r2, [r3, #1]	@ zero_extendqisi2
 360 01a8 09F10109 		add	r9, r9, #1
 361 01ac 0133     		adds	r3, r3, #1
 362 01ae 32B1     		cbz	r2, .L104
 363              		.loc 1 163 0 discriminator 2
 364 01b0 5A78     		ldrb	r2, [r3, #1]	@ zero_extendqisi2
 365 01b2 09F10109 		add	r9, r9, #1
 366 01b6 0133     		adds	r3, r3, #1
 367 01b8 0AB1     		cbz	r2, .L104
 368              	.L92:
 369              		.loc 1 163 0
 370 01ba 8945     		cmp	r9, r1
 371 01bc F3D1     		bne	.L30
 372              	.L104:
 373 01be C7EB0909 		rsb	r9, r7, r9
 374              		.loc 1 201 0 is_stmt 1
 375 01c2 C9EB0A01 		rsb	r1, r9, sl
 376              		.loc 1 158 0
 377 01c6 4FF02008 		mov	r8, #32
 378              	.LVL38:
 379              		.loc 1 201 0
 380 01ca 21EAE17A 		bic	sl, r1, r1, asr #31
 381              	.LVL39:
 382              		.loc 1 203 0
 383 01ce 0028     		cmp	r0, #0
 384 01d0 6CD0     		beq	.L123
 385              	.LVL40:
 386              	.L43:
 387              		.loc 1 214 0 discriminator 1
 388 01d2 B9F1000F 		cmp	r9, #0
 389 01d6 30DD     		ble	.L46
 390              		.loc 1 215 0
 391 01d8 3E46     		mov	r6, r7
 392 01da 2A68     		ldr	r2, [r5, #0]
 393 01dc 16F8011B 		ldrb	r1, [r6], #1	@ zero_extendqisi2
 394 01e0 1369     		ldr	r3, [r2, #16]
 395              		.loc 1 86 0
 396 01e2 B944     		add	r9, r7, r9
 397              	.LVL41:
 398 01e4 FF43     		mvns	r7, r7
 399              	.LVL42:
ARM GAS  /tmp/ccjhKKXY.s 			page 8


 400 01e6 09EB070E 		add	lr, r9, r7
 401              		.loc 1 215 0
 402 01ea 2846     		mov	r0, r5
 403 01ec 4FF0FF32 		mov	r2, #-1
 404 01f0 0EF00107 		and	r7, lr, #1
 405 01f4 9847     		blx	r3
 406              	.LVL43:
 407              		.loc 1 214 0
 408 01f6 4E45     		cmp	r6, r9
 409 01f8 1FD0     		beq	.L46
 410 01fa 4FB1     		cbz	r7, .L108
 411              		.loc 1 215 0
 412 01fc 2A68     		ldr	r2, [r5, #0]
 413 01fe 16F8011B 		ldrb	r1, [r6], #1	@ zero_extendqisi2
 414              	.LVL44:
 415 0202 1369     		ldr	r3, [r2, #16]
 416 0204 2846     		mov	r0, r5
 417 0206 4FF0FF32 		mov	r2, #-1
 418 020a 9847     		blx	r3
 419              		.loc 1 214 0
 420 020c 4E45     		cmp	r6, r9
 421 020e 14D0     		beq	.L46
 422              	.L108:
 423 0210 2746     		mov	r7, r4
 424              	.LVL45:
 425              	.L47:
 426              		.loc 1 215 0
 427 0212 3446     		mov	r4, r6
 428 0214 2A68     		ldr	r2, [r5, #0]
 429 0216 14F8011B 		ldrb	r1, [r4], #1	@ zero_extendqisi2
 430 021a 1369     		ldr	r3, [r2, #16]
 431 021c 2846     		mov	r0, r5
 432 021e 4FF0FF32 		mov	r2, #-1
 433 0222 9847     		blx	r3
 434 0224 2868     		ldr	r0, [r5, #0]
 435 0226 7178     		ldrb	r1, [r6, #1]	@ zero_extendqisi2
 436 0228 4FF0FF32 		mov	r2, #-1
 437 022c 661C     		adds	r6, r4, #1
 438 022e 0469     		ldr	r4, [r0, #16]
 439 0230 2846     		mov	r0, r5
 440 0232 A047     		blx	r4
 441              		.loc 1 214 0
 442 0234 4E45     		cmp	r6, r9
 443 0236 ECD1     		bne	.L47
 444 0238 3C46     		mov	r4, r7
 445              	.LVL46:
 446              	.L46:
 447              		.loc 1 217 0 discriminator 1
 448 023a BAF1000F 		cmp	sl, #0
 449 023e 3FF4F5AE 		beq	.L99
 450              		.loc 1 218 0
 451 0242 2E68     		ldr	r6, [r5, #0]
 452 0244 0AF1FF3C 		add	ip, sl, #-1
 453 0248 3369     		ldr	r3, [r6, #16]
 454 024a 2846     		mov	r0, r5
 455              		.loc 1 217 0
 456 024c 6646     		mov	r6, ip
ARM GAS  /tmp/ccjhKKXY.s 			page 9


 457              		.loc 1 218 0
 458 024e 4146     		mov	r1, r8
 459 0250 4FF0FF32 		mov	r2, #-1
 460 0254 0CF00107 		and	r7, ip, #1
 461 0258 9847     		blx	r3
 462              		.loc 1 217 0
 463 025a 002E     		cmp	r6, #0
 464 025c 3FF4E6AE 		beq	.L99
 465 0260 0FB1     		cbz	r7, .L59
 466              		.loc 1 218 0
 467 0262 2B68     		ldr	r3, [r5, #0]
 468 0264 08E0     		b	.L114
 469              	.LVL47:
 470              	.L59:
 471 0266 2868     		ldr	r0, [r5, #0]
 472 0268 4146     		mov	r1, r8
 473 026a 0369     		ldr	r3, [r0, #16]
 474 026c 4FF0FF32 		mov	r2, #-1
 475 0270 2846     		mov	r0, r5
 476 0272 9847     		blx	r3
 477 0274 2B68     		ldr	r3, [r5, #0]
 478              		.loc 1 219 0
 479 0276 013E     		subs	r6, r6, #1
 480              	.L114:
 481              		.loc 1 218 0
 482 0278 1B69     		ldr	r3, [r3, #16]
 483 027a 2846     		mov	r0, r5
 484 027c 4146     		mov	r1, r8
 485 027e 4FF0FF32 		mov	r2, #-1
 486 0282 9847     		blx	r3
 487              		.loc 1 217 0
 488 0284 013E     		subs	r6, r6, #1
 489 0286 EED1     		bne	.L59
 490 0288 D0E6     		b	.L99
 491              	.LVL48:
 492              	.L23:
 493              		.loc 1 155 0
 494 028a 079B     		ldr	r3, [sp, #28]
 495              	.LVL49:
 496 028c DDF80890 		ldr	r9, [sp, #8]
 497 0290 1A68     		ldr	r2, [r3, #0]
 498              	.LVL50:
 499 0292 191D     		adds	r1, r3, #4
 500              	.LVL51:
 501 0294 0791     		str	r1, [sp, #28]
 502 0296 8DF81020 		strb	r2, [sp, #16]
 503              	.LVL52:
 504              		.loc 1 154 0
 505 029a 4FF02008 		mov	r8, #32
 506              		.loc 1 106 0
 507 029e 5F46     		mov	r7, fp
 508              	.LVL53:
 509              	.L26:
 510              		.loc 1 201 0
 511 02a0 C9EB0A01 		rsb	r1, r9, sl
 512              	.LVL54:
 513 02a4 21EAE17A 		bic	sl, r1, r1, asr #31
ARM GAS  /tmp/ccjhKKXY.s 			page 10


 514              	.LVL55:
 515              		.loc 1 203 0
 516 02a8 0028     		cmp	r0, #0
 517 02aa 92D1     		bne	.L43
 518              	.LVL56:
 519              	.L123:
 520              		.loc 1 204 0
 521 02ac CAF1000A 		rsb	sl, sl, #0
 522              	.LVL57:
 523              		.loc 1 205 0
 524 02b0 BAF1000F 		cmp	sl, #0
 525 02b4 8DD0     		beq	.L43
 526              		.loc 1 206 0
 527 02b6 3978     		ldrb	r1, [r7, #0]	@ zero_extendqisi2
 528 02b8 2D29     		cmp	r1, #45
 529 02ba 00F0D480 		beq	.L124
 530              	.LVL58:
 531              	.L45:
 532              		.loc 1 211 0 discriminator 1
 533 02be 2868     		ldr	r0, [r5, #0]
 534 02c0 6FEA0A01 		mvn	r1, sl
 535 02c4 0369     		ldr	r3, [r0, #16]
 536 02c6 01F00106 		and	r6, r1, #1
 537              	.LVL59:
 538 02ca 2846     		mov	r0, r5
 539 02cc 4146     		mov	r1, r8
 540 02ce 4FF0FF32 		mov	r2, #-1
 541 02d2 9847     		blx	r3
 542              	.LVL60:
 543              		.loc 1 212 0 discriminator 1
 544 02d4 1AF1010A 		adds	sl, sl, #1
 545              	.LVL61:
 546 02d8 3FF47BAF 		beq	.L43
 547 02dc 56B1     		cbz	r6, .L60
 548              		.loc 1 211 0
 549 02de 2B68     		ldr	r3, [r5, #0]
 550 02e0 2846     		mov	r0, r5
 551 02e2 1B69     		ldr	r3, [r3, #16]
 552 02e4 4146     		mov	r1, r8
 553 02e6 4FF0FF32 		mov	r2, #-1
 554 02ea 9847     		blx	r3
 555              	.LVL62:
 556              		.loc 1 212 0
 557 02ec 1AF1010A 		adds	sl, sl, #1
 558              	.LVL63:
 559 02f0 3FF46FAF 		beq	.L43
 560              	.L60:
 561              		.loc 1 211 0 discriminator 1
 562 02f4 2868     		ldr	r0, [r5, #0]
 563 02f6 4146     		mov	r1, r8
 564 02f8 0369     		ldr	r3, [r0, #16]
 565 02fa 4FF0FF32 		mov	r2, #-1
 566 02fe 2846     		mov	r0, r5
 567 0300 9847     		blx	r3
 568 0302 2B68     		ldr	r3, [r5, #0]
 569              		.loc 1 212 0 discriminator 1
 570 0304 0AF1010A 		add	sl, sl, #1
ARM GAS  /tmp/ccjhKKXY.s 			page 11


 571              	.LVL64:
 572              		.loc 1 211 0 discriminator 1
 573 0308 1B69     		ldr	r3, [r3, #16]
 574 030a 2846     		mov	r0, r5
 575 030c 4146     		mov	r1, r8
 576 030e 4FF0FF32 		mov	r2, #-1
 577 0312 9847     		blx	r3
 578              	.LVL65:
 579              		.loc 1 212 0 discriminator 1
 580 0314 1AF1010A 		adds	sl, sl, #1
 581              	.LVL66:
 582 0318 ECD1     		bne	.L60
 583 031a 5AE7     		b	.L43
 584              	.LVL67:
 585              	.L22:
 586              		.loc 1 152 0
 587 031c 1027     		movs	r7, #16
 588              	.L21:
 589              	.LVL68:
 590              		.loc 1 191 0
 591 031e 079B     		ldr	r3, [sp, #28]
 592              		.loc 1 190 0
 593 0320 002A     		cmp	r2, #0
 594 0322 3CD0     		beq	.L37
 595              	.L126:
 596              		.loc 1 191 0
 597 0324 1E1D     		adds	r6, r3, #4
 598 0326 1A68     		ldr	r2, [r3, #0]
 599              	.LVL69:
 600 0328 0796     		str	r6, [sp, #28]
 601              	.LVL70:
 602              	.L38:
 603              		.loc 1 193 0
 604 032a 0DF11A06 		add	r6, sp, #26
 605              	.LVL71:
 606              	.L40:
 607              	.LBB14:
 608              	.LBB15:
 609              		.loc 1 48 0
 610 032e B2FBF7F9 		udiv	r9, r2, r7
 611 0332 07FB1923 		mls	r3, r7, r9, r2
 612              	.LVL72:
 613              		.loc 1 49 0
 614 0336 03F1300C 		add	ip, r3, #48
 615              	.LVL73:
 616              		.loc 1 50 0
 617 033a BCF1390F 		cmp	ip, #57
 618              		.loc 1 51 0
 619 033e C8BF     		it	gt
 620 0340 03F1370C 		addgt	ip, r3, #55
 621              	.LVL74:
 622              		.loc 1 52 0
 623 0344 5FFA8CF3 		uxtb	r3, ip
 624              		.loc 1 53 0
 625 0348 4A46     		mov	r2, r9
 626              	.LVL75:
 627              		.loc 1 52 0
ARM GAS  /tmp/ccjhKKXY.s 			page 12


 628 034a 3146     		mov	r1, r6
 629              	.LVL76:
 630 034c 06F80139 		strb	r3, [r6], #-1
 631              	.LVL77:
 632              		.loc 1 53 0
 633 0350 002A     		cmp	r2, #0
 634 0352 ECD1     		bne	.L40
 635              		.loc 1 55 0
 636 0354 0DF11B06 		add	r6, sp, #27
 637 0358 C1EB0609 		rsb	r9, r1, r6
 638              	.LVL78:
 639 035c 6FEA0B02 		mvn	r2, fp
 640              	.LVL79:
 641              		.loc 1 86 0
 642 0360 0BEB090C 		add	ip, fp, r9
 643 0364 0CEB0207 		add	r7, ip, r2
 644              	.LVL80:
 645 0368 FA07     		lsls	r2, r7, #31
 646              	.LBE15:
 647              	.LBE14:
 648              		.loc 1 105 0
 649 036a 5E46     		mov	r6, fp
 650 036c 0BD5     		bpl	.L42
 651              	.LVL81:
 652              	.LBB17:
 653              	.LBB16:
 654              		.loc 1 57 0
 655 036e 8BF80030 		strb	r3, [fp, #0]
 656 0372 0DF11106 		add	r6, sp, #17
 657              	.LVL82:
 658              		.loc 1 58 0
 659 0376 11F8013F 		ldrb	r3, [r1, #1]!	@ zero_extendqisi2
 660 037a 04E0     		b	.L42
 661              	.LVL83:
 662              	.L125:
 663 037c 4B78     		ldrb	r3, [r1, #1]	@ zero_extendqisi2
 664              	.LVL84:
 665              		.loc 1 57 0
 666 037e 7370     		strb	r3, [r6, #1]
 667              		.loc 1 58 0
 668 0380 7B78     		ldrb	r3, [r7, #1]	@ zero_extendqisi2
 669 0382 0231     		adds	r1, r1, #2
 670              		.loc 1 57 0
 671 0384 561C     		adds	r6, r2, #1
 672              	.LVL85:
 673              	.L42:
 674 0386 3246     		mov	r2, r6
 675              		.loc 1 58 0
 676 0388 4F1C     		adds	r7, r1, #1
 677              		.loc 1 57 0
 678 038a 02F8013B 		strb	r3, [r2], #1
 679              		.loc 1 58 0
 680 038e 6245     		cmp	r2, ip
 681 0390 F4D1     		bne	.L125
 682              	.LBE16:
 683              	.LBE17:
 684              		.loc 1 106 0
ARM GAS  /tmp/ccjhKKXY.s 			page 13


 685 0392 5F46     		mov	r7, fp
 686              		.loc 1 198 0
 687 0394 84E7     		b	.L26
 688              	.LVL86:
 689              	.L20:
 690 0396 0827     		movs	r7, #8
 691              	.LVL87:
 692              		.loc 1 191 0
 693 0398 079B     		ldr	r3, [sp, #28]
 694              		.loc 1 190 0
 695 039a 002A     		cmp	r2, #0
 696 039c C2D1     		bne	.L126
 697              	.L37:
 698              		.loc 1 193 0
 699 039e 191D     		adds	r1, r3, #4
 700              	.LVL88:
 701 03a0 1A68     		ldr	r2, [r3, #0]
 702              	.LVL89:
 703 03a2 0791     		str	r1, [sp, #28]
 704 03a4 C1E7     		b	.L38
 705              	.LVL90:
 706              	.L19:
 707              		.loc 1 169 0
 708 03a6 079B     		ldr	r3, [sp, #28]
 709              		.loc 1 168 0
 710 03a8 002A     		cmp	r2, #0
 711 03aa 50D1     		bne	.L127
 712              		.loc 1 171 0
 713 03ac 1A68     		ldr	r2, [r3, #0]
 714              	.LVL91:
 715 03ae 1F1D     		adds	r7, r3, #4
 716              		.loc 1 172 0
 717 03b0 002A     		cmp	r2, #0
 718              		.loc 1 171 0
 719 03b2 0797     		str	r7, [sp, #28]
 720              		.loc 1 172 0
 721 03b4 50DB     		blt	.L128
 722              	.LVL92:
 723              	.L57:
 724              		.loc 1 105 0
 725 03b6 DC46     		mov	ip, fp
 726              	.LVL93:
 727              	.L33:
 728              	.LBB18:
 729              	.LBB10:
 730              		.loc 1 46 0
 731 03b8 0CF10B07 		add	r7, ip, #11
 732              	.LVL94:
 733              		.loc 1 86 0
 734 03bc DDF80490 		ldr	r9, [sp, #4]
 735 03c0 3E46     		mov	r6, r7
 736              	.LVL95:
 737              	.L34:
 738              		.loc 1 48 0
 739 03c2 A9FB0231 		umull	r3, r1, r9, r2
 740 03c6 C908     		lsrs	r1, r1, #3
 741 03c8 01EB8103 		add	r3, r1, r1, lsl #2
ARM GAS  /tmp/ccjhKKXY.s 			page 14


 742 03cc A2EB4302 		sub	r2, r2, r3, lsl #1
 743              	.LVL96:
 744              		.loc 1 49 0
 745 03d0 3032     		adds	r2, r2, #48
 746              		.loc 1 86 0
 747 03d2 013E     		subs	r6, r6, #1
 748              	.LVL97:
 749              		.loc 1 52 0
 750 03d4 D3B2     		uxtb	r3, r2
 751 03d6 3370     		strb	r3, [r6, #0]
 752              		.loc 1 53 0
 753 03d8 0A46     		mov	r2, r1
 754 03da 0029     		cmp	r1, #0
 755 03dc F1D1     		bne	.L34
 756              		.loc 1 55 0
 757 03de B91B     		subs	r1, r7, r6
 758              	.LVL98:
 759              		.loc 1 86 0
 760 03e0 0CEB0109 		add	r9, ip, r1
 761 03e4 6FEA0C02 		mvn	r2, ip
 762              	.LVL99:
 763 03e8 09EB0207 		add	r7, r9, r2
 764 03ec FF07     		lsls	r7, r7, #31
 765              		.loc 1 55 0
 766 03ee 0391     		str	r1, [sp, #12]
 767              	.LVL100:
 768              	.LBE10:
 769              	.LBE18:
 770              		.loc 1 86 0
 771 03f0 6146     		mov	r1, ip
 772              	.LVL101:
 773 03f2 0CD5     		bpl	.L36
 774              	.LVL102:
 775              	.LBB19:
 776              	.LBB11:
 777              		.loc 1 57 0
 778 03f4 6146     		mov	r1, ip
 779 03f6 01F8013B 		strb	r3, [r1], #1
 780              	.LVL103:
 781              		.loc 1 58 0
 782 03fa 16F8013F 		ldrb	r3, [r6, #1]!	@ zero_extendqisi2
 783 03fe 06E0     		b	.L36
 784              	.L131:
 785              		.align	2
 786              	.L130:
 787 0400 00000000 		.word	.LC0
 788              	.L129:
 789 0404 7378     		ldrb	r3, [r6, #1]	@ zero_extendqisi2
 790              	.LVL104:
 791              		.loc 1 57 0
 792 0406 4B70     		strb	r3, [r1, #1]
 793              		.loc 1 58 0
 794 0408 7B78     		ldrb	r3, [r7, #1]	@ zero_extendqisi2
 795 040a 0236     		adds	r6, r6, #2
 796              		.loc 1 57 0
 797 040c 511C     		adds	r1, r2, #1
 798              	.LVL105:
ARM GAS  /tmp/ccjhKKXY.s 			page 15


 799              	.L36:
 800 040e 0A46     		mov	r2, r1
 801              		.loc 1 58 0
 802 0410 771C     		adds	r7, r6, #1
 803              		.loc 1 57 0
 804 0412 02F8013B 		strb	r3, [r2], #1
 805              		.loc 1 58 0
 806 0416 4A45     		cmp	r2, r9
 807 0418 F4D1     		bne	.L129
 808              	.LVL106:
 809              		.loc 1 176 0
 810 041a 039A     		ldr	r2, [sp, #12]
 811 041c 0CEB0207 		add	r7, ip, r2
 812              		.loc 1 58 0
 813 0420 CBEB0709 		rsb	r9, fp, r7
 814              	.LBE11:
 815              	.LBE19:
 816              		.loc 1 106 0
 817 0424 5F46     		mov	r7, fp
 818              		.loc 1 177 0
 819 0426 3BE7     		b	.L26
 820              	.LVL107:
 821              	.L18:
 822              		.loc 1 197 0
 823 0428 8DF81030 		strb	r3, [sp, #16]
 824              	.LVL108:
 825 042c DDF80890 		ldr	r9, [sp, #8]
 826              		.loc 1 106 0
 827 0430 5F46     		mov	r7, fp
 828 0432 35E7     		b	.L26
 829              	.LVL109:
 830              	.L53:
 831              		.loc 1 152 0
 832 0434 0A27     		movs	r7, #10
 833 0436 72E7     		b	.L21
 834              	.LVL110:
 835              	.L120:
 836              		.loc 1 114 0
 837 0438 7378     		ldrb	r3, [r6, #1]	@ zero_extendqisi2
 838              		.loc 1 115 0
 839 043a 4FF03008 		mov	r8, #48
 840              		.loc 1 114 0
 841 043e 0136     		adds	r6, r6, #1
 842              	.LVL111:
 843 0440 12E6     		b	.L7
 844              	.LVL112:
 845              	.L119:
 846              		.loc 1 109 0
 847 0442 A61C     		adds	r6, r4, #2
 848              	.LVL113:
 849 0444 A378     		ldrb	r3, [r4, #2]	@ zero_extendqisi2
 850              		.loc 1 110 0
 851 0446 0120     		movs	r0, #1
 852 0448 09E6     		b	.L6
 853              	.LVL114:
 854              	.L52:
 855              		.loc 1 144 0
ARM GAS  /tmp/ccjhKKXY.s 			page 16


 856 044a 0122     		movs	r2, #1
 857 044c 30E6     		b	.L17
 858              	.LVL115:
 859              	.L127:
 860              		.loc 1 169 0
 861 044e 1A68     		ldr	r2, [r3, #0]
 862              	.LVL116:
 863 0450 191D     		adds	r1, r3, #4
 864              	.LVL117:
 865              		.loc 1 172 0
 866 0452 002A     		cmp	r2, #0
 867              		.loc 1 169 0
 868 0454 0791     		str	r1, [sp, #28]
 869              		.loc 1 172 0
 870 0456 AEDA     		bge	.L57
 871              	.LVL118:
 872              	.L128:
 873              		.loc 1 173 0
 874 0458 2D23     		movs	r3, #45
 875 045a 8DF81030 		strb	r3, [sp, #16]
 876              	.LVL119:
 877              		.loc 1 174 0
 878 045e 5242     		negs	r2, r2
 879              	.LVL120:
 880              		.loc 1 173 0
 881 0460 0DF1110C 		add	ip, sp, #17
 882 0464 A8E7     		b	.L33
 883              	.LVL121:
 884              	.L124:
 885              		.loc 1 206 0 discriminator 1
 886 0466 B8F1300F 		cmp	r8, #48
 887 046a 7FF428AF 		bne	.L45
 888              		.loc 1 207 0
 889 046e 2A68     		ldr	r2, [r5, #0]
 890 0470 2846     		mov	r0, r5
 891              	.LVL122:
 892 0472 1669     		ldr	r6, [r2, #16]
 893 0474 4FF0FF32 		mov	r2, #-1
 894 0478 B047     		blx	r6
 895 047a 0137     		adds	r7, r7, #1
 896              	.LVL123:
 897              		.loc 1 208 0
 898 047c 09F1FF39 		add	r9, r9, #-1
 899              	.LVL124:
 900 0480 1DE7     		b	.L45
 901              	.LVL125:
 902              	.L56:
 903              		.loc 1 163 0
 904 0482 9946     		mov	r9, r3
 905              		.loc 1 158 0
 906 0484 4FF02008 		mov	r8, #32
 907 0488 0AE7     		b	.L26
 908              		.cfi_endproc
 909              	.LFE8:
 910              		.size	chprintf, .-chprintf
 911 048a 00BFAFF3 		.section	.rodata.str1.4,"aMS",%progbits,1
 911      0080
ARM GAS  /tmp/ccjhKKXY.s 			page 17


 912              		.align	2
 913              	.LC0:
 914 0000 286E756C 		.ascii	"(null)\000"
 914      6C2900
 915 0007 00       		.text
 916              	.Letext0:
 917              		.file 2 "/usr/bin/../lib/gcc/arm-none-eabi/4.6.2/include/stdarg.h"
 918              		.file 3 "/usr/bin/../lib/gcc/arm-none-eabi/4.6.2/include/stddef.h"
 919              		.file 4 "/usr/bin/../lib/gcc/arm-none-eabi/4.6.2/../../../../arm-none-eabi/include/stdint.h"
 920              		.file 5 "./os/ports/GCC/ARMCMx/chtypes.h"
 921              		.file 6 "<built-in>"
 922              		.file 7 "./os/kernel/include/chioch.h"