ARM GAS  /tmp/ccjhKKXY.s 			page 1


   1              		.syntax unified
   2              		.cpu cortex-m4
   3              		.fpu softvfp
   4              		.eabi_attribute 20, 1
   5              		.eabi_attribute 21, 1
   6              		.eabi_attribute 23, 3
   7              		.eabi_attribute 24, 1
   8              		.eabi_attribute 25, 1
   9              		.eabi_attribute 26, 1
  10              		.eabi_attribute 30, 2
  11              		.eabi_attribute 34, 1
  12              		.eabi_attribute 18, 4
  13              		.thumb
  14              		.file	"chprintf.c"
  15              		.text
  16              	.Ltext0:
  17              		.cfi_sections	.debug_frame
  18              		.section	.text.chprintf,"ax",%progbits
  19              		.align	2
  20              		.p2align 4,,15
  21              		.global	chprintf
  22              		.thumb
  23              		.thumb_func
  24              		.type	chprintf, %function
  25              	chprintf:
  26              	.LFB8:
  27              		.file 1 "./os/various/chprintf.c"
  28              		.loc 1 86 0
  29              		.cfi_startproc
  30              		@ args = 4, pretend = 12, frame = 32
  31              		@ frame_needed = 0, uses_anonymous_args = 1
  32              	.LVL0:
  33 0000 0EB4     		push	{r1, r2, r3}
  34              	.LCFI0:
  35              		.cfi_def_cfa_offset 12
  36              		.cfi_offset 3, -4
  37              		.cfi_offset 2, -8
  38              		.cfi_offset 1, -12
  39 0002 2DE9F04F 		push	{r4, r5, r6, r7, r8, r9, sl, fp, lr}
  40              	.LCFI1:
  41              		.cfi_def_cfa_offset 48
  42              		.cfi_offset 14, -16
  43              		.cfi_offset 11, -20
  44              		.cfi_offset 10, -24
  45              		.cfi_offset 9, -28
  46              		.cfi_offset 8, -32
  47              		.cfi_offset 7, -36
  48              		.cfi_offset 6, -40
  49              		.cfi_offset 5, -44
  50              		.cfi_offset 4, -48
  51 0006 88B0     		sub	sp, sp, #32
  52              	.LCFI2:
  53              		.cfi_def_cfa_offset 80
  54              		.loc 1 86 0
  55 0008 11A9     		add	r1, sp, #68
  56              		.loc 1 197 0
  57 000a 0DF11107 		add	r7, sp, #17
ARM GAS  /tmp/ccjhKKXY.s 			page 2


  58              		.loc 1 105 0
  59 000e 0DF1100B 		add	fp, sp, #16
  60              		.loc 1 86 0
  61 0012 51F8044B 		ldr	r4, [r1], #4
  62              		.loc 1 197 0
  63 0016 0097     		str	r7, [sp, #0]
  64              	.LBB6:
  65              	.LBB7:
  66              		.loc 1 48 0
  67 0018 4CF6CD42 		movw	r2, #52429
  68              	.LBE7:
  69              	.LBE6:
  70              		.loc 1 197 0
  71 001c CBEB0703 		rsb	r3, fp, r7
  72              	.LBB12:
  73              	.LBB8:
  74              		.loc 1 48 0
  75 0020 CCF6CC42 		movt	r2, 52428
  76              	.LBE8:
  77              	.LBE12:
  78              		.loc 1 86 0
  79 0024 0546     		mov	r5, r0
  80              		.loc 1 94 0
  81 0026 0791     		str	r1, [sp, #28]
  82              		.loc 1 197 0
  83 0028 0293     		str	r3, [sp, #8]
  84              	.LBB13:
  85              	.LBB9:
  86              		.loc 1 48 0
  87 002a 0192     		str	r2, [sp, #4]
  88              	.LVL1:
  89              	.L99:
  90              	.LBE9:
  91              	.LBE13:
  92              		.loc 1 96 0
  93 002c 2178     		ldrb	r1, [r4, #0]	@ zero_extendqisi2
  94              	.LVL2:
  95              		.loc 1 97 0
  96 002e 61B1     		cbz	r1, .L100
  97              	.LVL3:
  98              	.L118:
  99              		.loc 1 96 0
 100 0030 661C     		adds	r6, r4, #1
 101              		.loc 1 101 0
 102 0032 2529     		cmp	r1, #37
 103 0034 0ED0     		beq	.L4
 104              		.loc 1 102 0
 105 0036 2A68     		ldr	r2, [r5, #0]
 106 0038 2846     		mov	r0, r5
 107 003a 1469     		ldr	r4, [r2, #16]
 108 003c 4FF0FF32 		mov	r2, #-1
 109 0040 A047     		blx	r4
 110              		.loc 1 96 0
 111 0042 3446     		mov	r4, r6
 112              	.LVL4:
 113 0044 2178     		ldrb	r1, [r4, #0]	@ zero_extendqisi2
 114              	.LVL5:
ARM GAS  /tmp/ccjhKKXY.s 			page 3


 115              		.loc 1 97 0
 116 0046 0029     		cmp	r1, #0
 117 0048 F2D1     		bne	.L118
 118              	.LVL6:
 119              	.L100:
 120              		.loc 1 222 0
 121 004a 08B0     		add	sp, sp, #32
 122 004c BDE8F04F 		pop	{r4, r5, r6, r7, r8, r9, sl, fp, lr}
 123 0050 03B0     		add	sp, sp, #12
 124 0052 7047     		bx	lr
 125              	.L4:
 126              	.LVL7:
 127              		.loc 1 108 0
 128 0054 6378     		ldrb	r3, [r4, #1]	@ zero_extendqisi2
 129 0056 2D2B     		cmp	r3, #45
 130 0058 00F0F381 		beq	.L119
 131              		.loc 1 107 0
 132 005c 0020     		movs	r0, #0
 133              	.LVL8:
 134              	.L6:
 135              		.loc 1 113 0
 136 005e 2E2B     		cmp	r3, #46
 137 0060 00F0EA81 		beq	.L120
 138              		.loc 1 112 0
 139 0064 4FF02008 		mov	r8, #32
 140              	.LVL9:
 141              	.L7:
 142              		.loc 1 114 0
 143 0068 079F     		ldr	r7, [sp, #28]
 144              		.loc 1 86 0
 145 006a 3446     		mov	r4, r6
 146              		.loc 1 117 0
 147 006c 4FF0000A 		mov	sl, #0
 148 0070 07E0     		b	.L10
 149              	.LVL10:
 150              	.L121:
 151              		.loc 1 123 0
 152 0072 3A78     		ldrb	r2, [r7, #0]	@ zero_extendqisi2
 153              	.LVL11:
 154 0074 0437     		adds	r7, r7, #4
 155              	.LVL12:
 156              	.L8:
 157              		.loc 1 126 0
 158 0076 0AEB8A03 		add	r3, sl, sl, lsl #2
 159 007a 02EB430A 		add	sl, r2, r3, lsl #1
 160              	.LVL13:
 161 007e 16F8013F 		ldrb	r3, [r6, #1]!	@ zero_extendqisi2
 162              	.LVL14:
 163              	.L10:
 164              		.loc 1 120 0
 165 0082 A3F13001 		sub	r1, r3, #48
 166 0086 CAB2     		uxtb	r2, r1
 167              		.loc 1 119 0
 168 0088 0134     		adds	r4, r4, #1
 169              	.LVL15:
 170              		.loc 1 120 0
 171 008a 092A     		cmp	r2, #9
ARM GAS  /tmp/ccjhKKXY.s 			page 4


 172 008c F3D9     		bls	.L8
 173              		.loc 1 122 0
 174 008e 2A2B     		cmp	r3, #42
 175 0090 EFD0     		beq	.L121
 176              		.loc 1 129 0
 177 0092 0021     		movs	r1, #0
 178 0094 2E2B     		cmp	r3, #46
 179              		.loc 1 127 0
 180 0096 0797     		str	r7, [sp, #28]
 181              	.LVL16:
 182              		.loc 1 129 0
 183 0098 4CD0     		beq	.L14
 184              	.LVL17:
 185              		.loc 1 143 0
 186 009a 6C2B     		cmp	r3, #108
 187 009c 56D0     		beq	.L15
 188              	.LVL18:
 189              	.L122:
 190              		.loc 1 143 0 is_stmt 0 discriminator 1
 191 009e 4C2B     		cmp	r3, #76
 192 00a0 54D0     		beq	.L15
 193              		.loc 1 149 0 is_stmt 1
 194 00a2 A3F14107 		sub	r7, r3, #65
 195 00a6 FAB2     		uxtb	r2, r7
 196 00a8 192A     		cmp	r2, #25
 197 00aa 8CBF     		ite	hi
 198 00ac 0022     		movhi	r2, #0
 199 00ae 0122     		movls	r2, #1
 200              	.LVL19:
 201              	.L17:
 202              		.loc 1 152 0
 203 00b0 A3F14406 		sub	r6, r3, #68
 204 00b4 342E     		cmp	r6, #52
 205 00b6 00F2B781 		bhi	.L18
 206 00ba DFE816F0 		tbh	[pc, r6, lsl #1]
 207              	.L25:
 208 00be 7401     		.2byte	(.L19-.L25)/2
 209 00c0 B501     		.2byte	(.L18-.L25)/2
 210 00c2 B501     		.2byte	(.L18-.L25)/2
 211 00c4 B501     		.2byte	(.L18-.L25)/2
 212 00c6 B501     		.2byte	(.L18-.L25)/2
 213 00c8 B501     		.2byte	(.L18-.L25)/2
 214 00ca B501     		.2byte	(.L18-.L25)/2
 215 00cc B501     		.2byte	(.L18-.L25)/2
 216 00ce B501     		.2byte	(.L18-.L25)/2
 217 00d0 B501     		.2byte	(.L18-.L25)/2
 218 00d2 B501     		.2byte	(.L18-.L25)/2
 219 00d4 6C01     		.2byte	(.L20-.L25)/2
 220 00d6 B501     		.2byte	(.L18-.L25)/2
 221 00d8 B501     		.2byte	(.L18-.L25)/2
 222 00da B501     		.2byte	(.L18-.L25)/2
 223 00dc B501     		.2byte	(.L18-.L25)/2
 224 00de B501     		.2byte	(.L18-.L25)/2
 225 00e0 BB01     		.2byte	(.L53-.L25)/2
 226 00e2 B501     		.2byte	(.L18-.L25)/2
 227 00e4 B501     		.2byte	(.L18-.L25)/2
 228 00e6 2F01     		.2byte	(.L22-.L25)/2
ARM GAS  /tmp/ccjhKKXY.s 			page 5


 229 00e8 B501     		.2byte	(.L18-.L25)/2
 230 00ea B501     		.2byte	(.L18-.L25)/2
 231 00ec B501     		.2byte	(.L18-.L25)/2
 232 00ee B501     		.2byte	(.L18-.L25)/2
 233 00f0 B501     		.2byte	(.L18-.L25)/2
 234 00f2 B501     		.2byte	(.L18-.L25)/2
 235 00f4 B501     		.2byte	(.L18-.L25)/2
 236 00f6 B501     		.2byte	(.L18-.L25)/2
 237 00f8 B501     		.2byte	(.L18-.L25)/2
 238 00fa B501     		.2byte	(.L18-.L25)/2
 239 00fc E600     		.2byte	(.L23-.L25)/2
 240 00fe 7401     		.2byte	(.L19-.L25)/2
 241 0100 B501     		.2byte	(.L18-.L25)/2
 242 0102 B501     		.2byte	(.L18-.L25)/2
 243 0104 B501     		.2byte	(.L18-.L25)/2
 244 0106 B501     		.2byte	(.L18-.L25)/2
 245 0108 B501     		.2byte	(.L18-.L25)/2
 246 010a B501     		.2byte	(.L18-.L25)/2
 247 010c B501     		.2byte	(.L18-.L25)/2
 248 010e B501     		.2byte	(.L18-.L25)/2
 249 0110 B501     		.2byte	(.L18-.L25)/2
 250 0112 B501     		.2byte	(.L18-.L25)/2
 251 0114 6C01     		.2byte	(.L20-.L25)/2
 252 0116 B501     		.2byte	(.L18-.L25)/2
 253 0118 B501     		.2byte	(.L18-.L25)/2
 254 011a B501     		.2byte	(.L18-.L25)/2
 255 011c 4F00     		.2byte	(.L24-.L25)/2
 256 011e B501     		.2byte	(.L18-.L25)/2
 257 0120 BB01     		.2byte	(.L53-.L25)/2
 258 0122 B501     		.2byte	(.L18-.L25)/2
 259 0124 B501     		.2byte	(.L18-.L25)/2
 260 0126 2F01     		.2byte	(.L22-.L25)/2
 261              	.LVL20:
 262              	.L13:
 263              		.loc 1 135 0
 264 0128 3A78     		ldrb	r2, [r7, #0]	@ zero_extendqisi2
 265              	.LVL21:
 266 012a 0437     		adds	r7, r7, #4
 267              	.LVL22:
 268              	.L12:
 269              		.loc 1 138 0
 270 012c 01EB8109 		add	r9, r1, r1, lsl #2
 271              	.LVL23:
 272              		.loc 1 139 0
 273 0130 02EB4901 		add	r1, r2, r9, lsl #1
 274              	.LVL24:
 275              	.L14:
 276              		.loc 1 131 0
 277 0134 14F8013B 		ldrb	r3, [r4], #1	@ zero_extendqisi2
 278              	.LVL25:
 279              		.loc 1 132 0
 280 0138 A3F13006 		sub	r6, r3, #48
 281 013c F2B2     		uxtb	r2, r6
 282 013e 092A     		cmp	r2, #9
 283 0140 F4D9     		bls	.L12
 284              		.loc 1 134 0
 285 0142 2A2B     		cmp	r3, #42
ARM GAS  /tmp/ccjhKKXY.s 			page 6


 286 0144 F0D0     		beq	.L13
 287              		.loc 1 143 0
 288 0146 6C2B     		cmp	r3, #108
 289              		.loc 1 134 0
 290 0148 0797     		str	r7, [sp, #28]
 291              		.loc 1 143 0
 292 014a A8D1     		bne	.L122
 293              	.LVL26:
 294              	.L15:
 295              		.loc 1 145 0
 296 014c 2278     		ldrb	r2, [r4, #0]	@ zero_extendqisi2
 297 014e 002A     		cmp	r2, #0
 298 0150 00F07B81 		beq	.L52
 299              	.LVL27:
 300              		.loc 1 146 0
 301 0154 1346     		mov	r3, r2
 302 0156 0134     		adds	r4, r4, #1
 303              	.LVL28:
 304              		.loc 1 144 0
 305 0158 0122     		movs	r2, #1
 306              	.LVL29:
 307 015a A9E7     		b	.L17
 308              	.LVL30:
 309              	.L24:
 310              		.loc 1 159 0
 311 015c 079F     		ldr	r7, [sp, #28]
 312              		.loc 1 160 0
 313 015e A84A     		ldr	r2, .L130
 314              	.LVL31:
 315              		.loc 1 159 0
 316 0160 3B1D     		adds	r3, r7, #4
 317              	.LVL32:
 318 0162 0793     		str	r3, [sp, #28]
 319 0164 3F68     		ldr	r7, [r7, #0]
 320              	.LVL33:
 321              		.loc 1 160 0
 322 0166 002F     		cmp	r7, #0
 323 0168 08BF     		it	eq
 324 016a 1746     		moveq	r7, r2
 325              	.LVL34:
 326              		.loc 1 162 0
 327 016c 47F6FF78 		movw	r8, #32767
 328              		.loc 1 163 0
 329 0170 3B78     		ldrb	r3, [r7, #0]	@ zero_extendqisi2
 330              		.loc 1 162 0
 331 0172 0029     		cmp	r1, #0
 332 0174 08BF     		it	eq
 333 0176 4146     		moveq	r1, r8
 334              	.LVL35:
 335              		.loc 1 163 0
 336 0178 002B     		cmp	r3, #0
 337 017a 00F08281 		beq	.L56
 338 017e FE43     		mvns	r6, r7
 339              	.LVL36:
 340              		.loc 1 86 0
 341 0180 7918     		adds	r1, r7, r1
 342              		.loc 1 163 0
ARM GAS  /tmp/ccjhKKXY.s 			page 7


 343 0182 7A78     		ldrb	r2, [r7, #1]	@ zero_extendqisi2
 344 0184 01EB060C 		add	ip, r1, r6
 345 0188 07F10109 		add	r9, r7, #1
 346 018c 0CF00106 		and	r6, ip, #1
 347 0190 4B46     		mov	r3, r9
 348 0192 A2B1     		cbz	r2, .L104
 349 0194 8945     		cmp	r9, r1
 350 0196 12D0     		beq	.L104
 351 0198 2EB1     		cbz	r6, .L30
 352 019a 13F8012F 		ldrb	r2, [r3, #1]!	@ zero_extendqisi2
 353 019e 09F10109 		add	r9, r9, #1
 354              	.LVL37:
 355 01a2 52B9     		cbnz	r2, .L92
 356 01a4 0BE0     		b	.L104
 357              	.L30:
 358              		.loc 1 163 0 is_stmt 0 discriminator 1
 359 01a6 5A78     		ldrb	r2, [r3, #1]	@ zero_extendqisi2
 360 01a8 09F10109 		add	r9, r9, #1
 361 01ac 0133     		adds	r3, r3, #1
 362 01ae 32B1     		cbz	r2, .L104
 363              		.loc 1 163 0 discriminator 2
 364 01b0 5A78     		ldrb	r2, [r3, #1]	@ zero_extendqisi2
 365 01b2 09F10109 		add	r9, r9, #1
 366 01b6 0133     		adds	r3, r3, #1
 367 01b8 0AB1     		cbz	r2, .L104
 368              	.L92:
 369              		.loc 1 163 0
 370 01ba 8945     		cmp	r9, r1
 371 01bc F3D1     		bne	.L30
 372              	.L104:
 373 01be C7EB0909 		rsb	r9, r7, r9
 374              		.loc 1 201 0 is_stmt 1
 375 01c2 C9EB0A01 		rsb	r1, r9, sl
 376              		.loc 1 158 0
 377 01c6 4FF02008 		mov	r8, #32
 378              	.LVL38:
 379              		.loc 1 201 0
 380 01ca 21EAE17A 		bic	sl, r1, r1, asr #31
 381              	.LVL39:
 382              		.loc 1 203 0
 383 01ce 0028     		cmp	r0, #0
 384 01d0 6CD0     		beq	.L123
 385              	.LVL40:
 386              	.L43:
 387              		.loc 1 214 0 discriminator 1
 388 01d2 B9F1000F 		cmp	r9, #0
 389 01d6 30DD     		ble	.L46
 390              		.loc 1 215 0
 391 01d8 3E46     		mov	r6, r7
 392 01da 2A68     		ldr	r2, [r5, #0]
 393 01dc 16F8011B 		ldrb	r1, [r6], #1	@ zero_extendqisi2
 394 01e0 1369     		ldr	r3, [r2, #16]
 395              		.loc 1 86 0
 396 01e2 B944     		add	r9, r7, r9
 397              	.LVL41:
 398 01e4 FF43     		mvns	r7, r7
 399              	.LVL42:
ARM GAS  /tmp/ccjhKKXY.s 			page 8


 400 01e6 09EB070E 		add	lr, r9, r7
 401              		.loc 1 215 0
 402 01ea 2846     		mov	r0, r5
 403 01ec 4FF0FF32 		mov	r2, #-1
 404 01f0 0EF00107 		and	r7, lr, #1
 405 01f4 9847     		blx	r3
 406              	.LVL43:
 407              		.loc 1 214 0
 408 01f6 4E45     		cmp	r6, r9
 409 01f8 1FD0     		beq	.L46
 410 01fa 4FB1     		cbz	r7, .L108
 411              		.loc 1 215 0
 412 01fc 2A68     		ldr	r2, [r5, #0]
 413 01fe 16F8011B 		ldrb	r1, [r6], #1	@ zero_extendqisi2
 414              	.LVL44:
 415 0202 1369     		ldr	r3, [r2, #16]
 416 0204 2846     		mov	r0, r5
 417 0206 4FF0FF32 		mov	r2, #-1
 418 020a 9847     		blx	r3
 419              		.loc 1 214 0
 420 020c 4E45     		cmp	r6, r9
 421 020e 14D0     		beq	.L46
 422              	.L108:
 423 0210 2746     		mov	r7, r4
 424              	.LVL45:
 425              	.L47:
 426              		.loc 1 215 0
 427 0212 3446     		mov	r4, r6
 428 0214 2A68     		ldr	r2, [r5, #0]
 429 0216 14F8011B 		ldrb	r1, [r4], #1	@ zero_extendqisi2
 430 021a 1369     		ldr	r3, [r2, #16]
 431 021c 2846     		mov	r0, r5
 432 021e 4FF0FF32 		mov	r2, #-1
 433 0222 9847     		blx	r3
 434 0224 2868     		ldr	r0, [r5, #0]
 435 0226 7178     		ldrb	r1, [r6, #1]	@ zero_extendqisi2
 436 0228 4FF0FF32 		mov	r2, #-1
 437 022c 661C     		adds	r6, r4, #1
 438 022e 0469     		ldr	r4, [r0, #16]
 439 0230 2846     		mov	r0, r5
 440 0232 A047     		blx	r4
 441              		.loc 1 214 0
 442 0234 4E45     		cmp	r6, r9
 443 0236 ECD1     		bne	.L47
 444 0238 3C46     		mov	r4, r7
 445              	.LVL46:
 446              	.L46:
 447              		.loc 1 217 0 discriminator 1
 448 023a BAF1000F 		cmp	sl, #0
 449 023e 3FF4F5AE 		beq	.L99
 450              		.loc 1 218 0
 451 0242 2E68     		ldr	r6, [r5, #0]
 452 0244 0AF1FF3C 		add	ip, sl, #-1
 453 0248 3369     		ldr	r3, [r6, #16]
 454 024a 2846     		mov	r0, r5
 455              		.loc 1 217 0
 456 024c 6646     		mov	r6, ip
ARM GAS  /tmp/ccjhKKXY.s 			page 9


 457              		.loc 1 218 0
 458 024e 4146     		mov	r1, r8
 459 0250 4FF0FF32 		mov	r2, #-1
 460 0254 0CF00107 		and	r7, ip, #1
 461 0258 9847     		blx	r3
 462              		.loc 1 217 0
 463 025a 002E     		cmp	r6, #0
 464 025c 3FF4E6AE 		beq	.L99
 465 0260 0FB1     		cbz	r7, .L59
 466              		.loc 1 218 0
 467 0262 2B68     		ldr	r3, [r5, #0]
 468 0264 08E0     		b	.L114
 469              	.LVL47:
 470              	.L59:
 471 0266 2868     		ldr	r0, [r5, #0]
 472 0268 4146     		mov	r1, r8
 473 026a 0369     		ldr	r3, [r0, #16]
 474 026c 4FF0FF32 		mov	r2, #-1
 475 0270 2846     		mov	r0, r5
 476 0272 9847     		blx	r3
 477 0274 2B68     		ldr	r3, [r5, #0]
 478              		.loc 1 219 0
 479 0276 013E     		subs	r6, r6, #1
 480              	.L114:
 481              		.loc 1 218 0
 482 0278 1B69     		ldr	r3, [r3, #16]
 483 027a 2846     		mov	r0, r5
 484 027c 4146     		mov	r1, r8
 485 027e 4FF0FF32 		mov	r2, #-1
 486 0282 9847     		blx	r3
 487              		.loc 1 217 0
 488 0284 013E     		subs	r6, r6, #1
 489 0286 EED1     		bne	.L59
 490 0288 D0E6     		b	.L99
 491              	.LVL48:
 492              	.L23:
 493              		.loc 1 155 0
 494 028a 079B     		ldr	r3, [sp, #28]
 495              	.LVL49:
 496 028c DDF80890 		ldr	r9, [sp, #8]
 497 0290 1A68     		ldr	r2, [r3, #0]
 498              	.LVL50:
 499 0292 191D     		adds	r1, r3, #4
 500              	.LVL51:
 501 0294 0791     		str	r1, [sp, #28]
 502 0296 8DF81020 		strb	r2, [sp, #16]
 503              	.LVL52:
 504              		.loc 1 154 0
 505 029a 4FF02008 		mov	r8, #32
 506              		.loc 1 106 0
 507 029e 5F46     		mov	r7, fp
 508              	.LVL53:
 509              	.L26:
 510              		.loc 1 201 0
 511 02a0 C9EB0A01 		rsb	r1, r9, sl
 512              	.LVL54:
 513 02a4 21EAE17A 		bic	sl, r1, r1, asr #31
ARM GAS  /tmp/ccjhKKXY.s 			page 10


 514              	.LVL55:
 515              		.loc 1 203 0
 516 02a8 0028     		cmp	r0, #0
 517 02aa 92D1     		bne	.L43
 518              	.LVL56:
 519              	.L123:
 520              		.loc 1 204 0
 521 02ac CAF1000A 		rsb	sl, sl, #0
 522              	.LVL57:
 523              		.loc 1 205 0
 524 02b0 BAF1000F 		cmp	sl, #0
 525 02b4 8DD0     		beq	.L43
 526              		.loc 1 206 0
 527 02b6 3978     		ldrb	r1, [r7, #0]	@ zero_extendqisi2
 528 02b8 2D29     		cmp	r1, #45
 529 02ba 00F0D480 		beq	.L124
 530              	.LVL58:
 531              	.L45:
 532              		.loc 1 211 0 discriminator 1
 533 02be 2868     		ldr	r0, [r5, #0]
 534 02c0 6FEA0A01 		mvn	r1, sl
 535 02c4 0369     		ldr	r3, [r0, #16]
 536 02c6 01F00106 		and	r6, r1, #1
 537              	.LVL59:
 538 02ca 2846     		mov	r0, r5
 539 02cc 4146     		mov	r1, r8
 540 02ce 4FF0FF32 		mov	r2, #-1
 541 02d2 9847     		blx	r3
 542              	.LVL60:
 543              		.loc 1 212 0 discriminator 1
 544 02d4 1AF1010A 		adds	sl, sl, #1
 545              	.LVL61:
 546 02d8 3FF47BAF 		beq	.L43
 547 02dc 56B1     		cbz	r6, .L60
 548              		.loc 1 211 0
 549 02de 2B68     		ldr	r3, [r5, #0]
 550 02e0 2846     		mov	r0, r5
 551 02e2 1B69     		ldr	r3, [r3, #16]
 552 02e4 4146     		mov	r1, r8
 553 02e6 4FF0FF32 		mov	r2, #-1
 554 02ea 9847     		blx	r3
 555              	.LVL62:
 556              		.loc 1 212 0
 557 02ec 1AF1010A 		adds	sl, sl, #1
 558              	.LVL63:
 559 02f0 3FF46FAF 		beq	.L43
 560              	.L60:
 561              		.loc 1 211 0 discriminator 1
 562 02f4 2868     		ldr	r0, [r5, #0]
 563 02f6 4146     		mov	r1, r8
 564 02f8 0369     		ldr	r3, [r0, #16]
 565 02fa 4FF0FF32 		mov	r2, #-1
 566 02fe 2846     		mov	r0, r5
 567 0300 9847     		blx	r3
 568 0302 2B68     		ldr	r3, [r5, #0]
 569              		.loc 1 212 0 discriminator 1
 570 0304 0AF1010A 		add	sl, sl, #1
ARM GAS  /tmp/ccjhKKXY.s 			page 11


 571              	.LVL64:
 572              		.loc 1 211 0 discriminator 1
 573 0308 1B69     		ldr	r3, [r3, #16]
 574 030a 2846     		mov	r0, r5
 575 030c 4146     		mov	r1, r8
 576 030e 4FF0FF32 		mov	r2, #-1
 577 0312 9847     		blx	r3
 578              	.LVL65:
 579              		.loc 1 212 0 discriminator 1
 580 0314 1AF1010A 		adds	sl, sl, #1
 581              	.LVL66:
 582 0318 ECD1     		bne	.L60
 583 031a 5AE7     		b	.L43
 584              	.LVL67:
 585              	.L22:
 586              		.loc 1 152 0
 587 031c 1027     		movs	r7, #16
 588              	.L21:
 589              	.LVL68:
 590              		.loc 1 191 0
 591 031e 079B     		ldr	r3, [sp, #28]
 592              		.loc 1 190 0
 593 0320 002A     		cmp	r2, #0
 594 0322 3CD0     		beq	.L37
 595              	.L126:
 596              		.loc 1 191 0
 597 0324 1E1D     		adds	r6, r3, #4
 598 0326 1A68     		ldr	r2, [r3, #0]
 599              	.LVL69:
 600 0328 0796     		str	r6, [sp, #28]
 601              	.LVL70:
 602              	.L38:
 603              		.loc 1 193 0
 604 032a 0DF11A06 		add	r6, sp, #26
 605              	.LVL71:
 606              	.L40:
 607              	.LBB14:
 608              	.LBB15:
 609              		.loc 1 48 0
 610 032e B2FBF7F9 		udiv	r9, r2, r7
 611 0332 07FB1923 		mls	r3, r7, r9, r2
 612              	.LVL72:
 613              		.loc 1 49 0
 614 0336 03F1300C 		add	ip, r3, #48
 615              	.LVL73:
 616              		.loc 1 50 0
 617 033a BCF1390F 		cmp	ip, #57
 618              		.loc 1 51 0
 619 033e C8BF     		it	gt
 620 0340 03F1370C 		addgt	ip, r3, #55
 621              	.LVL74:
 622              		.loc 1 52 0
 623 0344 5FFA8CF3 		uxtb	r3, ip
 624              		.loc 1 53 0
 625 0348 4A46     		mov	r2, r9
 626              	.LVL75:
 627              		.loc 1 52 0
ARM GAS  /tmp/ccjhKKXY.s 			page 12


 628 034a 3146     		mov	r1, r6
 629              	.LVL76:
 630 034c 06F80139 		strb	r3, [r6], #-1
 631              	.LVL77:
 632              		.loc 1 53 0
 633 0350 002A     		cmp	r2, #0
 634 0352 ECD1     		bne	.L40
 635              		.loc 1 55 0
 636 0354 0DF11B06 		add	r6, sp, #27
 637 0358 C1EB0609 		rsb	r9, r1, r6
 638              	.LVL78:
 639 035c 6FEA0B02 		mvn	r2, fp
 640              	.LVL79:
 641              		.loc 1 86 0
 642 0360 0BEB090C 		add	ip, fp, r9
 643 0364 0CEB0207 		add	r7, ip, r2
 644              	.LVL80:
 645 0368 FA07     		lsls	r2, r7, #31
 646              	.LBE15:
 647              	.LBE14:
 648              		.loc 1 105 0
 649 036a 5E46     		mov	r6, fp
 650 036c 0BD5     		bpl	.L42
 651              	.LVL81:
 652              	.LBB17:
 653              	.LBB16:
 654              		.loc 1 57 0
 655 036e 8BF80030 		strb	r3, [fp, #0]
 656 0372 0DF11106 		add	r6, sp, #17
 657              	.LVL82:
 658              		.loc 1 58 0
 659 0376 11F8013F 		ldrb	r3, [r1, #1]!	@ zero_extendqisi2
 660 037a 04E0     		b	.L42
 661              	.LVL83:
 662              	.L125:
 663 037c 4B78     		ldrb	r3, [r1, #1]	@ zero_extendqisi2
 664              	.LVL84:
 665              		.loc 1 57 0
 666 037e 7370     		strb	r3, [r6, #1]
 667              		.loc 1 58 0
 668 0380 7B78     		ldrb	r3, [r7, #1]	@ zero_extendqisi2
 669 0382 0231     		adds	r1, r1, #2
 670              		.loc 1 57 0
 671 0384 561C     		adds	r6, r2, #1
 672              	.LVL85:
 673              	.L42:
 674 0386 3246     		mov	r2, r6
 675              		.loc 1 58 0
 676 0388 4F1C     		adds	r7, r1, #1
 677              		.loc 1 57 0
 678 038a 02F8013B 		strb	r3, [r2], #1
 679              		.loc 1 58 0
 680 038e 6245     		cmp	r2, ip
 681 0390 F4D1     		bne	.L125
 682              	.LBE16:
 683              	.LBE17:
 684              		.loc 1 106 0
ARM GAS  /tmp/ccjhKKXY.s 			page 13


 685 0392 5F46     		mov	r7, fp
 686              		.loc 1 198 0
 687 0394 84E7     		b	.L26
 688              	.LVL86:
 689              	.L20:
 690 0396 0827     		movs	r7, #8
 691              	.LVL87:
 692              		.loc 1 191 0
 693 0398 079B     		ldr	r3, [sp, #28]
 694              		.loc 1 190 0
 695 039a 002A     		cmp	r2, #0
 696 039c C2D1     		bne	.L126
 697              	.L37:
 698              		.loc 1 193 0
 699 039e 191D     		adds	r1, r3, #4
 700              	.LVL88:
 701 03a0 1A68     		ldr	r2, [r3, #0]
 702              	.LVL89:
 703 03a2 0791     		str	r1, [sp, #28]
 704 03a4 C1E7     		b	.L38
 705              	.LVL90:
 706              	.L19:
 707              		.loc 1 169 0
 708 03a6 079B     		ldr	r3, [sp, #28]
 709              		.loc 1 168 0
 710 03a8 002A     		cmp	r2, #0
 711 03aa 50D1     		bne	.L127
 712              		.loc 1 171 0
 713 03ac 1A68     		ldr	r2, [r3, #0]
 714              	.LVL91:
 715 03ae 1F1D     		adds	r7, r3, #4
 716              		.loc 1 172 0
 717 03b0 002A     		cmp	r2, #0
 718              		.loc 1 171 0
 719 03b2 0797     		str	r7, [sp, #28]
 720              		.loc 1 172 0
 721 03b4 50DB     		blt	.L128
 722              	.LVL92:
 723              	.L57:
 724              		.loc 1 105 0
 725 03b6 DC46     		mov	ip, fp
 726              	.LVL93:
 727              	.L33:
 728              	.LBB18:
 729              	.LBB10:
 730              		.loc 1 46 0
 731 03b8 0CF10B07 		add	r7, ip, #11
 732              	.LVL94:
 733              		.loc 1 86 0
 734 03bc DDF80490 		ldr	r9, [sp, #4]
 735 03c0 3E46     		mov	r6, r7
 736              	.LVL95:
 737              	.L34:
 738              		.loc 1 48 0
 739 03c2 A9FB0231 		umull	r3, r1, r9, r2
 740 03c6 C908     		lsrs	r1, r1, #3
 741 03c8 01EB8103 		add	r3, r1, r1, lsl #2
ARM GAS  /tmp/ccjhKKXY.s 			page 14


 742 03cc A2EB4302 		sub	r2, r2, r3, lsl #1
 743              	.LVL96:
 744              		.loc 1 49 0
 745 03d0 3032     		adds	r2, r2, #48
 746              		.loc 1 86 0
 747 03d2 013E     		subs	r6, r6, #1
 748              	.LVL97:
 749              		.loc 1 52 0
 750 03d4 D3B2     		uxtb	r3, r2
 751 03d6 3370     		strb	r3, [r6, #0]
 752              		.loc 1 53 0
 753 03d8 0A46     		mov	r2, r1
 754 03da 0029     		cmp	r1, #0
 755 03dc F1D1     		bne	.L34
 756              		.loc 1 55 0
 757 03de B91B     		subs	r1, r7, r6
 758              	.LVL98:
 759              		.loc 1 86 0
 760 03e0 0CEB0109 		add	r9, ip, r1
 761 03e4 6FEA0C02 		mvn	r2, ip
 762              	.LVL99:
 763 03e8 09EB0207 		add	r7, r9, r2
 764 03ec FF07     		lsls	r7, r7, #31
 765              		.loc 1 55 0
 766 03ee 0391     		str	r1, [sp, #12]
 767              	.LVL100:
 768              	.LBE10:
 769              	.LBE18:
 770              		.loc 1 86 0
 771 03f0 6146     		mov	r1, ip
 772              	.LVL101:
 773 03f2 0CD5     		bpl	.L36
 774              	.LVL102:
 775              	.LBB19:
 776              	.LBB11:
 777              		.loc 1 57 0
 778 03f4 6146     		mov	r1, ip
 779 03f6 01F8013B 		strb	r3, [r1], #1
 780              	.LVL103:
 781              		.loc 1 58 0
 782 03fa 16F8013F 		ldrb	r3, [r6, #1]!	@ zero_extendqisi2
 783 03fe 06E0     		b	.L36
 784              	.L131:
 785              		.align	2
 786              	.L130:
 787 0400 00000000 		.word	.LC0
 788              	.L129:
 789 0404 7378     		ldrb	r3, [r6, #1]	@ zero_extendqisi2
 790              	.LVL104:
 791              		.loc 1 57 0
 792 0406 4B70     		strb	r3, [r1, #1]
 793              		.loc 1 58 0
 794 0408 7B78     		ldrb	r3, [r7, #1]	@ zero_extendqisi2
 795 040a 0236     		adds	r6, r6, #2
 796              		.loc 1 57 0
 797 040c 511C     		adds	r1, r2, #1
 798              	.LVL105:
ARM GAS  /tmp/ccjhKKXY.s 			page 15


 799              	.L36:
 800 040e 0A46     		mov	r2, r1
 801              		.loc 1 58 0
 802 0410 771C     		adds	r7, r6, #1
 803              		.loc 1 57 0
 804 0412 02F8013B 		strb	r3, [r2], #1
 805              		.loc 1 58 0
 806 0416 4A45     		cmp	r2, r9
 807 0418 F4D1     		bne	.L129
 808              	.LVL106:
 809              		.loc 1 176 0
 810 041a 039A     		ldr	r2, [sp, #12]
 811 041c 0CEB0207 		add	r7, ip, r2
 812              		.loc 1 58 0
 813 0420 CBEB0709 		rsb	r9, fp, r7
 814              	.LBE11:
 815              	.LBE19:
 816              		.loc 1 106 0
 817 0424 5F46     		mov	r7, fp
 818              		.loc 1 177 0
 819 0426 3BE7     		b	.L26
 820              	.LVL107:
 821              	.L18:
 822              		.loc 1 197 0
 823 0428 8DF81030 		strb	r3, [sp, #16]
 824              	.LVL108:
 825 042c DDF80890 		ldr	r9, [sp, #8]
 826              		.loc 1 106 0
 827 0430 5F46     		mov	r7, fp
 828 0432 35E7     		b	.L26
 829              	.LVL109:
 830              	.L53:
 831              		.loc 1 152 0
 832 0434 0A27     		movs	r7, #10
 833 0436 72E7     		b	.L21
 834              	.LVL110:
 835              	.L120:
 836              		.loc 1 114 0
 837 0438 7378     		ldrb	r3, [r6, #1]	@ zero_extendqisi2
 838              		.loc 1 115 0
 839 043a 4FF03008 		mov	r8, #48
 840              		.loc 1 114 0
 841 043e 0136     		adds	r6, r6, #1
 842              	.LVL111:
 843 0440 12E6     		b	.L7
 844              	.LVL112:
 845              	.L119:
 846              		.loc 1 109 0
 847 0442 A61C     		adds	r6, r4, #2
 848              	.LVL113:
 849 0444 A378     		ldrb	r3, [r4, #2]	@ zero_extendqisi2
 850              		.loc 1 110 0
 851 0446 0120     		movs	r0, #1
 852 0448 09E6     		b	.L6
 853              	.LVL114:
 854              	.L52:
 855              		.loc 1 144 0
ARM GAS  /tmp/ccjhKKXY.s 			page 16


 856 044a 0122     		movs	r2, #1
 857 044c 30E6     		b	.L17
 858              	.LVL115:
 859              	.L127:
 860              		.loc 1 169 0
 861 044e 1A68     		ldr	r2, [r3, #0]
 862              	.LVL116:
 863 0450 191D     		adds	r1, r3, #4
 864              	.LVL117:
 865              		.loc 1 172 0
 866 0452 002A     		cmp	r2, #0
 867              		.loc 1 169 0
 868 0454 0791     		str	r1, [sp, #28]
 869              		.loc 1 172 0
 870 0456 AEDA     		bge	.L57
 871              	.LVL118:
 872              	.L128:
 873              		.loc 1 173 0
 874 0458 2D23     		movs	r3, #45
 875 045a 8DF81030 		strb	r3, [sp, #16]
 876              	.LVL119:
 877              		.loc 1 174 0
 878 045e 5242     		negs	r2, r2
 879              	.LVL120:
 880              		.loc 1 173 0
 881 0460 0DF1110C 		add	ip, sp, #17
 882 0464 A8E7     		b	.L33
 883              	.LVL121:
 884              	.L124:
 885              		.loc 1 206 0 discriminator 1
 886 0466 B8F1300F 		cmp	r8, #48
 887 046a 7FF428AF 		bne	.L45
 888              		.loc 1 207 0
 889 046e 2A68     		ldr	r2, [r5, #0]
 890 0470 2846     		mov	r0, r5
 891              	.LVL122:
 892 0472 1669     		ldr	r6, [r2, #16]
 893 0474 4FF0FF32 		mov	r2, #-1
 894 0478 B047     		blx	r6
 895 047a 0137     		adds	r7, r7, #1
 896              	.LVL123:
 897              		.loc 1 208 0
 898 047c 09F1FF39 		add	r9, r9, #-1
 899              	.LVL124:
 900 0480 1DE7     		b	.L45
 901              	.LVL125:
 902              	.L56:
 903              		.loc 1 163 0
 904 0482 9946     		mov	r9, r3
 905              		.loc 1 158 0
 906 0484 4FF02008 		mov	r8, #32
 907 0488 0AE7     		b	.L26
 908              		.cfi_endproc
 909              	.LFE8:
 910              		.size	chprintf, .-chprintf
 911 048a 00BFAFF3 		.section	.rodata.str1.4,"aMS",%progbits,1
 911      0080
ARM GAS  /tmp/ccjhKKXY.s 			page 17


 912              		.align	2
 913              	.LC0:
 914 0000 286E756C 		.ascii	"(null)\000"
 914      6C2900
 915 0007 00       		.text
 916              	.Letext0:
 917              		.file 2 "/usr/bin/../lib/gcc/arm-none-eabi/4.6.2/include/stdarg.h"
 918              		.file 3 "/usr/bin/../lib/gcc/arm-none-eabi/4.6.2/include/stddef.h"
 919              		.file 4 "/usr/bin/../lib/gcc/arm-none-eabi/4.6.2/../../../../arm-none-eabi/include/stdint.h"
 920              		.file 5 "./os/ports/GCC/ARMCMx/chtypes.h"
 921              		.file 6 "<built-in>"
 922              		.file 7 "./os/kernel/include/chioch.h"
 923              		.section	.debug_info,"",%progbits
 924              	.Ldebug_info0:
 925 0000 63040000 		.4byte	0x463
 926 0004 0200     		.2byte	0x2
 927 0006 00000000 		.4byte	.Ldebug_abbrev0
 928 000a 04       		.byte	0x4
 929 000b 01       		.uleb128 0x1
 930 000c 4D000000 		.4byte	.LASF35
 931 0010 01       		.byte	0x1
 932 0011 26000000 		.4byte	.LASF36
 933 0015 DF010000 		.4byte	.LASF37
 934 0019 00000000 		.4byte	0
 935 001d 00000000 		.4byte	0
 936 0021 90000000 		.4byte	.Ldebug_ranges0+0x90
 937 0025 00000000 		.4byte	.Ldebug_line0
 938 0029 02       		.uleb128 0x2
 939 002a F2000000 		.4byte	.LASF0
 940 002e 02       		.byte	0x2
 941 002f 28       		.byte	0x28
 942 0030 34000000 		.4byte	0x34
 943 0034 03       		.uleb128 0x3
 944 0035 70010000 		.4byte	.LASF19
 945 0039 04       		.byte	0x4
 946 003a 06       		.byte	0x6
 947 003b 00       		.byte	0
 948 003c 4E000000 		.4byte	0x4e
 949 0040 04       		.uleb128 0x4
 950 0041 39010000 		.4byte	.LASF38
 951 0045 4E000000 		.4byte	0x4e
 952 0049 02       		.byte	0x2
 953 004a 23       		.byte	0x23
 954 004b 00       		.uleb128 0
 955 004c 01       		.byte	0x1
 956 004d 00       		.byte	0
 957 004e 05       		.uleb128 0x5
 958 004f 04       		.byte	0x4
 959 0050 02       		.uleb128 0x2
 960 0051 45000000 		.4byte	.LASF1
 961 0055 02       		.byte	0x2
 962 0056 66       		.byte	0x66
 963 0057 29000000 		.4byte	0x29
 964 005b 06       		.uleb128 0x6
 965 005c 04       		.byte	0x4
 966 005d 05       		.byte	0x5
 967 005e 696E7400 		.ascii	"int\000"
ARM GAS  /tmp/ccjhKKXY.s 			page 18


 968 0062 02       		.uleb128 0x2
 969 0063 00000000 		.4byte	.LASF2
 970 0067 03       		.byte	0x3
 971 0068 D4       		.byte	0xd4
 972 0069 6D000000 		.4byte	0x6d
 973 006d 07       		.uleb128 0x7
 974 006e 04       		.byte	0x4
 975 006f 07       		.byte	0x7
 976 0070 0D010000 		.4byte	.LASF3
 977 0074 07       		.uleb128 0x7
 978 0075 01       		.byte	0x1
 979 0076 06       		.byte	0x6
 980 0077 CE010000 		.4byte	.LASF4
 981 007b 02       		.uleb128 0x2
 982 007c 31010000 		.4byte	.LASF5
 983 0080 04       		.byte	0x4
 984 0081 2A       		.byte	0x2a
 985 0082 86000000 		.4byte	0x86
 986 0086 07       		.uleb128 0x7
 987 0087 01       		.byte	0x1
 988 0088 08       		.byte	0x8
 989 0089 CD000000 		.4byte	.LASF6
 990 008d 07       		.uleb128 0x7
 991 008e 02       		.byte	0x2
 992 008f 05       		.byte	0x5
 993 0090 A2010000 		.4byte	.LASF7
 994 0094 07       		.uleb128 0x7
 995 0095 02       		.byte	0x2
 996 0096 07       		.byte	0x7
 997 0097 AE000000 		.4byte	.LASF8
 998 009b 02       		.uleb128 0x2
 999 009c 61010000 		.4byte	.LASF9
 1000 00a0 04       		.byte	0x4
 1001 00a1 4F       		.byte	0x4f
 1002 00a2 A6000000 		.4byte	0xa6
 1003 00a6 07       		.uleb128 0x7
 1004 00a7 04       		.byte	0x4
 1005 00a8 05       		.byte	0x5
 1006 00a9 C5010000 		.4byte	.LASF10
 1007 00ad 02       		.uleb128 0x2
 1008 00ae BC010000 		.4byte	.LASF11
 1009 00b2 04       		.byte	0x4
 1010 00b3 50       		.byte	0x50
 1011 00b4 B8000000 		.4byte	0xb8
 1012 00b8 07       		.uleb128 0x7
 1013 00b9 04       		.byte	0x4
 1014 00ba 07       		.byte	0x7
 1015 00bb 9C000000 		.4byte	.LASF12
 1016 00bf 07       		.uleb128 0x7
 1017 00c0 08       		.byte	0x8
 1018 00c1 05       		.byte	0x5
 1019 00c2 7A010000 		.4byte	.LASF13
 1020 00c6 07       		.uleb128 0x7
 1021 00c7 08       		.byte	0x8
 1022 00c8 07       		.byte	0x7
 1023 00c9 1A010000 		.4byte	.LASF14
 1024 00cd 02       		.uleb128 0x2
ARM GAS  /tmp/ccjhKKXY.s 			page 19


 1025 00ce 1F000000 		.4byte	.LASF15
 1026 00d2 05       		.byte	0x5
 1027 00d3 2E       		.byte	0x2e
 1028 00d4 9B000000 		.4byte	0x9b
 1029 00d8 02       		.uleb128 0x2
 1030 00d9 4C010000 		.4byte	.LASF16
 1031 00dd 05       		.byte	0x5
 1032 00de 33       		.byte	0x33
 1033 00df 9B000000 		.4byte	0x9b
 1034 00e3 02       		.uleb128 0x2
 1035 00e4 07000000 		.4byte	.LASF17
 1036 00e8 05       		.byte	0x5
 1037 00e9 36       		.byte	0x36
 1038 00ea AD000000 		.4byte	0xad
 1039 00ee 08       		.uleb128 0x8
 1040 00ef 04       		.byte	0x4
 1041 00f0 F4000000 		.4byte	0xf4
 1042 00f4 09       		.uleb128 0x9
 1043 00f5 F9000000 		.4byte	0xf9
 1044 00f9 07       		.uleb128 0x7
 1045 00fa 01       		.byte	0x1
 1046 00fb 08       		.byte	0x8
 1047 00fc 92010000 		.4byte	.LASF18
 1048 0100 08       		.uleb128 0x8
 1049 0101 04       		.byte	0x4
 1050 0102 7B000000 		.4byte	0x7b
 1051 0106 0A       		.uleb128 0xa
 1052 0107 01       		.byte	0x1
 1053 0108 62000000 		.4byte	0x62
 1054 010c 20010000 		.4byte	0x120
 1055 0110 0B       		.uleb128 0xb
 1056 0111 4E000000 		.4byte	0x4e
 1057 0115 0B       		.uleb128 0xb
 1058 0116 20010000 		.4byte	0x120
 1059 011a 0B       		.uleb128 0xb
 1060 011b 62000000 		.4byte	0x62
 1061 011f 00       		.byte	0
 1062 0120 08       		.uleb128 0x8
 1063 0121 04       		.byte	0x4
 1064 0122 26010000 		.4byte	0x126
 1065 0126 09       		.uleb128 0x9
 1066 0127 7B000000 		.4byte	0x7b
 1067 012b 08       		.uleb128 0x8
 1068 012c 04       		.byte	0x4
 1069 012d 06010000 		.4byte	0x106
 1070 0131 0A       		.uleb128 0xa
 1071 0132 01       		.byte	0x1
 1072 0133 62000000 		.4byte	0x62
 1073 0137 4B010000 		.4byte	0x14b
 1074 013b 0B       		.uleb128 0xb
 1075 013c 4E000000 		.4byte	0x4e
 1076 0140 0B       		.uleb128 0xb
 1077 0141 00010000 		.4byte	0x100
 1078 0145 0B       		.uleb128 0xb
 1079 0146 62000000 		.4byte	0x62
 1080 014a 00       		.byte	0
 1081 014b 08       		.uleb128 0x8
ARM GAS  /tmp/ccjhKKXY.s 			page 20


 1082 014c 04       		.byte	0x4
 1083 014d 31010000 		.4byte	0x131
 1084 0151 03       		.uleb128 0x3
 1085 0152 52010000 		.4byte	.LASF20
 1086 0156 20       		.byte	0x20
 1087 0157 07       		.byte	0x7
 1088 0158 51       		.byte	0x51
 1089 0159 CE010000 		.4byte	0x1ce
 1090 015d 0C       		.uleb128 0xc
 1091 015e C1000000 		.4byte	.LASF21
 1092 0162 07       		.byte	0x7
 1093 0163 52       		.byte	0x52
 1094 0164 2B010000 		.4byte	0x12b
 1095 0168 02       		.byte	0x2
 1096 0169 23       		.byte	0x23
 1097 016a 00       		.uleb128 0
 1098 016b 0C       		.uleb128 0xc
 1099 016c 01010000 		.4byte	.LASF22
 1100 0170 07       		.byte	0x7
 1101 0171 52       		.byte	0x52
 1102 0172 4B010000 		.4byte	0x14b
 1103 0176 02       		.byte	0x2
 1104 0177 23       		.byte	0x23
 1105 0178 04       		.uleb128 0x4
 1106 0179 0C       		.uleb128 0xc
 1107 017a E4000000 		.4byte	.LASF23
 1108 017e 07       		.byte	0x7
 1109 017f 52       		.byte	0x52
 1110 0180 DE010000 		.4byte	0x1de
 1111 0184 02       		.byte	0x2
 1112 0185 23       		.byte	0x23
 1113 0186 08       		.uleb128 0x8
 1114 0187 0C       		.uleb128 0xc
 1115 0188 3E010000 		.4byte	.LASF24
 1116 018c 07       		.byte	0x7
 1117 018d 52       		.byte	0x52
 1118 018e DE010000 		.4byte	0x1de
 1119 0192 02       		.byte	0x2
 1120 0193 23       		.byte	0x23
 1121 0194 0C       		.uleb128 0xc
 1122 0195 0D       		.uleb128 0xd
 1123 0196 70757400 		.ascii	"put\000"
 1124 019a 07       		.byte	0x7
 1125 019b 52       		.byte	0x52
 1126 019c FE010000 		.4byte	0x1fe
 1127 01a0 02       		.byte	0x2
 1128 01a1 23       		.byte	0x23
 1129 01a2 10       		.uleb128 0x10
 1130 01a3 0D       		.uleb128 0xd
 1131 01a4 67657400 		.ascii	"get\000"
 1132 01a8 07       		.byte	0x7
 1133 01a9 52       		.byte	0x52
 1134 01aa 19020000 		.4byte	0x219
 1135 01ae 02       		.byte	0x2
 1136 01af 23       		.byte	0x23
 1137 01b0 14       		.uleb128 0x14
 1138 01b1 0C       		.uleb128 0xc
ARM GAS  /tmp/ccjhKKXY.s 			page 21


 1139 01b2 3E000000 		.4byte	.LASF25
 1140 01b6 07       		.byte	0x7
 1141 01b7 52       		.byte	0x52
 1142 01b8 3E020000 		.4byte	0x23e
 1143 01bc 02       		.byte	0x2
 1144 01bd 23       		.byte	0x23
 1145 01be 18       		.uleb128 0x18
 1146 01bf 0C       		.uleb128 0xc
 1147 01c0 96000000 		.4byte	.LASF26
 1148 01c4 07       		.byte	0x7
 1149 01c5 52       		.byte	0x52
 1150 01c6 63020000 		.4byte	0x263
 1151 01ca 02       		.byte	0x2
 1152 01cb 23       		.byte	0x23
 1153 01cc 1C       		.uleb128 0x1c
 1154 01cd 00       		.byte	0
 1155 01ce 0A       		.uleb128 0xa
 1156 01cf 01       		.byte	0x1
 1157 01d0 CD000000 		.4byte	0xcd
 1158 01d4 DE010000 		.4byte	0x1de
 1159 01d8 0B       		.uleb128 0xb
 1160 01d9 4E000000 		.4byte	0x4e
 1161 01dd 00       		.byte	0
 1162 01de 08       		.uleb128 0x8
 1163 01df 04       		.byte	0x4
 1164 01e0 CE010000 		.4byte	0x1ce
 1165 01e4 0A       		.uleb128 0xa
 1166 01e5 01       		.byte	0x1
 1167 01e6 D8000000 		.4byte	0xd8
 1168 01ea FE010000 		.4byte	0x1fe
 1169 01ee 0B       		.uleb128 0xb
 1170 01ef 4E000000 		.4byte	0x4e
 1171 01f3 0B       		.uleb128 0xb
 1172 01f4 7B000000 		.4byte	0x7b
 1173 01f8 0B       		.uleb128 0xb
 1174 01f9 E3000000 		.4byte	0xe3
 1175 01fd 00       		.byte	0
 1176 01fe 08       		.uleb128 0x8
 1177 01ff 04       		.byte	0x4
 1178 0200 E4010000 		.4byte	0x1e4
 1179 0204 0A       		.uleb128 0xa
 1180 0205 01       		.byte	0x1
 1181 0206 D8000000 		.4byte	0xd8
 1182 020a 19020000 		.4byte	0x219
 1183 020e 0B       		.uleb128 0xb
 1184 020f 4E000000 		.4byte	0x4e
 1185 0213 0B       		.uleb128 0xb
 1186 0214 E3000000 		.4byte	0xe3
 1187 0218 00       		.byte	0
 1188 0219 08       		.uleb128 0x8
 1189 021a 04       		.byte	0x4
 1190 021b 04020000 		.4byte	0x204
 1191 021f 0A       		.uleb128 0xa
 1192 0220 01       		.byte	0x1
 1193 0221 62000000 		.4byte	0x62
 1194 0225 3E020000 		.4byte	0x23e
 1195 0229 0B       		.uleb128 0xb
ARM GAS  /tmp/ccjhKKXY.s 			page 22


 1196 022a 4E000000 		.4byte	0x4e
 1197 022e 0B       		.uleb128 0xb
 1198 022f 20010000 		.4byte	0x120
 1199 0233 0B       		.uleb128 0xb
 1200 0234 62000000 		.4byte	0x62
 1201 0238 0B       		.uleb128 0xb
 1202 0239 E3000000 		.4byte	0xe3
 1203 023d 00       		.byte	0
 1204 023e 08       		.uleb128 0x8
 1205 023f 04       		.byte	0x4
 1206 0240 1F020000 		.4byte	0x21f
 1207 0244 0A       		.uleb128 0xa
 1208 0245 01       		.byte	0x1
 1209 0246 62000000 		.4byte	0x62
 1210 024a 63020000 		.4byte	0x263
 1211 024e 0B       		.uleb128 0xb
 1212 024f 4E000000 		.4byte	0x4e
 1213 0253 0B       		.uleb128 0xb
 1214 0254 00010000 		.4byte	0x100
 1215 0258 0B       		.uleb128 0xb
 1216 0259 62000000 		.4byte	0x62
 1217 025d 0B       		.uleb128 0xb
 1218 025e E3000000 		.4byte	0xe3
 1219 0262 00       		.byte	0
 1220 0263 08       		.uleb128 0x8
 1221 0264 04       		.byte	0x4
 1222 0265 44020000 		.4byte	0x244
 1223 0269 0E       		.uleb128 0xe
 1224 026a 04       		.byte	0x4
 1225 026b 07       		.byte	0x7
 1226 026c 5C       		.byte	0x5c
 1227 026d 80020000 		.4byte	0x280
 1228 0271 0D       		.uleb128 0xd
 1229 0272 766D7400 		.ascii	"vmt\000"
 1230 0276 07       		.byte	0x7
 1231 0277 5E       		.byte	0x5e
 1232 0278 80020000 		.4byte	0x280
 1233 027c 02       		.byte	0x2
 1234 027d 23       		.byte	0x23
 1235 027e 00       		.uleb128 0
 1236 027f 00       		.byte	0
 1237 0280 08       		.uleb128 0x8
 1238 0281 04       		.byte	0x4
 1239 0282 86020000 		.4byte	0x286
 1240 0286 09       		.uleb128 0x9
 1241 0287 51010000 		.4byte	0x151
 1242 028b 02       		.uleb128 0x2
 1243 028c 16020000 		.4byte	.LASF27
 1244 0290 07       		.byte	0x7
 1245 0291 60       		.byte	0x60
 1246 0292 69020000 		.4byte	0x269
 1247 0296 0F       		.uleb128 0xf
 1248 0297 DA010000 		.4byte	.LASF39
 1249 029b 01       		.byte	0x1
 1250 029c 2A       		.byte	0x2a
 1251 029d 01       		.byte	0x1
 1252 029e D9020000 		.4byte	0x2d9
ARM GAS  /tmp/ccjhKKXY.s 			page 23


 1253 02a2 01       		.byte	0x1
 1254 02a3 D9020000 		.4byte	0x2d9
 1255 02a7 10       		.uleb128 0x10
 1256 02a8 7000     		.ascii	"p\000"
 1257 02aa 01       		.byte	0x1
 1258 02ab 2A       		.byte	0x2a
 1259 02ac D9020000 		.4byte	0x2d9
 1260 02b0 10       		.uleb128 0x10
 1261 02b1 6E756D00 		.ascii	"num\000"
 1262 02b5 01       		.byte	0x1
 1263 02b6 2A       		.byte	0x2a
 1264 02b7 A6000000 		.4byte	0xa6
 1265 02bb 11       		.uleb128 0x11
 1266 02bc 19000000 		.4byte	.LASF28
 1267 02c0 01       		.byte	0x1
 1268 02c1 2A       		.byte	0x2a
 1269 02c2 6D000000 		.4byte	0x6d
 1270 02c6 12       		.uleb128 0x12
 1271 02c7 6900     		.ascii	"i\000"
 1272 02c9 01       		.byte	0x1
 1273 02ca 2B       		.byte	0x2b
 1274 02cb 5B000000 		.4byte	0x5b
 1275 02cf 12       		.uleb128 0x12
 1276 02d0 7100     		.ascii	"q\000"
 1277 02d2 01       		.byte	0x1
 1278 02d3 2C       		.byte	0x2c
 1279 02d4 D9020000 		.4byte	0x2d9
 1280 02d8 00       		.byte	0
 1281 02d9 08       		.uleb128 0x8
 1282 02da 04       		.byte	0x4
 1283 02db F9000000 		.4byte	0xf9
 1284 02df 13       		.uleb128 0x13
 1285 02e0 01       		.byte	0x1
 1286 02e1 DB000000 		.4byte	.LASF40
 1287 02e5 01       		.byte	0x1
 1288 02e6 56       		.byte	0x56
 1289 02e7 01       		.byte	0x1
 1290 02e8 00000000 		.4byte	.LFB8
 1291 02ec 8A040000 		.4byte	.LFE8
 1292 02f0 00000000 		.4byte	.LLST0
 1293 02f4 54040000 		.4byte	0x454
 1294 02f8 14       		.uleb128 0x14
 1295 02f9 63687000 		.ascii	"chp\000"
 1296 02fd 01       		.byte	0x1
 1297 02fe 56       		.byte	0x56
 1298 02ff 54040000 		.4byte	0x454
 1299 0303 39000000 		.4byte	.LLST1
 1300 0307 14       		.uleb128 0x14
 1301 0308 666D7400 		.ascii	"fmt\000"
 1302 030c 01       		.byte	0x1
 1303 030d 56       		.byte	0x56
 1304 030e EE000000 		.4byte	0xee
 1305 0312 57000000 		.4byte	.LLST2
 1306 0316 15       		.uleb128 0x15
 1307 0317 16       		.uleb128 0x16
 1308 0318 617000   		.ascii	"ap\000"
 1309 031b 01       		.byte	0x1
ARM GAS  /tmp/ccjhKKXY.s 			page 24


 1310 031c 57       		.byte	0x57
 1311 031d 50000000 		.4byte	0x50
 1312 0321 02       		.byte	0x2
 1313 0322 91       		.byte	0x91
 1314 0323 4C       		.sleb128 -52
 1315 0324 17       		.uleb128 0x17
 1316 0325 69010000 		.4byte	.LASF29
 1317 0329 01       		.byte	0x1
 1318 032a 58       		.byte	0x58
 1319 032b 5A040000 		.4byte	0x45a
 1320 032f 02       		.byte	0x2
 1321 0330 91       		.byte	0x91
 1322 0331 40       		.sleb128 -64
 1323 0332 18       		.uleb128 0x18
 1324 0333 7000     		.ascii	"p\000"
 1325 0335 01       		.byte	0x1
 1326 0336 59       		.byte	0x59
 1327 0337 D9020000 		.4byte	0x2d9
 1328 033b 00010000 		.4byte	.LLST3
 1329 033f 18       		.uleb128 0x18
 1330 0340 7300     		.ascii	"s\000"
 1331 0342 01       		.byte	0x1
 1332 0343 59       		.byte	0x59
 1333 0344 D9020000 		.4byte	0x2d9
 1334 0348 84010000 		.4byte	.LLST4
 1335 034c 18       		.uleb128 0x18
 1336 034d 6300     		.ascii	"c\000"
 1337 034f 01       		.byte	0x1
 1338 0350 59       		.byte	0x59
 1339 0351 F9000000 		.4byte	0xf9
 1340 0355 DB010000 		.4byte	.LLST5
 1341 0359 19       		.uleb128 0x19
 1342 035a 06010000 		.4byte	.LASF30
 1343 035e 01       		.byte	0x1
 1344 035f 59       		.byte	0x59
 1345 0360 F9000000 		.4byte	0xf9
 1346 0364 7E020000 		.4byte	.LLST6
 1347 0368 18       		.uleb128 0x18
 1348 0369 6900     		.ascii	"i\000"
 1349 036b 01       		.byte	0x1
 1350 036c 5A       		.byte	0x5a
 1351 036d 5B000000 		.4byte	0x5b
 1352 0371 FE020000 		.4byte	.LLST7
 1353 0375 19       		.uleb128 0x19
 1354 0376 88010000 		.4byte	.LASF31
 1355 037a 01       		.byte	0x1
 1356 037b 5A       		.byte	0x5a
 1357 037c 5B000000 		.4byte	0x5b
 1358 0380 34030000 		.4byte	.LLST8
 1359 0384 19       		.uleb128 0x19
 1360 0385 C7000000 		.4byte	.LASF32
 1361 0389 01       		.byte	0x1
 1362 038a 5A       		.byte	0x5a
 1363 038b 5B000000 		.4byte	0x5b
 1364 038f AF030000 		.4byte	.LLST9
 1365 0393 19       		.uleb128 0x19
 1366 0394 11000000 		.4byte	.LASF33
ARM GAS  /tmp/ccjhKKXY.s 			page 25


 1367 0398 01       		.byte	0x1
 1368 0399 5B       		.byte	0x5b
 1369 039a CD000000 		.4byte	0xcd
 1370 039e 70040000 		.4byte	.LLST10
 1371 03a2 19       		.uleb128 0x19
 1372 03a3 97010000 		.4byte	.LASF34
 1373 03a7 01       		.byte	0x1
 1374 03a8 5B       		.byte	0x5b
 1375 03a9 CD000000 		.4byte	0xcd
 1376 03ad E8040000 		.4byte	.LLST11
 1377 03b1 18       		.uleb128 0x18
 1378 03b2 6C00     		.ascii	"l\000"
 1379 03b4 01       		.byte	0x1
 1380 03b5 5C       		.byte	0x5c
 1381 03b6 A6000000 		.4byte	0xa6
 1382 03ba 4B050000 		.4byte	.LLST12
 1383 03be 1A       		.uleb128 0x1a
 1384 03bf AC010000 		.4byte	.LASF41
 1385 03c3 01       		.byte	0x1
 1386 03c4 BD       		.byte	0xbd
 1387 03c5 1E030000 		.4byte	.L21
 1388 03c9 1B       		.uleb128 0x1b
 1389 03ca 96020000 		.4byte	0x296
 1390 03ce 18000000 		.4byte	.LBB6
 1391 03d2 00000000 		.4byte	.Ldebug_ranges0+0
 1392 03d6 01       		.byte	0x1
 1393 03d7 B0       		.byte	0xb0
 1394 03d8 10040000 		.4byte	0x410
 1395 03dc 1C       		.uleb128 0x1c
 1396 03dd BB020000 		.4byte	0x2bb
 1397 03e1 A6050000 		.4byte	.LLST13
 1398 03e5 1C       		.uleb128 0x1c
 1399 03e6 B0020000 		.4byte	0x2b0
 1400 03ea BA050000 		.4byte	.LLST14
 1401 03ee 1C       		.uleb128 0x1c
 1402 03ef A7020000 		.4byte	0x2a7
 1403 03f3 E3050000 		.4byte	.LLST15
 1404 03f7 1D       		.uleb128 0x1d
 1405 03f8 30000000 		.4byte	.Ldebug_ranges0+0x30
 1406 03fc 1E       		.uleb128 0x1e
 1407 03fd C6020000 		.4byte	0x2c6
 1408 0401 0C060000 		.4byte	.LLST16
 1409 0405 1E       		.uleb128 0x1e
 1410 0406 CF020000 		.4byte	0x2cf
 1411 040a 46060000 		.4byte	.LLST17
 1412 040e 00       		.byte	0
 1413 040f 00       		.byte	0
 1414 0410 1F       		.uleb128 0x1f
 1415 0411 96020000 		.4byte	0x296
 1416 0415 2E030000 		.4byte	.LBB14
 1417 0419 60000000 		.4byte	.Ldebug_ranges0+0x60
 1418 041d 01       		.byte	0x1
 1419 041e C2       		.byte	0xc2
 1420 041f 1C       		.uleb128 0x1c
 1421 0420 BB020000 		.4byte	0x2bb
 1422 0424 64060000 		.4byte	.LLST18
 1423 0428 1C       		.uleb128 0x1c
ARM GAS  /tmp/ccjhKKXY.s 			page 26


 1424 0429 B0020000 		.4byte	0x2b0
 1425 042d 77060000 		.4byte	.LLST19
 1426 0431 1C       		.uleb128 0x1c
 1427 0432 A7020000 		.4byte	0x2a7
 1428 0436 A0060000 		.4byte	.LLST20
 1429 043a 1D       		.uleb128 0x1d
 1430 043b 78000000 		.4byte	.Ldebug_ranges0+0x78
 1431 043f 1E       		.uleb128 0x1e
 1432 0440 C6020000 		.4byte	0x2c6
 1433 0444 D5060000 		.4byte	.LLST21
 1434 0448 1E       		.uleb128 0x1e
 1435 0449 CF020000 		.4byte	0x2cf
 1436 044d FE060000 		.4byte	.LLST22
 1437 0451 00       		.byte	0
 1438 0452 00       		.byte	0
 1439 0453 00       		.byte	0
 1440 0454 08       		.uleb128 0x8
 1441 0455 04       		.byte	0x4
 1442 0456 8B020000 		.4byte	0x28b
 1443 045a 20       		.uleb128 0x20
 1444 045b F9000000 		.4byte	0xf9
 1445 045f 21       		.uleb128 0x21
 1446 0460 6D000000 		.4byte	0x6d
 1447 0464 0B       		.byte	0xb
 1448 0465 00       		.byte	0
 1449 0466 00       		.byte	0
 1450              		.section	.debug_abbrev,"",%progbits
 1451              	.Ldebug_abbrev0:
 1452 0000 01       		.uleb128 0x1
 1453 0001 11       		.uleb128 0x11
 1454 0002 01       		.byte	0x1
 1455 0003 25       		.uleb128 0x25
 1456 0004 0E       		.uleb128 0xe
 1457 0005 13       		.uleb128 0x13
 1458 0006 0B       		.uleb128 0xb
 1459 0007 03       		.uleb128 0x3
 1460 0008 0E       		.uleb128 0xe
 1461 0009 1B       		.uleb128 0x1b
 1462 000a 0E       		.uleb128 0xe
 1463 000b 11       		.uleb128 0x11
 1464 000c 01       		.uleb128 0x1
 1465 000d 52       		.uleb128 0x52
 1466 000e 01       		.uleb128 0x1
 1467 000f 55       		.uleb128 0x55
 1468 0010 06       		.uleb128 0x6
 1469 0011 10       		.uleb128 0x10
 1470 0012 06       		.uleb128 0x6
 1471 0013 00       		.byte	0
 1472 0014 00       		.byte	0
 1473 0015 02       		.uleb128 0x2
 1474 0016 16       		.uleb128 0x16
 1475 0017 00       		.byte	0
 1476 0018 03       		.uleb128 0x3
 1477 0019 0E       		.uleb128 0xe
 1478 001a 3A       		.uleb128 0x3a
 1479 001b 0B       		.uleb128 0xb
 1480 001c 3B       		.uleb128 0x3b
ARM GAS  /tmp/ccjhKKXY.s 			page 27


 1481 001d 0B       		.uleb128 0xb
 1482 001e 49       		.uleb128 0x49
 1483 001f 13       		.uleb128 0x13
 1484 0020 00       		.byte	0
 1485 0021 00       		.byte	0
 1486 0022 03       		.uleb128 0x3
 1487 0023 13       		.uleb128 0x13
 1488 0024 01       		.byte	0x1
 1489 0025 03       		.uleb128 0x3
 1490 0026 0E       		.uleb128 0xe
 1491 0027 0B       		.uleb128 0xb
 1492 0028 0B       		.uleb128 0xb
 1493 0029 3A       		.uleb128 0x3a
 1494 002a 0B       		.uleb128 0xb
 1495 002b 3B       		.uleb128 0x3b
 1496 002c 0B       		.uleb128 0xb
 1497 002d 01       		.uleb128 0x1
 1498 002e 13       		.uleb128 0x13
 1499 002f 00       		.byte	0
 1500 0030 00       		.byte	0
 1501 0031 04       		.uleb128 0x4
 1502 0032 0D       		.uleb128 0xd
 1503 0033 00       		.byte	0
 1504 0034 03       		.uleb128 0x3
 1505 0035 0E       		.uleb128 0xe
 1506 0036 49       		.uleb128 0x49
 1507 0037 13       		.uleb128 0x13
 1508 0038 38       		.uleb128 0x38
 1509 0039 0A       		.uleb128 0xa
 1510 003a 34       		.uleb128 0x34
 1511 003b 0C       		.uleb128 0xc
 1512 003c 00       		.byte	0
 1513 003d 00       		.byte	0
 1514 003e 05       		.uleb128 0x5
 1515 003f 0F       		.uleb128 0xf
 1516 0040 00       		.byte	0
 1517 0041 0B       		.uleb128 0xb
 1518 0042 0B       		.uleb128 0xb
 1519 0043 00       		.byte	0
 1520 0044 00       		.byte	0
 1521 0045 06       		.uleb128 0x6
 1522 0046 24       		.uleb128 0x24
 1523 0047 00       		.byte	0
 1524 0048 0B       		.uleb128 0xb
 1525 0049 0B       		.uleb128 0xb
 1526 004a 3E       		.uleb128 0x3e
 1527 004b 0B       		.uleb128 0xb
 1528 004c 03       		.uleb128 0x3
 1529 004d 08       		.uleb128 0x8
 1530 004e 00       		.byte	0
 1531 004f 00       		.byte	0
 1532 0050 07       		.uleb128 0x7
 1533 0051 24       		.uleb128 0x24
 1534 0052 00       		.byte	0
 1535 0053 0B       		.uleb128 0xb
 1536 0054 0B       		.uleb128 0xb
 1537 0055 3E       		.uleb128 0x3e
ARM GAS  /tmp/ccjhKKXY.s 			page 28


 1538 0056 0B       		.uleb128 0xb
 1539 0057 03       		.uleb128 0x3
 1540 0058 0E       		.uleb128 0xe
 1541 0059 00       		.byte	0
 1542 005a 00       		.byte	0
 1543 005b 08       		.uleb128 0x8
 1544 005c 0F       		.uleb128 0xf
 1545 005d 00       		.byte	0
 1546 005e 0B       		.uleb128 0xb
 1547 005f 0B       		.uleb128 0xb
 1548 0060 49       		.uleb128 0x49
 1549 0061 13       		.uleb128 0x13
 1550 0062 00       		.byte	0
 1551 0063 00       		.byte	0
 1552 0064 09       		.uleb128 0x9
 1553 0065 26       		.uleb128 0x26
 1554 0066 00       		.byte	0
 1555 0067 49       		.uleb128 0x49
 1556 0068 13       		.uleb128 0x13
 1557 0069 00       		.byte	0
 1558 006a 00       		.byte	0
 1559 006b 0A       		.uleb128 0xa
 1560 006c 15       		.uleb128 0x15
 1561 006d 01       		.byte	0x1
 1562 006e 27       		.uleb128 0x27
 1563 006f 0C       		.uleb128 0xc
 1564 0070 49       		.uleb128 0x49
 1565 0071 13       		.uleb128 0x13
 1566 0072 01       		.uleb128 0x1
 1567 0073 13       		.uleb128 0x13
 1568 0074 00       		.byte	0
 1569 0075 00       		.byte	0
 1570 0076 0B       		.uleb128 0xb
 1571 0077 05       		.uleb128 0x5
 1572 0078 00       		.byte	0
 1573 0079 49       		.uleb128 0x49
 1574 007a 13       		.uleb128 0x13
 1575 007b 00       		.byte	0
 1576 007c 00       		.byte	0
 1577 007d 0C       		.uleb128 0xc
 1578 007e 0D       		.uleb128 0xd
 1579 007f 00       		.byte	0
 1580 0080 03       		.uleb128 0x3
 1581 0081 0E       		.uleb128 0xe
 1582 0082 3A       		.uleb128 0x3a
 1583 0083 0B       		.uleb128 0xb
 1584 0084 3B       		.uleb128 0x3b
 1585 0085 0B       		.uleb128 0xb
 1586 0086 49       		.uleb128 0x49
 1587 0087 13       		.uleb128 0x13
 1588 0088 38       		.uleb128 0x38
 1589 0089 0A       		.uleb128 0xa
 1590 008a 00       		.byte	0
 1591 008b 00       		.byte	0
 1592 008c 0D       		.uleb128 0xd
 1593 008d 0D       		.uleb128 0xd
 1594 008e 00       		.byte	0
ARM GAS  /tmp/ccjhKKXY.s 			page 29


 1595 008f 03       		.uleb128 0x3
 1596 0090 08       		.uleb128 0x8
 1597 0091 3A       		.uleb128 0x3a
 1598 0092 0B       		.uleb128 0xb
 1599 0093 3B       		.uleb128 0x3b
 1600 0094 0B       		.uleb128 0xb
 1601 0095 49       		.uleb128 0x49
 1602 0096 13       		.uleb128 0x13
 1603 0097 38       		.uleb128 0x38
 1604 0098 0A       		.uleb128 0xa
 1605 0099 00       		.byte	0
 1606 009a 00       		.byte	0
 1607 009b 0E       		.uleb128 0xe
 1608 009c 13       		.uleb128 0x13
 1609 009d 01       		.byte	0x1
 1610 009e 0B       		.uleb128 0xb
 1611 009f 0B       		.uleb128 0xb
 1612 00a0 3A       		.uleb128 0x3a
 1613 00a1 0B       		.uleb128 0xb
 1614 00a2 3B       		.uleb128 0x3b
 1615 00a3 0B       		.uleb128 0xb
 1616 00a4 01       		.uleb128 0x1
 1617 00a5 13       		.uleb128 0x13
 1618 00a6 00       		.byte	0
 1619 00a7 00       		.byte	0
 1620 00a8 0F       		.uleb128 0xf
 1621 00a9 2E       		.uleb128 0x2e
 1622 00aa 01       		.byte	0x1
 1623 00ab 03       		.uleb128 0x3
 1624 00ac 0E       		.uleb128 0xe
 1625 00ad 3A       		.uleb128 0x3a
 1626 00ae 0B       		.uleb128 0xb
 1627 00af 3B       		.uleb128 0x3b
 1628 00b0 0B       		.uleb128 0xb
 1629 00b1 27       		.uleb128 0x27
 1630 00b2 0C       		.uleb128 0xc
 1631 00b3 49       		.uleb128 0x49
 1632 00b4 13       		.uleb128 0x13
 1633 00b5 20       		.uleb128 0x20
 1634 00b6 0B       		.uleb128 0xb
 1635 00b7 01       		.uleb128 0x1
 1636 00b8 13       		.uleb128 0x13
 1637 00b9 00       		.byte	0
 1638 00ba 00       		.byte	0
 1639 00bb 10       		.uleb128 0x10
 1640 00bc 05       		.uleb128 0x5
 1641 00bd 00       		.byte	0
 1642 00be 03       		.uleb128 0x3
 1643 00bf 08       		.uleb128 0x8
 1644 00c0 3A       		.uleb128 0x3a
 1645 00c1 0B       		.uleb128 0xb
 1646 00c2 3B       		.uleb128 0x3b
 1647 00c3 0B       		.uleb128 0xb
 1648 00c4 49       		.uleb128 0x49
 1649 00c5 13       		.uleb128 0x13
 1650 00c6 00       		.byte	0
 1651 00c7 00       		.byte	0
ARM GAS  /tmp/ccjhKKXY.s 			page 30


 1652 00c8 11       		.uleb128 0x11
 1653 00c9 05       		.uleb128 0x5
 1654 00ca 00       		.byte	0
 1655 00cb 03       		.uleb128 0x3
 1656 00cc 0E       		.uleb128 0xe
 1657 00cd 3A       		.uleb128 0x3a
 1658 00ce 0B       		.uleb128 0xb
 1659 00cf 3B       		.uleb128 0x3b
 1660 00d0 0B       		.uleb128 0xb
 1661 00d1 49       		.uleb128 0x49
 1662 00d2 13       		.uleb128 0x13
 1663 00d3 00       		.byte	0
 1664 00d4 00       		.byte	0
 1665 00d5 12       		.uleb128 0x12
 1666 00d6 34       		.uleb128 0x34
 1667 00d7 00       		.byte	0
 1668 00d8 03       		.uleb128 0x3
 1669 00d9 08       		.uleb128 0x8
 1670 00da 3A       		.uleb128 0x3a
 1671 00db 0B       		.uleb128 0xb
 1672 00dc 3B       		.uleb128 0x3b
 1673 00dd 0B       		.uleb128 0xb
 1674 00de 49       		.uleb128 0x49
 1675 00df 13       		.uleb128 0x13
 1676 00e0 00       		.byte	0
 1677 00e1 00       		.byte	0
 1678 00e2 13       		.uleb128 0x13
 1679 00e3 2E       		.uleb128 0x2e
 1680 00e4 01       		.byte	0x1
 1681 00e5 3F       		.uleb128 0x3f
 1682 00e6 0C       		.uleb128 0xc
 1683 00e7 03       		.uleb128 0x3
 1684 00e8 0E       		.uleb128 0xe
 1685 00e9 3A       		.uleb128 0x3a
 1686 00ea 0B       		.uleb128 0xb
 1687 00eb 3B       		.uleb128 0x3b
 1688 00ec 0B       		.uleb128 0xb
 1689 00ed 27       		.uleb128 0x27
 1690 00ee 0C       		.uleb128 0xc
 1691 00ef 11       		.uleb128 0x11
 1692 00f0 01       		.uleb128 0x1
 1693 00f1 12       		.uleb128 0x12
 1694 00f2 01       		.uleb128 0x1
 1695 00f3 40       		.uleb128 0x40
 1696 00f4 06       		.uleb128 0x6
 1697 00f5 01       		.uleb128 0x1
 1698 00f6 13       		.uleb128 0x13
 1699 00f7 00       		.byte	0
 1700 00f8 00       		.byte	0
 1701 00f9 14       		.uleb128 0x14
 1702 00fa 05       		.uleb128 0x5
 1703 00fb 00       		.byte	0
 1704 00fc 03       		.uleb128 0x3
 1705 00fd 08       		.uleb128 0x8
 1706 00fe 3A       		.uleb128 0x3a
 1707 00ff 0B       		.uleb128 0xb
 1708 0100 3B       		.uleb128 0x3b
ARM GAS  /tmp/ccjhKKXY.s 			page 31


 1709 0101 0B       		.uleb128 0xb
 1710 0102 49       		.uleb128 0x49
 1711 0103 13       		.uleb128 0x13
 1712 0104 02       		.uleb128 0x2
 1713 0105 06       		.uleb128 0x6
 1714 0106 00       		.byte	0
 1715 0107 00       		.byte	0
 1716 0108 15       		.uleb128 0x15
 1717 0109 18       		.uleb128 0x18
 1718 010a 00       		.byte	0
 1719 010b 00       		.byte	0
 1720 010c 00       		.byte	0
 1721 010d 16       		.uleb128 0x16
 1722 010e 34       		.uleb128 0x34
 1723 010f 00       		.byte	0
 1724 0110 03       		.uleb128 0x3
 1725 0111 08       		.uleb128 0x8
 1726 0112 3A       		.uleb128 0x3a
 1727 0113 0B       		.uleb128 0xb
 1728 0114 3B       		.uleb128 0x3b
 1729 0115 0B       		.uleb128 0xb
 1730 0116 49       		.uleb128 0x49
 1731 0117 13       		.uleb128 0x13
 1732 0118 02       		.uleb128 0x2
 1733 0119 0A       		.uleb128 0xa
 1734 011a 00       		.byte	0
 1735 011b 00       		.byte	0
 1736 011c 17       		.uleb128 0x17
 1737 011d 34       		.uleb128 0x34
 1738 011e 00       		.byte	0
 1739 011f 03       		.uleb128 0x3
 1740 0120 0E       		.uleb128 0xe
 1741 0121 3A       		.uleb128 0x3a
 1742 0122 0B       		.uleb128 0xb
 1743 0123 3B       		.uleb128 0x3b
 1744 0124 0B       		.uleb128 0xb
 1745 0125 49       		.uleb128 0x49
 1746 0126 13       		.uleb128 0x13
 1747 0127 02       		.uleb128 0x2
 1748 0128 0A       		.uleb128 0xa
 1749 0129 00       		.byte	0
 1750 012a 00       		.byte	0
 1751 012b 18       		.uleb128 0x18
 1752 012c 34       		.uleb128 0x34
 1753 012d 00       		.byte	0
 1754 012e 03       		.uleb128 0x3
 1755 012f 08       		.uleb128 0x8
 1756 0130 3A       		.uleb128 0x3a
 1757 0131 0B       		.uleb128 0xb
 1758 0132 3B       		.uleb128 0x3b
 1759 0133 0B       		.uleb128 0xb
 1760 0134 49       		.uleb128 0x49
 1761 0135 13       		.uleb128 0x13
 1762 0136 02       		.uleb128 0x2
 1763 0137 06       		.uleb128 0x6
 1764 0138 00       		.byte	0
 1765 0139 00       		.byte	0
ARM GAS  /tmp/ccjhKKXY.s 			page 32


 1766 013a 19       		.uleb128 0x19
 1767 013b 34       		.uleb128 0x34
 1768 013c 00       		.byte	0
 1769 013d 03       		.uleb128 0x3
 1770 013e 0E       		.uleb128 0xe
 1771 013f 3A       		.uleb128 0x3a
 1772 0140 0B       		.uleb128 0xb
 1773 0141 3B       		.uleb128 0x3b
 1774 0142 0B       		.uleb128 0xb
 1775 0143 49       		.uleb128 0x49
 1776 0144 13       		.uleb128 0x13
 1777 0145 02       		.uleb128 0x2
 1778 0146 06       		.uleb128 0x6
 1779 0147 00       		.byte	0
 1780 0148 00       		.byte	0
 1781 0149 1A       		.uleb128 0x1a
 1782 014a 0A       		.uleb128 0xa
 1783 014b 00       		.byte	0
 1784 014c 03       		.uleb128 0x3
 1785 014d 0E       		.uleb128 0xe
 1786 014e 3A       		.uleb128 0x3a
 1787 014f 0B       		.uleb128 0xb
 1788 0150 3B       		.uleb128 0x3b
 1789 0151 0B       		.uleb128 0xb
 1790 0152 11       		.uleb128 0x11
 1791 0153 01       		.uleb128 0x1
 1792 0154 00       		.byte	0
 1793 0155 00       		.byte	0
 1794 0156 1B       		.uleb128 0x1b
 1795 0157 1D       		.uleb128 0x1d
 1796 0158 01       		.byte	0x1
 1797 0159 31       		.uleb128 0x31
 1798 015a 13       		.uleb128 0x13
 1799 015b 52       		.uleb128 0x52
 1800 015c 01       		.uleb128 0x1
 1801 015d 55       		.uleb128 0x55
 1802 015e 06       		.uleb128 0x6
 1803 015f 58       		.uleb128 0x58
 1804 0160 0B       		.uleb128 0xb
 1805 0161 59       		.uleb128 0x59
 1806 0162 0B       		.uleb128 0xb
 1807 0163 01       		.uleb128 0x1
 1808 0164 13       		.uleb128 0x13
 1809 0165 00       		.byte	0
 1810 0166 00       		.byte	0
 1811 0167 1C       		.uleb128 0x1c
 1812 0168 05       		.uleb128 0x5
 1813 0169 00       		.byte	0
 1814 016a 31       		.uleb128 0x31
 1815 016b 13       		.uleb128 0x13
 1816 016c 02       		.uleb128 0x2
 1817 016d 06       		.uleb128 0x6
 1818 016e 00       		.byte	0
 1819 016f 00       		.byte	0
 1820 0170 1D       		.uleb128 0x1d
 1821 0171 0B       		.uleb128 0xb
 1822 0172 01       		.byte	0x1
ARM GAS  /tmp/ccjhKKXY.s 			page 33


 1823 0173 55       		.uleb128 0x55
 1824 0174 06       		.uleb128 0x6
 1825 0175 00       		.byte	0
 1826 0176 00       		.byte	0
 1827 0177 1E       		.uleb128 0x1e
 1828 0178 34       		.uleb128 0x34
 1829 0179 00       		.byte	0
 1830 017a 31       		.uleb128 0x31
 1831 017b 13       		.uleb128 0x13
 1832 017c 02       		.uleb128 0x2
 1833 017d 06       		.uleb128 0x6
 1834 017e 00       		.byte	0
 1835 017f 00       		.byte	0
 1836 0180 1F       		.uleb128 0x1f
 1837 0181 1D       		.uleb128 0x1d
 1838 0182 01       		.byte	0x1
 1839 0183 31       		.uleb128 0x31
 1840 0184 13       		.uleb128 0x13
 1841 0185 52       		.uleb128 0x52
 1842 0186 01       		.uleb128 0x1
 1843 0187 55       		.uleb128 0x55
 1844 0188 06       		.uleb128 0x6
 1845 0189 58       		.uleb128 0x58
 1846 018a 0B       		.uleb128 0xb
 1847 018b 59       		.uleb128 0x59
 1848 018c 0B       		.uleb128 0xb
 1849 018d 00       		.byte	0
 1850 018e 00       		.byte	0
 1851 018f 20       		.uleb128 0x20
 1852 0190 01       		.uleb128 0x1
 1853 0191 01       		.byte	0x1
 1854 0192 49       		.uleb128 0x49
 1855 0193 13       		.uleb128 0x13
 1856 0194 00       		.byte	0
 1857 0195 00       		.byte	0
 1858 0196 21       		.uleb128 0x21
 1859 0197 21       		.uleb128 0x21
 1860 0198 00       		.byte	0
 1861 0199 49       		.uleb128 0x49
 1862 019a 13       		.uleb128 0x13
 1863 019b 2F       		.uleb128 0x2f
 1864 019c 0B       		.uleb128 0xb
 1865 019d 00       		.byte	0
 1866 019e 00       		.byte	0
 1867 019f 00       		.byte	0
 1868              		.section	.debug_loc,"",%progbits
 1869              	.Ldebug_loc0:
 1870              	.LLST0:
 1871 0000 00000000 		.4byte	.LFB8
 1872 0004 02000000 		.4byte	.LCFI0
 1873 0008 0200     		.2byte	0x2
 1874 000a 7D       		.byte	0x7d
 1875 000b 00       		.sleb128 0
 1876 000c 02000000 		.4byte	.LCFI0
 1877 0010 06000000 		.4byte	.LCFI1
 1878 0014 0200     		.2byte	0x2
 1879 0016 7D       		.byte	0x7d
ARM GAS  /tmp/ccjhKKXY.s 			page 34


 1880 0017 0C       		.sleb128 12
 1881 0018 06000000 		.4byte	.LCFI1
 1882 001c 08000000 		.4byte	.LCFI2
 1883 0020 0200     		.2byte	0x2
 1884 0022 7D       		.byte	0x7d
 1885 0023 30       		.sleb128 48
 1886 0024 08000000 		.4byte	.LCFI2
 1887 0028 8A040000 		.4byte	.LFE8
 1888 002c 0300     		.2byte	0x3
 1889 002e 7D       		.byte	0x7d
 1890 002f D000     		.sleb128 80
 1891 0031 00000000 		.4byte	0
 1892 0035 00000000 		.4byte	0
 1893              	.LLST1:
 1894 0039 00000000 		.4byte	.LVL0
 1895 003d 2C000000 		.4byte	.LVL1
 1896 0041 0100     		.2byte	0x1
 1897 0043 50       		.byte	0x50
 1898 0044 2C000000 		.4byte	.LVL1
 1899 0048 8A040000 		.4byte	.LFE8
 1900 004c 0100     		.2byte	0x1
 1901 004e 55       		.byte	0x55
 1902 004f 00000000 		.4byte	0
 1903 0053 00000000 		.4byte	0
 1904              	.LLST2:
 1905 0057 00000000 		.4byte	.LVL0
 1906 005b 2C000000 		.4byte	.LVL1
 1907 005f 0200     		.2byte	0x2
 1908 0061 91       		.byte	0x91
 1909 0062 74       		.sleb128 -12
 1910 0063 2C000000 		.4byte	.LVL1
 1911 0067 2E000000 		.4byte	.LVL2
 1912 006b 0100     		.2byte	0x1
 1913 006d 54       		.byte	0x54
 1914 006e 2E000000 		.4byte	.LVL2
 1915 0072 30000000 		.4byte	.LVL3
 1916 0076 0300     		.2byte	0x3
 1917 0078 74       		.byte	0x74
 1918 0079 01       		.sleb128 1
 1919 007a 9F       		.byte	0x9f
 1920 007b 44000000 		.4byte	.LVL4
 1921 007f 46000000 		.4byte	.LVL5
 1922 0083 0100     		.2byte	0x1
 1923 0085 56       		.byte	0x56
 1924 0086 46000000 		.4byte	.LVL5
 1925 008a 4A000000 		.4byte	.LVL6
 1926 008e 0300     		.2byte	0x3
 1927 0090 76       		.byte	0x76
 1928 0091 01       		.sleb128 1
 1929 0092 9F       		.byte	0x9f
 1930 0093 5E000000 		.4byte	.LVL8
 1931 0097 72000000 		.4byte	.LVL10
 1932 009b 0100     		.2byte	0x1
 1933 009d 56       		.byte	0x56
 1934 009e 72000000 		.4byte	.LVL10
 1935 00a2 34010000 		.4byte	.LVL24
 1936 00a6 0100     		.2byte	0x1
ARM GAS  /tmp/ccjhKKXY.s 			page 35


 1937 00a8 54       		.byte	0x54
 1938 00a9 38010000 		.4byte	.LVL25
 1939 00ad 12020000 		.4byte	.LVL45
 1940 00b1 0100     		.2byte	0x1
 1941 00b3 54       		.byte	0x54
 1942 00b4 12020000 		.4byte	.LVL45
 1943 00b8 3A020000 		.4byte	.LVL46
 1944 00bc 0100     		.2byte	0x1
 1945 00be 57       		.byte	0x57
 1946 00bf 3A020000 		.4byte	.LVL46
 1947 00c3 38040000 		.4byte	.LVL110
 1948 00c7 0100     		.2byte	0x1
 1949 00c9 54       		.byte	0x54
 1950 00ca 38040000 		.4byte	.LVL110
 1951 00ce 40040000 		.4byte	.LVL111
 1952 00d2 0300     		.2byte	0x3
 1953 00d4 76       		.byte	0x76
 1954 00d5 01       		.sleb128 1
 1955 00d6 9F       		.byte	0x9f
 1956 00d7 40040000 		.4byte	.LVL111
 1957 00db 42040000 		.4byte	.LVL112
 1958 00df 0100     		.2byte	0x1
 1959 00e1 56       		.byte	0x56
 1960 00e2 44040000 		.4byte	.LVL113
 1961 00e6 4A040000 		.4byte	.LVL114
 1962 00ea 0100     		.2byte	0x1
 1963 00ec 56       		.byte	0x56
 1964 00ed 4A040000 		.4byte	.LVL114
 1965 00f1 8A040000 		.4byte	.LFE8
 1966 00f5 0100     		.2byte	0x1
 1967 00f7 54       		.byte	0x54
 1968 00f8 00000000 		.4byte	0
 1969 00fc 00000000 		.4byte	0
 1970              	.LLST3:
 1971 0100 54000000 		.4byte	.LVL7
 1972 0104 78010000 		.4byte	.LVL35
 1973 0108 0100     		.2byte	0x1
 1974 010a 5B       		.byte	0x5b
 1975 010b 78010000 		.4byte	.LVL35
 1976 010f A2010000 		.4byte	.LVL37
 1977 0113 0100     		.2byte	0x1
 1978 0115 57       		.byte	0x57
 1979 0116 8A020000 		.4byte	.LVL48
 1980 011a 9A020000 		.4byte	.LVL52
 1981 011e 0100     		.2byte	0x1
 1982 0120 5B       		.byte	0x5b
 1983 0121 9A020000 		.4byte	.LVL52
 1984 0125 A0020000 		.4byte	.LVL53
 1985 0129 0200     		.2byte	0x2
 1986 012b 7D       		.byte	0x7d
 1987 012c 00       		.sleb128 0
 1988 012d 1C030000 		.4byte	.LVL67
 1989 0131 B8030000 		.4byte	.LVL93
 1990 0135 0100     		.2byte	0x1
 1991 0137 5B       		.byte	0x5b
 1992 0138 B8030000 		.4byte	.LVL93
 1993 013c 1A040000 		.4byte	.LVL106
ARM GAS  /tmp/ccjhKKXY.s 			page 36


 1994 0140 0100     		.2byte	0x1
 1995 0142 5C       		.byte	0x5c
 1996 0143 28040000 		.4byte	.LVL107
 1997 0147 2C040000 		.4byte	.LVL108
 1998 014b 0100     		.2byte	0x1
 1999 014d 5B       		.byte	0x5b
 2000 014e 2C040000 		.4byte	.LVL108
 2001 0152 34040000 		.4byte	.LVL109
 2002 0156 0200     		.2byte	0x2
 2003 0158 7D       		.byte	0x7d
 2004 0159 00       		.sleb128 0
 2005 015a 34040000 		.4byte	.LVL109
 2006 015e 5E040000 		.4byte	.LVL119
 2007 0162 0100     		.2byte	0x1
 2008 0164 5B       		.byte	0x5b
 2009 0165 5E040000 		.4byte	.LVL119
 2010 0169 66040000 		.4byte	.LVL121
 2011 016d 0200     		.2byte	0x2
 2012 016f 7D       		.byte	0x7d
 2013 0170 00       		.sleb128 0
 2014 0171 82040000 		.4byte	.LVL125
 2015 0175 8A040000 		.4byte	.LFE8
 2016 0179 0100     		.2byte	0x1
 2017 017b 57       		.byte	0x57
 2018 017c 00000000 		.4byte	0
 2019 0180 00000000 		.4byte	0
 2020              	.LLST4:
 2021 0184 54000000 		.4byte	.LVL7
 2022 0188 66010000 		.4byte	.LVL33
 2023 018c 0100     		.2byte	0x1
 2024 018e 5B       		.byte	0x5b
 2025 018f 6C010000 		.4byte	.LVL34
 2026 0193 E6010000 		.4byte	.LVL42
 2027 0197 0100     		.2byte	0x1
 2028 0199 57       		.byte	0x57
 2029 019a E6010000 		.4byte	.LVL42
 2030 019e 02020000 		.4byte	.LVL44
 2031 01a2 0300     		.2byte	0x3
 2032 01a4 76       		.byte	0x76
 2033 01a5 7F       		.sleb128 -1
 2034 01a6 9F       		.byte	0x9f
 2035 01a7 8A020000 		.4byte	.LVL48
 2036 01ab A0020000 		.4byte	.LVL53
 2037 01af 0100     		.2byte	0x1
 2038 01b1 5B       		.byte	0x5b
 2039 01b2 A0020000 		.4byte	.LVL53
 2040 01b6 CA020000 		.4byte	.LVL59
 2041 01ba 0100     		.2byte	0x1
 2042 01bc 57       		.byte	0x57
 2043 01bd 1C030000 		.4byte	.LVL67
 2044 01c1 66040000 		.4byte	.LVL121
 2045 01c5 0100     		.2byte	0x1
 2046 01c7 5B       		.byte	0x5b
 2047 01c8 66040000 		.4byte	.LVL121
 2048 01cc 8A040000 		.4byte	.LFE8
 2049 01d0 0100     		.2byte	0x1
 2050 01d2 57       		.byte	0x57
ARM GAS  /tmp/ccjhKKXY.s 			page 37


 2051 01d3 00000000 		.4byte	0
 2052 01d7 00000000 		.4byte	0
 2053              	.LLST5:
 2054 01db 2E000000 		.4byte	.LVL2
 2055 01df 30000000 		.4byte	.LVL3
 2056 01e3 0100     		.2byte	0x1
 2057 01e5 51       		.byte	0x51
 2058 01e6 46000000 		.4byte	.LVL5
 2059 01ea 4A000000 		.4byte	.LVL6
 2060 01ee 0100     		.2byte	0x1
 2061 01f0 51       		.byte	0x51
 2062 01f1 72000000 		.4byte	.LVL10
 2063 01f5 74000000 		.4byte	.LVL11
 2064 01f9 0100     		.2byte	0x1
 2065 01fb 53       		.byte	0x53
 2066 01fc 74000000 		.4byte	.LVL11
 2067 0200 82000000 		.4byte	.LVL14
 2068 0204 0100     		.2byte	0x1
 2069 0206 52       		.byte	0x52
 2070 0207 82000000 		.4byte	.LVL14
 2071 020b 9E000000 		.4byte	.LVL18
 2072 020f 0100     		.2byte	0x1
 2073 0211 53       		.byte	0x53
 2074 0212 B0000000 		.4byte	.LVL19
 2075 0216 2A010000 		.4byte	.LVL21
 2076 021a 0100     		.2byte	0x1
 2077 021c 53       		.byte	0x53
 2078 021d 2A010000 		.4byte	.LVL21
 2079 0221 34010000 		.4byte	.LVL24
 2080 0225 0100     		.2byte	0x1
 2081 0227 52       		.byte	0x52
 2082 0228 38010000 		.4byte	.LVL25
 2083 022c 4C010000 		.4byte	.LVL26
 2084 0230 0100     		.2byte	0x1
 2085 0232 53       		.byte	0x53
 2086 0233 54010000 		.4byte	.LVL27
 2087 0237 5A010000 		.4byte	.LVL29
 2088 023b 0100     		.2byte	0x1
 2089 023d 52       		.byte	0x52
 2090 023e 5A010000 		.4byte	.LVL29
 2091 0242 62010000 		.4byte	.LVL32
 2092 0246 0100     		.2byte	0x1
 2093 0248 53       		.byte	0x53
 2094 0249 8A020000 		.4byte	.LVL48
 2095 024d 8C020000 		.4byte	.LVL49
 2096 0251 0100     		.2byte	0x1
 2097 0253 53       		.byte	0x53
 2098 0254 1C030000 		.4byte	.LVL67
 2099 0258 1E030000 		.4byte	.LVL68
 2100 025c 0100     		.2byte	0x1
 2101 025e 53       		.byte	0x53
 2102 025f 96030000 		.4byte	.LVL86
 2103 0263 98030000 		.4byte	.LVL87
 2104 0267 0200     		.2byte	0x2
 2105 0269 38       		.byte	0x38
 2106 026a 9F       		.byte	0x9f
 2107 026b 28040000 		.4byte	.LVL107
ARM GAS  /tmp/ccjhKKXY.s 			page 38


 2108 026f 38040000 		.4byte	.LVL110
 2109 0273 0100     		.2byte	0x1
 2110 0275 53       		.byte	0x53
 2111 0276 00000000 		.4byte	0
 2112 027a 00000000 		.4byte	0
 2113              	.LLST6:
 2114 027e 5E000000 		.4byte	.LVL8
 2115 0282 68000000 		.4byte	.LVL9
 2116 0286 0300     		.2byte	0x3
 2117 0288 08       		.byte	0x8
 2118 0289 20       		.byte	0x20
 2119 028a 9F       		.byte	0x9f
 2120 028b 68000000 		.4byte	.LVL9
 2121 028f 5C010000 		.4byte	.LVL30
 2122 0293 0100     		.2byte	0x1
 2123 0295 58       		.byte	0x58
 2124 0296 5C010000 		.4byte	.LVL30
 2125 029a CA010000 		.4byte	.LVL38
 2126 029e 0300     		.2byte	0x3
 2127 02a0 08       		.byte	0x8
 2128 02a1 20       		.byte	0x20
 2129 02a2 9F       		.byte	0x9f
 2130 02a3 CA010000 		.4byte	.LVL38
 2131 02a7 D2010000 		.4byte	.LVL40
 2132 02ab 0100     		.2byte	0x1
 2133 02ad 58       		.byte	0x58
 2134 02ae 8A020000 		.4byte	.LVL48
 2135 02b2 A0020000 		.4byte	.LVL53
 2136 02b6 0300     		.2byte	0x3
 2137 02b8 08       		.byte	0x8
 2138 02b9 20       		.byte	0x20
 2139 02ba 9F       		.byte	0x9f
 2140 02bb A0020000 		.4byte	.LVL53
 2141 02bf AC020000 		.4byte	.LVL56
 2142 02c3 0100     		.2byte	0x1
 2143 02c5 58       		.byte	0x58
 2144 02c6 1C030000 		.4byte	.LVL67
 2145 02ca 38040000 		.4byte	.LVL110
 2146 02ce 0100     		.2byte	0x1
 2147 02d0 58       		.byte	0x58
 2148 02d1 38040000 		.4byte	.LVL110
 2149 02d5 42040000 		.4byte	.LVL112
 2150 02d9 0300     		.2byte	0x3
 2151 02db 08       		.byte	0x8
 2152 02dc 30       		.byte	0x30
 2153 02dd 9F       		.byte	0x9f
 2154 02de 4A040000 		.4byte	.LVL114
 2155 02e2 66040000 		.4byte	.LVL121
 2156 02e6 0100     		.2byte	0x1
 2157 02e8 58       		.byte	0x58
 2158 02e9 82040000 		.4byte	.LVL125
 2159 02ed 8A040000 		.4byte	.LFE8
 2160 02f1 0300     		.2byte	0x3
 2161 02f3 08       		.byte	0x8
 2162 02f4 20       		.byte	0x20
 2163 02f5 9F       		.byte	0x9f
 2164 02f6 00000000 		.4byte	0
ARM GAS  /tmp/ccjhKKXY.s 			page 39


 2165 02fa 00000000 		.4byte	0
 2166              	.LLST7:
 2167 02fe CA010000 		.4byte	.LVL38
 2168 0302 D2010000 		.4byte	.LVL40
 2169 0306 0100     		.2byte	0x1
 2170 0308 59       		.byte	0x59
 2171 0309 D2010000 		.4byte	.LVL40
 2172 030d E4010000 		.4byte	.LVL41
 2173 0311 0300     		.2byte	0x3
 2174 0313 79       		.byte	0x79
 2175 0314 7F       		.sleb128 -1
 2176 0315 9F       		.byte	0x9f
 2177 0316 A0020000 		.4byte	.LVL53
 2178 031a CA020000 		.4byte	.LVL59
 2179 031e 0100     		.2byte	0x1
 2180 0320 59       		.byte	0x59
 2181 0321 66040000 		.4byte	.LVL121
 2182 0325 82040000 		.4byte	.LVL125
 2183 0329 0100     		.2byte	0x1
 2184 032b 59       		.byte	0x59
 2185 032c 00000000 		.4byte	0
 2186 0330 00000000 		.4byte	0
 2187              	.LLST8:
 2188 0334 98000000 		.4byte	.LVL16
 2189 0338 9A000000 		.4byte	.LVL17
 2190 033c 0200     		.2byte	0x2
 2191 033e 30       		.byte	0x30
 2192 033f 9F       		.byte	0x9f
 2193 0340 9A000000 		.4byte	.LVL17
 2194 0344 30010000 		.4byte	.LVL23
 2195 0348 0100     		.2byte	0x1
 2196 034a 51       		.byte	0x51
 2197 034b 30010000 		.4byte	.LVL23
 2198 034f 34010000 		.4byte	.LVL24
 2199 0353 0500     		.2byte	0x5
 2200 0355 79       		.byte	0x79
 2201 0356 00       		.sleb128 0
 2202 0357 31       		.byte	0x31
 2203 0358 24       		.byte	0x24
 2204 0359 9F       		.byte	0x9f
 2205 035a 34010000 		.4byte	.LVL24
 2206 035e 78010000 		.4byte	.LVL35
 2207 0362 0100     		.2byte	0x1
 2208 0364 51       		.byte	0x51
 2209 0365 8A020000 		.4byte	.LVL48
 2210 0369 94020000 		.4byte	.LVL51
 2211 036d 0100     		.2byte	0x1
 2212 036f 51       		.byte	0x51
 2213 0370 1C030000 		.4byte	.LVL67
 2214 0374 2A030000 		.4byte	.LVL70
 2215 0378 0100     		.2byte	0x1
 2216 037a 51       		.byte	0x51
 2217 037b 96030000 		.4byte	.LVL86
 2218 037f A0030000 		.4byte	.LVL88
 2219 0383 0100     		.2byte	0x1
 2220 0385 51       		.byte	0x51
 2221 0386 A6030000 		.4byte	.LVL90
ARM GAS  /tmp/ccjhKKXY.s 			page 40


 2222 038a B6030000 		.4byte	.LVL92
 2223 038e 0100     		.2byte	0x1
 2224 0390 51       		.byte	0x51
 2225 0391 28040000 		.4byte	.LVL107
 2226 0395 38040000 		.4byte	.LVL110
 2227 0399 0100     		.2byte	0x1
 2228 039b 51       		.byte	0x51
 2229 039c 4A040000 		.4byte	.LVL114
 2230 03a0 52040000 		.4byte	.LVL117
 2231 03a4 0100     		.2byte	0x1
 2232 03a6 51       		.byte	0x51
 2233 03a7 00000000 		.4byte	0
 2234 03ab 00000000 		.4byte	0
 2235              	.LLST9:
 2236 03af 68000000 		.4byte	.LVL9
 2237 03b3 72000000 		.4byte	.LVL10
 2238 03b7 0200     		.2byte	0x2
 2239 03b9 30       		.byte	0x30
 2240 03ba 9F       		.byte	0x9f
 2241 03bb 72000000 		.4byte	.LVL10
 2242 03bf CA010000 		.4byte	.LVL38
 2243 03c3 0100     		.2byte	0x1
 2244 03c5 5A       		.byte	0x5a
 2245 03c6 CA010000 		.4byte	.LVL38
 2246 03ca CE010000 		.4byte	.LVL39
 2247 03ce 0100     		.2byte	0x1
 2248 03d0 51       		.byte	0x51
 2249 03d1 CE010000 		.4byte	.LVL39
 2250 03d5 F6010000 		.4byte	.LVL43
 2251 03d9 0100     		.2byte	0x1
 2252 03db 5A       		.byte	0x5a
 2253 03dc 3A020000 		.4byte	.LVL46
 2254 03e0 66020000 		.4byte	.LVL47
 2255 03e4 0100     		.2byte	0x1
 2256 03e6 5A       		.byte	0x5a
 2257 03e7 8A020000 		.4byte	.LVL48
 2258 03eb A4020000 		.4byte	.LVL54
 2259 03ef 0100     		.2byte	0x1
 2260 03f1 5A       		.byte	0x5a
 2261 03f2 A4020000 		.4byte	.LVL54
 2262 03f6 A8020000 		.4byte	.LVL55
 2263 03fa 0100     		.2byte	0x1
 2264 03fc 51       		.byte	0x51
 2265 03fd A8020000 		.4byte	.LVL55
 2266 0401 D4020000 		.4byte	.LVL60
 2267 0405 0100     		.2byte	0x1
 2268 0407 5A       		.byte	0x5a
 2269 0408 D4020000 		.4byte	.LVL60
 2270 040c D8020000 		.4byte	.LVL61
 2271 0410 0300     		.2byte	0x3
 2272 0412 7A       		.byte	0x7a
 2273 0413 01       		.sleb128 1
 2274 0414 9F       		.byte	0x9f
 2275 0415 D8020000 		.4byte	.LVL61
 2276 0419 EC020000 		.4byte	.LVL62
 2277 041d 0100     		.2byte	0x1
 2278 041f 5A       		.byte	0x5a
ARM GAS  /tmp/ccjhKKXY.s 			page 41


 2279 0420 EC020000 		.4byte	.LVL62
 2280 0424 F0020000 		.4byte	.LVL63
 2281 0428 0300     		.2byte	0x3
 2282 042a 7A       		.byte	0x7a
 2283 042b 01       		.sleb128 1
 2284 042c 9F       		.byte	0x9f
 2285 042d F0020000 		.4byte	.LVL63
 2286 0431 08030000 		.4byte	.LVL64
 2287 0435 0100     		.2byte	0x1
 2288 0437 5A       		.byte	0x5a
 2289 0438 08030000 		.4byte	.LVL64
 2290 043c 14030000 		.4byte	.LVL65
 2291 0440 0300     		.2byte	0x3
 2292 0442 7A       		.byte	0x7a
 2293 0443 7F       		.sleb128 -1
 2294 0444 9F       		.byte	0x9f
 2295 0445 14030000 		.4byte	.LVL65
 2296 0449 18030000 		.4byte	.LVL66
 2297 044d 0300     		.2byte	0x3
 2298 044f 7A       		.byte	0x7a
 2299 0450 01       		.sleb128 1
 2300 0451 9F       		.byte	0x9f
 2301 0452 18030000 		.4byte	.LVL66
 2302 0456 38040000 		.4byte	.LVL110
 2303 045a 0100     		.2byte	0x1
 2304 045c 5A       		.byte	0x5a
 2305 045d 4A040000 		.4byte	.LVL114
 2306 0461 8A040000 		.4byte	.LFE8
 2307 0465 0100     		.2byte	0x1
 2308 0467 5A       		.byte	0x5a
 2309 0468 00000000 		.4byte	0
 2310 046c 00000000 		.4byte	0
 2311              	.LLST10:
 2312 0470 B0000000 		.4byte	.LVL19
 2313 0474 28010000 		.4byte	.LVL20
 2314 0478 0100     		.2byte	0x1
 2315 047a 52       		.byte	0x52
 2316 047b 4C010000 		.4byte	.LVL26
 2317 047f 5C010000 		.4byte	.LVL30
 2318 0483 0200     		.2byte	0x2
 2319 0485 31       		.byte	0x31
 2320 0486 9F       		.byte	0x9f
 2321 0487 5C010000 		.4byte	.LVL30
 2322 048b 60010000 		.4byte	.LVL31
 2323 048f 0100     		.2byte	0x1
 2324 0491 52       		.byte	0x52
 2325 0492 8A020000 		.4byte	.LVL48
 2326 0496 92020000 		.4byte	.LVL50
 2327 049a 0100     		.2byte	0x1
 2328 049c 52       		.byte	0x52
 2329 049d 1C030000 		.4byte	.LVL67
 2330 04a1 28030000 		.4byte	.LVL69
 2331 04a5 0100     		.2byte	0x1
 2332 04a7 52       		.byte	0x52
 2333 04a8 96030000 		.4byte	.LVL86
 2334 04ac A2030000 		.4byte	.LVL89
 2335 04b0 0100     		.2byte	0x1
ARM GAS  /tmp/ccjhKKXY.s 			page 42


 2336 04b2 52       		.byte	0x52
 2337 04b3 A6030000 		.4byte	.LVL90
 2338 04b7 AE030000 		.4byte	.LVL91
 2339 04bb 0100     		.2byte	0x1
 2340 04bd 52       		.byte	0x52
 2341 04be 28040000 		.4byte	.LVL107
 2342 04c2 38040000 		.4byte	.LVL110
 2343 04c6 0100     		.2byte	0x1
 2344 04c8 52       		.byte	0x52
 2345 04c9 4A040000 		.4byte	.LVL114
 2346 04cd 4E040000 		.4byte	.LVL115
 2347 04d1 0200     		.2byte	0x2
 2348 04d3 31       		.byte	0x31
 2349 04d4 9F       		.byte	0x9f
 2350 04d5 4E040000 		.4byte	.LVL115
 2351 04d9 50040000 		.4byte	.LVL116
 2352 04dd 0100     		.2byte	0x1
 2353 04df 52       		.byte	0x52
 2354 04e0 00000000 		.4byte	0
 2355 04e4 00000000 		.4byte	0
 2356              	.LLST11:
 2357 04e8 54000000 		.4byte	.LVL7
 2358 04ec 5E000000 		.4byte	.LVL8
 2359 04f0 0200     		.2byte	0x2
 2360 04f2 30       		.byte	0x30
 2361 04f3 9F       		.byte	0x9f
 2362 04f4 5E000000 		.4byte	.LVL8
 2363 04f8 D2010000 		.4byte	.LVL40
 2364 04fc 0100     		.2byte	0x1
 2365 04fe 50       		.byte	0x50
 2366 04ff 8A020000 		.4byte	.LVL48
 2367 0503 BE020000 		.4byte	.LVL58
 2368 0507 0100     		.2byte	0x1
 2369 0509 50       		.byte	0x50
 2370 050a 1C030000 		.4byte	.LVL67
 2371 050e 42040000 		.4byte	.LVL112
 2372 0512 0100     		.2byte	0x1
 2373 0514 50       		.byte	0x50
 2374 0515 42040000 		.4byte	.LVL112
 2375 0519 44040000 		.4byte	.LVL113
 2376 051d 0200     		.2byte	0x2
 2377 051f 30       		.byte	0x30
 2378 0520 9F       		.byte	0x9f
 2379 0521 44040000 		.4byte	.LVL113
 2380 0525 4A040000 		.4byte	.LVL114
 2381 0529 0200     		.2byte	0x2
 2382 052b 31       		.byte	0x31
 2383 052c 9F       		.byte	0x9f
 2384 052d 4A040000 		.4byte	.LVL114
 2385 0531 72040000 		.4byte	.LVL122
 2386 0535 0100     		.2byte	0x1
 2387 0537 50       		.byte	0x50
 2388 0538 82040000 		.4byte	.LVL125
 2389 053c 8A040000 		.4byte	.LFE8
 2390 0540 0100     		.2byte	0x1
 2391 0542 50       		.byte	0x50
 2392 0543 00000000 		.4byte	0
ARM GAS  /tmp/ccjhKKXY.s 			page 43


 2393 0547 00000000 		.4byte	0
 2394              	.LLST12:
 2395 054b 28030000 		.4byte	.LVL69
 2396 054f 2A030000 		.4byte	.LVL70
 2397 0553 0200     		.2byte	0x2
 2398 0555 73       		.byte	0x73
 2399 0556 00       		.sleb128 0
 2400 0557 2A030000 		.4byte	.LVL70
 2401 055b 2E030000 		.4byte	.LVL71
 2402 055f 0100     		.2byte	0x1
 2403 0561 52       		.byte	0x52
 2404 0562 A2030000 		.4byte	.LVL89
 2405 0566 A6030000 		.4byte	.LVL90
 2406 056a 0200     		.2byte	0x2
 2407 056c 73       		.byte	0x73
 2408 056d 00       		.sleb128 0
 2409 056e AE030000 		.4byte	.LVL91
 2410 0572 B6030000 		.4byte	.LVL92
 2411 0576 0400     		.2byte	0x4
 2412 0578 91       		.byte	0x91
 2413 0579 B47F     		.sleb128 -76
 2414 057b 06       		.byte	0x6
 2415 057c B6030000 		.4byte	.LVL92
 2416 0580 C2030000 		.4byte	.LVL95
 2417 0584 0100     		.2byte	0x1
 2418 0586 52       		.byte	0x52
 2419 0587 50040000 		.4byte	.LVL116
 2420 058b 58040000 		.4byte	.LVL118
 2421 058f 0200     		.2byte	0x2
 2422 0591 73       		.byte	0x73
 2423 0592 00       		.sleb128 0
 2424 0593 58040000 		.4byte	.LVL118
 2425 0597 66040000 		.4byte	.LVL121
 2426 059b 0100     		.2byte	0x1
 2427 059d 52       		.byte	0x52
 2428 059e 00000000 		.4byte	0
 2429 05a2 00000000 		.4byte	0
 2430              	.LLST13:
 2431 05a6 B8030000 		.4byte	.LVL93
 2432 05aa 28040000 		.4byte	.LVL107
 2433 05ae 0200     		.2byte	0x2
 2434 05b0 3A       		.byte	0x3a
 2435 05b1 9F       		.byte	0x9f
 2436 05b2 00000000 		.4byte	0
 2437 05b6 00000000 		.4byte	0
 2438              	.LLST14:
 2439 05ba B8030000 		.4byte	.LVL93
 2440 05be D0030000 		.4byte	.LVL96
 2441 05c2 0100     		.2byte	0x1
 2442 05c4 52       		.byte	0x52
 2443 05c5 D4030000 		.4byte	.LVL97
 2444 05c9 E0030000 		.4byte	.LVL98
 2445 05cd 0100     		.2byte	0x1
 2446 05cf 51       		.byte	0x51
 2447 05d0 E0030000 		.4byte	.LVL98
 2448 05d4 E8030000 		.4byte	.LVL99
 2449 05d8 0100     		.2byte	0x1
ARM GAS  /tmp/ccjhKKXY.s 			page 44


 2450 05da 52       		.byte	0x52
 2451 05db 00000000 		.4byte	0
 2452 05df 00000000 		.4byte	0
 2453              	.LLST15:
 2454 05e3 B8030000 		.4byte	.LVL93
 2455 05e7 FA030000 		.4byte	.LVL103
 2456 05eb 0100     		.2byte	0x1
 2457 05ed 5C       		.byte	0x5c
 2458 05ee FA030000 		.4byte	.LVL103
 2459 05f2 06040000 		.4byte	.LVL104
 2460 05f6 0100     		.2byte	0x1
 2461 05f8 51       		.byte	0x51
 2462 05f9 0E040000 		.4byte	.LVL105
 2463 05fd 28040000 		.4byte	.LVL107
 2464 0601 0100     		.2byte	0x1
 2465 0603 51       		.byte	0x51
 2466 0604 00000000 		.4byte	0
 2467 0608 00000000 		.4byte	0
 2468              	.LLST16:
 2469 060c D0030000 		.4byte	.LVL96
 2470 0610 E0030000 		.4byte	.LVL98
 2471 0614 0300     		.2byte	0x3
 2472 0616 71       		.byte	0x71
 2473 0617 30       		.sleb128 48
 2474 0618 9F       		.byte	0x9f
 2475 0619 E0030000 		.4byte	.LVL98
 2476 061d E8030000 		.4byte	.LVL99
 2477 0621 0300     		.2byte	0x3
 2478 0623 72       		.byte	0x72
 2479 0624 30       		.sleb128 48
 2480 0625 9F       		.byte	0x9f
 2481 0626 F0030000 		.4byte	.LVL100
 2482 062a F2030000 		.4byte	.LVL101
 2483 062e 0100     		.2byte	0x1
 2484 0630 51       		.byte	0x51
 2485 0631 F2030000 		.4byte	.LVL101
 2486 0635 F4030000 		.4byte	.LVL102
 2487 0639 0300     		.2byte	0x3
 2488 063b 91       		.byte	0x91
 2489 063c A47F     		.sleb128 -92
 2490 063e 00000000 		.4byte	0
 2491 0642 00000000 		.4byte	0
 2492              	.LLST17:
 2493 0646 BC030000 		.4byte	.LVL94
 2494 064a C2030000 		.4byte	.LVL95
 2495 064e 0100     		.2byte	0x1
 2496 0650 57       		.byte	0x57
 2497 0651 D4030000 		.4byte	.LVL97
 2498 0655 F4030000 		.4byte	.LVL102
 2499 0659 0100     		.2byte	0x1
 2500 065b 56       		.byte	0x56
 2501 065c 00000000 		.4byte	0
 2502 0660 00000000 		.4byte	0
 2503              	.LLST18:
 2504 0664 2A030000 		.4byte	.LVL70
 2505 0668 68030000 		.4byte	.LVL80
 2506 066c 0100     		.2byte	0x1
ARM GAS  /tmp/ccjhKKXY.s 			page 45


 2507 066e 57       		.byte	0x57
 2508 066f 00000000 		.4byte	0
 2509 0673 00000000 		.4byte	0
 2510              	.LLST19:
 2511 0677 2A030000 		.4byte	.LVL70
 2512 067b 4A030000 		.4byte	.LVL75
 2513 067f 0100     		.2byte	0x1
 2514 0681 52       		.byte	0x52
 2515 0682 4C030000 		.4byte	.LVL76
 2516 0686 5C030000 		.4byte	.LVL78
 2517 068a 0100     		.2byte	0x1
 2518 068c 59       		.byte	0x59
 2519 068d 5C030000 		.4byte	.LVL78
 2520 0691 60030000 		.4byte	.LVL79
 2521 0695 0100     		.2byte	0x1
 2522 0697 52       		.byte	0x52
 2523 0698 00000000 		.4byte	0
 2524 069c 00000000 		.4byte	0
 2525              	.LLST20:
 2526 06a0 2A030000 		.4byte	.LVL70
 2527 06a4 76030000 		.4byte	.LVL82
 2528 06a8 0100     		.2byte	0x1
 2529 06aa 5B       		.byte	0x5b
 2530 06ab 76030000 		.4byte	.LVL82
 2531 06af 7C030000 		.4byte	.LVL83
 2532 06b3 0200     		.2byte	0x2
 2533 06b5 7D       		.byte	0x7d
 2534 06b6 00       		.sleb128 0
 2535 06b7 7C030000 		.4byte	.LVL83
 2536 06bb 7E030000 		.4byte	.LVL84
 2537 06bf 0100     		.2byte	0x1
 2538 06c1 56       		.byte	0x56
 2539 06c2 86030000 		.4byte	.LVL85
 2540 06c6 96030000 		.4byte	.LVL86
 2541 06ca 0100     		.2byte	0x1
 2542 06cc 56       		.byte	0x56
 2543 06cd 00000000 		.4byte	0
 2544 06d1 00000000 		.4byte	0
 2545              	.LLST21:
 2546 06d5 36030000 		.4byte	.LVL72
 2547 06d9 3A030000 		.4byte	.LVL73
 2548 06dd 0100     		.2byte	0x1
 2549 06df 53       		.byte	0x53
 2550 06e0 3A030000 		.4byte	.LVL73
 2551 06e4 5C030000 		.4byte	.LVL78
 2552 06e8 0100     		.2byte	0x1
 2553 06ea 5C       		.byte	0x5c
 2554 06eb 5C030000 		.4byte	.LVL78
 2555 06ef 6E030000 		.4byte	.LVL81
 2556 06f3 0100     		.2byte	0x1
 2557 06f5 59       		.byte	0x59
 2558 06f6 00000000 		.4byte	0
 2559 06fa 00000000 		.4byte	0
 2560              	.LLST22:
 2561 06fe 2A030000 		.4byte	.LVL70
 2562 0702 2E030000 		.4byte	.LVL71
 2563 0706 0400     		.2byte	0x4
ARM GAS  /tmp/ccjhKKXY.s 			page 46


 2564 0708 91       		.byte	0x91
 2565 0709 B37F     		.sleb128 -77
 2566 070b 9F       		.byte	0x9f
 2567 070c 4C030000 		.4byte	.LVL76
 2568 0710 50030000 		.4byte	.LVL77
 2569 0714 0100     		.2byte	0x1
 2570 0716 56       		.byte	0x56
 2571 0717 50030000 		.4byte	.LVL77
 2572 071b 6E030000 		.4byte	.LVL81
 2573 071f 0100     		.2byte	0x1
 2574 0721 51       		.byte	0x51
 2575 0722 00000000 		.4byte	0
 2576 0726 00000000 		.4byte	0
 2577              		.section	.debug_aranges,"",%progbits
 2578 0000 1C000000 		.4byte	0x1c
 2579 0004 0200     		.2byte	0x2
 2580 0006 00000000 		.4byte	.Ldebug_info0
 2581 000a 04       		.byte	0x4
 2582 000b 00       		.byte	0
 2583 000c 0000     		.2byte	0
 2584 000e 0000     		.2byte	0
 2585 0010 00000000 		.4byte	.LFB8
 2586 0014 8A040000 		.4byte	.LFE8-.LFB8
 2587 0018 00000000 		.4byte	0
 2588 001c 00000000 		.4byte	0
 2589              		.section	.debug_ranges,"",%progbits
 2590              	.Ldebug_ranges0:
 2591 0000 18000000 		.4byte	.LBB6
 2592 0004 1C000000 		.4byte	.LBE6
 2593 0008 20000000 		.4byte	.LBB12
 2594 000c 24000000 		.4byte	.LBE12
 2595 0010 2A000000 		.4byte	.LBB13
 2596 0014 2C000000 		.4byte	.LBE13
 2597 0018 B8030000 		.4byte	.LBB18
 2598 001c F0030000 		.4byte	.LBE18
 2599 0020 F4030000 		.4byte	.LBB19
 2600 0024 24040000 		.4byte	.LBE19
 2601 0028 00000000 		.4byte	0
 2602 002c 00000000 		.4byte	0
 2603 0030 18000000 		.4byte	.LBB7
 2604 0034 1C000000 		.4byte	.LBE7
 2605 0038 20000000 		.4byte	.LBB8
 2606 003c 24000000 		.4byte	.LBE8
 2607 0040 2A000000 		.4byte	.LBB9
 2608 0044 2C000000 		.4byte	.LBE9
 2609 0048 B8030000 		.4byte	.LBB10
 2610 004c F0030000 		.4byte	.LBE10
 2611 0050 F4030000 		.4byte	.LBB11
 2612 0054 24040000 		.4byte	.LBE11
 2613 0058 00000000 		.4byte	0
 2614 005c 00000000 		.4byte	0
 2615 0060 2E030000 		.4byte	.LBB14
 2616 0064 6A030000 		.4byte	.LBE14
 2617 0068 6E030000 		.4byte	.LBB17
 2618 006c 92030000 		.4byte	.LBE17
 2619 0070 00000000 		.4byte	0
 2620 0074 00000000 		.4byte	0
ARM GAS  /tmp/ccjhKKXY.s 			page 47


 2621 0078 2E030000 		.4byte	.LBB15
 2622 007c 6A030000 		.4byte	.LBE15
 2623 0080 6E030000 		.4byte	.LBB16
 2624 0084 92030000 		.4byte	.LBE16
 2625 0088 00000000 		.4byte	0
 2626 008c 00000000 		.4byte	0
 2627 0090 00000000 		.4byte	.LFB8
 2628 0094 8A040000 		.4byte	.LFE8
 2629 0098 00000000 		.4byte	0
 2630 009c 00000000 		.4byte	0
 2631              		.section	.debug_line,"",%progbits
 2632              	.Ldebug_line0:
 2633 0000 BD020000 		.section	.debug_str,"MS",%progbits,1
 2633      02001D01 
 2633      00000201 
 2633      FB0E0D00 
 2633      01010101 
 2634              	.LASF2:
 2635 0000 73697A65 		.ascii	"size_t\000"
 2635      5F7400
 2636              	.LASF17:
 2637 0007 73797374 		.ascii	"systime_t\000"
 2637      696D655F 
 2637      7400
 2638              	.LASF33:
 2639 0011 69735F6C 		.ascii	"is_long\000"
 2639      6F6E6700 
 2640              	.LASF28:
 2641 0019 72616469 		.ascii	"radix\000"
 2641      7800
 2642              	.LASF15:
 2643 001f 626F6F6C 		.ascii	"bool_t\000"
 2643      5F7400
 2644              	.LASF36:
 2645 0026 2E2F6F73 		.ascii	"./os/various/chprintf.c\000"
 2645      2F766172 
 2645      696F7573 
 2645      2F636870 
 2645      72696E74 
 2646              	.LASF25:
 2647 003e 77726974 		.ascii	"writet\000"
 2647      657400
 2648              	.LASF1:
 2649 0045 76615F6C 		.ascii	"va_list\000"
 2649      69737400 
 2650              	.LASF35:
 2651 004d 474E5520 		.ascii	"GNU C 4.6.2 20120613 (release) [ARM/embedded-4_6-br"
 2651      4320342E 
 2651      362E3220 
 2651      32303132 
 2651      30363133 
 2652 0080 616E6368 		.ascii	"anch revision 188521]\000"
 2652      20726576 
 2652      6973696F 
 2652      6E203138 
 2652      38353231 
 2653              	.LASF26:
ARM GAS  /tmp/ccjhKKXY.s 			page 48


 2654 0096 72656164 		.ascii	"readt\000"
 2654      7400
 2655              	.LASF12:
 2656 009c 6C6F6E67 		.ascii	"long unsigned int\000"
 2656      20756E73 
 2656      69676E65 
 2656      6420696E 
 2656      7400
 2657              	.LASF8:
 2658 00ae 73686F72 		.ascii	"short unsigned int\000"
 2658      7420756E 
 2658      7369676E 
 2658      65642069 
 2658      6E7400
 2659              	.LASF21:
 2660 00c1 77726974 		.ascii	"write\000"
 2660      6500
 2661              	.LASF32:
 2662 00c7 77696474 		.ascii	"width\000"
 2662      6800
 2663              	.LASF6:
 2664 00cd 756E7369 		.ascii	"unsigned char\000"
 2664      676E6564 
 2664      20636861 
 2664      7200
 2665              	.LASF40:
 2666 00db 63687072 		.ascii	"chprintf\000"
 2666      696E7466 
 2666      00
 2667              	.LASF23:
 2668 00e4 70757477 		.ascii	"putwouldblock\000"
 2668      6F756C64 
 2668      626C6F63 
 2668      6B00
 2669              	.LASF0:
 2670 00f2 5F5F676E 		.ascii	"__gnuc_va_list\000"
 2670      75635F76 
 2670      615F6C69 
 2670      737400
 2671              	.LASF22:
 2672 0101 72656164 		.ascii	"read\000"
 2672      00
 2673              	.LASF30:
 2674 0106 66696C6C 		.ascii	"filler\000"
 2674      657200
 2675              	.LASF3:
 2676 010d 756E7369 		.ascii	"unsigned int\000"
 2676      676E6564 
 2676      20696E74 
 2676      00
 2677              	.LASF14:
 2678 011a 6C6F6E67 		.ascii	"long long unsigned int\000"
 2678      206C6F6E 
 2678      6720756E 
 2678      7369676E 
 2678      65642069 
 2679              	.LASF5:
ARM GAS  /tmp/ccjhKKXY.s 			page 49


 2680 0131 75696E74 		.ascii	"uint8_t\000"
 2680      385F7400 
 2681              	.LASF38:
 2682 0139 5F5F6170 		.ascii	"__ap\000"
 2682      00
 2683              	.LASF24:
 2684 013e 67657477 		.ascii	"getwouldblock\000"
 2684      6F756C64 
 2684      626C6F63 
 2684      6B00
 2685              	.LASF16:
 2686 014c 6D73675F 		.ascii	"msg_t\000"
 2686      7400
 2687              	.LASF20:
 2688 0152 42617365 		.ascii	"BaseChannelVMT\000"
 2688      4368616E 
 2688      6E656C56 
 2688      4D5400
 2689              	.LASF9:
 2690 0161 696E7433 		.ascii	"int32_t\000"
 2690      325F7400 
 2691              	.LASF29:
 2692 0169 746D7062 		.ascii	"tmpbuf\000"
 2692      756600
 2693              	.LASF19:
 2694 0170 5F5F7661 		.ascii	"__va_list\000"
 2694      5F6C6973 
 2694      7400
 2695              	.LASF13:
 2696 017a 6C6F6E67 		.ascii	"long long int\000"
 2696      206C6F6E 
 2696      6720696E 
 2696      7400
 2697              	.LASF31:
 2698 0188 70726563 		.ascii	"precision\000"
 2698      6973696F 
 2698      6E00
 2699              	.LASF18:
 2700 0192 63686172 		.ascii	"char\000"
 2700      00
 2701              	.LASF34:
 2702 0197 6C656674 		.ascii	"left_align\000"
 2702      5F616C69 
 2702      676E00
 2703              	.LASF7:
 2704 01a2 73686F72 		.ascii	"short int\000"
 2704      7420696E 
 2704      7400
 2705              	.LASF41:
 2706 01ac 756E7369 		.ascii	"unsigned_common\000"
 2706      676E6564 
 2706      5F636F6D 
 2706      6D6F6E00 
 2707              	.LASF11:
 2708 01bc 75696E74 		.ascii	"uint32_t\000"
 2708      33325F74 
 2708      00
ARM GAS  /tmp/ccjhKKXY.s 			page 50


 2709              	.LASF10:
 2710 01c5 6C6F6E67 		.ascii	"long int\000"
 2710      20696E74 
 2710      00
 2711              	.LASF4:
 2712 01ce 7369676E 		.ascii	"signed char\000"
 2712      65642063 
 2712      68617200 
 2713              	.LASF39:
 2714 01da 6C746F61 		.ascii	"ltoa\000"
 2714      00
 2715              	.LASF37:
 2716 01df 2F686F6D 		.ascii	"/home/pacifist/fox1/amsat-fox1/amsat-fox/stm32f4-de"
 2716      652F7061 
 2716      63696669 
 2716      73742F66 
 2716      6F78312F 
 2717 0212 76656C00 		.ascii	"vel\000"
 2718              	.LASF27:
 2719 0216 42617365 		.ascii	"BaseChannel\000"
 2719      4368616E 
 2719      6E656C00 
 2720              		.ident	"GCC: (GNU Tools for ARM Embedded Processors) 4.6.2 20120613 (release) [ARM/embedded-4_6-br
ARM GAS  /tmp/ccjhKKXY.s 			page 51


DEFINED SYMBOLS
                            *ABS*:00000000 chprintf.c
     /tmp/ccjhKKXY.s:19     .text.chprintf:00000000 $t
     /tmp/ccjhKKXY.s:25     .text.chprintf:00000000 chprintf
     /tmp/ccjhKKXY.s:208    .text.chprintf:000000be $d
     /tmp/ccjhKKXY.s:264    .text.chprintf:00000128 $t
     /tmp/ccjhKKXY.s:787    .text.chprintf:00000400 $d
     /tmp/ccjhKKXY.s:789    .text.chprintf:00000404 $t
     /tmp/ccjhKKXY.s:912    .rodata.str1.4:00000000 $d
                     .debug_frame:00000010 $d

NO UNDEFINED SYMBOLS
