ARM GAS  /tmp/ccjdCup9.s 			page 1


   1              		.syntax unified
   2              		.cpu cortex-m4
   3              		.fpu softvfp
   4              		.eabi_attribute 20, 1
   5              		.eabi_attribute 21, 1
   6              		.eabi_attribute 23, 3
   7              		.eabi_attribute 24, 1
   8              		.eabi_attribute 25, 1
   9              		.eabi_attribute 26, 1
  10              		.eabi_attribute 30, 2
  11              		.eabi_attribute 34, 1
  12              		.eabi_attribute 18, 4
  13              		.thumb
  14              		.file	"chqueues.c"
  15              		.text
  16              	.Ltext0:
  17              		.cfi_sections	.debug_frame
  18              		.section	.text.qwait,"ax",%progbits
  19              		.align	2
  20              		.p2align 4,,15
  21              		.thumb
  22              		.thumb_func
  23              		.type	qwait, %function
  24              	qwait:
  25              	.LFB7:
  26              		.file 1 "./os/kernel/src/chqueues.c"
  27              		.loc 1 72 0
  28              		.cfi_startproc
  29              		@ args = 0, pretend = 0, frame = 0
  30              		@ frame_needed = 0, uses_anonymous_args = 0
  31              		@ link register save eliminated.
  32              	.LVL0:
  33 0000 10B4     		push	{r4}
  34              	.LCFI0:
  35              		.cfi_def_cfa_offset 4
  36              		.cfi_offset 4, -4
  37              		.loc 1 72 0
  38 0002 0246     		mov	r2, r0
  39              		.loc 1 74 0
  40 0004 59B1     		cbz	r1, .L2
  41              		.loc 1 76 0
  42 0006 084B     		ldr	r3, .L4
  43 0008 DB69     		ldr	r3, [r3, #28]
  44 000a 5862     		str	r0, [r3, #36]
  45              	.LVL1:
  46              	.LBB12:
  47              	.LBB13:
  48              		.file 2 "./os/kernel/include/chinline.h"
  49              		.loc 2 55 0
  50 000c 4468     		ldr	r4, [r0, #4]
  51              	.LBE13:
  52              	.LBE12:
  53              		.loc 1 78 0
  54 000e 0D20     		movs	r0, #13
  55              	.LVL2:
  56              	.LBB15:
  57              	.LBB14:
ARM GAS  /tmp/ccjdCup9.s 			page 2


  58              		.loc 2 55 0
  59 0010 83E81400 		stmia	r3, {r2, r4}
  60              		.loc 2 56 0
  61 0014 5360     		str	r3, [r2, #4]
  62 0016 2360     		str	r3, [r4, #0]
  63              	.LBE14:
  64              	.LBE15:
  65              		.loc 1 79 0
  66 0018 10BC     		pop	{r4}
  67              		.loc 1 78 0
  68 001a FFF7FEBF 		b	chSchGoSleepTimeoutS
  69              	.LVL3:
  70              	.L2:
  71              		.loc 1 79 0
  72 001e 4FF0FF30 		mov	r0, #-1
  73              	.LVL4:
  74 0022 10BC     		pop	{r4}
  75 0024 7047     		bx	lr
  76              	.L5:
  77 0026 00BF     		.align	2
  78              	.L4:
  79 0028 00000000 		.word	rlist
  80              		.cfi_endproc
  81              	.LFE7:
  82              		.size	qwait, .-qwait
  83 002c AFF30080 		.section	.text.chIQInit,"ax",%progbits
  84              		.align	2
  85              		.p2align 4,,15
  86              		.global	chIQInit
  87              		.thumb
  88              		.thumb_func
  89              		.type	chIQInit, %function
  90              	chIQInit:
  91              	.LFB8:
  92              		.loc 1 96 0
  93              		.cfi_startproc
  94              		@ args = 0, pretend = 0, frame = 0
  95              		@ frame_needed = 0, uses_anonymous_args = 0
  96              		@ link register save eliminated.
  97              	.LVL5:
  98 0000 10B4     		push	{r4}
  99              	.LCFI1:
 100              		.cfi_def_cfa_offset 4
 101              		.cfi_offset 4, -4
 102              		.loc 1 101 0
 103 0002 8A18     		adds	r2, r1, r2
 104              	.LVL6:
 105              		.loc 1 99 0
 106 0004 0024     		movs	r4, #0
 107              		.loc 1 98 0
 108 0006 4060     		str	r0, [r0, #4]
 109 0008 0060     		str	r0, [r0, #0]
 110              		.loc 1 99 0
 111 000a 8460     		str	r4, [r0, #8]
 112              		.loc 1 100 0
 113 000c 4161     		str	r1, [r0, #20]
 114 000e 8161     		str	r1, [r0, #24]
ARM GAS  /tmp/ccjdCup9.s 			page 3


 115 0010 C160     		str	r1, [r0, #12]
 116              		.loc 1 101 0
 117 0012 0261     		str	r2, [r0, #16]
 118              		.loc 1 102 0
 119 0014 C361     		str	r3, [r0, #28]
 120              		.loc 1 103 0
 121 0016 10BC     		pop	{r4}
 122 0018 7047     		bx	lr
 123              		.cfi_endproc
 124              	.LFE8:
 125              		.size	chIQInit, .-chIQInit
 126 001a 00BFAFF3 		.section	.text.chIQResetI,"ax",%progbits
 126      0080
 127              		.align	2
 128              		.p2align 4,,15
 129              		.global	chIQResetI
 130              		.thumb
 131              		.thumb_func
 132              		.type	chIQResetI, %function
 133              	chIQResetI:
 134              	.LFB9:
 135              		.loc 1 116 0
 136              		.cfi_startproc
 137              		@ args = 0, pretend = 0, frame = 0
 138              		@ frame_needed = 0, uses_anonymous_args = 0
 139              	.LVL7:
 140 0000 38B5     		push	{r3, r4, r5, lr}
 141              	.LCFI2:
 142              		.cfi_def_cfa_offset 16
 143              		.cfi_offset 3, -16
 144              		.cfi_offset 4, -12
 145              		.cfi_offset 5, -8
 146              		.cfi_offset 14, -4
 147              		.loc 1 116 0
 148 0002 0446     		mov	r4, r0
 149              		.loc 1 120 0
 150 0004 C368     		ldr	r3, [r0, #12]
 151              		.loc 1 122 0
 152 0006 0068     		ldr	r0, [r0, #0]
 153              	.LVL8:
 154              		.loc 1 120 0
 155 0008 6361     		str	r3, [r4, #20]
 156 000a A361     		str	r3, [r4, #24]
 157              		.loc 1 121 0
 158 000c 0023     		movs	r3, #0
 159              		.loc 1 122 0
 160 000e A042     		cmp	r0, r4
 161              		.loc 1 121 0
 162 0010 A360     		str	r3, [r4, #8]
 163              		.loc 1 122 0
 164 0012 0AD0     		beq	.L7
 165              		.loc 1 123 0
 166 0014 6FF00105 		mvn	r5, #1
 167              	.L11:
 168              	.LVL9:
 169              	.LBB16:
 170              	.LBB17:
ARM GAS  /tmp/ccjdCup9.s 			page 4


 171              		.loc 2 62 0
 172 0018 0368     		ldr	r3, [r0, #0]
 173 001a 2360     		str	r3, [r4, #0]
 174 001c 5C60     		str	r4, [r3, #4]
 175              	.LBE17:
 176              	.LBE16:
 177              		.loc 1 123 0
 178 001e FFF7FEFF 		bl	chSchReadyI
 179              	.LVL10:
 180 0022 4562     		str	r5, [r0, #36]
 181              		.loc 1 122 0
 182 0024 2068     		ldr	r0, [r4, #0]
 183 0026 A042     		cmp	r0, r4
 184 0028 F6D1     		bne	.L11
 185              	.LVL11:
 186              	.L7:
 187 002a 38BD     		pop	{r3, r4, r5, pc}
 188              		.cfi_endproc
 189              	.LFE9:
 190              		.size	chIQResetI, .-chIQResetI
 191 002c AFF30080 		.section	.text.chIQPutI,"ax",%progbits
 192              		.align	2
 193              		.p2align 4,,15
 194              		.global	chIQPutI
 195              		.thumb
 196              		.thumb_func
 197              		.type	chIQPutI, %function
 198              	chIQPutI:
 199              	.LFB10:
 200              		.loc 1 139 0
 201              		.cfi_startproc
 202              		@ args = 0, pretend = 0, frame = 0
 203              		@ frame_needed = 0, uses_anonymous_args = 0
 204              	.LVL12:
 205              		.loc 1 143 0
 206 0000 4269     		ldr	r2, [r0, #20]
 207              		.loc 1 139 0
 208 0002 08B5     		push	{r3, lr}
 209              	.LCFI3:
 210              		.cfi_def_cfa_offset 8
 211              		.cfi_offset 3, -8
 212              		.cfi_offset 14, -4
 213              		.loc 1 139 0
 214 0004 0346     		mov	r3, r0
 215              		.loc 1 143 0
 216 0006 8069     		ldr	r0, [r0, #24]
 217              	.LVL13:
 218 0008 8242     		cmp	r2, r0
 219 000a 9868     		ldr	r0, [r3, #8]
 220 000c 18D0     		beq	.L14
 221              	.L15:
 222              		.loc 1 146 0
 223 000e 0130     		adds	r0, r0, #1
 224 0010 9860     		str	r0, [r3, #8]
 225              		.loc 1 147 0
 226 0012 02F8011B 		strb	r1, [r2], #1
 227              		.loc 1 148 0
ARM GAS  /tmp/ccjdCup9.s 			page 5


 228 0016 1969     		ldr	r1, [r3, #16]
 229              	.LVL14:
 230              		.loc 1 147 0
 231 0018 5A61     		str	r2, [r3, #20]
 232              		.loc 1 148 0
 233 001a 8A42     		cmp	r2, r1
 234              		.loc 1 149 0
 235 001c 28BF     		it	cs
 236 001e DA68     		ldrcs	r2, [r3, #12]
 237              		.loc 1 151 0
 238 0020 1868     		ldr	r0, [r3, #0]
 239              		.loc 1 149 0
 240 0022 28BF     		it	cs
 241 0024 5A61     		strcs	r2, [r3, #20]
 242              		.loc 1 151 0
 243 0026 9842     		cmp	r0, r3
 244 0028 08D0     		beq	.L19
 245              	.LVL15:
 246              	.LBB18:
 247              	.LBB19:
 248              		.loc 2 62 0
 249 002a 0268     		ldr	r2, [r0, #0]
 250 002c 1A60     		str	r2, [r3, #0]
 251 002e 5360     		str	r3, [r2, #4]
 252              	.LBE19:
 253              	.LBE18:
 254              		.loc 1 152 0
 255 0030 FFF7FEFF 		bl	chSchReadyI
 256              	.LVL16:
 257 0034 0023     		movs	r3, #0
 258 0036 4362     		str	r3, [r0, #36]
 259              		.loc 1 154 0
 260 0038 1846     		mov	r0, r3
 261 003a 08BD     		pop	{r3, pc}
 262              	.LVL17:
 263              	.L19:
 264 003c 0020     		movs	r0, #0
 265              		.loc 1 155 0
 266 003e 08BD     		pop	{r3, pc}
 267              	.LVL18:
 268              	.L14:
 269              		.loc 1 143 0 discriminator 1
 270 0040 0028     		cmp	r0, #0
 271 0042 E4D0     		beq	.L15
 272              		.loc 1 144 0
 273 0044 6FF00300 		mvn	r0, #3
 274 0048 08BD     		pop	{r3, pc}
 275              		.cfi_endproc
 276              	.LFE10:
 277              		.size	chIQPutI, .-chIQPutI
 278 004a 00BFAFF3 		.section	.text.chIQGetTimeout,"ax",%progbits
 278      0080
 279              		.align	2
 280              		.p2align 4,,15
 281              		.global	chIQGetTimeout
 282              		.thumb
 283              		.thumb_func
ARM GAS  /tmp/ccjdCup9.s 			page 6


 284              		.type	chIQGetTimeout, %function
 285              	chIQGetTimeout:
 286              	.LFB11:
 287              		.loc 1 177 0
 288              		.cfi_startproc
 289              		@ args = 0, pretend = 0, frame = 0
 290              		@ frame_needed = 0, uses_anonymous_args = 0
 291              	.LVL19:
 292 0000 70B5     		push	{r4, r5, r6, lr}
 293              	.LCFI4:
 294              		.cfi_def_cfa_offset 16
 295              		.cfi_offset 4, -16
 296              		.cfi_offset 5, -12
 297              		.cfi_offset 6, -8
 298              		.cfi_offset 14, -4
 299              	.LBB20:
 300              		.loc 1 180 0
 301 0002 2023     		movs	r3, #32
 302              	.LVL20:
 303              	.LBE20:
 304              		.loc 1 177 0
 305 0004 0446     		mov	r4, r0
 306 0006 0E46     		mov	r6, r1
 307              	.LBB21:
 308              		.loc 1 180 0
 309              	@ 180 "./os/kernel/src/chqueues.c" 1
 310 0008 83F31188 		msr     BASEPRI, r3
 311              	@ 0 "" 2
 312              	.LVL21:
 313              		.thumb
 314              	.LBE21:
 315              		.loc 1 181 0
 316 000c C369     		ldr	r3, [r0, #28]
 317              	.LVL22:
 318 000e 03B1     		cbz	r3, .L28
 319              		.loc 1 182 0
 320 0010 9847     		blx	r3
 321              	.LVL23:
 322              	.L28:
 323              		.loc 1 184 0 discriminator 1
 324 0012 A568     		ldr	r5, [r4, #8]
 325              	.LBB22:
 326              		.loc 1 186 0 discriminator 1
 327 0014 2046     		mov	r0, r4
 328 0016 3146     		mov	r1, r6
 329              	.LBE22:
 330              		.loc 1 184 0 discriminator 1
 331 0018 3DB9     		cbnz	r5, .L31
 332              	.LVL24:
 333              	.LBB24:
 334              		.loc 1 186 0
 335 001a FFF7FEFF 		bl	qwait
 336              	.LVL25:
 337 001e 0028     		cmp	r0, #0
 338 0020 F7DA     		bge	.L28
 339              	.LBB23:
 340              		.loc 1 187 0
ARM GAS  /tmp/ccjdCup9.s 			page 7


 341 0022 2B46     		mov	r3, r5
 342              	.LVL26:
 343              	@ 187 "./os/kernel/src/chqueues.c" 1
 344 0024 83F31188 		msr     BASEPRI, r3
 345              	@ 0 "" 2
 346              	.LVL27:
 347              		.thumb
 348              	.LBE23:
 349              		.loc 1 188 0
 350 0028 70BD     		pop	{r4, r5, r6, pc}
 351              	.LVL28:
 352              	.L31:
 353              	.LBE24:
 354              		.loc 1 193 0
 355 002a A369     		ldr	r3, [r4, #24]
 356              		.loc 1 194 0
 357 002c 2269     		ldr	r2, [r4, #16]
 358              		.loc 1 192 0
 359 002e 013D     		subs	r5, r5, #1
 360 0030 A560     		str	r5, [r4, #8]
 361              		.loc 1 193 0
 362 0032 13F8010B 		ldrb	r0, [r3], #1	@ zero_extendqisi2
 363              	.LVL29:
 364              		.loc 1 194 0
 365 0036 9342     		cmp	r3, r2
 366              		.loc 1 193 0
 367 0038 A361     		str	r3, [r4, #24]
 368              		.loc 1 195 0
 369 003a 24BF     		itt	cs
 370 003c E368     		ldrcs	r3, [r4, #12]
 371 003e A361     		strcs	r3, [r4, #24]
 372              	.LBB25:
 373              		.loc 1 197 0
 374 0040 0023     		movs	r3, #0
 375              	.LVL30:
 376              	@ 197 "./os/kernel/src/chqueues.c" 1
 377 0042 83F31188 		msr     BASEPRI, r3
 378              	@ 0 "" 2
 379              	.LVL31:
 380              		.thumb
 381              	.LBE25:
 382              		.loc 1 199 0
 383 0046 70BD     		pop	{r4, r5, r6, pc}
 384              		.cfi_endproc
 385              	.LFE11:
 386              		.size	chIQGetTimeout, .-chIQGetTimeout
 387 0048 AFF30080 		.section	.text.chIQReadTimeout,"ax",%progbits
 387      AFF30080 
 388              		.align	2
 389              		.p2align 4,,15
 390              		.global	chIQReadTimeout
 391              		.thumb
 392              		.thumb_func
 393              		.type	chIQReadTimeout, %function
 394              	chIQReadTimeout:
 395              	.LFB12:
 396              		.loc 1 226 0
ARM GAS  /tmp/ccjdCup9.s 			page 8


 397              		.cfi_startproc
 398              		@ args = 0, pretend = 0, frame = 0
 399              		@ frame_needed = 0, uses_anonymous_args = 0
 400              	.LVL32:
 401 0000 2DE9F047 		push	{r4, r5, r6, r7, r8, r9, sl, lr}
 402              	.LCFI5:
 403              		.cfi_def_cfa_offset 32
 404              		.cfi_offset 4, -32
 405              		.cfi_offset 5, -28
 406              		.cfi_offset 6, -24
 407              		.cfi_offset 7, -20
 408              		.cfi_offset 8, -16
 409              		.cfi_offset 9, -12
 410              		.cfi_offset 10, -8
 411              		.cfi_offset 14, -4
 412              		.loc 1 226 0
 413 0004 1E46     		mov	r6, r3
 414 0006 0446     		mov	r4, r0
 415              		.loc 1 227 0
 416 0008 C769     		ldr	r7, [r0, #28]
 417              	.LVL33:
 418              	.LBB26:
 419              		.loc 1 232 0
 420 000a 2023     		movs	r3, #32
 421              	.LVL34:
 422              	@ 232 "./os/kernel/src/chqueues.c" 1
 423 000c 83F31188 		msr     BASEPRI, r3
 424              	@ 0 "" 2
 425              	.LVL35:
 426              		.thumb
 427              	.LBE26:
 428              		.loc 1 228 0
 429 0010 4FF00008 		mov	r8, #0
 430              	.LBB27:
 431              		.loc 1 225 0
 432 0014 01F10109 		add	r9, r1, #1
 433 0018 01EB020A 		add	sl, r1, r2
 434              	.LVL36:
 435              	.L38:
 436              	.LBE27:
 437              		.loc 1 234 0
 438 001c 0FB1     		cbz	r7, .L43
 439              		.loc 1 235 0
 440 001e 2046     		mov	r0, r4
 441              	.LVL37:
 442 0020 B847     		blx	r7
 443              	.LVL38:
 444              	.L43:
 445              		.loc 1 237 0 discriminator 1
 446 0022 A568     		ldr	r5, [r4, #8]
 447              		.loc 1 238 0 discriminator 1
 448 0024 2046     		mov	r0, r4
 449 0026 3146     		mov	r1, r6
 450              		.loc 1 237 0 discriminator 1
 451 0028 4DB9     		cbnz	r5, .L47
 452              	.LVL39:
 453              		.loc 1 238 0
ARM GAS  /tmp/ccjdCup9.s 			page 9


 454 002a FFF7FEFF 		bl	qwait
 455              	.LVL40:
 456 002e 0028     		cmp	r0, #0
 457 0030 F7D0     		beq	.L43
 458              	.LBB28:
 459              		.loc 1 239 0
 460 0032 2B46     		mov	r3, r5
 461              	.LVL41:
 462              	@ 239 "./os/kernel/src/chqueues.c" 1
 463 0034 83F31188 		msr     BASEPRI, r3
 464              	@ 0 "" 2
 465              	.LVL42:
 466              		.thumb
 467              	.L35:
 468              	.LBE28:
 469              		.loc 1 256 0
 470 0038 4046     		mov	r0, r8
 471 003a BDE8F087 		pop	{r4, r5, r6, r7, r8, r9, sl, pc}
 472              	.LVL43:
 473              	.L47:
 474              		.loc 1 245 0
 475 003e A369     		ldr	r3, [r4, #24]
 476              	.LVL44:
 477              		.loc 1 244 0
 478 0040 013D     		subs	r5, r5, #1
 479 0042 A560     		str	r5, [r4, #8]
 480              		.loc 1 245 0
 481 0044 13F8012B 		ldrb	r2, [r3], #1	@ zero_extendqisi2
 482 0048 09F8012C 		strb	r2, [r9, #-1]
 483              		.loc 1 246 0
 484 004c 2269     		ldr	r2, [r4, #16]
 485              		.loc 1 245 0
 486 004e A361     		str	r3, [r4, #24]
 487              		.loc 1 246 0
 488 0050 9342     		cmp	r3, r2
 489              		.loc 1 247 0
 490 0052 24BF     		itt	cs
 491 0054 E368     		ldrcs	r3, [r4, #12]
 492 0056 A361     		strcs	r3, [r4, #24]
 493              	.LBB29:
 494              		.loc 1 249 0
 495 0058 0023     		movs	r3, #0
 496              	@ 249 "./os/kernel/src/chqueues.c" 1
 497 005a 83F31188 		msr     BASEPRI, r3
 498              	@ 0 "" 2
 499              	.LVL45:
 500              		.thumb
 501              	.LBE29:
 502              		.loc 1 251 0
 503 005e D145     		cmp	r9, sl
 504              		.loc 1 250 0
 505 0060 08F10108 		add	r8, r8, #1
 506              	.LVL46:
 507              		.loc 1 251 0
 508 0064 E8D0     		beq	.L35
 509              	.LBB30:
 510              		.loc 1 254 0
ARM GAS  /tmp/ccjdCup9.s 			page 10


 511 0066 2023     		movs	r3, #32
 512              	.LVL47:
 513              	@ 254 "./os/kernel/src/chqueues.c" 1
 514 0068 83F31188 		msr     BASEPRI, r3
 515              	@ 0 "" 2
 516              	.LVL48:
 517              		.thumb
 518 006c 09F10109 		add	r9, r9, #1
 519              	.LBE30:
 520              		.loc 1 255 0
 521 0070 D4E7     		b	.L38
 522              		.cfi_endproc
 523              	.LFE12:
 524              		.size	chIQReadTimeout, .-chIQReadTimeout
 525 0072 00BFAFF3 		.section	.text.chOQInit,"ax",%progbits
 525      0080AFF3 
 525      0080AFF3 
 525      0080
 526              		.align	2
 527              		.p2align 4,,15
 528              		.global	chOQInit
 529              		.thumb
 530              		.thumb_func
 531              		.type	chOQInit, %function
 532              	chOQInit:
 533              	.LFB13:
 534              		.loc 1 273 0
 535              		.cfi_startproc
 536              		@ args = 0, pretend = 0, frame = 0
 537              		@ frame_needed = 0, uses_anonymous_args = 0
 538              		@ link register save eliminated.
 539              	.LVL49:
 540 0000 10B4     		push	{r4}
 541              	.LCFI6:
 542              		.cfi_def_cfa_offset 4
 543              		.cfi_offset 4, -4
 544              		.loc 1 278 0
 545 0002 8C18     		adds	r4, r1, r2
 546              		.loc 1 275 0
 547 0004 4060     		str	r0, [r0, #4]
 548 0006 0060     		str	r0, [r0, #0]
 549              		.loc 1 276 0
 550 0008 8260     		str	r2, [r0, #8]
 551              		.loc 1 277 0
 552 000a 4161     		str	r1, [r0, #20]
 553 000c 8161     		str	r1, [r0, #24]
 554 000e C160     		str	r1, [r0, #12]
 555              		.loc 1 278 0
 556 0010 0461     		str	r4, [r0, #16]
 557              		.loc 1 279 0
 558 0012 C361     		str	r3, [r0, #28]
 559              		.loc 1 280 0
 560 0014 10BC     		pop	{r4}
 561 0016 7047     		bx	lr
 562              		.cfi_endproc
 563              	.LFE13:
 564              		.size	chOQInit, .-chOQInit
ARM GAS  /tmp/ccjdCup9.s 			page 11


 565 0018 AFF30080 		.section	.text.chOQResetI,"ax",%progbits
 565      AFF30080 
 566              		.align	2
 567              		.p2align 4,,15
 568              		.global	chOQResetI
 569              		.thumb
 570              		.thumb_func
 571              		.type	chOQResetI, %function
 572              	chOQResetI:
 573              	.LFB14:
 574              		.loc 1 293 0
 575              		.cfi_startproc
 576              		@ args = 0, pretend = 0, frame = 0
 577              		@ frame_needed = 0, uses_anonymous_args = 0
 578              	.LVL50:
 579 0000 38B5     		push	{r3, r4, r5, lr}
 580              	.LCFI7:
 581              		.cfi_def_cfa_offset 16
 582              		.cfi_offset 3, -16
 583              		.cfi_offset 4, -12
 584              		.cfi_offset 5, -8
 585              		.cfi_offset 14, -4
 586              		.loc 1 298 0
 587 0002 0269     		ldr	r2, [r0, #16]
 588              		.loc 1 297 0
 589 0004 C368     		ldr	r3, [r0, #12]
 590              		.loc 1 293 0
 591 0006 0446     		mov	r4, r0
 592              		.loc 1 299 0
 593 0008 0068     		ldr	r0, [r0, #0]
 594              	.LVL51:
 595              		.loc 1 297 0
 596 000a 6361     		str	r3, [r4, #20]
 597              		.loc 1 298 0
 598 000c D21A     		subs	r2, r2, r3
 599              		.loc 1 299 0
 600 000e A042     		cmp	r0, r4
 601              		.loc 1 297 0
 602 0010 A361     		str	r3, [r4, #24]
 603              		.loc 1 298 0
 604 0012 A260     		str	r2, [r4, #8]
 605              		.loc 1 299 0
 606 0014 0AD0     		beq	.L49
 607              		.loc 1 300 0
 608 0016 6FF00105 		mvn	r5, #1
 609              	.L53:
 610              	.LVL52:
 611              	.LBB31:
 612              	.LBB32:
 613              		.loc 2 62 0
 614 001a 0368     		ldr	r3, [r0, #0]
 615 001c 2360     		str	r3, [r4, #0]
 616 001e 5C60     		str	r4, [r3, #4]
 617              	.LBE32:
 618              	.LBE31:
 619              		.loc 1 300 0
 620 0020 FFF7FEFF 		bl	chSchReadyI
ARM GAS  /tmp/ccjdCup9.s 			page 12


 621              	.LVL53:
 622 0024 4562     		str	r5, [r0, #36]
 623              		.loc 1 299 0
 624 0026 2068     		ldr	r0, [r4, #0]
 625 0028 A042     		cmp	r0, r4
 626 002a F6D1     		bne	.L53
 627              	.LVL54:
 628              	.L49:
 629 002c 38BD     		pop	{r3, r4, r5, pc}
 630              		.cfi_endproc
 631              	.LFE14:
 632              		.size	chOQResetI, .-chOQResetI
 633 002e 00BF     		.section	.text.chOQPutTimeout,"ax",%progbits
 634              		.align	2
 635              		.p2align 4,,15
 636              		.global	chOQPutTimeout
 637              		.thumb
 638              		.thumb_func
 639              		.type	chOQPutTimeout, %function
 640              	chOQPutTimeout:
 641              	.LFB15:
 642              		.loc 1 325 0
 643              		.cfi_startproc
 644              		@ args = 0, pretend = 0, frame = 0
 645              		@ frame_needed = 0, uses_anonymous_args = 0
 646              	.LVL55:
 647 0000 F8B5     		push	{r3, r4, r5, r6, r7, lr}
 648              	.LCFI8:
 649              		.cfi_def_cfa_offset 24
 650              		.cfi_offset 3, -24
 651              		.cfi_offset 4, -20
 652              		.cfi_offset 5, -16
 653              		.cfi_offset 6, -12
 654              		.cfi_offset 7, -8
 655              		.cfi_offset 14, -4
 656              		.loc 1 325 0
 657 0002 0446     		mov	r4, r0
 658 0004 0F46     		mov	r7, r1
 659 0006 1646     		mov	r6, r2
 660              	.LBB33:
 661              		.loc 1 327 0
 662 0008 2023     		movs	r3, #32
 663              	.LVL56:
 664              	@ 327 "./os/kernel/src/chqueues.c" 1
 665 000a 83F31188 		msr     BASEPRI, r3
 666              	@ 0 "" 2
 667              	.LVL57:
 668              		.thumb
 669              	.L56:
 670              	.LBE33:
 671              		.loc 1 328 0 discriminator 1
 672 000e A568     		ldr	r5, [r4, #8]
 673              	.LBB34:
 674              		.loc 1 331 0 discriminator 1
 675 0010 2046     		mov	r0, r4
 676 0012 3146     		mov	r1, r6
 677              	.LBE34:
ARM GAS  /tmp/ccjdCup9.s 			page 13


 678              		.loc 1 328 0 discriminator 1
 679 0014 3DB9     		cbnz	r5, .L65
 680              	.LVL58:
 681              	.LBB36:
 682              		.loc 1 331 0
 683 0016 FFF7FEFF 		bl	qwait
 684              	.LVL59:
 685 001a 0028     		cmp	r0, #0
 686 001c F7DA     		bge	.L56
 687              	.LBB35:
 688              		.loc 1 332 0
 689 001e 2B46     		mov	r3, r5
 690              	.LVL60:
 691              	@ 332 "./os/kernel/src/chqueues.c" 1
 692 0020 83F31188 		msr     BASEPRI, r3
 693              	@ 0 "" 2
 694              	.LVL61:
 695              		.thumb
 696              	.LBE35:
 697              		.loc 1 333 0
 698 0024 F8BD     		pop	{r3, r4, r5, r6, r7, pc}
 699              	.LVL62:
 700              	.L65:
 701              	.LBE36:
 702              		.loc 1 338 0
 703 0026 6369     		ldr	r3, [r4, #20]
 704              	.LVL63:
 705              		.loc 1 337 0
 706 0028 013D     		subs	r5, r5, #1
 707 002a A560     		str	r5, [r4, #8]
 708              		.loc 1 338 0
 709 002c 03F8017B 		strb	r7, [r3], #1
 710              		.loc 1 339 0
 711 0030 2269     		ldr	r2, [r4, #16]
 712              		.loc 1 338 0
 713 0032 6361     		str	r3, [r4, #20]
 714              		.loc 1 339 0
 715 0034 9342     		cmp	r3, r2
 716              		.loc 1 340 0
 717 0036 24BF     		itt	cs
 718 0038 E368     		ldrcs	r3, [r4, #12]
 719 003a 6361     		strcs	r3, [r4, #20]
 720              		.loc 1 342 0
 721 003c E369     		ldr	r3, [r4, #28]
 722 003e 0BB1     		cbz	r3, .L60
 723              		.loc 1 343 0
 724 0040 2046     		mov	r0, r4
 725              	.LVL64:
 726 0042 9847     		blx	r3
 727              	.LVL65:
 728              	.L60:
 729              	.LBB37:
 730              		.loc 1 345 0
 731 0044 0023     		movs	r3, #0
 732              	.LVL66:
 733              	@ 345 "./os/kernel/src/chqueues.c" 1
 734 0046 83F31188 		msr     BASEPRI, r3
ARM GAS  /tmp/ccjdCup9.s 			page 14


 735              	@ 0 "" 2
 736              	.LVL67:
 737              		.thumb
 738              	.LBE37:
 739              		.loc 1 346 0
 740 004a 1846     		mov	r0, r3
 741              		.loc 1 347 0
 742 004c F8BD     		pop	{r3, r4, r5, r6, r7, pc}
 743              		.cfi_endproc
 744              	.LFE15:
 745              		.size	chOQPutTimeout, .-chOQPutTimeout
 746 004e 00BF     		.section	.text.chOQGetI,"ax",%progbits
 747              		.align	2
 748              		.p2align 4,,15
 749              		.global	chOQGetI
 750              		.thumb
 751              		.thumb_func
 752              		.type	chOQGetI, %function
 753              	chOQGetI:
 754              	.LFB16:
 755              		.loc 1 359 0
 756              		.cfi_startproc
 757              		@ args = 0, pretend = 0, frame = 0
 758              		@ frame_needed = 0, uses_anonymous_args = 0
 759              	.LVL68:
 760              		.loc 1 364 0
 761 0000 4169     		ldr	r1, [r0, #20]
 762 0002 8269     		ldr	r2, [r0, #24]
 763 0004 9142     		cmp	r1, r2
 764              		.loc 1 359 0
 765 0006 10B5     		push	{r4, lr}
 766              	.LCFI9:
 767              		.cfi_def_cfa_offset 8
 768              		.cfi_offset 4, -8
 769              		.cfi_offset 14, -4
 770              		.loc 1 359 0
 771 0008 0346     		mov	r3, r0
 772              		.loc 1 364 0
 773 000a 8168     		ldr	r1, [r0, #8]
 774 000c 16D0     		beq	.L67
 775              	.L68:
 776              		.loc 1 367 0
 777 000e 0131     		adds	r1, r1, #1
 778 0010 9960     		str	r1, [r3, #8]
 779              		.loc 1 368 0
 780 0012 12F8014B 		ldrb	r4, [r2], #1	@ zero_extendqisi2
 781              	.LVL69:
 782              		.loc 1 369 0
 783 0016 1969     		ldr	r1, [r3, #16]
 784              		.loc 1 368 0
 785 0018 9A61     		str	r2, [r3, #24]
 786              		.loc 1 369 0
 787 001a 8A42     		cmp	r2, r1
 788              		.loc 1 370 0
 789 001c 28BF     		it	cs
 790 001e DA68     		ldrcs	r2, [r3, #12]
 791              		.loc 1 372 0
ARM GAS  /tmp/ccjdCup9.s 			page 15


 792 0020 1868     		ldr	r0, [r3, #0]
 793              	.LVL70:
 794              		.loc 1 370 0
 795 0022 28BF     		it	cs
 796 0024 9A61     		strcs	r2, [r3, #24]
 797              		.loc 1 372 0
 798 0026 9842     		cmp	r0, r3
 799 0028 06D0     		beq	.L71
 800              	.LVL71:
 801              	.LBB38:
 802              	.LBB39:
 803              		.loc 2 62 0
 804 002a 0268     		ldr	r2, [r0, #0]
 805 002c 1A60     		str	r2, [r3, #0]
 806 002e 5360     		str	r3, [r2, #4]
 807              	.LBE39:
 808              	.LBE38:
 809              		.loc 1 373 0
 810 0030 FFF7FEFF 		bl	chSchReadyI
 811              	.LVL72:
 812 0034 0023     		movs	r3, #0
 813 0036 4362     		str	r3, [r0, #36]
 814              	.LVL73:
 815              	.L71:
 816              		.loc 1 375 0
 817 0038 2046     		mov	r0, r4
 818 003a 10BD     		pop	{r4, pc}
 819              	.LVL74:
 820              	.L67:
 821              		.loc 1 364 0 discriminator 1
 822 003c 0029     		cmp	r1, #0
 823 003e E6D0     		beq	.L68
 824              		.loc 1 365 0
 825 0040 6FF00200 		mvn	r0, #2
 826              	.LVL75:
 827              		.loc 1 376 0
 828 0044 10BD     		pop	{r4, pc}
 829              		.cfi_endproc
 830              	.LFE16:
 831              		.size	chOQGetI, .-chOQGetI
 832 0046 00BFAFF3 		.section	.text.chOQWriteTimeout,"ax",%progbits
 832      0080AFF3 
 832      0080
 833              		.align	2
 834              		.p2align 4,,15
 835              		.global	chOQWriteTimeout
 836              		.thumb
 837              		.thumb_func
 838              		.type	chOQWriteTimeout, %function
 839              	chOQWriteTimeout:
 840              	.LFB17:
 841              		.loc 1 403 0
 842              		.cfi_startproc
 843              		@ args = 0, pretend = 0, frame = 0
 844              		@ frame_needed = 0, uses_anonymous_args = 0
 845              	.LVL76:
 846 0000 2DE9F047 		push	{r4, r5, r6, r7, r8, r9, sl, lr}
ARM GAS  /tmp/ccjdCup9.s 			page 16


 847              	.LCFI10:
 848              		.cfi_def_cfa_offset 32
 849              		.cfi_offset 4, -32
 850              		.cfi_offset 5, -28
 851              		.cfi_offset 6, -24
 852              		.cfi_offset 7, -20
 853              		.cfi_offset 8, -16
 854              		.cfi_offset 9, -12
 855              		.cfi_offset 10, -8
 856              		.cfi_offset 14, -4
 857              		.loc 1 403 0
 858 0004 9A46     		mov	sl, r3
 859 0006 0446     		mov	r4, r0
 860 0008 8846     		mov	r8, r1
 861 000a 1646     		mov	r6, r2
 862              		.loc 1 404 0
 863 000c D0F81C90 		ldr	r9, [r0, #28]
 864              	.LVL77:
 865              	.LBB40:
 866              		.loc 1 409 0
 867 0010 2023     		movs	r3, #32
 868              	.LVL78:
 869              	@ 409 "./os/kernel/src/chqueues.c" 1
 870 0012 83F31188 		msr     BASEPRI, r3
 871              	@ 0 "" 2
 872              	.LVL79:
 873              		.loc 1 405 0
 874              		.thumb
 875 0016 0027     		movs	r7, #0
 876              	.LVL80:
 877              	.L91:
 878              	.LBE40:
 879              		.loc 1 411 0 discriminator 1
 880 0018 A568     		ldr	r5, [r4, #8]
 881              		.loc 1 423 0 discriminator 1
 882 001a 2046     		mov	r0, r4
 883              		.loc 1 417 0 discriminator 1
 884 001c 6B1E     		subs	r3, r5, #1
 885              	.LVL81:
 886              		.loc 1 411 0 discriminator 1
 887 001e EDB1     		cbz	r5, .L77
 888              	.LVL82:
 889              	.L92:
 890              		.loc 1 417 0
 891 0020 A360     		str	r3, [r4, #8]
 892              		.loc 1 418 0
 893 0022 18F8013B 		ldrb	r3, [r8], #1	@ zero_extendqisi2
 894              	.LVL83:
 895 0026 6569     		ldr	r5, [r4, #20]
 896 0028 05F8013B 		strb	r3, [r5], #1
 897              		.loc 1 419 0
 898 002c 2369     		ldr	r3, [r4, #16]
 899              		.loc 1 418 0
 900 002e 6561     		str	r5, [r4, #20]
 901              	.LVL84:
 902              		.loc 1 419 0
 903 0030 9D42     		cmp	r5, r3
ARM GAS  /tmp/ccjdCup9.s 			page 17


 904              		.loc 1 420 0
 905 0032 24BF     		itt	cs
 906 0034 E368     		ldrcs	r3, [r4, #12]
 907 0036 6361     		strcs	r3, [r4, #20]
 908              		.loc 1 422 0
 909 0038 B9F1000F 		cmp	r9, #0
 910 003c 00D0     		beq	.L79
 911              		.loc 1 423 0
 912 003e C847     		blx	r9
 913              	.LVL85:
 914              	.L79:
 915              	.LBB41:
 916              		.loc 1 425 0
 917 0040 0023     		movs	r3, #0
 918              	.LVL86:
 919              	@ 425 "./os/kernel/src/chqueues.c" 1
 920 0042 83F31188 		msr     BASEPRI, r3
 921              	@ 0 "" 2
 922              	.LVL87:
 923              		.thumb
 924              	.LBE41:
 925              		.loc 1 426 0
 926 0046 0137     		adds	r7, r7, #1
 927              	.LVL88:
 928              		.loc 1 427 0
 929 0048 013E     		subs	r6, r6, #1
 930              	.LVL89:
 931 004a 10D0     		beq	.L76
 932              	.LBB42:
 933              		.loc 1 429 0
 934 004c 2023     		movs	r3, #32
 935              	.LVL90:
 936              	@ 429 "./os/kernel/src/chqueues.c" 1
 937 004e 83F31188 		msr     BASEPRI, r3
 938              	@ 0 "" 2
 939              	.LVL91:
 940              		.thumb
 941              	.LBE42:
 942              		.loc 1 411 0
 943 0052 A568     		ldr	r5, [r4, #8]
 944              		.loc 1 423 0
 945 0054 2046     		mov	r0, r4
 946              		.loc 1 417 0
 947 0056 6B1E     		subs	r3, r5, #1
 948              	.LVL92:
 949              		.loc 1 411 0
 950 0058 002D     		cmp	r5, #0
 951 005a E1D1     		bne	.L92
 952              	.LVL93:
 953              	.L77:
 954              		.loc 1 412 0
 955 005c 2046     		mov	r0, r4
 956              	.LVL94:
 957 005e 5146     		mov	r1, sl
 958 0060 FFF7FEFF 		bl	qwait
 959              	.LVL95:
 960 0064 0028     		cmp	r0, #0
ARM GAS  /tmp/ccjdCup9.s 			page 18


 961 0066 D7D0     		beq	.L91
 962              	.LBB43:
 963              		.loc 1 413 0
 964 0068 2B46     		mov	r3, r5
 965              	.LVL96:
 966              	@ 413 "./os/kernel/src/chqueues.c" 1
 967 006a 83F31188 		msr     BASEPRI, r3
 968              	@ 0 "" 2
 969              	.LVL97:
 970              		.thumb
 971              	.L76:
 972              	.LBE43:
 973              		.loc 1 431 0
 974 006e 3846     		mov	r0, r7
 975 0070 BDE8F087 		pop	{r4, r5, r6, r7, r8, r9, sl, pc}
 976              		.cfi_endproc
 977              	.LFE17:
 978              		.size	chOQWriteTimeout, .-chOQWriteTimeout
 979 0074 AFF30080 		.text
 979      AFF30080 
 979      AFF30080 
 980              	.Letext0:
 981              		.file 3 "/home/mitchd/Documents/FOX-1/amsat-fox/x86_64-toolchain/arm/bin/../lib/gcc/arm-none-eabi/
 982              		.file 4 "/home/mitchd/Documents/FOX-1/amsat-fox/x86_64-toolchain/arm/bin/../lib/gcc/arm-none-eabi/
 983              		.file 5 "./os/ports/GCC/ARMCMx/chtypes.h"
 984              		.file 6 "./os/kernel/include/chlists.h"
 985              		.file 7 "./os/kernel/include/chthreads.h"
 986              		.file 8 "./os/ports/GCC/ARMCMx/chcore_v7m.h"
 987              		.file 9 "./os/kernel/include/chschd.h"
 988              		.file 10 "./os/kernel/include/chmtx.h"
 989              		.file 11 "./os/kernel/include/chqueues.h"