ARM GAS  /tmp/ccm09oRc.s 			page 1


   1              		.syntax unified
   2              		.cpu cortex-m4
   3              		.fpu softvfp
   4              		.eabi_attribute 20, 1
   5              		.eabi_attribute 21, 1
   6              		.eabi_attribute 23, 3
   7              		.eabi_attribute 24, 1
   8              		.eabi_attribute 25, 1
   9              		.eabi_attribute 26, 1
  10              		.eabi_attribute 30, 2
  11              		.eabi_attribute 34, 1
  12              		.eabi_attribute 18, 4
  13              		.thumb
  14              		.file	"chschd.c"
  15              		.text
  16              	.Ltext0:
  17              		.cfi_sections	.debug_frame
  18              		.section	.text.wakeup,"ax",%progbits
  19              		.align	2
  20              		.p2align 4,,15
  21              		.thumb
  22              		.thumb_func
  23              		.type	wakeup, %function
  24              	wakeup:
  25              	.LFB10:
  26              		.file 1 "./os/kernel/src/chschd.c"
  27              		.loc 1 133 0
  28              		.cfi_startproc
  29              		@ args = 0, pretend = 0, frame = 0
  30              		@ frame_needed = 0, uses_anonymous_args = 0
  31              		@ link register save eliminated.
  32              	.LVL0:
  33              		.loc 1 136 0
  34 0000 037F     		ldrb	r3, [r0, #28]	@ zero_extendqisi2
  35 0002 0D2B     		cmp	r3, #13
  36 0004 11D8     		bhi	.L2
  37 0006 DFE803F0 		tbb	[pc, r3]
  38              	.L6:
  39 000a 20       		.byte	(.L1-.L6)/2
  40 000b 10       		.byte	(.L2-.L6)/2
  41 000c 10       		.byte	(.L2-.L6)/2
  42 000d 07       		.byte	(.L4-.L6)/2
  43 000e 10       		.byte	(.L2-.L6)/2
  44 000f 0B       		.byte	(.L5-.L6)/2
  45 0010 10       		.byte	(.L2-.L6)/2
  46 0011 10       		.byte	(.L2-.L6)/2
  47 0012 10       		.byte	(.L2-.L6)/2
  48 0013 10       		.byte	(.L2-.L6)/2
  49 0014 10       		.byte	(.L2-.L6)/2
  50 0015 10       		.byte	(.L2-.L6)/2
  51 0016 10       		.byte	(.L2-.L6)/2
  52 0017 0B       		.byte	(.L5-.L6)/2
  53              		.align	1
  54              	.L4:
  55              		.loc 1 145 0
  56 0018 436A     		ldr	r3, [r0, #36]
  57 001a 9A68     		ldr	r2, [r3, #8]
ARM GAS  /tmp/ccm09oRc.s 			page 2


  58 001c 0132     		adds	r2, r2, #1
  59 001e 9A60     		str	r2, [r3, #8]
  60              	.L5:
  61              	.LVL1:
  62              	.LBB17:
  63              	.LBB18:
  64              		.file 2 "./os/kernel/include/chinline.h"
  65              		.loc 2 75 0
  66 0020 90E80C00 		ldmia	r0, {r2, r3}
  67 0024 1A60     		str	r2, [r3, #0]
  68              		.loc 2 76 0
  69 0026 0268     		ldr	r2, [r0, #0]
  70 0028 5360     		str	r3, [r2, #4]
  71              	.LVL2:
  72              	.L2:
  73              	.LBE18:
  74              	.LBE17:
  75              		.loc 1 158 0
  76 002a 4FF0FF32 		mov	r2, #-1
  77 002e 4262     		str	r2, [r0, #36]
  78              	.LVL3:
  79 0030 8168     		ldr	r1, [r0, #8]
  80              	.LBB19:
  81              	.LBB20:
  82              		.loc 1 92 0
  83 0032 064B     		ldr	r3, .L10
  84              		.loc 1 91 0
  85 0034 0022     		movs	r2, #0
  86 0036 0277     		strb	r2, [r0, #28]
  87              	.LVL4:
  88              	.L7:
  89              		.loc 1 94 0
  90 0038 1B68     		ldr	r3, [r3, #0]
  91              	.LVL5:
  92              		.loc 1 95 0
  93 003a 9A68     		ldr	r2, [r3, #8]
  94 003c 8A42     		cmp	r2, r1
  95 003e FBD2     		bcs	.L7
  96              		.loc 1 98 0
  97 0040 5A68     		ldr	r2, [r3, #4]
  98              		.loc 1 97 0
  99 0042 0360     		str	r3, [r0, #0]
 100              		.loc 1 98 0
 101 0044 4260     		str	r2, [r0, #4]
 102              		.loc 1 99 0
 103 0046 1060     		str	r0, [r2, #0]
 104 0048 5860     		str	r0, [r3, #4]
 105              	.LVL6:
 106              	.L1:
 107 004a 7047     		bx	lr
 108              	.L11:
 109              		.align	2
 110              	.L10:
 111 004c 00000000 		.word	.LANCHOR0
 112              	.LBE20:
 113              	.LBE19:
 114              		.cfi_endproc
ARM GAS  /tmp/ccm09oRc.s 			page 3


 115              	.LFE10:
 116              		.size	wakeup, .-wakeup
 117              		.section	.text._scheduler_init,"ax",%progbits
 118              		.align	2
 119              		.p2align 4,,15
 120              		.global	_scheduler_init
 121              		.thumb
 122              		.thumb_func
 123              		.type	_scheduler_init, %function
 124              	_scheduler_init:
 125              	.LFB7:
 126              		.loc 1 55 0
 127              		.cfi_startproc
 128              		@ args = 0, pretend = 0, frame = 0
 129              		@ frame_needed = 0, uses_anonymous_args = 0
 130              		@ link register save eliminated.
 131              		.loc 1 57 0
 132 0000 40F20003 		movw	r3, #:lower16:.LANCHOR0
 133 0004 C0F20003 		movt	r3, #:upper16:.LANCHOR0
 134              		.loc 1 58 0
 135 0008 0022     		movs	r2, #0
 136 000a 9A60     		str	r2, [r3, #8]
 137              		.loc 1 60 0
 138 000c 1422     		movs	r2, #20
 139              		.loc 1 57 0
 140 000e 5B60     		str	r3, [r3, #4]
 141 0010 1B60     		str	r3, [r3, #0]
 142              		.loc 1 60 0
 143 0012 9A61     		str	r2, [r3, #24]
 144              		.loc 1 63 0
 145 0014 5B61     		str	r3, [r3, #20]
 146 0016 1B61     		str	r3, [r3, #16]
 147 0018 7047     		bx	lr
 148              		.cfi_endproc
 149              	.LFE7:
 150              		.size	_scheduler_init, .-_scheduler_init
 151 001a 00BFAFF3 		.section	.text.chSchReadyI,"ax",%progbits
 151      0080
 152              		.align	2
 153              		.p2align 4,,15
 154              		.global	chSchReadyI
 155              		.thumb
 156              		.thumb_func
 157              		.type	chSchReadyI, %function
 158              	chSchReadyI:
 159              	.LFB8:
 160              		.loc 1 82 0
 161              		.cfi_startproc
 162              		@ args = 0, pretend = 0, frame = 0
 163              		@ frame_needed = 0, uses_anonymous_args = 0
 164              		@ link register save eliminated.
 165              	.LVL7:
 166              		.loc 1 91 0
 167 0000 0022     		movs	r2, #0
 168 0002 8168     		ldr	r1, [r0, #8]
 169              		.loc 1 92 0
 170 0004 054B     		ldr	r3, .L16
ARM GAS  /tmp/ccm09oRc.s 			page 4


 171              		.loc 1 91 0
 172 0006 0277     		strb	r2, [r0, #28]
 173              	.LVL8:
 174              	.L14:
 175              		.loc 1 94 0 discriminator 1
 176 0008 1B68     		ldr	r3, [r3, #0]
 177              	.LVL9:
 178              		.loc 1 95 0 discriminator 1
 179 000a 9A68     		ldr	r2, [r3, #8]
 180 000c 8A42     		cmp	r2, r1
 181 000e FBD2     		bcs	.L14
 182              		.loc 1 98 0
 183 0010 5A68     		ldr	r2, [r3, #4]
 184              		.loc 1 97 0
 185 0012 0360     		str	r3, [r0, #0]
 186              		.loc 1 98 0
 187 0014 4260     		str	r2, [r0, #4]
 188              		.loc 1 99 0
 189 0016 1060     		str	r0, [r2, #0]
 190 0018 5860     		str	r0, [r3, #4]
 191              		.loc 1 101 0
 192 001a 7047     		bx	lr
 193              	.L17:
 194              		.align	2
 195              	.L16:
 196 001c 00000000 		.word	.LANCHOR0
 197              		.cfi_endproc
 198              	.LFE8:
 199              		.size	chSchReadyI, .-chSchReadyI
 200              		.section	.text.chSchGoSleepS,"ax",%progbits
 201              		.align	2
 202              		.p2align 4,,15
 203              		.global	chSchGoSleepS
 204              		.thumb
 205              		.thumb_func
 206              		.type	chSchGoSleepS, %function
 207              	chSchGoSleepS:
 208              	.LFB9:
 209              		.loc 1 114 0
 210              		.cfi_startproc
 211              		@ args = 0, pretend = 0, frame = 0
 212              		@ frame_needed = 0, uses_anonymous_args = 0
 213              		@ link register save eliminated.
 214              	.LVL10:
 215              		.loc 1 119 0
 216 0000 40F20003 		movw	r3, #:lower16:.LANCHOR0
 217 0004 C0F20003 		movt	r3, #:upper16:.LANCHOR0
 218              		.loc 1 114 0
 219 0008 30B4     		push	{r4, r5}
 220              	.LCFI0:
 221              		.cfi_def_cfa_offset 8
 222              		.cfi_offset 4, -8
 223              		.cfi_offset 5, -4
 224              	.LBB21:
 225              	.LBB22:
 226              		.loc 2 60 0
 227 000a 1A68     		ldr	r2, [r3, #0]
ARM GAS  /tmp/ccm09oRc.s 			page 5


 228              	.LBE22:
 229              	.LBE21:
 230              		.loc 1 119 0
 231 000c D969     		ldr	r1, [r3, #28]
 232              	.LVL11:
 233              	.LBB25:
 234              	.LBB23:
 235              		.loc 2 62 0
 236 000e 1468     		ldr	r4, [r2, #0]
 237              	.LBE23:
 238              	.LBE25:
 239              		.loc 1 119 0
 240 0010 0877     		strb	r0, [r1, #28]
 241              		.loc 1 121 0
 242 0012 1420     		movs	r0, #20
 243              	.LVL12:
 244 0014 9861     		str	r0, [r3, #24]
 245              	.LVL13:
 246              		.loc 1 124 0
 247 0016 0125     		movs	r5, #1
 248              		.loc 1 125 0
 249 0018 1046     		mov	r0, r2
 250              	.LBB26:
 251              	.LBB24:
 252              		.loc 2 62 0
 253 001a 6360     		str	r3, [r4, #4]
 254 001c 1C60     		str	r4, [r3, #0]
 255              	.LBE24:
 256              	.LBE26:
 257              		.loc 1 123 0
 258 001e DA61     		str	r2, [r3, #28]
 259              		.loc 1 124 0
 260 0020 1577     		strb	r5, [r2, #28]
 261              		.loc 1 126 0
 262 0022 30BC     		pop	{r4, r5}
 263              		.loc 1 125 0
 264 0024 FFF7FEBF 		b	_port_switch
 265              	.LVL14:
 266              		.cfi_endproc
 267              	.LFE9:
 268              		.size	chSchGoSleepS, .-chSchGoSleepS
 269 0028 AFF30080 		.section	.text.chSchGoSleepTimeoutS,"ax",%progbits
 269      AFF30080 
 270              		.align	2
 271              		.p2align 4,,15
 272              		.global	chSchGoSleepTimeoutS
 273              		.thumb
 274              		.thumb_func
 275              		.type	chSchGoSleepTimeoutS, %function
 276              	chSchGoSleepTimeoutS:
 277              	.LFB11:
 278              		.loc 1 183 0
 279              		.cfi_startproc
 280              		@ args = 0, pretend = 0, frame = 24
 281              		@ frame_needed = 0, uses_anonymous_args = 0
 282              	.LVL15:
 283 0000 30B5     		push	{r4, r5, lr}
ARM GAS  /tmp/ccm09oRc.s 			page 6


 284              	.LCFI1:
 285              		.cfi_def_cfa_offset 12
 286              		.cfi_offset 4, -12
 287              		.cfi_offset 5, -8
 288              		.cfi_offset 14, -4
 289              		.loc 1 187 0
 290 0002 4B1C     		adds	r3, r1, #1
 291              		.loc 1 183 0
 292 0004 87B0     		sub	sp, sp, #28
 293              	.LCFI2:
 294              		.cfi_def_cfa_offset 40
 295              		.loc 1 183 0
 296 0006 0546     		mov	r5, r0
 297              		.loc 1 187 0
 298 0008 11D0     		beq	.L20
 299              	.LBB27:
 300              		.loc 1 190 0
 301 000a 0B4C     		ldr	r4, .L26
 302 000c 0B4A     		ldr	r2, .L26+4
 303 000e E369     		ldr	r3, [r4, #28]
 304 0010 01A8     		add	r0, sp, #4
 305              	.LVL16:
 306 0012 FFF7FEFF 		bl	chVTSetI
 307              	.LVL17:
 308              		.loc 1 191 0
 309 0016 2846     		mov	r0, r5
 310 0018 FFF7FEFF 		bl	chSchGoSleepS
 311              	.LVL18:
 312              		.loc 1 192 0
 313 001c 049B     		ldr	r3, [sp, #16]
 314 001e 13B1     		cbz	r3, .L22
 315              		.loc 1 193 0
 316 0020 01A8     		add	r0, sp, #4
 317 0022 FFF7FEFF 		bl	chVTResetI
 318              	.LVL19:
 319              	.L22:
 320              	.LBE27:
 321              		.loc 1 197 0
 322 0026 E369     		ldr	r3, [r4, #28]
 323              		.loc 1 198 0
 324 0028 586A     		ldr	r0, [r3, #36]
 325 002a 07B0     		add	sp, sp, #28
 326 002c 30BD     		pop	{r4, r5, pc}
 327              	.LVL20:
 328              	.L20:
 329              		.loc 1 196 0
 330 002e FFF7FEFF 		bl	chSchGoSleepS
 331              	.LVL21:
 332 0032 014C     		ldr	r4, .L26
 333 0034 F7E7     		b	.L22
 334              	.L27:
 335 0036 00BF     		.align	2
 336              	.L26:
 337 0038 00000000 		.word	.LANCHOR0
 338 003c 00000000 		.word	wakeup
 339              		.cfi_endproc
 340              	.LFE11:
ARM GAS  /tmp/ccm09oRc.s 			page 7


 341              		.size	chSchGoSleepTimeoutS, .-chSchGoSleepTimeoutS
 342              		.section	.text.chSchWakeupS,"ax",%progbits
 343              		.align	2
 344              		.p2align 4,,15
 345              		.global	chSchWakeupS
 346              		.thumb
 347              		.thumb_func
 348              		.type	chSchWakeupS, %function
 349              	chSchWakeupS:
 350              	.LFB12:
 351              		.loc 1 219 0
 352              		.cfi_startproc
 353              		@ args = 0, pretend = 0, frame = 0
 354              		@ frame_needed = 0, uses_anonymous_args = 0
 355              		@ link register save eliminated.
 356              	.LVL22:
 357 0000 F0B4     		push	{r4, r5, r6, r7}
 358              	.LCFI3:
 359              		.cfi_def_cfa_offset 16
 360              		.cfi_offset 4, -16
 361              		.cfi_offset 5, -12
 362              		.cfi_offset 6, -8
 363              		.cfi_offset 7, -4
 364              		.loc 1 228 0
 365 0002 154F     		ldr	r7, .L36
 366 0004 8568     		ldr	r5, [r0, #8]
 367 0006 FE69     		ldr	r6, [r7, #28]
 368              		.loc 1 219 0
 369 0008 0446     		mov	r4, r0
 370              		.loc 1 228 0
 371 000a B068     		ldr	r0, [r6, #8]
 372              	.LVL23:
 373              		.loc 1 223 0
 374 000c 6162     		str	r1, [r4, #36]
 375              	.LBB28:
 376              	.LBB29:
 377              		.loc 1 91 0
 378 000e 0023     		movs	r3, #0
 379              	.LBE29:
 380              	.LBE28:
 381              		.loc 1 228 0
 382 0010 8542     		cmp	r5, r0
 383 0012 0CD8     		bhi	.L29
 384              	.LVL24:
 385              	.LBB31:
 386              	.LBB30:
 387              		.loc 1 91 0
 388 0014 2377     		strb	r3, [r4, #28]
 389              	.LVL25:
 390              		.loc 1 92 0
 391 0016 3B46     		mov	r3, r7
 392              	.LVL26:
 393              	.L30:
 394              		.loc 1 94 0
 395 0018 1B68     		ldr	r3, [r3, #0]
 396              	.LVL27:
 397              		.loc 1 95 0
ARM GAS  /tmp/ccm09oRc.s 			page 8


 398 001a 9A68     		ldr	r2, [r3, #8]
 399 001c 9542     		cmp	r5, r2
 400 001e FBD9     		bls	.L30
 401              		.loc 1 98 0
 402 0020 5A68     		ldr	r2, [r3, #4]
 403              		.loc 1 97 0
 404 0022 2360     		str	r3, [r4, #0]
 405              		.loc 1 98 0
 406 0024 6260     		str	r2, [r4, #4]
 407              		.loc 1 99 0
 408 0026 1460     		str	r4, [r2, #0]
 409 0028 5C60     		str	r4, [r3, #4]
 410              	.LBE30:
 411              	.LBE31:
 412              		.loc 1 239 0
 413 002a F0BC     		pop	{r4, r5, r6, r7}
 414 002c 7047     		bx	lr
 415              	.LVL28:
 416              	.L29:
 417              	.LBB32:
 418              	.LBB33:
 419              	.LBB34:
 420              		.loc 1 91 0
 421 002e 3377     		strb	r3, [r6, #28]
 422              	.LVL29:
 423              		.loc 1 92 0
 424 0030 3B46     		mov	r3, r7
 425              	.LVL30:
 426              	.L32:
 427              		.loc 1 94 0
 428 0032 1B68     		ldr	r3, [r3, #0]
 429              	.LVL31:
 430              		.loc 1 95 0
 431 0034 9A68     		ldr	r2, [r3, #8]
 432 0036 9042     		cmp	r0, r2
 433 0038 FBD9     		bls	.L32
 434              		.loc 1 98 0
 435 003a 5A68     		ldr	r2, [r3, #4]
 436              		.loc 1 97 0
 437 003c 3360     		str	r3, [r6, #0]
 438              		.loc 1 98 0
 439 003e 7260     		str	r2, [r6, #4]
 440              		.loc 1 99 0
 441 0040 5E60     		str	r6, [r3, #4]
 442              	.LBE34:
 443              	.LBE33:
 444              		.loc 1 236 0
 445 0042 0123     		movs	r3, #1
 446              	.LVL32:
 447              	.LBB36:
 448              	.LBB35:
 449              		.loc 1 99 0
 450 0044 1660     		str	r6, [r2, #0]
 451              	.LBE35:
 452              	.LBE36:
 453              		.loc 1 237 0
 454 0046 2046     		mov	r0, r4
ARM GAS  /tmp/ccm09oRc.s 			page 9


 455              		.loc 1 235 0
 456 0048 FC61     		str	r4, [r7, #28]
 457              		.loc 1 237 0
 458 004a 3146     		mov	r1, r6
 459              	.LVL33:
 460              		.loc 1 236 0
 461 004c 2377     		strb	r3, [r4, #28]
 462              		.loc 1 233 0
 463 004e 1423     		movs	r3, #20
 464 0050 BB61     		str	r3, [r7, #24]
 465              	.LBE32:
 466              		.loc 1 239 0
 467 0052 F0BC     		pop	{r4, r5, r6, r7}
 468              	.LBB37:
 469              		.loc 1 237 0
 470 0054 FFF7FEBF 		b	_port_switch
 471              	.LVL34:
 472              	.L37:
 473              		.align	2
 474              	.L36:
 475 0058 00000000 		.word	.LANCHOR0
 476              	.LBE37:
 477              		.cfi_endproc
 478              	.LFE12:
 479              		.size	chSchWakeupS, .-chSchWakeupS
 480 005c AFF30080 		.section	.text.chSchDoReschedule,"ax",%progbits
 481              		.align	2
 482              		.p2align 4,,15
 483              		.global	chSchDoReschedule
 484              		.thumb
 485              		.thumb_func
 486              		.type	chSchDoReschedule, %function
 487              	chSchDoReschedule:
 488              	.LFB14:
 489              		.loc 1 298 0
 490              		.cfi_startproc
 491              		@ args = 0, pretend = 0, frame = 0
 492              		@ frame_needed = 0, uses_anonymous_args = 0
 493              		@ link register save eliminated.
 494              		.loc 1 302 0
 495 0000 0E4A     		ldr	r2, .L42
 496              	.LBB38:
 497              	.LBB39:
 498              		.loc 2 60 0
 499 0002 1068     		ldr	r0, [r2, #0]
 500              	.LBE39:
 501              	.LBE38:
 502              		.loc 1 304 0
 503 0004 D169     		ldr	r1, [r2, #28]
 504              	.LVL35:
 505              		.loc 1 298 0
 506 0006 30B4     		push	{r4, r5}
 507              	.LCFI4:
 508              		.cfi_def_cfa_offset 8
 509              		.cfi_offset 4, -8
 510              		.cfi_offset 5, -4
 511              	.LBB42:
ARM GAS  /tmp/ccm09oRc.s 			page 10


 512              	.LBB40:
 513              		.loc 2 62 0
 514 0008 0568     		ldr	r5, [r0, #0]
 515 000a 8C68     		ldr	r4, [r1, #8]
 516 000c 1560     		str	r5, [r2, #0]
 517              	.LBE40:
 518              	.LBE42:
 519              		.loc 1 302 0
 520 000e 1423     		movs	r3, #20
 521 0010 9361     		str	r3, [r2, #24]
 522              	.LBB43:
 523              	.LBB41:
 524              		.loc 2 62 0
 525 0012 6A60     		str	r2, [r5, #4]
 526              	.LBE41:
 527              	.LBE43:
 528              		.loc 1 306 0
 529 0014 D061     		str	r0, [r2, #28]
 530              		.loc 1 307 0
 531 0016 0122     		movs	r2, #1
 532 0018 0277     		strb	r2, [r0, #28]
 533              	.LVL36:
 534              	.LBB44:
 535              	.LBB45:
 536              		.loc 1 91 0
 537 001a 0022     		movs	r2, #0
 538 001c 0346     		mov	r3, r0
 539 001e 0A77     		strb	r2, [r1, #28]
 540              	.LVL37:
 541 0020 00E0     		b	.L40
 542              	.LVL38:
 543              	.L41:
 544 0022 1B68     		ldr	r3, [r3, #0]
 545              	.LVL39:
 546              	.L40:
 547              		.loc 1 95 0
 548 0024 9A68     		ldr	r2, [r3, #8]
 549 0026 A242     		cmp	r2, r4
 550 0028 FBD2     		bcs	.L41
 551              		.loc 1 98 0
 552 002a 5A68     		ldr	r2, [r3, #4]
 553              		.loc 1 97 0
 554 002c 0B60     		str	r3, [r1, #0]
 555              		.loc 1 98 0
 556 002e 4A60     		str	r2, [r1, #4]
 557              		.loc 1 99 0
 558 0030 1160     		str	r1, [r2, #0]
 559 0032 5960     		str	r1, [r3, #4]
 560              	.LBE45:
 561              	.LBE44:
 562              		.loc 1 310 0
 563 0034 30BC     		pop	{r4, r5}
 564              		.loc 1 309 0
 565 0036 FFF7FEBF 		b	_port_switch
 566              	.LVL40:
 567              	.L43:
 568 003a 00BF     		.align	2
ARM GAS  /tmp/ccm09oRc.s 			page 11


 569              	.L42:
 570 003c 00000000 		.word	.LANCHOR0
 571              		.cfi_endproc
 572              	.LFE14:
 573              		.size	chSchDoReschedule, .-chSchDoReschedule
 574              		.section	.text.chSchRescheduleS,"ax",%progbits
 575              		.align	2
 576              		.p2align 4,,15
 577              		.global	chSchRescheduleS
 578              		.thumb
 579              		.thumb_func
 580              		.type	chSchRescheduleS, %function
 581              	chSchRescheduleS:
 582              	.LFB13:
 583              		.loc 1 250 0
 584              		.cfi_startproc
 585              		@ args = 0, pretend = 0, frame = 0
 586              		@ frame_needed = 0, uses_anonymous_args = 0
 587              		@ link register save eliminated.
 588              		.loc 1 254 0
 589 0000 044B     		ldr	r3, .L47
 590 0002 1A68     		ldr	r2, [r3, #0]
 591 0004 DB69     		ldr	r3, [r3, #28]
 592 0006 9268     		ldr	r2, [r2, #8]
 593 0008 9B68     		ldr	r3, [r3, #8]
 594 000a 9A42     		cmp	r2, r3
 595 000c 00D8     		bhi	.L46
 596 000e 7047     		bx	lr
 597              	.L46:
 598              		.loc 1 256 0
 599              		.loc 1 255 0
 600 0010 FFF7FEBF 		b	chSchDoReschedule
 601              	.LVL41:
 602              	.L48:
 603              		.align	2
 604              	.L47:
 605 0014 00000000 		.word	.LANCHOR0
 606              		.cfi_endproc
 607              	.LFE13:
 608              		.size	chSchRescheduleS, .-chSchRescheduleS
 609              		.global	rlist
 610 0018 AFF30080 		.section	.bss.rlist,"aw",%nobits
 610      AFF30080 
 611              		.align	2
 612              		.set	.LANCHOR0,. + 0
 613              		.type	rlist, %object
 614              		.size	rlist, 32
 615              	rlist:
 616 0000 00000000 		.space	32
 616      00000000 
 616      00000000 
 616      00000000 
 616      00000000 
 617              		.text
 618              	.Letext0:
 619              		.file 3 "/home/mitchd/Documents/FOX-1/amsat-fox/x86_64-toolchain/arm/bin/../lib/gcc/arm-none-eabi/
 620              		.file 4 "./os/ports/GCC/ARMCMx/chtypes.h"
ARM GAS  /tmp/ccm09oRc.s 			page 12


 621              		.file 5 "./os/kernel/include/chlists.h"
 622              		.file 6 "./os/kernel/include/chthreads.h"
 623              		.file 7 "./os/ports/GCC/ARMCMx/chcore_v7m.h"
 624              		.file 8 "./os/kernel/include/chvt.h"
 625              		.file 9 "./os/kernel/include/chschd.h"
 626              		.file 10 "./os/kernel/include/chsem.h"
 627              		.file 11 "./os/kernel/include/chmtx.h"