ARM GAS  /tmp/ccN8kxb2.s 			page 1


   1              		.syntax unified
   2              		.cpu cortex-m4
   3              		.fpu softvfp
   4              		.eabi_attribute 20, 1
   5              		.eabi_attribute 21, 1
   6              		.eabi_attribute 23, 3
   7              		.eabi_attribute 24, 1
   8              		.eabi_attribute 25, 1
   9              		.eabi_attribute 26, 1
  10              		.eabi_attribute 30, 2
  11              		.eabi_attribute 34, 1
  12              		.eabi_attribute 18, 4
  13              		.thumb
  14              		.file	"chsys.c"
  15              		.text
  16              	.Ltext0:
  17              		.cfi_sections	.debug_frame
  18              		.section	.text._idle_thread,"ax",%progbits
  19              		.align	2
  20              		.p2align 4,,15
  21              		.global	_idle_thread
  22              		.thumb
  23              		.thumb_func
  24              		.type	_idle_thread, %function
  25              	_idle_thread:
  26              	.LFB7:
  27              		.file 1 "./os/kernel/src/chsys.c"
  28              		.loc 1 61 0
  29              		.cfi_startproc
  30              		@ args = 0, pretend = 0, frame = 0
  31              		@ frame_needed = 0, uses_anonymous_args = 0
  32              		@ link register save eliminated.
  33              	.LVL0:
  34              		.loc 1 64 0
  35 0000 0248     		ldr	r0, .L4
  36              	.LVL1:
  37 0002 034A     		ldr	r2, .L4+4
  38 0004 C369     		ldr	r3, [r0, #28]
  39 0006 9A61     		str	r2, [r3, #24]
  40              	.L2:
  41 0008 FEE7     		b	.L2
  42              	.L5:
  43 000a 00BF     		.align	2
  44              	.L4:
  45 000c 00000000 		.word	rlist
  46 0010 00000000 		.word	.LC0
  47              		.cfi_endproc
  48              	.LFE7:
  49              		.size	_idle_thread, .-_idle_thread
  50 0014 AFF30080 		.section	.text.chSysInit,"ax",%progbits
  50      AFF30080 
  50      AFF30080 
  51              		.align	2
  52              		.p2align 4,,15
  53              		.global	chSysInit
  54              		.thumb
  55              		.thumb_func
ARM GAS  /tmp/ccN8kxb2.s 			page 2


  56              		.type	chSysInit, %function
  57              	chSysInit:
  58              	.LFB8:
  59              		.loc 1 84 0
  60              		.cfi_startproc
  61              		@ args = 0, pretend = 0, frame = 0
  62              		@ frame_needed = 0, uses_anonymous_args = 0
  63 0000 10B5     		push	{r4, lr}
  64              	.LCFI0:
  65              		.cfi_def_cfa_offset 8
  66              		.cfi_offset 14, -4
  67              		.cfi_offset 4, -8
  68 0002 82B0     		sub	sp, sp, #8
  69              	.LCFI1:
  70              		.cfi_def_cfa_offset 16
  71              		.loc 1 90 0
  72 0004 FFF7FEFF 		bl	_port_init
  73              		.loc 1 91 0
  74 0008 FFF7FEFF 		bl	_scheduler_init
  75              		.loc 1 92 0
  76 000c FFF7FEFF 		bl	_vt_init
  77              		.loc 1 94 0
  78 0010 FFF7FEFF 		bl	_core_init
  79              		.loc 1 97 0
  80 0014 FFF7FEFF 		bl	_heap_init
  81              		.loc 1 104 0
  82 0018 40F20000 		movw	r0, #:lower16:.LANCHOR0
  83 001c 4021     		movs	r1, #64
  84 001e C0F20000 		movt	r0, #:upper16:.LANCHOR0
  85 0022 FFF7FEFF 		bl	_thread_init
  86 0026 40F20004 		movw	r4, #:lower16:rlist
  87 002a C0F20004 		movt	r4, #:upper16:rlist
  88              		.loc 1 105 0
  89 002e 0122     		movs	r2, #1
  90              		.loc 1 104 0
  91 0030 E061     		str	r0, [r4, #28]
  92              		.loc 1 105 0
  93 0032 0277     		strb	r2, [r0, #28]
  94              	.LBB2:
  95              		.loc 1 111 0
  96 0034 0023     		movs	r3, #0
  97              	.LVL2:
  98              	@ 111 "./os/kernel/src/chsys.c" 1
  99 0036 83F31188 		msr     BASEPRI, r3                    
 100 003a 62B6     		cpsie   i
 101              	@ 0 "" 2
 102              	.LVL3:
 103              		.thumb
 104              	.LBE2:
 105              		.loc 1 115 0
 106 003c E169     		ldr	r1, [r4, #28]
 107 003e 40F20004 		movw	r4, #:lower16:ch_debug
 108 0042 C0F20004 		movt	r4, #:upper16:ch_debug
 109 0046 8C61     		str	r4, [r1, #24]
 110              		.loc 1 121 0
 111 0048 40F20000 		movw	r0, #:lower16:.LANCHOR1
 112 004c 0021     		movs	r1, #0
ARM GAS  /tmp/ccN8kxb2.s 			page 3


 113 004e 40F20003 		movw	r3, #:lower16:_idle_thread
 114              	.LVL4:
 115 0052 0091     		str	r1, [sp, #0]
 116 0054 C0F20003 		movt	r3, #:upper16:_idle_thread
 117 0058 C021     		movs	r1, #192
 118 005a C0F20000 		movt	r0, #:upper16:.LANCHOR1
 119 005e FFF7FEFF 		bl	chThdCreateStatic
 120              		.loc 1 124 0
 121 0062 02B0     		add	sp, sp, #8
 122 0064 10BD     		pop	{r4, pc}
 123              		.cfi_endproc
 124              	.LFE8:
 125              		.size	chSysInit, .-chSysInit
 126 0066 00BFAFF3 		.section	.text.chSysTimerHandlerI,"ax",%progbits
 126      0080AFF3 
 126      0080
 127              		.align	2
 128              		.p2align 4,,15
 129              		.global	chSysTimerHandlerI
 130              		.thumb
 131              		.thumb_func
 132              		.type	chSysTimerHandlerI, %function
 133              	chSysTimerHandlerI:
 134              	.LFB9:
 135              		.loc 1 137 0
 136              		.cfi_startproc
 137              		@ args = 0, pretend = 0, frame = 0
 138              		@ frame_needed = 0, uses_anonymous_args = 0
 139 0000 38B5     		push	{r3, r4, r5, lr}
 140              	.LCFI2:
 141              		.cfi_def_cfa_offset 16
 142              		.cfi_offset 14, -4
 143              		.cfi_offset 5, -8
 144              		.cfi_offset 4, -12
 145              		.cfi_offset 3, -16
 146              		.loc 1 143 0
 147 0002 104B     		ldr	r3, .L13
 148 0004 9A69     		ldr	r2, [r3, #24]
 149 0006 002A     		cmp	r2, #0
 150 0008 01DD     		ble	.L8
 151              		.loc 1 145 0
 152 000a 013A     		subs	r2, r2, #1
 153 000c 9A61     		str	r2, [r3, #24]
 154              	.L8:
 155              		.loc 1 148 0
 156 000e DB69     		ldr	r3, [r3, #28]
 157              		.loc 1 150 0
 158 0010 0D4C     		ldr	r4, .L13+4
 159              		.loc 1 148 0
 160 0012 186A     		ldr	r0, [r3, #32]
 161              		.loc 1 150 0
 162 0014 2268     		ldr	r2, [r4, #0]
 163              		.loc 1 148 0
 164 0016 411C     		adds	r1, r0, #1
 165 0018 1962     		str	r1, [r3, #32]
 166              		.loc 1 150 0
 167 001a E068     		ldr	r0, [r4, #12]
ARM GAS  /tmp/ccN8kxb2.s 			page 4


 168 001c 431C     		adds	r3, r0, #1
 169 001e A242     		cmp	r2, r4
 170 0020 E360     		str	r3, [r4, #12]
 171 0022 0ED0     		beq	.L7
 172              	.LBB3:
 173              		.loc 1 150 0 is_stmt 0 discriminator 1
 174 0024 9568     		ldr	r5, [r2, #8]
 175 0026 013D     		subs	r5, r5, #1
 176 0028 9560     		str	r5, [r2, #8]
 177              	.LVL5:
 178 002a 55B9     		cbnz	r5, .L7
 179              	.LVL6:
 180              	.L11:
 181              	.LBB4:
 182              		.loc 1 150 0 discriminator 3
 183 002c 1168     		ldr	r1, [r2, #0]
 184 002e D368     		ldr	r3, [r2, #12]
 185              	.LVL7:
 186 0030 1069     		ldr	r0, [r2, #16]
 187 0032 4C60     		str	r4, [r1, #4]
 188 0034 D560     		str	r5, [r2, #12]
 189 0036 2160     		str	r1, [r4, #0]
 190 0038 9847     		blx	r3
 191              	.LVL8:
 192              	.LBE4:
 193 003a 2268     		ldr	r2, [r4, #0]
 194              	.LVL9:
 195 003c 9168     		ldr	r1, [r2, #8]
 196 003e 0029     		cmp	r1, #0
 197 0040 F4D0     		beq	.L11
 198              	.LVL10:
 199              	.L7:
 200 0042 38BD     		pop	{r3, r4, r5, pc}
 201              	.L14:
 202              		.align	2
 203              	.L13:
 204 0044 00000000 		.word	rlist
 205 0048 00000000 		.word	vtlist
 206              	.LBE3:
 207              		.cfi_endproc
 208              	.LFE9:
 209              		.size	chSysTimerHandlerI, .-chSysTimerHandlerI
 210              		.global	_idle_thread_wa
 211 004c AFF30080 		.section	.rodata.str1.4,"aMS",%progbits,1
 212              		.align	2
 213              	.LC0:
 214 0000 69646C65 		.ascii	"idle\000"
 214      00
 215 0005 000000   		.section	.bss.mainthread.4691,"aw",%nobits
 216              		.align	2
 217              		.set	.LANCHOR0,. + 0
 218              		.type	mainthread.4691, %object
 219              		.size	mainthread.4691, 72
 220              	mainthread.4691:
 221 0000 00000000 		.space	72
 221      00000000 
 221      00000000 
ARM GAS  /tmp/ccN8kxb2.s 			page 5


 221      00000000 
 221      00000000 
 222              		.section	.bss._idle_thread_wa,"aw",%nobits
 223              		.align	3
 224              		.set	.LANCHOR1,. + 0
 225              		.type	_idle_thread_wa, %object
 226              		.size	_idle_thread_wa, 192
 227              	_idle_thread_wa:
 228 0000 00000000 		.space	192
 228      00000000 
 228      00000000 
 228      00000000 
 228      00000000 
 229              		.text
 230              	.Letext0:
 231              		.file 2 "/usr/bin/../lib/gcc/arm-none-eabi/4.6.2/../../../../arm-none-eabi/include/stdint.h"
 232              		.file 3 "./os/ports/GCC/ARMCMx/chtypes.h"
 233              		.file 4 "./os/kernel/include/chlists.h"
 234              		.file 5 "./os/kernel/include/chthreads.h"
 235              		.file 6 "./os/ports/GCC/ARMCMx/chcore_v7m.h"
 236              		.file 7 "./os/kernel/include/chvt.h"
 237              		.file 8 "./os/kernel/include/chschd.h"
 238              		.file 9 "./os/kernel/include/chmtx.h"
 239              		.file 10 "./os/kernel/include/chregistry.h"
 240              		.file 11 "./os/kernel/include/ch.h"