ARM GAS  /tmp/ccv4Dnmd.s 			page 1


   1              		.syntax unified
   2              		.cpu cortex-m4
   3              		.fpu softvfp
   4              		.eabi_attribute 20, 1
   5              		.eabi_attribute 21, 1
   6              		.eabi_attribute 23, 3
   7              		.eabi_attribute 24, 1
   8              		.eabi_attribute 25, 1
   9              		.eabi_attribute 26, 1
  10              		.eabi_attribute 30, 2
  11              		.eabi_attribute 34, 1
  12              		.eabi_attribute 18, 4
  13              		.thumb
  14              		.file	"chthreads.c"
  15              		.text
  16              	.Ltext0:
  17              		.cfi_sections	.debug_frame
  18              		.section	.text._thread_init,"ax",%progbits
  19              		.align	2
  20              		.p2align 4,,15
  21              		.global	_thread_init
  22              		.thumb
  23              		.thumb_func
  24              		.type	_thread_init, %function
  25              	_thread_init:
  26              	.LFB7:
  27              		.file 1 "./os/kernel/src/chthreads.c"
  28              		.loc 1 76 0
  29              		.cfi_startproc
  30              		@ args = 0, pretend = 0, frame = 0
  31              		@ frame_needed = 0, uses_anonymous_args = 0
  32              		@ link register save eliminated.
  33              	.LVL0:
  34              		.loc 1 96 0
  35 0000 40F20003 		movw	r3, #:lower16:rlist
  36 0004 C0F20003 		movt	r3, #:upper16:rlist
  37              		.loc 1 76 0
  38 0008 F0B4     		push	{r4, r5, r6, r7}
  39              	.LCFI0:
  40              		.cfi_def_cfa_offset 16
  41              		.cfi_offset 7, -4
  42              		.cfi_offset 6, -8
  43              		.cfi_offset 5, -12
  44              		.cfi_offset 4, -16
  45              		.loc 1 96 0
  46 000a 5C69     		ldr	r4, [r3, #20]
  47 000c 0361     		str	r3, [r0, #16]
  48              		.loc 1 80 0
  49 000e 0022     		movs	r2, #0
  50              		.loc 1 102 0
  51 0010 00F12C05 		add	r5, r0, #44
  52              		.loc 1 99 0
  53 0014 00F12806 		add	r6, r0, #40
  54              		.loc 1 78 0
  55 0018 8160     		str	r1, [r0, #8]
  56              		.loc 1 96 0
  57 001a 4461     		str	r4, [r0, #20]
ARM GAS  /tmp/ccv4Dnmd.s 			page 2


  58              		.loc 1 79 0
  59 001c 0227     		movs	r7, #2
  60              		.loc 1 96 0
  61 001e 5861     		str	r0, [r3, #20]
  62              		.loc 1 92 0
  63 0020 0123     		movs	r3, #1
  64              		.loc 1 79 0
  65 0022 0777     		strb	r7, [r0, #28]
  66              		.loc 1 80 0
  67 0024 4277     		strb	r2, [r0, #29]
  68              		.loc 1 82 0
  69 0026 0164     		str	r1, [r0, #64]
  70              		.loc 1 83 0
  71 0028 C263     		str	r2, [r0, #60]
  72              		.loc 1 86 0
  73 002a 8263     		str	r2, [r0, #56]
  74              		.loc 1 89 0
  75 002c 0262     		str	r2, [r0, #32]
  76              		.loc 1 92 0
  77 002e 8377     		strb	r3, [r0, #30]
  78              		.loc 1 95 0
  79 0030 8261     		str	r2, [r0, #24]
  80              		.loc 1 96 0
  81 0032 2061     		str	r0, [r4, #16]
  82              		.loc 1 99 0
  83 0034 8662     		str	r6, [r0, #40]
  84              		.loc 1 102 0
  85 0036 0563     		str	r5, [r0, #48]
  86 0038 C562     		str	r5, [r0, #44]
  87              		.loc 1 111 0
  88 003a F0BC     		pop	{r4, r5, r6, r7}
  89 003c 7047     		bx	lr
  90              		.cfi_endproc
  91              	.LFE7:
  92              		.size	_thread_init, .-_thread_init
  93 003e 00BF     		.section	.text.chThdCreateI,"ax",%progbits
  94              		.align	2
  95              		.p2align 4,,15
  96              		.global	chThdCreateI
  97              		.thumb
  98              		.thumb_func
  99              		.type	chThdCreateI, %function
 100              	chThdCreateI:
 101              	.LFB8:
 102              		.loc 1 155 0
 103              		.cfi_startproc
 104              		@ args = 4, pretend = 0, frame = 0
 105              		@ frame_needed = 0, uses_anonymous_args = 0
 106              		@ link register save eliminated.
 107              	.LVL1:
 108 0000 2DE9F001 		push	{r4, r5, r6, r7, r8}
 109              	.LCFI1:
 110              		.cfi_def_cfa_offset 20
 111              		.cfi_offset 8, -4
 112              		.cfi_offset 7, -8
 113              		.cfi_offset 6, -12
 114              		.cfi_offset 5, -16
ARM GAS  /tmp/ccv4Dnmd.s 			page 3


 115              		.cfi_offset 4, -20
 116              	.LBB10:
 117              	.LBB11:
 118              		.loc 1 96 0
 119 0004 40F20004 		movw	r4, #:lower16:rlist
 120 0008 C0F20004 		movt	r4, #:upper16:rlist
 121              	.LVL2:
 122              	.LBE11:
 123              	.LBE10:
 124              		.loc 1 164 0
 125 000c 2439     		subs	r1, r1, #36
 126              	.LVL3:
 127 000e 4618     		adds	r6, r0, r1
 128              	.LBB15:
 129              	.LBB12:
 130              		.loc 1 96 0
 131 0010 6769     		ldr	r7, [r4, #20]
 132              	.LBE12:
 133              	.LBE15:
 134              		.loc 1 164 0
 135 0012 C660     		str	r6, [r0, #12]
 136 0014 4350     		str	r3, [r0, r1]
 137 0016 0599     		ldr	r1, [sp, #20]
 138              	.LVL4:
 139 0018 40F20003 		movw	r3, #:lower16:_port_thread_start
 140              	.LVL5:
 141 001c C0F20003 		movt	r3, #:upper16:_port_thread_start
 142 0020 7160     		str	r1, [r6, #4]
 143 0022 3362     		str	r3, [r6, #32]
 144              	.LVL6:
 145              	.LBB16:
 146              	.LBB13:
 147              		.loc 1 80 0
 148 0024 0025     		movs	r5, #0
 149              	.LBE13:
 150              	.LBE16:
 151              		.loc 1 155 0
 152 0026 9446     		mov	ip, r2
 153              	.LVL7:
 154              	.LBB17:
 155              	.LBB14:
 156              		.loc 1 99 0
 157 0028 00F12808 		add	r8, r0, #40
 158              		.loc 1 102 0
 159 002c 00F12C02 		add	r2, r0, #44
 160              	.LVL8:
 161              		.loc 1 79 0
 162 0030 0221     		movs	r1, #2
 163              		.loc 1 92 0
 164 0032 0123     		movs	r3, #1
 165              		.loc 1 96 0
 166 0034 0461     		str	r4, [r0, #16]
 167              		.loc 1 78 0
 168 0036 C0F808C0 		str	ip, [r0, #8]
 169              		.loc 1 96 0
 170 003a 4761     		str	r7, [r0, #20]
 171              		.loc 1 79 0
ARM GAS  /tmp/ccv4Dnmd.s 			page 4


 172 003c 0177     		strb	r1, [r0, #28]
 173              		.loc 1 96 0
 174 003e 6061     		str	r0, [r4, #20]
 175              		.loc 1 80 0
 176 0040 4577     		strb	r5, [r0, #29]
 177              		.loc 1 82 0
 178 0042 C0F840C0 		str	ip, [r0, #64]
 179              		.loc 1 83 0
 180 0046 C563     		str	r5, [r0, #60]
 181              		.loc 1 86 0
 182 0048 8563     		str	r5, [r0, #56]
 183              		.loc 1 89 0
 184 004a 0562     		str	r5, [r0, #32]
 185              		.loc 1 92 0
 186 004c 8377     		strb	r3, [r0, #30]
 187              		.loc 1 95 0
 188 004e 8561     		str	r5, [r0, #24]
 189              		.loc 1 96 0
 190 0050 3861     		str	r0, [r7, #16]
 191              		.loc 1 99 0
 192 0052 C0F82880 		str	r8, [r0, #40]
 193              		.loc 1 102 0
 194 0056 0263     		str	r2, [r0, #48]
 195 0058 C262     		str	r2, [r0, #44]
 196              	.LBE14:
 197              	.LBE17:
 198              		.loc 1 166 0
 199 005a BDE8F001 		pop	{r4, r5, r6, r7, r8}
 200 005e 7047     		bx	lr
 201              		.cfi_endproc
 202              	.LFE8:
 203              		.size	chThdCreateI, .-chThdCreateI
 204              		.section	.text.chThdCreateStatic,"ax",%progbits
 205              		.align	2
 206              		.p2align 4,,15
 207              		.global	chThdCreateStatic
 208              		.thumb
 209              		.thumb_func
 210              		.type	chThdCreateStatic, %function
 211              	chThdCreateStatic:
 212              	.LFB9:
 213              		.loc 1 185 0
 214              		.cfi_startproc
 215              		@ args = 4, pretend = 0, frame = 0
 216              		@ frame_needed = 0, uses_anonymous_args = 0
 217              	.LVL9:
 218 0000 10B5     		push	{r4, lr}
 219              	.LCFI2:
 220              		.cfi_def_cfa_offset 8
 221              		.cfi_offset 14, -4
 222              		.cfi_offset 4, -8
 223 0002 9C46     		mov	ip, r3
 224 0004 82B0     		sub	sp, sp, #8
 225              	.LCFI3:
 226              		.cfi_def_cfa_offset 16
 227              	.LBB18:
 228              		.loc 1 196 0
ARM GAS  /tmp/ccv4Dnmd.s 			page 5


 229 0006 2023     		movs	r3, #32
 230              	.LVL10:
 231              	@ 196 "./os/kernel/src/chthreads.c" 1
 232 0008 83F31188 		msr     BASEPRI, r3
 233              	@ 0 "" 2
 234              	.LVL11:
 235              		.thumb
 236              	.LBE18:
 237              		.loc 1 197 0
 238 000c 049C     		ldr	r4, [sp, #16]
 239 000e 6346     		mov	r3, ip
 240              	.LVL12:
 241 0010 0094     		str	r4, [sp, #0]
 242 0012 FFF7FEFF 		bl	chThdCreateI
 243              	.LVL13:
 244 0016 0021     		movs	r1, #0
 245 0018 0446     		mov	r4, r0
 246              	.LVL14:
 247 001a FFF7FEFF 		bl	chSchWakeupS
 248              	.LVL15:
 249              	.LBB19:
 250              		.loc 1 198 0
 251 001e 0023     		movs	r3, #0
 252              	.LVL16:
 253              	@ 198 "./os/kernel/src/chthreads.c" 1
 254 0020 83F31188 		msr     BASEPRI, r3
 255              	@ 0 "" 2
 256              	.LVL17:
 257              		.thumb
 258              	.LBE19:
 259              		.loc 1 200 0
 260 0024 2046     		mov	r0, r4
 261 0026 02B0     		add	sp, sp, #8
 262 0028 10BD     		pop	{r4, pc}
 263              		.cfi_endproc
 264              	.LFE9:
 265              		.size	chThdCreateStatic, .-chThdCreateStatic
 266 002a 00BFAFF3 		.section	.text.chThdSetPriority,"ax",%progbits
 266      0080
 267              		.align	2
 268              		.p2align 4,,15
 269              		.global	chThdSetPriority
 270              		.thumb
 271              		.thumb_func
 272              		.type	chThdSetPriority, %function
 273              	chThdSetPriority:
 274              	.LFB10:
 275              		.loc 1 214 0
 276              		.cfi_startproc
 277              		@ args = 0, pretend = 0, frame = 0
 278              		@ frame_needed = 0, uses_anonymous_args = 0
 279              	.LVL18:
 280 0000 10B5     		push	{r4, lr}
 281              	.LCFI4:
 282              		.cfi_def_cfa_offset 8
 283              		.cfi_offset 14, -4
 284              		.cfi_offset 4, -8
ARM GAS  /tmp/ccv4Dnmd.s 			page 6


 285              	.LBB20:
 286              		.loc 1 219 0
 287 0002 2023     		movs	r3, #32
 288              	.LVL19:
 289              	@ 219 "./os/kernel/src/chthreads.c" 1
 290 0004 83F31188 		msr     BASEPRI, r3
 291              	@ 0 "" 2
 292              	.LVL20:
 293              		.thumb
 294              	.LBE20:
 295              		.loc 1 221 0
 296 0008 084B     		ldr	r3, .L8
 297              	.LVL21:
 298 000a DB69     		ldr	r3, [r3, #28]
 299 000c 1C6C     		ldr	r4, [r3, #64]
 300              	.LVL22:
 301              		.loc 1 222 0
 302 000e 9A68     		ldr	r2, [r3, #8]
 303 0010 9442     		cmp	r4, r2
 304 0012 01D0     		beq	.L5
 305              		.loc 1 222 0 is_stmt 0 discriminator 1
 306 0014 8242     		cmp	r2, r0
 307 0016 00D2     		bcs	.L6
 308              	.L5:
 309              		.loc 1 223 0 is_stmt 1
 310 0018 9860     		str	r0, [r3, #8]
 311              	.L6:
 312              		.loc 1 224 0
 313 001a 1864     		str	r0, [r3, #64]
 314              		.loc 1 229 0
 315 001c FFF7FEFF 		bl	chSchRescheduleS
 316              	.LVL23:
 317              	.LBB21:
 318              		.loc 1 230 0
 319 0020 0023     		movs	r3, #0
 320              	.LVL24:
 321              	@ 230 "./os/kernel/src/chthreads.c" 1
 322 0022 83F31188 		msr     BASEPRI, r3
 323              	@ 0 "" 2
 324              	.LVL25:
 325              		.thumb
 326              	.LBE21:
 327              		.loc 1 232 0
 328 0026 2046     		mov	r0, r4
 329 0028 10BD     		pop	{r4, pc}
 330              	.L9:
 331 002a 00BF     		.align	2
 332              	.L8:
 333 002c 00000000 		.word	rlist
 334              		.cfi_endproc
 335              	.LFE10:
 336              		.size	chThdSetPriority, .-chThdSetPriority
 337              		.section	.text.chThdResume,"ax",%progbits
 338              		.align	2
 339              		.p2align 4,,15
 340              		.global	chThdResume
 341              		.thumb
ARM GAS  /tmp/ccv4Dnmd.s 			page 7


 342              		.thumb_func
 343              		.type	chThdResume, %function
 344              	chThdResume:
 345              	.LFB11:
 346              		.loc 1 247 0
 347              		.cfi_startproc
 348              		@ args = 0, pretend = 0, frame = 0
 349              		@ frame_needed = 0, uses_anonymous_args = 0
 350              	.LVL26:
 351 0000 10B5     		push	{r4, lr}
 352              	.LCFI5:
 353              		.cfi_def_cfa_offset 8
 354              		.cfi_offset 14, -4
 355              		.cfi_offset 4, -8
 356              	.LBB22:
 357              		.loc 1 249 0
 358 0002 2023     		movs	r3, #32
 359              	.LVL27:
 360              	.LBE22:
 361              		.loc 1 247 0
 362 0004 0446     		mov	r4, r0
 363              	.LBB23:
 364              		.loc 1 249 0
 365              	@ 249 "./os/kernel/src/chthreads.c" 1
 366 0006 83F31188 		msr     BASEPRI, r3
 367              	@ 0 "" 2
 368              	.LVL28:
 369              		.thumb
 370              	.LBE23:
 371              		.loc 1 253 0
 372 000a 0021     		movs	r1, #0
 373 000c FFF7FEFF 		bl	chSchWakeupS
 374              	.LVL29:
 375              	.LBB24:
 376              		.loc 1 254 0
 377 0010 0023     		movs	r3, #0
 378              	.LVL30:
 379              	@ 254 "./os/kernel/src/chthreads.c" 1
 380 0012 83F31188 		msr     BASEPRI, r3
 381              	@ 0 "" 2
 382              	.LVL31:
 383              		.thumb
 384              	.LBE24:
 385              		.loc 1 256 0
 386 0016 2046     		mov	r0, r4
 387 0018 10BD     		pop	{r4, pc}
 388              		.cfi_endproc
 389              	.LFE11:
 390              		.size	chThdResume, .-chThdResume
 391 001a 00BFAFF3 		.section	.text.chThdTerminate,"ax",%progbits
 391      0080
 392              		.align	2
 393              		.p2align 4,,15
 394              		.global	chThdTerminate
 395              		.thumb
 396              		.thumb_func
 397              		.type	chThdTerminate, %function
ARM GAS  /tmp/ccv4Dnmd.s 			page 8


 398              	chThdTerminate:
 399              	.LFB12:
 400              		.loc 1 270 0
 401              		.cfi_startproc
 402              		@ args = 0, pretend = 0, frame = 0
 403              		@ frame_needed = 0, uses_anonymous_args = 0
 404              		@ link register save eliminated.
 405              	.LVL32:
 406              	.LBB25:
 407              		.loc 1 272 0
 408 0000 2023     		movs	r3, #32
 409              	.LVL33:
 410              	@ 272 "./os/kernel/src/chthreads.c" 1
 411 0002 83F31188 		msr     BASEPRI, r3
 412              	@ 0 "" 2
 413              	.LVL34:
 414              		.thumb
 415              	.LBE25:
 416              		.loc 1 273 0
 417 0006 417F     		ldrb	r1, [r0, #29]	@ zero_extendqisi2
 418 0008 41F00403 		orr	r3, r1, #4
 419              	.LVL35:
 420 000c 4377     		strb	r3, [r0, #29]
 421              	.LBB26:
 422              		.loc 1 274 0
 423 000e 0023     		movs	r3, #0
 424              	.LVL36:
 425              	@ 274 "./os/kernel/src/chthreads.c" 1
 426 0010 83F31188 		msr     BASEPRI, r3
 427              	@ 0 "" 2
 428              	.LVL37:
 429              		.thumb
 430              	.LBE26:
 431              		.loc 1 275 0
 432 0014 7047     		bx	lr
 433              		.cfi_endproc
 434              	.LFE12:
 435              		.size	chThdTerminate, .-chThdTerminate
 436 0016 00BFAFF3 		.section	.text.chThdSleep,"ax",%progbits
 436      0080AFF3 
 436      0080
 437              		.align	2
 438              		.p2align 4,,15
 439              		.global	chThdSleep
 440              		.thumb
 441              		.thumb_func
 442              		.type	chThdSleep, %function
 443              	chThdSleep:
 444              	.LFB13:
 445              		.loc 1 289 0
 446              		.cfi_startproc
 447              		@ args = 0, pretend = 0, frame = 0
 448              		@ frame_needed = 0, uses_anonymous_args = 0
 449              	.LVL38:
 450 0000 08B5     		push	{r3, lr}
 451              	.LCFI6:
 452              		.cfi_def_cfa_offset 8
ARM GAS  /tmp/ccv4Dnmd.s 			page 9


 453              		.cfi_offset 14, -4
 454              		.cfi_offset 3, -8
 455              		.loc 1 289 0
 456 0002 0146     		mov	r1, r0
 457              	.LBB27:
 458              		.loc 1 293 0
 459 0004 2023     		movs	r3, #32
 460              	.LVL39:
 461              	@ 293 "./os/kernel/src/chthreads.c" 1
 462 0006 83F31188 		msr     BASEPRI, r3
 463              	@ 0 "" 2
 464              	.LVL40:
 465              		.thumb
 466              	.LBE27:
 467              		.loc 1 294 0
 468 000a 0620     		movs	r0, #6
 469              	.LVL41:
 470 000c FFF7FEFF 		bl	chSchGoSleepTimeoutS
 471              	.LVL42:
 472              	.LBB28:
 473              		.loc 1 295 0
 474 0010 0023     		movs	r3, #0
 475              	.LVL43:
 476              	@ 295 "./os/kernel/src/chthreads.c" 1
 477 0012 83F31188 		msr     BASEPRI, r3
 478              	@ 0 "" 2
 479              	.LVL44:
 480              		.thumb
 481              	.LBE28:
 482              		.loc 1 296 0
 483 0016 08BD     		pop	{r3, pc}
 484              		.cfi_endproc
 485              	.LFE13:
 486              		.size	chThdSleep, .-chThdSleep
 487 0018 AFF30080 		.section	.text.chThdSleepUntil,"ax",%progbits
 487      AFF30080 
 488              		.align	2
 489              		.p2align 4,,15
 490              		.global	chThdSleepUntil
 491              		.thumb
 492              		.thumb_func
 493              		.type	chThdSleepUntil, %function
 494              	chThdSleepUntil:
 495              	.LFB14:
 496              		.loc 1 306 0
 497              		.cfi_startproc
 498              		@ args = 0, pretend = 0, frame = 0
 499              		@ frame_needed = 0, uses_anonymous_args = 0
 500              	.LVL45:
 501 0000 08B5     		push	{r3, lr}
 502              	.LCFI7:
 503              		.cfi_def_cfa_offset 8
 504              		.cfi_offset 14, -4
 505              		.cfi_offset 3, -8
 506              	.LBB29:
 507              		.loc 1 308 0
 508 0002 2023     		movs	r3, #32
ARM GAS  /tmp/ccv4Dnmd.s 			page 10


 509              	.LVL46:
 510              	@ 308 "./os/kernel/src/chthreads.c" 1
 511 0004 83F31188 		msr     BASEPRI, r3
 512              	@ 0 "" 2
 513              	.LVL47:
 514              		.thumb
 515              	.LBE29:
 516              		.loc 1 309 0
 517 0008 054B     		ldr	r3, .L15
 518              	.LVL48:
 519 000a D968     		ldr	r1, [r3, #12]
 520              	.LVL49:
 521 000c 411A     		subs	r1, r0, r1
 522              	.LVL50:
 523 000e 02D0     		beq	.L14
 524              		.loc 1 310 0
 525 0010 0620     		movs	r0, #6
 526 0012 FFF7FEFF 		bl	chSchGoSleepTimeoutS
 527              	.LVL51:
 528              	.L14:
 529              	.LBB30:
 530              		.loc 1 311 0
 531 0016 0023     		movs	r3, #0
 532              	.LVL52:
 533              	@ 311 "./os/kernel/src/chthreads.c" 1
 534 0018 83F31188 		msr     BASEPRI, r3
 535              	@ 0 "" 2
 536              	.LVL53:
 537              		.thumb
 538              	.LBE30:
 539              		.loc 1 312 0
 540 001c 08BD     		pop	{r3, pc}
 541              	.L16:
 542 001e 00BF     		.align	2
 543              	.L15:
 544 0020 00000000 		.word	vtlist
 545              		.cfi_endproc
 546              	.LFE14:
 547              		.size	chThdSleepUntil, .-chThdSleepUntil
 548 0024 AFF30080 		.section	.text.chThdYield,"ax",%progbits
 548      AFF30080 
 548      AFF30080 
 549              		.align	2
 550              		.p2align 4,,15
 551              		.global	chThdYield
 552              		.thumb
 553              		.thumb_func
 554              		.type	chThdYield, %function
 555              	chThdYield:
 556              	.LFB15:
 557              		.loc 1 321 0
 558              		.cfi_startproc
 559              		@ args = 0, pretend = 0, frame = 0
 560              		@ frame_needed = 0, uses_anonymous_args = 0
 561 0000 08B5     		push	{r3, lr}
 562              	.LCFI8:
 563              		.cfi_def_cfa_offset 8
ARM GAS  /tmp/ccv4Dnmd.s 			page 11


 564              		.cfi_offset 14, -4
 565              		.cfi_offset 3, -8
 566              	.LBB31:
 567              		.loc 1 323 0
 568 0002 2023     		movs	r3, #32
 569              	.LVL54:
 570              	@ 323 "./os/kernel/src/chthreads.c" 1
 571 0004 83F31188 		msr     BASEPRI, r3
 572              	@ 0 "" 2
 573              	.LVL55:
 574              		.thumb
 575              	.LBE31:
 576              		.loc 1 324 0
 577 0008 064A     		ldr	r2, .L19
 578 000a D069     		ldr	r0, [r2, #28]
 579 000c 1168     		ldr	r1, [r2, #0]
 580 000e 8368     		ldr	r3, [r0, #8]
 581              	.LVL56:
 582 0010 8A68     		ldr	r2, [r1, #8]
 583 0012 9A42     		cmp	r2, r3
 584 0014 01D3     		bcc	.L18
 585              		.loc 1 324 0 is_stmt 0 discriminator 1
 586 0016 FFF7FEFF 		bl	chSchDoReschedule
 587              	.L18:
 588              	.LBB32:
 589              		.loc 1 325 0 is_stmt 1
 590 001a 0023     		movs	r3, #0
 591              	.LVL57:
 592              	@ 325 "./os/kernel/src/chthreads.c" 1
 593 001c 83F31188 		msr     BASEPRI, r3
 594              	@ 0 "" 2
 595              	.LVL58:
 596              		.thumb
 597              	.LBE32:
 598              		.loc 1 326 0
 599 0020 08BD     		pop	{r3, pc}
 600              	.L20:
 601 0022 00BF     		.align	2
 602              	.L19:
 603 0024 00000000 		.word	rlist
 604              		.cfi_endproc
 605              	.LFE15:
 606              		.size	chThdYield, .-chThdYield
 607 0028 AFF30080 		.section	.text.chThdExitS,"ax",%progbits
 607      AFF30080 
 608              		.align	2
 609              		.p2align 4,,15
 610              		.global	chThdExitS
 611              		.thumb
 612              		.thumb_func
 613              		.type	chThdExitS, %function
 614              	chThdExitS:
 615              	.LFB17:
 616              		.loc 1 363 0
 617              		.cfi_startproc
 618              		@ args = 0, pretend = 0, frame = 0
 619              		@ frame_needed = 0, uses_anonymous_args = 0
ARM GAS  /tmp/ccv4Dnmd.s 			page 12


 620              	.LVL59:
 621              		.loc 1 364 0
 622 0000 0E49     		ldr	r1, .L27
 623              		.loc 1 363 0
 624 0002 38B5     		push	{r3, r4, r5, lr}
 625              	.LCFI9:
 626              		.cfi_def_cfa_offset 16
 627              		.cfi_offset 14, -4
 628              		.cfi_offset 5, -8
 629              		.cfi_offset 4, -12
 630              		.cfi_offset 3, -16
 631              		.loc 1 364 0
 632 0004 CC69     		ldr	r4, [r1, #28]
 633              	.LVL60:
 634              		.loc 1 371 0
 635 0006 2546     		mov	r5, r4
 636              		.loc 1 363 0
 637 0008 0346     		mov	r3, r0
 638              		.loc 1 371 0
 639 000a 55F8280F 		ldr	r0, [r5, #40]!
 640              	.LVL61:
 641              		.loc 1 366 0
 642 000e 6362     		str	r3, [r4, #36]
 643              		.loc 1 371 0
 644 0010 A842     		cmp	r0, r5
 645 0012 06D0     		beq	.L22
 646              	.LVL62:
 647              	.L25:
 648              	.LBB33:
 649              	.LBB34:
 650              		.file 2 "./os/kernel/include/chinline.h"
 651              		.loc 2 89 0
 652 0014 0268     		ldr	r2, [r0, #0]
 653 0016 A262     		str	r2, [r4, #40]
 654              	.LBE34:
 655              	.LBE33:
 656              		.loc 1 372 0
 657 0018 FFF7FEFF 		bl	chSchReadyI
 658              	.LVL63:
 659              		.loc 1 371 0
 660 001c A06A     		ldr	r0, [r4, #40]
 661 001e A842     		cmp	r0, r5
 662 0020 F8D1     		bne	.L25
 663              	.LVL64:
 664              	.L22:
 665              		.loc 1 377 0
 666 0022 607F     		ldrb	r0, [r4, #29]	@ zero_extendqisi2
 667 0024 8307     		lsls	r3, r0, #30
 668 0026 04D1     		bne	.L24
 669              		.loc 1 378 0
 670 0028 6369     		ldr	r3, [r4, #20]
 671 002a 2269     		ldr	r2, [r4, #16]
 672 002c 1A61     		str	r2, [r3, #16]
 673 002e 2169     		ldr	r1, [r4, #16]
 674 0030 4B61     		str	r3, [r1, #20]
 675              	.L24:
 676              		.loc 1 380 0
ARM GAS  /tmp/ccv4Dnmd.s 			page 13


 677 0032 0E20     		movs	r0, #14
 678              		.loc 1 383 0
 679 0034 BDE83840 		pop	{r3, r4, r5, lr}
 680              		.loc 1 380 0
 681 0038 FFF7FEBF 		b	chSchGoSleepS
 682              	.L28:
 683              		.align	2
 684              	.L27:
 685 003c 00000000 		.word	rlist
 686              		.cfi_endproc
 687              	.LFE17:
 688              		.size	chThdExitS, .-chThdExitS
 689              		.section	.text.chThdExit,"ax",%progbits
 690              		.align	2
 691              		.p2align 4,,15
 692              		.global	chThdExit
 693              		.thumb
 694              		.thumb_func
 695              		.type	chThdExit, %function
 696              	chThdExit:
 697              	.LFB16:
 698              		.loc 1 342 0
 699              		.cfi_startproc
 700              		@ args = 0, pretend = 0, frame = 0
 701              		@ frame_needed = 0, uses_anonymous_args = 0
 702              		@ link register save eliminated.
 703              	.LVL65:
 704              	.LBB35:
 705              		.loc 1 344 0
 706 0000 2023     		movs	r3, #32
 707              	.LVL66:
 708              	@ 344 "./os/kernel/src/chthreads.c" 1
 709 0002 83F31188 		msr     BASEPRI, r3
 710              	@ 0 "" 2
 711              	.LVL67:
 712              		.thumb
 713              	.LBE35:
 714              		.loc 1 347 0
 715              		.loc 1 345 0
 716 0006 FFF7FEBF 		b	chThdExitS
 717              	.LVL68:
 718              	.LVL69:
 719              		.cfi_endproc
 720              	.LFE16:
 721              		.size	chThdExit, .-chThdExit
 722 000a 00BFAFF3 		.section	.text.chThdWait,"ax",%progbits
 722      0080
 723              		.align	2
 724              		.p2align 4,,15
 725              		.global	chThdWait
 726              		.thumb
 727              		.thumb_func
 728              		.type	chThdWait, %function
 729              	chThdWait:
 730              	.LFB18:
 731              		.loc 1 417 0
 732              		.cfi_startproc
ARM GAS  /tmp/ccv4Dnmd.s 			page 14


 733              		@ args = 0, pretend = 0, frame = 0
 734              		@ frame_needed = 0, uses_anonymous_args = 0
 735              	.LVL70:
 736 0000 38B5     		push	{r3, r4, r5, lr}
 737              	.LCFI10:
 738              		.cfi_def_cfa_offset 16
 739              		.cfi_offset 14, -4
 740              		.cfi_offset 5, -8
 741              		.cfi_offset 4, -12
 742              		.cfi_offset 3, -16
 743              		.loc 1 417 0
 744 0002 0446     		mov	r4, r0
 745              	.LBB36:
 746              		.loc 1 422 0
 747 0004 2023     		movs	r3, #32
 748              	.LVL71:
 749              	@ 422 "./os/kernel/src/chthreads.c" 1
 750 0006 83F31188 		msr     BASEPRI, r3
 751              	@ 0 "" 2
 752              	.LVL72:
 753              		.thumb
 754              	.LBE36:
 755              		.loc 1 427 0
 756 000a 037F     		ldrb	r3, [r0, #28]	@ zero_extendqisi2
 757              	.LVL73:
 758 000c 0E2B     		cmp	r3, #14
 759 000e 07D0     		beq	.L31
 760              		.loc 1 428 0
 761 0010 0849     		ldr	r1, .L32
 762              	.LBB37:
 763              	.LBB38:
 764              		.loc 2 82 0
 765 0012 826A     		ldr	r2, [r0, #40]
 766              	.LBE38:
 767              	.LBE37:
 768              		.loc 1 428 0
 769 0014 C869     		ldr	r0, [r1, #28]
 770              	.LVL74:
 771              	.LBB40:
 772              	.LBB39:
 773              		.loc 2 82 0
 774 0016 0260     		str	r2, [r0, #0]
 775              		.loc 2 83 0
 776 0018 A062     		str	r0, [r4, #40]
 777              	.LBE39:
 778              	.LBE40:
 779              		.loc 1 429 0
 780 001a 0720     		movs	r0, #7
 781 001c FFF7FEFF 		bl	chSchGoSleepS
 782              	.LVL75:
 783              	.L31:
 784              		.loc 1 431 0
 785 0020 656A     		ldr	r5, [r4, #36]
 786              	.LVL76:
 787              	.LBB41:
 788              		.loc 1 432 0
 789 0022 0023     		movs	r3, #0
ARM GAS  /tmp/ccv4Dnmd.s 			page 15


 790              	.LVL77:
 791              	@ 432 "./os/kernel/src/chthreads.c" 1
 792 0024 83F31188 		msr     BASEPRI, r3
 793              	@ 0 "" 2
 794              	.LVL78:
 795              		.thumb
 796              	.LBE41:
 797              		.loc 1 434 0
 798 0028 2046     		mov	r0, r4
 799 002a FFF7FEFF 		bl	chThdRelease
 800              	.LVL79:
 801              		.loc 1 437 0
 802 002e 2846     		mov	r0, r5
 803 0030 38BD     		pop	{r3, r4, r5, pc}
 804              	.L33:
 805 0032 00BF     		.align	2
 806              	.L32:
 807 0034 00000000 		.word	rlist
 808              		.cfi_endproc
 809              	.LFE18:
 810              		.size	chThdWait, .-chThdWait
 811 0038 AFF30080 		.text
 811      AFF30080 
 812              	.Letext0:
 813              		.file 3 "/usr/bin/../lib/gcc/arm-none-eabi/4.6.2/include/stddef.h"
 814              		.file 4 "/usr/bin/../lib/gcc/arm-none-eabi/4.6.2/../../../../arm-none-eabi/include/stdint.h"
 815              		.file 5 "./os/ports/GCC/ARMCMx/chtypes.h"
 816              		.file 6 "./os/kernel/include/chlists.h"
 817              		.file 7 "./os/kernel/include/chthreads.h"
 818              		.file 8 "./os/ports/GCC/ARMCMx/chcore_v7m.h"
 819              		.file 9 "./os/kernel/include/chvt.h"
 820              		.file 10 "./os/kernel/include/chschd.h"
 821              		.file 11 "./os/kernel/include/chmtx.h"