ARM GAS  /tmp/ccrjHJbD.s 			page 1


   1              		.syntax unified
   2              		.cpu cortex-m4
   3              		.fpu softvfp
   4              		.eabi_attribute 20, 1
   5              		.eabi_attribute 21, 1
   6              		.eabi_attribute 23, 3
   7              		.eabi_attribute 24, 1
   8              		.eabi_attribute 25, 1
   9              		.eabi_attribute 26, 1
  10              		.eabi_attribute 30, 2
  11              		.eabi_attribute 34, 1
  12              		.eabi_attribute 18, 4
  13              		.thumb
  14              		.file	"crt0.c"
  15              		.text
  16              	.Ltext0:
  17              		.cfi_sections	.debug_frame
  18              		.section	.text.__early_init,"ax",%progbits
  19              		.align	2
  20              		.p2align 4,,15
  21              		.weak	__early_init
  22              		.thumb
  23              		.thumb_func
  24              		.type	__early_init, %function
  25              	__early_init:
  26              	.LFB7:
  27              		.file 1 "./os/ports/GCC/ARMCMx/crt0.c"
  28              		.loc 1 220 0
  29              		.cfi_startproc
  30              		@ args = 0, pretend = 0, frame = 0
  31              		@ frame_needed = 0, uses_anonymous_args = 0
  32              		@ link register save eliminated.
  33              		.loc 1 220 0
  34 0000 7047     		bx	lr
  35              		.cfi_endproc
  36              	.LFE7:
  37              		.size	__early_init, .-__early_init
  38 0002 00BFAFF3 		.section	.text.__late_init,"ax",%progbits
  38      0080AFF3 
  38      0080AFF3 
  38      0080
  39              		.align	2
  40              		.p2align 4,,15
  41              		.weak	__late_init
  42              		.thumb
  43              		.thumb_func
  44              		.type	__late_init, %function
  45              	__late_init:
  46              	.LFB8:
  47              		.loc 1 232 0
  48              		.cfi_startproc
  49              		@ args = 0, pretend = 0, frame = 0
  50              		@ frame_needed = 0, uses_anonymous_args = 0
  51              		@ link register save eliminated.
  52              		.loc 1 232 0
  53 0000 7047     		bx	lr
  54              		.cfi_endproc
ARM GAS  /tmp/ccrjHJbD.s 			page 2


  55              	.LFE8:
  56              		.size	__late_init, .-__late_init
  57 0002 00BFAFF3 		.section	.text._default_exit,"ax",%progbits
  57      0080AFF3 
  57      0080AFF3 
  57      0080
  58              		.align	2
  59              		.p2align 4,,15
  60              		.weak	_default_exit
  61              		.thumb
  62              		.thumb_func
  63              		.type	_default_exit, %function
  64              	_default_exit:
  65              	.LFB9:
  66              		.loc 1 243 0
  67              		.cfi_startproc
  68              		@ Naked Function: prologue and epilogue provided by programmer.
  69              		@ args = 0, pretend = 0, frame = 0
  70              		@ frame_needed = 0, uses_anonymous_args = 0
  71              	.L4:
  72 0000 FEE7     		b	.L4
  73              		.cfi_endproc
  74              	.LFE9:
  75              		.size	_default_exit, .-_default_exit
  76 0002 00BFAFF3 		.section	.text.ResetHandler,"ax",%progbits
  76      0080AFF3 
  76      0080AFF3 
  76      0080
  77              		.align	2
  78              		.p2align 4,,15
  79              		.global	ResetHandler
  80              		.thumb
  81              		.thumb_func
  82              		.type	ResetHandler, %function
  83              	ResetHandler:
  84              	.LFB10:
  85              		.loc 1 254 0
  86              		.cfi_startproc
  87              		@ Naked Function: prologue and epilogue provided by programmer.
  88              		@ args = 0, pretend = 0, frame = 0
  89              		@ frame_needed = 0, uses_anonymous_args = 0
  90              		.loc 1 260 0
  91              	@ 260 "./os/ports/GCC/ARMCMx/crt0.c" 1
  92 0000 72B6     		cpsid   i
  93              	@ 0 "" 2
  94              	.LVL0:
  95              		.loc 1 262 0
  96              		.thumb
  97 0002 6348     		ldr	r0, .L55
  98              	@ 262 "./os/ports/GCC/ARMCMx/crt0.c" 1
  99 0004 80F30988 		msr     PSP, r0
 100              	@ 0 "" 2
 101              	.LVL1:
 102              		.loc 1 282 0
 103              		.thumb
 104 0008 0223     		movs	r3, #2
 105              	@ 282 "./os/ports/GCC/ARMCMx/crt0.c" 1
ARM GAS  /tmp/ccrjHJbD.s 			page 3


 106 000a 83F31488 		msr     CONTROL, r3
 107              	@ 0 "" 2
 108              		.loc 1 283 0
 109              	@ 283 "./os/ports/GCC/ARMCMx/crt0.c" 1
 110 000e BFF36F8F 		isb
 111              	@ 0 "" 2
 112              	.LVL2:
 113              		.thumb
 114              	.LBB2:
 115              		.loc 1 287 0
 116 0012 604A     		ldr	r2, .L55+4
 117 0014 604C     		ldr	r4, .L55+8
 118 0016 A242     		cmp	r2, r4
 119 0018 17D2     		bcs	.L6
 120 001a 1346     		mov	r3, r2
 121 001c 4FF05531 		mov	r1, #1431655765
 122 0020 43F8041B 		str	r1, [r3], #4
 123              	.LVL3:
 124 0024 D643     		mvns	r6, r2
 125 0026 A519     		adds	r5, r4, r6
 126 0028 A342     		cmp	r3, r4
 127 002a C5F38005 		ubfx	r5, r5, #2, #1
 128 002e 0CD2     		bcs	.L6
 129 0030 25B1     		cbz	r5, .L7
 130 0032 1960     		str	r1, [r3, #0]
 131 0034 02F10803 		add	r3, r2, #8
 132 0038 A342     		cmp	r3, r4
 133 003a 06D2     		bcs	.L6
 134              	.LVL4:
 135              	.L7:
 136              		.loc 1 287 0 is_stmt 0 discriminator 2
 137 003c 1A46     		mov	r2, r3
 138 003e 42F8041B 		str	r1, [r2], #4
 139              	.LVL5:
 140 0042 5960     		str	r1, [r3, #4]
 141 0044 131D     		adds	r3, r2, #4
 142 0046 A342     		cmp	r3, r4
 143 0048 F8D3     		bcc	.L7
 144              	.LVL6:
 145              	.L6:
 146              	.LBE2:
 147              	.LBB3:
 148              		.loc 1 290 0 is_stmt 1 discriminator 1
 149 004a 544A     		ldr	r2, .L55+12
 150 004c 8242     		cmp	r2, r0
 151 004e 17D2     		bcs	.L8
 152              		.loc 1 290 0 is_stmt 0
 153 0050 1346     		mov	r3, r2
 154 0052 4FF05531 		mov	r1, #1431655765
 155 0056 43F8041B 		str	r1, [r3], #4
 156              	.LVL7:
 157 005a D543     		mvns	r5, r2
 158 005c 4419     		adds	r4, r0, r5
 159 005e 8342     		cmp	r3, r0
 160 0060 C4F38004 		ubfx	r4, r4, #2, #1
 161 0064 0CD2     		bcs	.L8
 162 0066 24B1     		cbz	r4, .L9
ARM GAS  /tmp/ccrjHJbD.s 			page 4


 163 0068 1960     		str	r1, [r3, #0]
 164 006a 02F10803 		add	r3, r2, #8
 165 006e 8342     		cmp	r3, r0
 166 0070 06D2     		bcs	.L8
 167              	.LVL8:
 168              	.L9:
 169              		.loc 1 290 0 discriminator 2
 170 0072 1E46     		mov	r6, r3
 171 0074 46F8041B 		str	r1, [r6], #4
 172              	.LVL9:
 173 0078 5960     		str	r1, [r3, #4]
 174 007a 331D     		adds	r3, r6, #4
 175 007c 8342     		cmp	r3, r0
 176 007e F8D3     		bcc	.L9
 177              	.LVL10:
 178              	.L8:
 179              	.LBE3:
 180              		.loc 1 296 0 is_stmt 1
 181 0080 FFF7FEFF 		bl	__early_init
 182              	.LVL11:
 183              	.LBB4:
 184              		.loc 1 305 0
 185 0084 464C     		ldr	r4, .L55+16
 186 0086 4749     		ldr	r1, .L55+20
 187 0088 A142     		cmp	r1, r4
 188 008a 22D2     		bcs	.L10
 189 008c 4648     		ldr	r0, .L55+24
 190              		.loc 1 306 0
 191 008e 0246     		mov	r2, r0
 192 0090 0B46     		mov	r3, r1
 193 0092 52F8046B 		ldr	r6, [r2], #4
 194 0096 43F8046B 		str	r6, [r3], #4
 195              	.LVL12:
 196 009a CD43     		mvns	r5, r1
 197 009c 04EB050C 		add	ip, r4, r5
 198              		.loc 1 305 0
 199 00a0 A342     		cmp	r3, r4
 200 00a2 CCF38005 		ubfx	r5, ip, #2, #1
 201 00a6 14D2     		bcs	.L10
 202 00a8 3DB1     		cbz	r5, .L11
 203              		.loc 1 306 0
 204 00aa 1668     		ldr	r6, [r2, #0]
 205 00ac 1E60     		str	r6, [r3, #0]
 206 00ae 01F10803 		add	r3, r1, #8
 207              		.loc 1 305 0
 208 00b2 A342     		cmp	r3, r4
 209              		.loc 1 306 0
 210 00b4 00F10802 		add	r2, r0, #8
 211              		.loc 1 305 0
 212 00b8 0BD2     		bcs	.L10
 213              	.LVL13:
 214              	.L11:
 215              		.loc 1 306 0
 216 00ba 1146     		mov	r1, r2
 217 00bc 1846     		mov	r0, r3
 218 00be 51F8045B 		ldr	r5, [r1], #4
 219 00c2 5268     		ldr	r2, [r2, #4]
ARM GAS  /tmp/ccrjHJbD.s 			page 5


 220 00c4 40F8045B 		str	r5, [r0], #4
 221              	.LVL14:
 222 00c8 5A60     		str	r2, [r3, #4]
 223 00ca 031D     		adds	r3, r0, #4
 224 00cc 0A1D     		adds	r2, r1, #4
 225              		.loc 1 305 0
 226 00ce A342     		cmp	r3, r4
 227 00d0 F3D3     		bcc	.L11
 228              	.LVL15:
 229              	.L10:
 230              	.LBE4:
 231              	.LBB5:
 232              		.loc 1 312 0 discriminator 1
 233 00d2 364A     		ldr	r2, .L55+28
 234 00d4 3648     		ldr	r0, .L55+32
 235 00d6 8242     		cmp	r2, r0
 236 00d8 17D2     		bcs	.L12
 237              		.loc 1 312 0 is_stmt 0
 238 00da 1346     		mov	r3, r2
 239 00dc 0021     		movs	r1, #0
 240 00de 43F8041B 		str	r1, [r3], #4
 241              	.LVL16:
 242 00e2 D443     		mvns	r4, r2
 243 00e4 00EB040E 		add	lr, r0, r4
 244 00e8 8342     		cmp	r3, r0
 245 00ea CEF38004 		ubfx	r4, lr, #2, #1
 246 00ee 0CD2     		bcs	.L12
 247 00f0 24B1     		cbz	r4, .L13
 248 00f2 1960     		str	r1, [r3, #0]
 249 00f4 02F10803 		add	r3, r2, #8
 250 00f8 8342     		cmp	r3, r0
 251 00fa 06D2     		bcs	.L12
 252              	.LVL17:
 253              	.L13:
 254              		.loc 1 312 0 discriminator 2
 255 00fc 1E46     		mov	r6, r3
 256 00fe 46F8041B 		str	r1, [r6], #4
 257              	.LVL18:
 258 0102 5960     		str	r1, [r3, #4]
 259 0104 331D     		adds	r3, r6, #4
 260 0106 8342     		cmp	r3, r0
 261 0108 F8D3     		bcc	.L13
 262              	.LVL19:
 263              	.L12:
 264              	.LBE5:
 265              	.LBB6:
 266              		.loc 1 322 0 is_stmt 1
 267 010a 2A4D     		ldr	r5, .L55+36
 268 010c 2A4E     		ldr	r6, .L55+40
 269              	.LBE6:
 270              		.loc 1 316 0
 271 010e FFF7FEFF 		bl	__late_init
 272              	.LVL20:
 273              	.LBB7:
 274              		.loc 1 322 0
 275 0112 B542     		cmp	r5, r6
 276 0114 19D2     		bcs	.L14
ARM GAS  /tmp/ccrjHJbD.s 			page 6


 277              		.loc 1 323 0
 278 0116 2C46     		mov	r4, r5
 279 0118 E943     		mvns	r1, r5
 280 011a 54F8043B 		ldr	r3, [r4], #4
 281 011e 7718     		adds	r7, r6, r1
 282 0120 9847     		blx	r3
 283              	.LVL21:
 284              		.loc 1 322 0
 285 0122 B442     		cmp	r4, r6
 286 0124 C7F38007 		ubfx	r7, r7, #2, #1
 287 0128 0FD2     		bcs	.L14
 288 012a 2FB1     		cbz	r7, .L15
 289              		.loc 1 323 0
 290 012c 2368     		ldr	r3, [r4, #0]
 291              		.loc 1 324 0
 292 012e 05F10804 		add	r4, r5, #8
 293              		.loc 1 323 0
 294 0132 9847     		blx	r3
 295              		.loc 1 322 0
 296 0134 B442     		cmp	r4, r6
 297 0136 08D2     		bcs	.L14
 298              	.LVL22:
 299              	.L15:
 300              		.loc 1 323 0
 301 0138 2546     		mov	r5, r4
 302 013a 55F8042B 		ldr	r2, [r5], #4
 303 013e 9047     		blx	r2
 304              	.LVL23:
 305 0140 6068     		ldr	r0, [r4, #4]
 306              		.loc 1 324 0
 307 0142 2C1D     		adds	r4, r5, #4
 308              		.loc 1 323 0
 309 0144 8047     		blx	r0
 310              		.loc 1 322 0
 311 0146 B442     		cmp	r4, r6
 312 0148 F6D3     		bcc	.L15
 313              	.LVL24:
 314              	.L14:
 315              	.LBE7:
 316              	.LBB8:
 317              		.loc 1 336 0
 318 014a 1C4D     		ldr	r5, .L55+44
 319 014c 1C4E     		ldr	r6, .L55+48
 320              	.LBE8:
 321              		.loc 1 330 0
 322 014e FFF7FEFF 		bl	main
 323              	.LVL25:
 324              	.LBB9:
 325              		.loc 1 336 0
 326 0152 B542     		cmp	r5, r6
 327 0154 1AD2     		bcs	.L16
 328              		.loc 1 337 0
 329 0156 2C46     		mov	r4, r5
 330 0158 EF43     		mvns	r7, r5
 331 015a 54F8043B 		ldr	r3, [r4], #4
 332 015e 06EB070C 		add	ip, r6, r7
 333 0162 CCF38007 		ubfx	r7, ip, #2, #1
ARM GAS  /tmp/ccrjHJbD.s 			page 7


 334 0166 9847     		blx	r3
 335              	.LVL26:
 336              		.loc 1 336 0
 337 0168 B442     		cmp	r4, r6
 338 016a 0FD2     		bcs	.L16
 339 016c 2FB1     		cbz	r7, .L17
 340              		.loc 1 337 0
 341 016e 2268     		ldr	r2, [r4, #0]
 342              		.loc 1 338 0
 343 0170 05F10804 		add	r4, r5, #8
 344              		.loc 1 337 0
 345 0174 9047     		blx	r2
 346              		.loc 1 336 0
 347 0176 B442     		cmp	r4, r6
 348 0178 08D2     		bcs	.L16
 349              	.LVL27:
 350              	.L17:
 351              		.loc 1 337 0
 352 017a 2546     		mov	r5, r4
 353 017c 55F8040B 		ldr	r0, [r5], #4
 354 0180 8047     		blx	r0
 355              	.LVL28:
 356 0182 6168     		ldr	r1, [r4, #4]
 357              		.loc 1 338 0
 358 0184 2C1D     		adds	r4, r5, #4
 359              		.loc 1 337 0
 360 0186 8847     		blx	r1
 361              		.loc 1 336 0
 362 0188 B442     		cmp	r4, r6
 363 018a F6D3     		bcc	.L17
 364              	.LVL29:
 365              	.L16:
 366              	.LBE9:
 367              		.loc 1 344 0
 368 018c FFF7FEFF 		bl	_default_exit
 369              		.loc 1 345 0
 370              	.L56:
 371              		.align	2
 372              	.L55:
 373 0190 00000000 		.word	__process_stack_end__
 374 0194 00000000 		.word	__main_stack_base__
 375 0198 00000000 		.word	__main_stack_end__
 376 019c 00000000 		.word	__process_stack_base__
 377 01a0 00000000 		.word	_edata
 378 01a4 00000000 		.word	_data
 379 01a8 00000000 		.word	_textdata
 380 01ac 00000000 		.word	_bss_start
 381 01b0 00000000 		.word	_bss_end
 382 01b4 00000000 		.word	__init_array_start
 383 01b8 00000000 		.word	__init_array_end
 384 01bc 00000000 		.word	__fini_array_start
 385 01c0 00000000 		.word	__fini_array_end
 386              		.cfi_endproc
 387              	.LFE10:
 388              		.size	ResetHandler, .-ResetHandler
 389 01c4 AFF30080 		.text
 389      AFF30080 
ARM GAS  /tmp/ccrjHJbD.s 			page 8


 389      AFF30080 
 390              	.Letext0:
 391              		.file 2 "/usr/bin/../lib/gcc/arm-none-eabi/4.6.2/../../../../arm-none-eabi/include/stdint.h"