ARM GAS  /tmp/ccQchNkJ.s 			page 1


   1              		.syntax unified
   2              		.cpu cortex-m4
   3              		.fpu softvfp
   4              		.eabi_attribute 20, 1
   5              		.eabi_attribute 21, 1
   6              		.eabi_attribute 23, 3
   7              		.eabi_attribute 24, 1
   8              		.eabi_attribute 25, 1
   9              		.eabi_attribute 26, 1
  10              		.eabi_attribute 30, 2
  11              		.eabi_attribute 34, 1
  12              		.eabi_attribute 18, 4
  13              		.thumb
  14              		.file	"hal.c"
  15              		.text
  16              	.Ltext0:
  17              		.cfi_sections	.debug_frame
  18              		.section	.text.halInit,"ax",%progbits
  19              		.align	2
  20              		.p2align 4,,15
  21              		.global	halInit
  22              		.thumb
  23              		.thumb_func
  24              		.type	halInit, %function
  25              	halInit:
  26              	.LFB117:
  27              		.file 1 "./os/hal/src/hal.c"
  28              		.loc 1 68 0
  29              		.cfi_startproc
  30              		@ args = 0, pretend = 0, frame = 0
  31              		@ frame_needed = 0, uses_anonymous_args = 0
  32 0000 08B5     		push	{r3, lr}
  33              	.LCFI0:
  34              		.cfi_def_cfa_offset 8
  35              		.cfi_offset 14, -4
  36              		.cfi_offset 3, -8
  37              		.loc 1 70 0
  38 0002 FFF7FEFF 		bl	hal_lld_init
  39              		.loc 1 76 0
  40 0006 40F20000 		movw	r0, #:lower16:pal_default_config
  41 000a C0F20000 		movt	r0, #:upper16:pal_default_config
  42 000e FFF7FEFF 		bl	_pal_lld_init
  43              		.loc 1 91 0
  44 0012 FFF7FEFF 		bl	i2cInit
  45              		.loc 1 103 0
  46 0016 FFF7FEFF 		bl	sdInit
  47              		.loc 1 109 0
  48 001a FFF7FEFF 		bl	spiInit
  49              		.loc 1 128 0
  50 001e BDE80840 		pop	{r3, lr}
  51              		.loc 1 127 0
  52 0022 FFF7FEBF 		b	boardInit
  53              		.cfi_endproc
  54              	.LFE117:
  55              		.size	halInit, .-halInit
  56 0026 00BFAFF3 		.section	.text.halIsCounterWithin,"ax",%progbits
  56      0080AFF3 
ARM GAS  /tmp/ccQchNkJ.s 			page 2


  56      0080
  57              		.align	2
  58              		.p2align 4,,15
  59              		.global	halIsCounterWithin
  60              		.thumb
  61              		.thumb_func
  62              		.type	halIsCounterWithin, %function
  63              	halIsCounterWithin:
  64              	.LFB118:
  65              		.loc 1 174 0
  66              		.cfi_startproc
  67              		@ args = 0, pretend = 0, frame = 0
  68              		@ frame_needed = 0, uses_anonymous_args = 0
  69              		@ link register save eliminated.
  70              	.LVL0:
  71              		.loc 1 175 0
  72 0000 4FF48053 		mov	r3, #4096
  73 0004 CEF20003 		movt	r3, 57344
  74              		.loc 1 177 0
  75 0008 8142     		cmp	r1, r0
  76              		.loc 1 175 0
  77 000a 5B68     		ldr	r3, [r3, #4]
  78              	.LVL1:
  79              		.loc 1 177 0
  80 000c 06D9     		bls	.L3
  81              		.loc 1 177 0 is_stmt 0 discriminator 1
  82 000e 8342     		cmp	r3, r0
  83 0010 08D3     		bcc	.L5
  84              	.L7:
  85              		.loc 1 177 0
  86 0012 8B42     		cmp	r3, r1
  87 0014 2CBF     		ite	cs
  88 0016 0020     		movcs	r0, #0
  89              	.LVL2:
  90 0018 0120     		movcc	r0, #1
  91 001a 7047     		bx	lr
  92              	.LVL3:
  93              	.L3:
  94              		.loc 1 177 0 discriminator 2
  95 001c 8342     		cmp	r3, r0
  96 001e F8D3     		bcc	.L7
  97              		.loc 1 177 0
  98 0020 0120     		movs	r0, #1
  99              	.LVL4:
 100              		.loc 1 179 0 is_stmt 1
 101 0022 7047     		bx	lr
 102              	.LVL5:
 103              	.L5:
 104              		.loc 1 177 0
 105 0024 0020     		movs	r0, #0
 106              	.LVL6:
 107 0026 7047     		bx	lr
 108              		.cfi_endproc
 109              	.LFE118:
 110              		.size	halIsCounterWithin, .-halIsCounterWithin
 111 0028 AFF30080 		.section	.text.halPolledDelay,"ax",%progbits
 111      AFF30080 
ARM GAS  /tmp/ccQchNkJ.s 			page 3


 112              		.align	2
 113              		.p2align 4,,15
 114              		.global	halPolledDelay
 115              		.thumb
 116              		.thumb_func
 117              		.type	halPolledDelay, %function
 118              	halPolledDelay:
 119              	.LFB119:
 120              		.loc 1 193 0
 121              		.cfi_startproc
 122              		@ args = 0, pretend = 0, frame = 0
 123              		@ frame_needed = 0, uses_anonymous_args = 0
 124              		@ link register save eliminated.
 125              	.LVL7:
 126              		.loc 1 194 0
 127 0000 4FF48053 		mov	r3, #4096
 128 0004 CEF20003 		movt	r3, 57344
 129 0008 5968     		ldr	r1, [r3, #4]
 130              	.LVL8:
 131              		.loc 1 195 0
 132 000a 4018     		adds	r0, r0, r1
 133              	.LVL9:
 134              	.L15:
 135              	.LBB4:
 136              	.LBB5:
 137              		.loc 1 177 0 discriminator 1
 138 000c 8142     		cmp	r1, r0
 139              		.loc 1 175 0 discriminator 1
 140 000e 5A68     		ldr	r2, [r3, #4]
 141              	.LVL10:
 142              		.loc 1 177 0 discriminator 1
 143 0010 02D2     		bcs	.L10
 144              		.loc 1 177 0 is_stmt 0
 145 0012 9142     		cmp	r1, r2
 146 0014 05D9     		bls	.L16
 147 0016 7047     		bx	lr
 148              	.L10:
 149 0018 9142     		cmp	r1, r2
 150 001a F7D9     		bls	.L15
 151              		.loc 1 178 0 is_stmt 1
 152 001c 9042     		cmp	r0, r2
 153 001e F5D8     		bhi	.L15
 154 0020 7047     		bx	lr
 155              	.L16:
 156              		.loc 1 177 0
 157 0022 9042     		cmp	r0, r2
 158 0024 F2D8     		bhi	.L15
 159 0026 7047     		bx	lr
 160              	.LBE5:
 161              	.LBE4:
 162              		.cfi_endproc
 163              	.LFE119:
 164              		.size	halPolledDelay, .-halPolledDelay
 165 0028 AFF30080 		.text
 165      AFF30080 
 166              	.Letext0:
 167              		.file 2 "/usr/bin/../lib/gcc/arm-none-eabi/4.6.2/../../../../arm-none-eabi/include/stdint.h"
ARM GAS  /tmp/ccQchNkJ.s 			page 4


 168              		.file 3 "./os/ports/GCC/ARMCMx/chtypes.h"
 169              		.file 4 "./os/ports/common/ARMCMx/nvic.h"
 170              		.file 5 "./os/hal/platforms/STM32F4xx/hal_lld.h"
 171              		.file 6 "./os/hal/platforms/STM32/GPIOv2/pal_lld.h"
 172              		.file 7 "./os/ports/common/ARMCMx/CMSIS/include/core_cm4.h"