ARM GAS  /tmp/ccoTvsNi.s 			page 1


   1              		.syntax unified
   2              		.cpu cortex-m4
   3              		.fpu softvfp
   4              		.eabi_attribute 20, 1
   5              		.eabi_attribute 21, 1
   6              		.eabi_attribute 23, 3
   7              		.eabi_attribute 24, 1
   8              		.eabi_attribute 25, 1
   9              		.eabi_attribute 26, 1
  10              		.eabi_attribute 30, 2
  11              		.eabi_attribute 34, 1
  12              		.eabi_attribute 18, 4
  13              		.thumb
  14              		.file	"i2c_lld.c"
  15              		.text
  16              	.Ltext0:
  17              		.cfi_sections	.debug_frame
  18              		.section	.text.i2c_lld_abort_operation,"ax",%progbits
  19              		.align	2
  20              		.p2align 4,,15
  21              		.thumb
  22              		.thumb_func
  23              		.type	i2c_lld_abort_operation, %function
  24              	i2c_lld_abort_operation:
  25              	.LFB117:
  26              		.file 1 "./os/hal/platforms/STM32/i2c_lld.c"
  27              		.loc 1 151 0
  28              		.cfi_startproc
  29              		@ args = 0, pretend = 0, frame = 0
  30              		@ frame_needed = 0, uses_anonymous_args = 0
  31              		@ link register save eliminated.
  32              	.LVL0:
  33 0000 30B4     		push	{r4, r5}
  34              	.LCFI0:
  35              		.cfi_def_cfa_offset 8
  36              		.cfi_offset 5, -4
  37              		.cfi_offset 4, -8
  38              		.loc 1 161 0
  39 0002 C46A     		ldr	r4, [r0, #44]
  40              		.loc 1 152 0
  41 0004 036B     		ldr	r3, [r0, #48]
  42              	.LVL1:
  43              		.loc 1 161 0
  44 0006 2268     		ldr	r2, [r4, #0]
  45              		.loc 1 156 0
  46 0008 0021     		movs	r1, #0
  47              		.loc 1 155 0
  48 000a 4FF40045 		mov	r5, #32768
  49 000e 1D80     		strh	r5, [r3, #0]	@ movhi
  50              		.loc 1 156 0
  51 0010 1980     		strh	r1, [r3, #0]	@ movhi
  52              		.loc 1 157 0
  53 0012 9980     		strh	r1, [r3, #4]	@ movhi
  54              		.loc 1 158 0
  55 0014 9982     		strh	r1, [r3, #20]	@ movhi
  56              		.loc 1 161 0
  57 0016 1168     		ldr	r1, [r2, #0]
ARM GAS  /tmp/ccoTvsNi.s 			page 2


  58 0018 21F00103 		bic	r3, r1, #1
  59 001c 1360     		str	r3, [r2, #0]
  60              	.L2:
  61              		.loc 1 161 0 is_stmt 0 discriminator 1
  62 001e 1168     		ldr	r1, [r2, #0]
  63 0020 C907     		lsls	r1, r1, #31
  64 0022 FCD4     		bmi	.L2
  65              		.loc 1 162 0 is_stmt 1 discriminator 2
  66 0024 816A     		ldr	r1, [r0, #40]
  67              		.loc 1 161 0 discriminator 2
  68 0026 257A     		ldrb	r5, [r4, #8]	@ zero_extendqisi2
  69 0028 6368     		ldr	r3, [r4, #4]
  70              		.loc 1 162 0 discriminator 2
  71 002a 0A68     		ldr	r2, [r1, #0]
  72              		.loc 1 161 0 discriminator 2
  73 002c 3D20     		movs	r0, #61
  74              	.LVL2:
  75 002e 00FA05F0 		lsl	r0, r0, r5
  76 0032 1860     		str	r0, [r3, #0]
  77              		.loc 1 162 0 discriminator 2
  78 0034 1368     		ldr	r3, [r2, #0]
  79 0036 23F00100 		bic	r0, r3, #1
  80 003a 1060     		str	r0, [r2, #0]
  81              	.L3:
  82              		.loc 1 162 0 is_stmt 0 discriminator 1
  83 003c 1368     		ldr	r3, [r2, #0]
  84 003e DB07     		lsls	r3, r3, #31
  85 0040 FCD4     		bmi	.L3
  86              		.loc 1 162 0 discriminator 2
  87 0042 0B7A     		ldrb	r3, [r1, #8]	@ zero_extendqisi2
  88 0044 4868     		ldr	r0, [r1, #4]
  89 0046 3D21     		movs	r1, #61
  90 0048 01FA03F2 		lsl	r2, r1, r3
  91 004c 0260     		str	r2, [r0, #0]
  92              		.loc 1 163 0 is_stmt 1 discriminator 2
  93 004e 30BC     		pop	{r4, r5}
  94 0050 7047     		bx	lr
  95              		.cfi_endproc
  96              	.LFE117:
  97              		.size	i2c_lld_abort_operation, .-i2c_lld_abort_operation
  98 0052 00BFAFF3 		.section	.text.i2c_lld_safety_timeout,"ax",%progbits
  98      0080AFF3 
  98      0080AFF3 
  98      0080
  99              		.align	2
 100              		.p2align 4,,15
 101              		.thumb
 102              		.thumb_func
 103              		.type	i2c_lld_safety_timeout, %function
 104              	i2c_lld_safety_timeout:
 105              	.LFB118:
 106              		.loc 1 172 0
 107              		.cfi_startproc
 108              		@ args = 0, pretend = 0, frame = 0
 109              		@ frame_needed = 0, uses_anonymous_args = 0
 110              	.LVL3:
 111 0000 38B5     		push	{r3, r4, r5, lr}
ARM GAS  /tmp/ccoTvsNi.s 			page 3


 112              	.LCFI1:
 113              		.cfi_def_cfa_offset 16
 114              		.cfi_offset 14, -4
 115              		.cfi_offset 5, -8
 116              		.cfi_offset 4, -12
 117              		.cfi_offset 3, -16
 118              		.loc 1 175 0
 119 0002 C469     		ldr	r4, [r0, #28]
 120              		.loc 1 172 0
 121 0004 0546     		mov	r5, r0
 122              	.LVL4:
 123              		.loc 1 175 0
 124 0006 5CB1     		cbz	r4, .L7
 125              	.LVL5:
 126              	.LBB15:
 127              		.loc 1 177 0
 128 0008 FFF7FEFF 		bl	i2c_lld_abort_operation
 129              	.LVL6:
 130              		.loc 1 178 0
 131 000c 0020     		movs	r0, #0
 132 000e E861     		str	r0, [r5, #28]
 133              		.loc 1 179 0
 134 0010 4FF0FF33 		mov	r3, #-1
 135              		.loc 1 180 0
 136 0014 2046     		mov	r0, r4
 137              		.loc 1 179 0
 138 0016 6362     		str	r3, [r4, #36]
 139              	.LBE15:
 140              		.loc 1 182 0
 141 0018 BDE83840 		pop	{r3, r4, r5, lr}
 142              	.LBB16:
 143              		.loc 1 180 0
 144 001c FFF7FEBF 		b	chSchReadyI
 145              	.LVL7:
 146              	.L7:
 147 0020 38BD     		pop	{r3, r4, r5, pc}
 148              	.LBE16:
 149              		.cfi_endproc
 150              	.LFE118:
 151              		.size	i2c_lld_safety_timeout, .-i2c_lld_safety_timeout
 152 0022 00BFAFF3 		.section	.text.i2c_lld_serve_tx_end_irq,"ax",%progbits
 152      0080AFF3 
 152      0080AFF3 
 152      0080
 153              		.align	2
 154              		.p2align 4,,15
 155              		.thumb
 156              		.thumb_func
 157              		.type	i2c_lld_serve_tx_end_irq, %function
 158              	i2c_lld_serve_tx_end_irq:
 159              	.LFB123:
 160              		.loc 1 378 0
 161              		.cfi_startproc
 162              		@ args = 0, pretend = 0, frame = 0
 163              		@ frame_needed = 0, uses_anonymous_args = 0
 164              	.LVL8:
 165              		.loc 1 383 0
ARM GAS  /tmp/ccoTvsNi.s 			page 4


 166 0000 11F00C0F 		tst	r1, #12
 167              		.loc 1 378 0
 168 0004 38B5     		push	{r3, r4, r5, lr}
 169              	.LCFI2:
 170              		.cfi_def_cfa_offset 16
 171              		.cfi_offset 14, -4
 172              		.cfi_offset 5, -8
 173              		.cfi_offset 4, -12
 174              		.cfi_offset 3, -16
 175              		.loc 1 378 0
 176 0006 0446     		mov	r4, r0
 177              		.loc 1 379 0
 178 0008 056B     		ldr	r5, [r0, #48]
 179              	.LVL9:
 180              		.loc 1 383 0
 181 000a 15D1     		bne	.L13
 182              	.LVL10:
 183              	.L10:
 184              		.loc 1 390 0
 185 000c E16A     		ldr	r1, [r4, #44]
 186 000e 0A68     		ldr	r2, [r1, #0]
 187 0010 1068     		ldr	r0, [r2, #0]
 188 0012 20F00103 		bic	r3, r0, #1
 189 0016 1360     		str	r3, [r2, #0]
 190              	.L11:
 191              		.loc 1 390 0 is_stmt 0 discriminator 1
 192 0018 1368     		ldr	r3, [r2, #0]
 193 001a D807     		lsls	r0, r3, #31
 194 001c FCD4     		bmi	.L11
 195              		.loc 1 390 0 discriminator 2
 196 001e 91F808C0 		ldrb	ip, [r1, #8]	@ zero_extendqisi2
 197 0022 4B68     		ldr	r3, [r1, #4]
 198 0024 3D22     		movs	r2, #61
 199 0026 02FA0CF1 		lsl	r1, r2, ip
 200 002a 1960     		str	r1, [r3, #0]
 201              		.loc 1 394 0 is_stmt 1 discriminator 2
 202 002c A888     		ldrh	r0, [r5, #4]
 203 002e 82B2     		uxth	r2, r0
 204 0030 42F40071 		orr	r1, r2, #512
 205 0034 A980     		strh	r1, [r5, #4]	@ movhi
 206              		.loc 1 395 0 discriminator 2
 207 0036 38BD     		pop	{r3, r4, r5, pc}
 208              	.LVL11:
 209              	.L13:
 210              		.loc 1 384 0
 211 0038 FFF7FEFF 		bl	port_halt
 212              	.LVL12:
 213 003c E6E7     		b	.L10
 214              		.cfi_endproc
 215              	.LFE123:
 216              		.size	i2c_lld_serve_tx_end_irq, .-i2c_lld_serve_tx_end_irq
 217 003e 00BF     		.section	.text.i2c_lld_serve_rx_end_irq,"ax",%progbits
 218              		.align	2
 219              		.p2align 4,,15
 220              		.thumb
 221              		.thumb_func
 222              		.type	i2c_lld_serve_rx_end_irq, %function
ARM GAS  /tmp/ccoTvsNi.s 			page 5


 223              	i2c_lld_serve_rx_end_irq:
 224              	.LFB122:
 225              		.loc 1 351 0
 226              		.cfi_startproc
 227              		@ args = 0, pretend = 0, frame = 0
 228              		@ frame_needed = 0, uses_anonymous_args = 0
 229              	.LVL13:
 230              		.loc 1 356 0
 231 0000 11F00C0F 		tst	r1, #12
 232              		.loc 1 351 0
 233 0004 38B5     		push	{r3, r4, r5, lr}
 234              	.LCFI3:
 235              		.cfi_def_cfa_offset 16
 236              		.cfi_offset 14, -4
 237              		.cfi_offset 5, -8
 238              		.cfi_offset 4, -12
 239              		.cfi_offset 3, -16
 240              		.loc 1 351 0
 241 0006 0446     		mov	r4, r0
 242              		.loc 1 352 0
 243 0008 056B     		ldr	r5, [r0, #48]
 244              	.LVL14:
 245              		.loc 1 356 0
 246 000a 2FD1     		bne	.L19
 247              	.LVL15:
 248              	.L15:
 249              		.loc 1 363 0
 250 000c A16A     		ldr	r1, [r4, #40]
 251 000e 0B68     		ldr	r3, [r1, #0]
 252 0010 1868     		ldr	r0, [r3, #0]
 253 0012 20F00102 		bic	r2, r0, #1
 254 0016 1A60     		str	r2, [r3, #0]
 255              	.L16:
 256              		.loc 1 363 0 is_stmt 0 discriminator 1
 257 0018 1A68     		ldr	r2, [r3, #0]
 258 001a 12F00102 		ands	r2, r2, #1
 259 001e FBD1     		bne	.L16
 260              		.loc 1 363 0 discriminator 2
 261 0020 087A     		ldrb	r0, [r1, #8]	@ zero_extendqisi2
 262 0022 4B68     		ldr	r3, [r1, #4]
 263 0024 3D21     		movs	r1, #61
 264 0026 01FA00F1 		lsl	r1, r1, r0
 265 002a 1960     		str	r1, [r3, #0]
 266              		.loc 1 365 0 is_stmt 1 discriminator 2
 267 002c B5F804C0 		ldrh	ip, [r5, #4]
 268 0030 2CF48050 		bic	r0, ip, #4096
 269 0034 0104     		lsls	r1, r0, #16
 270 0036 0B0C     		lsrs	r3, r1, #16
 271 0038 AB80     		strh	r3, [r5, #4]	@ movhi
 272              		.loc 1 366 0 discriminator 2
 273 003a B5F800C0 		ldrh	ip, [r5, #0]
 274 003e 2CF48060 		bic	r0, ip, #1024
 275 0042 0104     		lsls	r1, r0, #16
 276 0044 0B0C     		lsrs	r3, r1, #16
 277 0046 2B80     		strh	r3, [r5, #0]	@ movhi
 278              		.loc 1 367 0 discriminator 2
 279 0048 2888     		ldrh	r0, [r5, #0]
ARM GAS  /tmp/ccoTvsNi.s 			page 6


 280 004a 81B2     		uxth	r1, r0
 281 004c 41F40073 		orr	r3, r1, #512
 282 0050 2B80     		strh	r3, [r5, #0]	@ movhi
 283              	.LBB17:
 284              		.loc 1 368 0 discriminator 2
 285 0052 2023     		movs	r3, #32
 286              	.LVL16:
 287              	@ 368 "./os/hal/platforms/STM32/i2c_lld.c" 1
 288 0054 83F31188 		msr     BASEPRI, r3
 289              	@ 0 "" 2
 290              	.LVL17:
 291              		.thumb
 292              	.LBE17:
 293 0058 E069     		ldr	r0, [r4, #28]
 294 005a 18B1     		cbz	r0, .L17
 295              	.LVL18:
 296              	.LBB18:
 297              		.loc 1 368 0 is_stmt 0 discriminator 1
 298 005c E261     		str	r2, [r4, #28]
 299 005e 4262     		str	r2, [r0, #36]
 300 0060 FFF7FEFF 		bl	chSchReadyI
 301              	.LVL19:
 302              	.L17:
 303              	.LBE18:
 304              	.LBB19:
 305              		.loc 1 368 0 discriminator 2
 306 0064 0023     		movs	r3, #0
 307              	.LVL20:
 308              	@ 368 "./os/hal/platforms/STM32/i2c_lld.c" 1
 309 0066 83F31188 		msr     BASEPRI, r3
 310              	@ 0 "" 2
 311              	.LVL21:
 312              		.thumb
 313              	.LBE19:
 314              		.loc 1 369 0 is_stmt 1 discriminator 2
 315 006a 38BD     		pop	{r3, r4, r5, pc}
 316              	.LVL22:
 317              	.L19:
 318              		.loc 1 357 0
 319 006c FFF7FEFF 		bl	port_halt
 320              	.LVL23:
 321 0070 CCE7     		b	.L15
 322              		.cfi_endproc
 323              	.LFE122:
 324              		.size	i2c_lld_serve_rx_end_irq, .-i2c_lld_serve_rx_end_irq
 325 0072 00BFAFF3 		.section	.text.VectorBC,"ax",%progbits
 325      0080AFF3 
 325      0080AFF3 
 325      0080
 326              		.align	2
 327              		.p2align 4,,15
 328              		.global	VectorBC
 329              		.thumb
 330              		.thumb_func
 331              		.type	VectorBC, %function
 332              	VectorBC:
 333              	.LFB125:
ARM GAS  /tmp/ccoTvsNi.s 			page 7


 334              		.loc 1 464 0
 335              		.cfi_startproc
 336              		@ args = 0, pretend = 0, frame = 0
 337              		@ frame_needed = 0, uses_anonymous_args = 0
 338              	.LVL24:
 339 0000 38B5     		push	{r3, r4, r5, lr}
 340              	.LCFI4:
 341              		.cfi_def_cfa_offset 16
 342              		.cfi_offset 14, -4
 343              		.cfi_offset 5, -8
 344              		.cfi_offset 4, -12
 345              		.cfi_offset 3, -16
 346              	.LBB25:
 347              	.LBB26:
 348              		.loc 1 301 0
 349 0002 3E4A     		ldr	r2, .L31
 350 0004 146B     		ldr	r4, [r2, #48]
 351              	.LVL25:
 352              		.loc 1 302 0
 353 0006 208B     		ldrh	r0, [r4, #24]
 354              	.LVL26:
 355              		.loc 1 303 0
 356 0008 A58A     		ldrh	r5, [r4, #20]
 357 000a ADB2     		uxth	r5, r5
 358              	.LVL27:
 359              		.loc 1 308 0
 360 000c 0223     		movs	r3, #2
 361 000e 45EA0041 		orr	r1, r5, r0, lsl #16
 362 0012 21F07F41 		bic	r1, r1, #-16777216
 363 0016 C0F20303 		movt	r3, 3
 364 001a 9942     		cmp	r1, r3
 365 001c 45D0     		beq	.L23
 366 001e 0ED8     		bhi	.L26
 367 0020 0123     		movs	r3, #1
 368 0022 C0F20303 		movt	r3, 3
 369 0026 9942     		cmp	r1, r3
 370 0028 01D1     		bne	.L21
 371              		.loc 1 310 0
 372 002a 138C     		ldrh	r3, [r2, #32]
 373 002c 2382     		strh	r3, [r4, #16]	@ movhi
 374              	.LVL28:
 375              	.L21:
 376              		.loc 1 339 0
 377 002e 15F00A0F 		tst	r5, #10
 378              		.loc 1 340 0
 379 0032 18BF     		it	ne
 380 0034 238B     		ldrhne	r3, [r4, #24]
 381              	.LVL29:
 382              	.L28:
 383              	.LBE26:
 384              	.LBE25:
 385              		.loc 1 471 0
 386 0036 BDE83840 		pop	{r3, r4, r5, lr}
 387              		.loc 1 470 0
 388 003a FFF7FEBF 		b	_port_irq_epilogue
 389              	.LVL30:
 390              	.L26:
ARM GAS  /tmp/ccoTvsNi.s 			page 8


 391              	.LBB31:
 392              	.LBB30:
 393              		.loc 1 308 0
 394 003e 8223     		movs	r3, #130
 395 0040 C0F20703 		movt	r3, 7
 396 0044 9942     		cmp	r1, r3
 397 0046 23D0     		beq	.L24
 398 0048 8423     		movs	r3, #132
 399 004a C0F20703 		movt	r3, 7
 400 004e 9942     		cmp	r1, r3
 401 0050 EDD1     		bne	.L21
 402              		.loc 1 325 0
 403 0052 936A     		ldr	r3, [r2, #40]
 404 0054 1868     		ldr	r0, [r3, #0]
 405              	.LVL31:
 406 0056 4168     		ldr	r1, [r0, #4]
 407 0058 0029     		cmp	r1, #0
 408 005a 43D1     		bne	.L30
 409              		.loc 1 331 0
 410 005c B4F804C0 		ldrh	ip, [r4, #4]
 411 0060 2CF40070 		bic	r0, ip, #512
 412 0064 0304     		lsls	r3, r0, #16
 413 0066 180C     		lsrs	r0, r3, #16
 414 0068 A080     		strh	r0, [r4, #4]	@ movhi
 415              		.loc 1 332 0
 416 006a 2388     		ldrh	r3, [r4, #0]
 417 006c 1FFA83FC 		uxth	ip, r3
 418 0070 4CF40070 		orr	r0, ip, #512
 419 0074 2080     		strh	r0, [r4, #0]	@ movhi
 420              	.LBB27:
 421              		.loc 1 333 0
 422 0076 2023     		movs	r3, #32
 423              	.LVL32:
 424              	@ 333 "./os/hal/platforms/STM32/i2c_lld.c" 1
 425 0078 83F31188 		msr     BASEPRI, r3
 426              	@ 0 "" 2
 427              	.LVL33:
 428              		.thumb
 429              	.LBE27:
 430 007c D069     		ldr	r0, [r2, #28]
 431 007e 18B1     		cbz	r0, .L29
 432              	.LVL34:
 433              	.LBB28:
 434 0080 D161     		str	r1, [r2, #28]
 435 0082 4162     		str	r1, [r0, #36]
 436 0084 FFF7FEFF 		bl	chSchReadyI
 437              	.LVL35:
 438              	.L29:
 439              	.LBE28:
 440              	.LBB29:
 441 0088 0023     		movs	r3, #0
 442              	.LVL36:
 443              	@ 333 "./os/hal/platforms/STM32/i2c_lld.c" 1
 444 008a 83F31188 		msr     BASEPRI, r3
 445              	@ 0 "" 2
 446              	.LVL37:
 447              		.thumb
ARM GAS  /tmp/ccoTvsNi.s 			page 9


 448 008e CEE7     		b	.L21
 449              	.LVL38:
 450              	.L24:
 451              	.LBE29:
 452              		.loc 1 320 0
 453 0090 A188     		ldrh	r1, [r4, #4]
 454              		.loc 1 321 0
 455 0092 D06A     		ldr	r0, [r2, #44]
 456              	.LVL39:
 457              		.loc 1 320 0
 458 0094 21F40073 		bic	r3, r1, #512
 459 0098 1904     		lsls	r1, r3, #16
 460              		.loc 1 321 0
 461 009a 0068     		ldr	r0, [r0, #0]
 462              		.loc 1 320 0
 463 009c 0A0C     		lsrs	r2, r1, #16
 464 009e A280     		strh	r2, [r4, #4]	@ movhi
 465              		.loc 1 321 0
 466 00a0 0368     		ldr	r3, [r0, #0]
 467 00a2 43F00103 		orr	r3, r3, #1
 468 00a6 0360     		str	r3, [r0, #0]
 469 00a8 C1E7     		b	.L21
 470              	.LVL40:
 471              	.L23:
 472              		.loc 1 313 0
 473 00aa A088     		ldrh	r0, [r4, #4]
 474              	.LVL41:
 475              		.loc 1 314 0
 476 00ac 926A     		ldr	r2, [r2, #40]
 477              		.loc 1 313 0
 478 00ae 20F40071 		bic	r1, r0, #512
 479 00b2 0B04     		lsls	r3, r1, #16
 480              		.loc 1 314 0
 481 00b4 1268     		ldr	r2, [r2, #0]
 482              		.loc 1 313 0
 483 00b6 180C     		lsrs	r0, r3, #16
 484 00b8 A080     		strh	r0, [r4, #4]	@ movhi
 485              		.loc 1 314 0
 486 00ba 1168     		ldr	r1, [r2, #0]
 487 00bc 41F00103 		orr	r3, r1, #1
 488 00c0 1360     		str	r3, [r2, #0]
 489              		.loc 1 315 0
 490 00c2 B4F804C0 		ldrh	ip, [r4, #4]
 491 00c6 1FFA8CF0 		uxth	r0, ip
 492 00ca 40F48051 		orr	r1, r0, #4096
 493 00ce A180     		strh	r1, [r4, #4]	@ movhi
 494              		.loc 1 316 0
 495 00d0 5368     		ldr	r3, [r2, #4]
 496 00d2 012B     		cmp	r3, #1
 497 00d4 ABD8     		bhi	.L21
 498              		.loc 1 317 0
 499 00d6 2188     		ldrh	r1, [r4, #0]
 500 00d8 21F48062 		bic	r2, r1, #1024
 501 00dc 1304     		lsls	r3, r2, #16
 502 00de 1B0C     		lsrs	r3, r3, #16
 503 00e0 2380     		strh	r3, [r4, #0]	@ movhi
 504 00e2 A4E7     		b	.L21
ARM GAS  /tmp/ccoTvsNi.s 			page 10


 505              	.L30:
 506              		.loc 1 327 0
 507 00e4 138C     		ldrh	r3, [r2, #32]
 508 00e6 43F0010C 		orr	ip, r3, #1
 509 00ea A2F820C0 		strh	ip, [r2, #32]	@ movhi
 510              		.loc 1 328 0
 511 00ee 2088     		ldrh	r0, [r4, #0]
 512 00f0 81B2     		uxth	r1, r0
 513 00f2 41F4A062 		orr	r2, r1, #1280
 514 00f6 2280     		strh	r2, [r4, #0]	@ movhi
 515 00f8 9DE7     		b	.L28
 516              	.L32:
 517 00fa 00BF     		.align	2
 518              	.L31:
 519 00fc 00000000 		.word	.LANCHOR0
 520              	.LBE30:
 521              	.LBE31:
 522              		.cfi_endproc
 523              	.LFE125:
 524              		.size	VectorBC, .-VectorBC
 525              		.section	.text.VectorC0,"ax",%progbits
 526              		.align	2
 527              		.p2align 4,,15
 528              		.global	VectorC0
 529              		.thumb
 530              		.thumb_func
 531              		.type	VectorC0, %function
 532              	VectorC0:
 533              	.LFB126:
 534              		.loc 1 476 0
 535              		.cfi_startproc
 536              		@ args = 0, pretend = 0, frame = 0
 537              		@ frame_needed = 0, uses_anonymous_args = 0
 538              	.LVL42:
 539              	.LBB39:
 540              	.LBB40:
 541              		.loc 1 405 0
 542 0000 5049     		ldr	r1, .L50
 543              	.LBE40:
 544              	.LBE39:
 545              		.loc 1 476 0
 546 0002 70B5     		push	{r4, r5, r6, lr}
 547              	.LCFI5:
 548              		.cfi_def_cfa_offset 16
 549              		.cfi_offset 14, -4
 550              		.cfi_offset 6, -8
 551              		.cfi_offset 5, -12
 552              		.cfi_offset 4, -16
 553              	.LBB48:
 554              	.LBB46:
 555              		.loc 1 405 0
 556 0004 0A6B     		ldr	r2, [r1, #48]
 557              	.LVL43:
 558              	.LBB41:
 559              		.loc 1 409 0
 560 0006 2023     		movs	r3, #32
 561              	.LVL44:
ARM GAS  /tmp/ccoTvsNi.s 			page 11


 562              	@ 409 "./os/hal/platforms/STM32/i2c_lld.c" 1
 563 0008 83F31188 		msr     BASEPRI, r3
 564              	@ 0 "" 2
 565              	.LVL45:
 566              		.thumb
 567              	.LBE41:
 568              		.loc 1 410 0
 569 000c CD6A     		ldr	r5, [r1, #44]
 570 000e 2868     		ldr	r0, [r5, #0]
 571 0010 0468     		ldr	r4, [r0, #0]
 572 0012 24F00103 		bic	r3, r4, #1
 573              	.LVL46:
 574 0016 0360     		str	r3, [r0, #0]
 575              	.L34:
 576 0018 0668     		ldr	r6, [r0, #0]
 577 001a F407     		lsls	r4, r6, #31
 578 001c FCD4     		bmi	.L34
 579 001e 2E7A     		ldrb	r6, [r5, #8]	@ zero_extendqisi2
 580              		.loc 1 411 0
 581 0020 8C6A     		ldr	r4, [r1, #40]
 582              		.loc 1 410 0
 583 0022 6B68     		ldr	r3, [r5, #4]
 584              		.loc 1 411 0
 585 0024 2068     		ldr	r0, [r4, #0]
 586              		.loc 1 410 0
 587 0026 3D25     		movs	r5, #61
 588 0028 05FA06F5 		lsl	r5, r5, r6
 589 002c 1D60     		str	r5, [r3, #0]
 590              		.loc 1 411 0
 591 002e 0368     		ldr	r3, [r0, #0]
 592 0030 23F00105 		bic	r5, r3, #1
 593 0034 0560     		str	r5, [r0, #0]
 594              	.L35:
 595 0036 0368     		ldr	r3, [r0, #0]
 596 0038 13F00103 		ands	r3, r3, #1
 597 003c FBD1     		bne	.L35
 598 003e 257A     		ldrb	r5, [r4, #8]	@ zero_extendqisi2
 599 0040 6068     		ldr	r0, [r4, #4]
 600 0042 3D24     		movs	r4, #61
 601 0044 04FA05F4 		lsl	r4, r4, r5
 602 0048 0460     		str	r4, [r0, #0]
 603              	.LBB42:
 604              		.loc 1 412 0
 605              	@ 412 "./os/hal/platforms/STM32/i2c_lld.c" 1
 606 004a 83F31188 		msr     BASEPRI, r3
 607              	@ 0 "" 2
 608              	.LVL47:
 609              		.thumb
 610              	.LBE42:
 611              		.loc 1 416 0
 612 004e 908A     		ldrh	r0, [r2, #20]
 613 0050 10F48073 		ands	r3, r0, #256
 614              	.LVL48:
 615 0054 06D0     		beq	.L36
 616              		.loc 1 417 0
 617 0056 908A     		ldrh	r0, [r2, #20]
 618 0058 20F48073 		bic	r3, r0, #256
ARM GAS  /tmp/ccoTvsNi.s 			page 12


 619 005c 1804     		lsls	r0, r3, #16
 620 005e 030C     		lsrs	r3, r0, #16
 621 0060 9382     		strh	r3, [r2, #20]	@ movhi
 622              	.LVL49:
 623              		.loc 1 418 0
 624 0062 0123     		movs	r3, #1
 625              	.LVL50:
 626              	.L36:
 627              		.loc 1 420 0
 628 0064 B2F814C0 		ldrh	ip, [r2, #20]
 629 0068 5FEA8C50 		lsls	r0, ip, #22
 630 006c 08D5     		bpl	.L37
 631              		.loc 1 421 0
 632 006e B2F814C0 		ldrh	ip, [r2, #20]
 633 0072 2CF40070 		bic	r0, ip, #512
 634 0076 0004     		lsls	r0, r0, #16
 635 0078 000C     		lsrs	r0, r0, #16
 636 007a 9082     		strh	r0, [r2, #20]	@ movhi
 637              		.loc 1 422 0
 638 007c 43F00203 		orr	r3, r3, #2
 639              	.LVL51:
 640              	.L37:
 641              		.loc 1 424 0
 642 0080 908A     		ldrh	r0, [r2, #20]
 643 0082 4005     		lsls	r0, r0, #21
 644 0084 17D5     		bpl	.L38
 645              		.loc 1 425 0
 646 0086 B2F814C0 		ldrh	ip, [r2, #20]
 647 008a 2CF48060 		bic	r0, ip, #1024
 648 008e 0004     		lsls	r0, r0, #16
 649 0090 000C     		lsrs	r0, r0, #16
 650 0092 9082     		strh	r0, [r2, #20]	@ movhi
 651              		.loc 1 426 0
 652 0094 B2F804C0 		ldrh	ip, [r2, #4]
 653 0098 2CF40070 		bic	r0, ip, #512
 654 009c 0004     		lsls	r0, r0, #16
 655 009e 000C     		lsrs	r0, r0, #16
 656 00a0 9080     		strh	r0, [r2, #4]	@ movhi
 657              		.loc 1 427 0
 658 00a2 B2F800C0 		ldrh	ip, [r2, #0]
 659 00a6 1FFA8CF0 		uxth	r0, ip
 660 00aa 40F4007C 		orr	ip, r0, #512
 661 00ae A2F800C0 		strh	ip, [r2, #0]	@ movhi
 662              		.loc 1 428 0
 663 00b2 43F00403 		orr	r3, r3, #4
 664              	.LVL52:
 665              	.L38:
 666              		.loc 1 430 0
 667 00b6 908A     		ldrh	r0, [r2, #20]
 668 00b8 0005     		lsls	r0, r0, #20
 669 00ba 08D5     		bpl	.L39
 670              		.loc 1 431 0
 671 00bc B2F814C0 		ldrh	ip, [r2, #20]
 672 00c0 2CF40060 		bic	r0, ip, #2048
 673 00c4 0004     		lsls	r0, r0, #16
 674 00c6 000C     		lsrs	r0, r0, #16
 675 00c8 9082     		strh	r0, [r2, #20]	@ movhi
ARM GAS  /tmp/ccoTvsNi.s 			page 13


 676              		.loc 1 432 0
 677 00ca 43F00803 		orr	r3, r3, #8
 678              	.LVL53:
 679              	.L39:
 680              		.loc 1 434 0
 681 00ce 908A     		ldrh	r0, [r2, #20]
 682 00d0 C004     		lsls	r0, r0, #19
 683 00d2 08D5     		bpl	.L40
 684              		.loc 1 435 0
 685 00d4 B2F814C0 		ldrh	ip, [r2, #20]
 686 00d8 2CF48050 		bic	r0, ip, #4096
 687 00dc 0004     		lsls	r0, r0, #16
 688 00de 000C     		lsrs	r0, r0, #16
 689 00e0 9082     		strh	r0, [r2, #20]	@ movhi
 690              		.loc 1 436 0
 691 00e2 43F01003 		orr	r3, r3, #16
 692              	.LVL54:
 693              	.L40:
 694              		.loc 1 438 0
 695 00e6 908A     		ldrh	r0, [r2, #20]
 696 00e8 4004     		lsls	r0, r0, #17
 697 00ea 08D5     		bpl	.L41
 698              		.loc 1 439 0
 699 00ec B2F814C0 		ldrh	ip, [r2, #20]
 700 00f0 2CF48040 		bic	r0, ip, #16384
 701 00f4 0004     		lsls	r0, r0, #16
 702 00f6 000C     		lsrs	r0, r0, #16
 703 00f8 9082     		strh	r0, [r2, #20]	@ movhi
 704              		.loc 1 440 0
 705 00fa 43F02003 		orr	r3, r3, #32
 706              	.LVL55:
 707              	.L41:
 708              		.loc 1 442 0
 709 00fe B2F814C0 		ldrh	ip, [r2, #20]
 710 0102 0FFA8CF0 		sxth	r0, ip
 711 0106 0028     		cmp	r0, #0
 712 0108 04DB     		blt	.L49
 713              		.loc 1 448 0
 714 010a 4BB9     		cbnz	r3, .L43
 715              	.LVL56:
 716              	.L44:
 717              	.LBE46:
 718              	.LBE48:
 719              		.loc 1 483 0
 720 010c BDE87040 		pop	{r4, r5, r6, lr}
 721              		.loc 1 482 0
 722 0110 FFF7FEBF 		b	_port_irq_epilogue
 723              	.LVL57:
 724              	.L49:
 725              	.LBB49:
 726              	.LBB47:
 727              		.loc 1 443 0
 728 0114 908A     		ldrh	r0, [r2, #20]
 729 0116 4004     		lsls	r0, r0, #17
 730 0118 400C     		lsrs	r0, r0, #17
 731 011a 9082     		strh	r0, [r2, #20]	@ movhi
 732              		.loc 1 444 0
ARM GAS  /tmp/ccoTvsNi.s 			page 14


 733 011c 43F04003 		orr	r3, r3, #64
 734              	.LVL58:
 735              	.L43:
 736              		.loc 1 449 0
 737 0120 8B60     		str	r3, [r1, #8]
 738              	.LBB43:
 739              		.loc 1 450 0
 740 0122 2023     		movs	r3, #32
 741              	.LVL59:
 742              	@ 450 "./os/hal/platforms/STM32/i2c_lld.c" 1
 743 0124 83F31188 		msr     BASEPRI, r3
 744              	@ 0 "" 2
 745              	.LVL60:
 746              		.thumb
 747              	.LBE43:
 748 0128 C869     		ldr	r0, [r1, #28]
 749 012a 38B1     		cbz	r0, .L45
 750              	.LVL61:
 751              	.LBB44:
 752 012c 054B     		ldr	r3, .L50
 753              	.LVL62:
 754 012e 0022     		movs	r2, #0
 755              	.LVL63:
 756 0130 6FF00101 		mvn	r1, #1
 757 0134 DA61     		str	r2, [r3, #28]
 758 0136 4162     		str	r1, [r0, #36]
 759 0138 FFF7FEFF 		bl	chSchReadyI
 760              	.LVL64:
 761              	.L45:
 762              	.LBE44:
 763              	.LBB45:
 764 013c 0023     		movs	r3, #0
 765              	.LVL65:
 766              	@ 450 "./os/hal/platforms/STM32/i2c_lld.c" 1
 767 013e 83F31188 		msr     BASEPRI, r3
 768              	@ 0 "" 2
 769              	.LVL66:
 770              		.thumb
 771 0142 E3E7     		b	.L44
 772              	.L51:
 773              		.align	2
 774              	.L50:
 775 0144 00000000 		.word	.LANCHOR0
 776              	.LBE45:
 777              	.LBE47:
 778              	.LBE49:
 779              		.cfi_endproc
 780              	.LFE126:
 781              		.size	VectorC0, .-VectorC0
 782 0148 AFF30080 		.section	.text.i2c_lld_init,"ax",%progbits
 782      AFF30080 
 783              		.align	2
 784              		.p2align 4,,15
 785              		.global	i2c_lld_init
 786              		.thumb
 787              		.thumb_func
 788              		.type	i2c_lld_init, %function
ARM GAS  /tmp/ccoTvsNi.s 			page 15


 789              	i2c_lld_init:
 790              	.LFB127:
 791              		.loc 1 555 0
 792              		.cfi_startproc
 793              		@ args = 0, pretend = 0, frame = 0
 794              		@ frame_needed = 0, uses_anonymous_args = 0
 795 0000 10B5     		push	{r4, lr}
 796              	.LCFI6:
 797              		.cfi_def_cfa_offset 8
 798              		.cfi_offset 14, -4
 799              		.cfi_offset 4, -8
 800              		.loc 1 558 0
 801 0002 40F20004 		movw	r4, #:lower16:.LANCHOR0
 802 0006 C0F20004 		movt	r4, #:upper16:.LANCHOR0
 803 000a 2046     		mov	r0, r4
 804 000c FFF7FEFF 		bl	i2cObjectInit
 805              		.loc 1 561 0
 806 0010 40F20003 		movw	r3, #:lower16:_stm32_dma_streams
 807 0014 C0F20003 		movt	r3, #:upper16:_stm32_dma_streams
 808              		.loc 1 560 0
 809 0018 4FF4A842 		mov	r2, #21504
 810 001c C4F20002 		movt	r2, 16384
 811              		.loc 1 562 0
 812 0020 03F14801 		add	r1, r3, #72
 813              		.loc 1 559 0
 814 0024 0020     		movs	r0, #0
 815 0026 E061     		str	r0, [r4, #28]
 816              		.loc 1 560 0
 817 0028 2263     		str	r2, [r4, #48]
 818              		.loc 1 561 0
 819 002a A362     		str	r3, [r4, #40]
 820              		.loc 1 562 0
 821 002c E162     		str	r1, [r4, #44]
 822              		.loc 1 580 0
 823 002e 10BD     		pop	{r4, pc}
 824              		.cfi_endproc
 825              	.LFE127:
 826              		.size	i2c_lld_init, .-i2c_lld_init
 827              		.section	.text.i2c_lld_start,"ax",%progbits
 828              		.align	2
 829              		.p2align 4,,15
 830              		.global	i2c_lld_start
 831              		.thumb
 832              		.thumb_func
 833              		.type	i2c_lld_start, %function
 834              	i2c_lld_start:
 835              	.LFB128:
 836              		.loc 1 589 0
 837              		.cfi_startproc
 838              		@ args = 0, pretend = 0, frame = 0
 839              		@ frame_needed = 0, uses_anonymous_args = 0
 840              	.LVL67:
 841 0000 F8B5     		push	{r3, r4, r5, r6, r7, lr}
 842              	.LCFI7:
 843              		.cfi_def_cfa_offset 24
 844              		.cfi_offset 14, -4
 845              		.cfi_offset 7, -8
ARM GAS  /tmp/ccoTvsNi.s 			page 16


 846              		.cfi_offset 6, -12
 847              		.cfi_offset 5, -16
 848              		.cfi_offset 4, -20
 849              		.cfi_offset 3, -24
 850              		.loc 1 597 0
 851 0002 0378     		ldrb	r3, [r0, #0]	@ zero_extendqisi2
 852              		.loc 1 590 0
 853 0004 046B     		ldr	r4, [r0, #48]
 854              	.LVL68:
 855              		.loc 1 592 0
 856 0006 40F21642 		movw	r2, #1046
 857              		.loc 1 597 0
 858 000a 012B     		cmp	r3, #1
 859              		.loc 1 589 0
 860 000c 0546     		mov	r5, r0
 861              		.loc 1 592 0
 862 000e 4262     		str	r2, [r0, #36]
 863              		.loc 1 597 0
 864 0010 74D0     		beq	.L67
 865              	.LVL69:
 866              	.L64:
 867              		.loc 1 590 0
 868 0012 2346     		mov	r3, r4
 869              		.loc 1 600 0
 870 0014 40F25647 		movw	r7, #1110
 871 0018 1046     		mov	r0, r2
 872              	.LVL70:
 873              	.L54:
 874              		.loc 1 680 0
 875 001a A96A     		ldr	r1, [r5, #40]
 876              		.loc 1 679 0
 877 001c EA6A     		ldr	r2, [r5, #44]
 878              		.loc 1 680 0
 879 001e 0E68     		ldr	r6, [r1, #0]
 880              		.loc 1 679 0
 881 0020 1268     		ldr	r2, [r2, #0]
 882              		.loc 1 683 0
 883 0022 04F11001 		add	r1, r4, #16
 884              		.loc 1 679 0
 885 0026 1760     		str	r7, [r2, #0]
 886              		.loc 1 680 0
 887 0028 3060     		str	r0, [r6, #0]
 888              		.loc 1 688 0
 889 002a 0027     		movs	r7, #0
 890              		.loc 1 683 0
 891 002c B160     		str	r1, [r6, #8]
 892              		.loc 1 684 0
 893 002e 9160     		str	r1, [r2, #8]
 894              		.loc 1 687 0
 895 0030 4FF40042 		mov	r2, #32768
 896              		.loc 1 689 0
 897 0034 4FF41061 		mov	r1, #2304
 898              		.loc 1 687 0
 899 0038 2280     		strh	r2, [r4, #0]	@ movhi
 900              		.loc 1 688 0
 901 003a 2780     		strh	r7, [r4, #0]	@ movhi
 902              		.loc 1 689 0
ARM GAS  /tmp/ccoTvsNi.s 			page 17


 903 003c A180     		strh	r1, [r4, #4]	@ movhi
 904              	.LVL71:
 905              	.LBB50:
 906              	.LBB51:
 907              		.loc 1 201 0
 908 003e B3F804C0 		ldrh	ip, [r3, #4]
 909              		.loc 1 194 0
 910 0042 6968     		ldr	r1, [r5, #4]
 911              		.loc 1 201 0
 912 0044 2CF03F06 		bic	r6, ip, #63
 913 0048 3004     		lsls	r0, r6, #16
 914 004a 050C     		lsrs	r5, r0, #16
 915              	.LVL72:
 916              		.loc 1 195 0
 917 004c 0E7A     		ldrb	r6, [r1, #8]	@ zero_extendqisi2
 918              		.loc 1 194 0
 919 004e 4868     		ldr	r0, [r1, #4]
 920              	.LVL73:
 921              		.loc 1 201 0
 922 0050 9D80     		strh	r5, [r3, #4]	@ movhi
 923              		.loc 1 202 0
 924 0052 9A88     		ldrh	r2, [r3, #4]
 925              		.loc 1 208 0
 926 0054 48F2A06C 		movw	ip, #34464
 927              		.loc 1 202 0
 928 0058 95B2     		uxth	r5, r2
 929              		.loc 1 208 0
 930 005a C0F2010C 		movt	ip, 1
 931              		.loc 1 202 0
 932 005e 45F02A05 		orr	r5, r5, #42
 933              		.loc 1 208 0
 934 0062 6045     		cmp	r0, ip
 935              		.loc 1 202 0
 936 0064 9D80     		strh	r5, [r3, #4]	@ movhi
 937              	.LVL74:
 938              		.loc 1 208 0
 939 0066 1BDC     		bgt	.L55
 940              	.LVL75:
 941              		.loc 1 218 0
 942 0068 4DF6806C 		movw	ip, #56960
 943 006c 4000     		lsls	r0, r0, #1
 944 006e C0F2802C 		movt	ip, 640
 945 0072 9CFBF0F2 		sdiv	r2, ip, r0
 946              		.loc 1 223 0
 947 0076 1005     		lsls	r0, r2, #20
 948              		.loc 1 226 0
 949 0078 2B22     		movs	r2, #43
 950              		.loc 1 223 0
 951 007a 000D     		lsrs	r0, r0, #20
 952              	.LVL76:
 953              		.loc 1 226 0
 954 007c 1A84     		strh	r2, [r3, #32]	@ movhi
 955              	.LVL77:
 956              	.L56:
 957              		.loc 1 262 0
 958 007e 9883     		strh	r0, [r3, #28]	@ movhi
 959              	.LVL78:
ARM GAS  /tmp/ccoTvsNi.s 			page 18


 960              	.LBE51:
 961              	.LBE50:
 962              	.LBB56:
 963              	.LBB57:
 964              		.loc 1 278 0
 965 0080 0978     		ldrb	r1, [r1, #0]	@ zero_extendqisi2
 966              	.LVL79:
 967              		.loc 1 277 0
 968 0082 1888     		ldrh	r0, [r3, #0]
 969              	.LVL80:
 970              		.loc 1 278 0
 971 0084 0229     		cmp	r1, #2
 972              		.loc 1 277 0
 973 0086 82B2     		uxth	r2, r0
 974              	.LVL81:
 975              		.loc 1 278 0
 976 0088 1ED0     		beq	.L61
 977              	.LVL82:
 978              	.L71:
 979 008a 0329     		cmp	r1, #3
 980 008c 65D0     		beq	.L62
 981 008e 0129     		cmp	r1, #1
 982 0090 29D0     		beq	.L68
 983              	.LVL83:
 984              		.loc 1 290 0
 985 0092 1A80     		strh	r2, [r3, #0]	@ movhi
 986              	.LBE57:
 987              	.LBE56:
 988              		.loc 1 696 0
 989 0094 2288     		ldrh	r2, [r4, #0]
 990              	.LVL84:
 991 0096 91B2     		uxth	r1, r2
 992 0098 41F00103 		orr	r3, r1, #1
 993              	.LVL85:
 994 009c 2380     		strh	r3, [r4, #0]	@ movhi
 995              		.loc 1 697 0
 996 009e F8BD     		pop	{r3, r4, r5, r6, r7, pc}
 997              	.LVL86:
 998              	.L55:
 999              	.LBB62:
 1000              	.LBB52:
 1001              		.loc 1 228 0
 1002 00a0 4FF4D452 		mov	r2, #6784
 1003 00a4 C0F20602 		movt	r2, 6
 1004 00a8 9042     		cmp	r0, r2
 1005 00aa 1ADC     		bgt	.L65
 1006              		.loc 1 234 0
 1007 00ac 022E     		cmp	r6, #2
 1008 00ae 5DD0     		beq	.L69
 1009              		.loc 1 241 0
 1010 00b0 032E     		cmp	r6, #3
 1011 00b2 69D0     		beq	.L70
 1012 00b4 48F6FF70 		movw	r0, #36863
 1013              	.LVL87:
 1014              	.L58:
 1015              		.loc 1 256 0
 1016 00b8 0D22     		movs	r2, #13
ARM GAS  /tmp/ccoTvsNi.s 			page 19


 1017 00ba 1A84     		strh	r2, [r3, #32]	@ movhi
 1018              	.LBE52:
 1019              	.LBE62:
 1020              	.LBB63:
 1021              	.LBB58:
 1022              		.loc 1 278 0
 1023 00bc 0978     		ldrb	r1, [r1, #0]	@ zero_extendqisi2
 1024              	.LVL88:
 1025              	.LBE58:
 1026              	.LBE63:
 1027              	.LBB64:
 1028              	.LBB53:
 1029              		.loc 1 262 0
 1030 00be 9883     		strh	r0, [r3, #28]	@ movhi
 1031              	.LVL89:
 1032              	.LBE53:
 1033              	.LBE64:
 1034              	.LBB65:
 1035              	.LBB59:
 1036              		.loc 1 277 0
 1037 00c0 1888     		ldrh	r0, [r3, #0]
 1038              	.LVL90:
 1039              		.loc 1 278 0
 1040 00c2 0229     		cmp	r1, #2
 1041              		.loc 1 277 0
 1042 00c4 82B2     		uxth	r2, r0
 1043              	.LVL91:
 1044              		.loc 1 278 0
 1045 00c6 E0D1     		bne	.L71
 1046              	.LVL92:
 1047              	.L61:
 1048              		.loc 1 283 0
 1049 00c8 42F0020C 		orr	ip, r2, #2
 1050              	.LVL93:
 1051              		.loc 1 284 0
 1052 00cc 4FF6F770 		movw	r0, #65527
 1053 00d0 0CEA0002 		and	r2, ip, r0
 1054              	.LVL94:
 1055              		.loc 1 290 0
 1056 00d4 1A80     		strh	r2, [r3, #0]	@ movhi
 1057              	.LBE59:
 1058              	.LBE65:
 1059              		.loc 1 696 0
 1060 00d6 2288     		ldrh	r2, [r4, #0]
 1061              	.LVL95:
 1062 00d8 91B2     		uxth	r1, r2
 1063 00da 41F00103 		orr	r3, r1, #1
 1064              	.LVL96:
 1065 00de 2380     		strh	r3, [r4, #0]	@ movhi
 1066              		.loc 1 697 0
 1067 00e0 F8BD     		pop	{r3, r4, r5, r6, r7, pc}
 1068              	.LVL97:
 1069              	.L65:
 1070              	.LBB66:
 1071              	.LBB54:
 1072              		.loc 1 205 0
 1073 00e2 3846     		mov	r0, r7
ARM GAS  /tmp/ccoTvsNi.s 			page 20


 1074              	.LVL98:
 1075 00e4 CBE7     		b	.L56
 1076              	.LVL99:
 1077              	.L68:
 1078              	.LBE54:
 1079              	.LBE66:
 1080              	.LBB67:
 1081              	.LBB60:
 1082              		.loc 1 280 0
 1083 00e6 22F00A02 		bic	r2, r2, #10
 1084 00ea 1104     		lsls	r1, r2, #16
 1085 00ec 0A0C     		lsrs	r2, r1, #16
 1086              	.LVL100:
 1087              		.loc 1 290 0
 1088 00ee 1A80     		strh	r2, [r3, #0]	@ movhi
 1089              	.LBE60:
 1090              	.LBE67:
 1091              		.loc 1 696 0
 1092 00f0 2288     		ldrh	r2, [r4, #0]
 1093              	.LVL101:
 1094 00f2 91B2     		uxth	r1, r2
 1095 00f4 41F00103 		orr	r3, r1, #1
 1096              	.LVL102:
 1097 00f8 2380     		strh	r3, [r4, #0]	@ movhi
 1098              		.loc 1 697 0
 1099 00fa F8BD     		pop	{r3, r4, r5, r6, r7, pc}
 1100              	.LVL103:
 1101              	.L67:
 1102              		.loc 1 600 0
 1103 00fc 2B48     		ldr	r0, .L72
 1104              	.LVL104:
 1105 00fe 8542     		cmp	r5, r0
 1106 0100 87D1     		bne	.L64
 1107              	.LBB68:
 1108              		.loc 1 603 0
 1109 0102 4FF46056 		mov	r6, #14336
 1110 0106 C4F20206 		movt	r6, 16386
 1111 010a 0027     		movs	r7, #0
 1112 010c 336A     		ldr	r3, [r6, #32]
 1113              		.loc 1 604 0
 1114 010e A86A     		ldr	r0, [r5, #40]
 1115 0110 274A     		ldr	r2, .L72+4
 1116              		.loc 1 603 0
 1117 0112 43F40011 		orr	r1, r3, #2097152
 1118 0116 3162     		str	r1, [r6, #32]
 1119              		.loc 1 604 0
 1120 0118 2B46     		mov	r3, r5
 1121 011a 0621     		movs	r1, #6
 1122              		.loc 1 603 0
 1123 011c 3762     		str	r7, [r6, #32]
 1124              		.loc 1 604 0
 1125 011e FFF7FEFF 		bl	dmaStreamAllocate
 1126              		.loc 1 609 0
 1127 0122 244A     		ldr	r2, .L72+8
 1128 0124 E86A     		ldr	r0, [r5, #44]
 1129 0126 2B46     		mov	r3, r5
 1130 0128 0621     		movs	r1, #6
ARM GAS  /tmp/ccoTvsNi.s 			page 21


 1131 012a FFF7FEFF 		bl	dmaStreamAllocate
 1132              		.loc 1 614 0
 1133 012e 336C     		ldr	r3, [r6, #64]
 1134 0130 43F40017 		orr	r7, r3, #2097152
 1135              		.loc 1 615 0
 1136 0134 1F20     		movs	r0, #31
 1137 0136 6021     		movs	r1, #96
 1138              		.loc 1 614 0
 1139 0138 3764     		str	r7, [r6, #64]
 1140              		.loc 1 615 0
 1141 013a FFF7FEFF 		bl	nvicEnableVector
 1142              		.loc 1 617 0
 1143 013e 2020     		movs	r0, #32
 1144 0140 6021     		movs	r1, #96
 1145 0142 FFF7FEFF 		bl	nvicEnableVector
 1146              		.loc 1 620 0
 1147 0146 6A6A     		ldr	r2, [r5, #36]
 1148 0148 2B6B     		ldr	r3, [r5, #48]
 1149 014a 42F00071 		orr	r1, r2, #33554432
 1150 014e 41F48030 		orr	r0, r1, #65536
 1151 0152 6862     		str	r0, [r5, #36]
 1152 0154 40F04007 		orr	r7, r0, #64
 1153 0158 5FE7     		b	.L54
 1154              	.LVL105:
 1155              	.L62:
 1156              	.LBE68:
 1157              	.LBB69:
 1158              	.LBB61:
 1159              		.loc 1 287 0
 1160 015a 42F00A02 		orr	r2, r2, #10
 1161              	.LVL106:
 1162              		.loc 1 290 0
 1163 015e 1A80     		strh	r2, [r3, #0]	@ movhi
 1164              	.LBE61:
 1165              	.LBE69:
 1166              		.loc 1 696 0
 1167 0160 2288     		ldrh	r2, [r4, #0]
 1168              	.LVL107:
 1169 0162 91B2     		uxth	r1, r2
 1170 0164 41F00103 		orr	r3, r1, #1
 1171              	.LVL108:
 1172 0168 2380     		strh	r3, [r4, #0]	@ movhi
 1173              		.loc 1 697 0
 1174 016a F8BD     		pop	{r3, r4, r5, r6, r7, pc}
 1175              	.LVL109:
 1176              	.L69:
 1177              	.LBB70:
 1178              	.LBB55:
 1179              		.loc 1 239 0
 1180 016c 4DF68062 		movw	r2, #56960
 1181 0170 00EB4000 		add	r0, r0, r0, lsl #1
 1182              	.LVL110:
 1183 0174 C0F28022 		movt	r2, 640
 1184 0178 92FBF0FC 		sdiv	ip, r2, r0
 1185              		.loc 1 234 0
 1186 017c 6FEA4C42 		mvn	r2, ip, lsl #17
 1187 0180 6FEA5240 		mvn	r0, r2, lsr #17
ARM GAS  /tmp/ccoTvsNi.s 			page 22


 1188 0184 80B2     		uxth	r0, r0
 1189 0186 97E7     		b	.L58
 1190              	.LVL111:
 1191              	.L70:
 1192              		.loc 1 246 0
 1193 0188 00EB8000 		add	r0, r0, r0, lsl #2
 1194 018c 4DF68062 		movw	r2, #56960
 1195 0190 00EB800C 		add	ip, r0, r0, lsl #2
 1196 0194 C0F28022 		movt	r2, 640
 1197 0198 92FBFCF2 		sdiv	r2, r2, ip
 1198              		.loc 1 241 0
 1199 019c 6FEA8240 		mvn	r0, r2, lsl #18
 1200 01a0 6FEA904C 		mvn	ip, r0, lsr #18
 1201 01a4 1FFA8CF0 		uxth	r0, ip
 1202 01a8 86E7     		b	.L58
 1203              	.L73:
 1204 01aa 00BF     		.align	2
 1205              	.L72:
 1206 01ac 00000000 		.word	.LANCHOR0
 1207 01b0 00000000 		.word	i2c_lld_serve_rx_end_irq
 1208 01b4 00000000 		.word	i2c_lld_serve_tx_end_irq
 1209              	.LBE55:
 1210              	.LBE70:
 1211              		.cfi_endproc
 1212              	.LFE128:
 1213              		.size	i2c_lld_start, .-i2c_lld_start
 1214 01b8 AFF30080 		.section	.text.i2c_lld_stop,"ax",%progbits
 1214      AFF30080 
 1215              		.align	2
 1216              		.p2align 4,,15
 1217              		.global	i2c_lld_stop
 1218              		.thumb
 1219              		.thumb_func
 1220              		.type	i2c_lld_stop, %function
 1221              	i2c_lld_stop:
 1222              	.LFB129:
 1223              		.loc 1 706 0
 1224              		.cfi_startproc
 1225              		@ args = 0, pretend = 0, frame = 0
 1226              		@ frame_needed = 0, uses_anonymous_args = 0
 1227              	.LVL112:
 1228              		.loc 1 709 0
 1229 0000 0378     		ldrb	r3, [r0, #0]	@ zero_extendqisi2
 1230 0002 012B     		cmp	r3, #1
 1231              		.loc 1 706 0
 1232 0004 10B5     		push	{r4, lr}
 1233              	.LCFI8:
 1234              		.cfi_def_cfa_offset 8
 1235              		.cfi_offset 14, -4
 1236              		.cfi_offset 4, -8
 1237              		.loc 1 706 0
 1238 0006 0446     		mov	r4, r0
 1239              		.loc 1 709 0
 1240 0008 0AD0     		beq	.L74
 1241              		.loc 1 712 0
 1242 000a FFF7FEFF 		bl	i2c_lld_abort_operation
 1243              	.LVL113:
ARM GAS  /tmp/ccoTvsNi.s 			page 23


 1244              		.loc 1 713 0
 1245 000e E06A     		ldr	r0, [r4, #44]
 1246 0010 FFF7FEFF 		bl	dmaStreamRelease
 1247              		.loc 1 714 0
 1248 0014 A06A     		ldr	r0, [r4, #40]
 1249 0016 FFF7FEFF 		bl	dmaStreamRelease
 1250              		.loc 1 717 0
 1251 001a 0948     		ldr	r0, .L77
 1252 001c 8442     		cmp	r4, r0
 1253 001e 00D0     		beq	.L76
 1254              	.L74:
 1255 0020 10BD     		pop	{r4, pc}
 1256              	.L76:
 1257              		.loc 1 718 0
 1258 0022 1F20     		movs	r0, #31
 1259 0024 FFF7FEFF 		bl	nvicDisableVector
 1260              		.loc 1 719 0
 1261 0028 2020     		movs	r0, #32
 1262 002a FFF7FEFF 		bl	nvicDisableVector
 1263              		.loc 1 720 0
 1264 002e 4FF46051 		mov	r1, #14336
 1265 0032 C4F20201 		movt	r1, 16386
 1266 0036 0B6C     		ldr	r3, [r1, #64]
 1267 0038 23F40012 		bic	r2, r3, #2097152
 1268 003c 0A64     		str	r2, [r1, #64]
 1269 003e EFE7     		b	.L74
 1270              	.L78:
 1271              		.align	2
 1272              	.L77:
 1273 0040 00000000 		.word	.LANCHOR0
 1274              		.cfi_endproc
 1275              	.LFE129:
 1276              		.size	i2c_lld_stop, .-i2c_lld_stop
 1277 0044 AFF30080 		.section	.text.i2c_lld_master_receive_timeout,"ax",%progbits
 1277      AFF30080 
 1277      AFF30080 
 1278              		.align	2
 1279              		.p2align 4,,15
 1280              		.global	i2c_lld_master_receive_timeout
 1281              		.thumb
 1282              		.thumb_func
 1283              		.type	i2c_lld_master_receive_timeout, %function
 1284              	i2c_lld_master_receive_timeout:
 1285              	.LFB130:
 1286              		.loc 1 767 0
 1287              		.cfi_startproc
 1288              		@ args = 4, pretend = 0, frame = 24
 1289              		@ frame_needed = 0, uses_anonymous_args = 0
 1290              	.LVL114:
 1291 0000 2DE9F043 		push	{r4, r5, r6, r7, r8, r9, lr}
 1292              	.LCFI9:
 1293              		.cfi_def_cfa_offset 28
 1294              		.cfi_offset 14, -4
 1295              		.cfi_offset 9, -8
 1296              		.cfi_offset 8, -12
 1297              		.cfi_offset 7, -16
 1298              		.cfi_offset 6, -20
ARM GAS  /tmp/ccoTvsNi.s 			page 24


 1299              		.cfi_offset 5, -24
 1300              		.cfi_offset 4, -28
 1301 0004 87B0     		sub	sp, sp, #28
 1302              	.LCFI10:
 1303              		.cfi_def_cfa_offset 56
 1304              		.loc 1 767 0
 1305 0006 0646     		mov	r6, r0
 1306 0008 0E9D     		ldr	r5, [sp, #56]
 1307              		.loc 1 768 0
 1308 000a 046B     		ldr	r4, [r0, #48]
 1309              	.LVL115:
 1310              		.loc 1 776 0
 1311 000c 681C     		adds	r0, r5, #1
 1312              	.LVL116:
 1313              		.loc 1 767 0
 1314 000e 0F46     		mov	r7, r1
 1315 0010 9046     		mov	r8, r2
 1316 0012 9946     		mov	r9, r3
 1317              		.loc 1 776 0
 1318 0014 05D0     		beq	.L80
 1319              		.loc 1 777 0
 1320 0016 01A8     		add	r0, sp, #4
 1321 0018 2946     		mov	r1, r5
 1322              	.LVL117:
 1323 001a 314A     		ldr	r2, .L93
 1324              	.LVL118:
 1325 001c 3346     		mov	r3, r6
 1326              	.LVL119:
 1327 001e FFF7FEFF 		bl	chVTSetI
 1328              	.LVL120:
 1329              	.L80:
 1330              	.LBB71:
 1331              		.loc 1 780 0
 1332 0022 0023     		movs	r3, #0
 1333              	.LVL121:
 1334              	@ 780 "./os/hal/platforms/STM32/i2c_lld.c" 1
 1335 0024 83F31188 		msr     BASEPRI, r3
 1336              	@ 0 "" 2
 1337              	.LVL122:
 1338              		.thumb
 1339              	.LBE71:
 1340              		.loc 1 787 0
 1341 0028 B06A     		ldr	r0, [r6, #40]
 1342              		.loc 1 783 0
 1343 002a 7F00     		lsls	r7, r7, #1
 1344              		.loc 1 787 0
 1345 002c 0368     		ldr	r3, [r0, #0]
 1346              	.LVL123:
 1347              		.loc 1 783 0
 1348 002e 47F00107 		orr	r7, r7, #1
 1349              		.loc 1 784 0
 1350 0032 0022     		movs	r2, #0
 1351              		.loc 1 783 0
 1352 0034 3784     		strh	r7, [r6, #32]	@ movhi
 1353              		.loc 1 784 0
 1354 0036 B260     		str	r2, [r6, #8]
 1355              		.loc 1 787 0
ARM GAS  /tmp/ccoTvsNi.s 			page 25


 1356 0038 C3F80C80 		str	r8, [r3, #12]
 1357              		.loc 1 788 0
 1358 003c C3F80490 		str	r9, [r3, #4]
 1359              		.loc 1 792 0
 1360 0040 02E0     		b	.L81
 1361              	.LVL124:
 1362              	.L82:
 1363              	.LBB72:
 1364              		.loc 1 796 0
 1365 0042 0023     		movs	r3, #0
 1366              	.LVL125:
 1367              	@ 796 "./os/hal/platforms/STM32/i2c_lld.c" 1
 1368 0044 83F31188 		msr     BASEPRI, r3
 1369              	@ 0 "" 2
 1370              	.LVL126:
 1371              		.thumb
 1372              	.L81:
 1373              	.LBE72:
 1374              		.loc 1 792 0 discriminator 1
 1375 0048 B4F818C0 		ldrh	ip, [r4, #24]
 1376 004c 1CF0020F 		tst	ip, #2
 1377              	.LBB73:
 1378              		.loc 1 793 0 discriminator 1
 1379 0050 4FF02003 		mov	r3, #32
 1380              	.LVL127:
 1381              	.LBE73:
 1382              		.loc 1 792 0 discriminator 1
 1383 0054 02D1     		bne	.L84
 1384              		.loc 1 792 0 is_stmt 0 discriminator 2
 1385 0056 2288     		ldrh	r2, [r4, #0]
 1386 0058 9205     		lsls	r2, r2, #22
 1387 005a 0BD5     		bpl	.L92
 1388              	.L84:
 1389              	.LBB74:
 1390              		.loc 1 793 0 is_stmt 1
 1391              	@ 793 "./os/hal/platforms/STM32/i2c_lld.c" 1
 1392 005c 83F31188 		msr     BASEPRI, r3
 1393              	@ 0 "" 2
 1394              	.LVL128:
 1395              		.thumb
 1396              	.LBE74:
 1397              		.loc 1 794 0
 1398 0060 691C     		adds	r1, r5, #1
 1399 0062 EED0     		beq	.L82
 1400              		.loc 1 794 0 is_stmt 0 discriminator 1
 1401 0064 0499     		ldr	r1, [sp, #16]
 1402 0066 0029     		cmp	r1, #0
 1403 0068 EBD1     		bne	.L82
 1404              	.L90:
 1405              		.loc 1 805 0 is_stmt 1
 1406 006a 4FF0FF30 		mov	r0, #-1
 1407              	.L83:
 1408              		.loc 1 818 0
 1409 006e 07B0     		add	sp, sp, #28
 1410 0070 BDE8F083 		pop	{r4, r5, r6, r7, r8, r9, pc}
 1411              	.LVL129:
 1412              	.L92:
ARM GAS  /tmp/ccoTvsNi.s 			page 26


 1413              	.LBB75:
 1414              		.loc 1 800 0
 1415              	@ 800 "./os/hal/platforms/STM32/i2c_lld.c" 1
 1416 0074 83F31188 		msr     BASEPRI, r3
 1417              	@ 0 "" 2
 1418              	.LVL130:
 1419              		.thumb
 1420              	.LBE75:
 1421              		.loc 1 804 0
 1422 0078 6B1C     		adds	r3, r5, #1
 1423              	.LVL131:
 1424 007a 1DD0     		beq	.L85
 1425              		.loc 1 804 0 is_stmt 0 discriminator 1
 1426 007c 049B     		ldr	r3, [sp, #16]
 1427 007e 002B     		cmp	r3, #0
 1428 0080 F3D0     		beq	.L90
 1429              		.loc 1 808 0 is_stmt 1
 1430 0082 A388     		ldrh	r3, [r4, #4]
 1431              		.loc 1 812 0
 1432 0084 174D     		ldr	r5, .L93+4
 1433              		.loc 1 808 0
 1434 0086 1FFA83FC 		uxth	ip, r3
 1435 008a 4CF40072 		orr	r2, ip, #512
 1436 008e A280     		strh	r2, [r4, #4]	@ movhi
 1437              		.loc 1 809 0
 1438 0090 B4F800E0 		ldrh	lr, [r4, #0]
 1439              		.loc 1 812 0
 1440 0094 EB69     		ldr	r3, [r5, #28]
 1441              		.loc 1 809 0
 1442 0096 1FFA8EF1 		uxth	r1, lr
 1443 009a 41F4A060 		orr	r0, r1, #1280
 1444 009e 2080     		strh	r0, [r4, #0]	@ movhi
 1445              		.loc 1 813 0
 1446 00a0 0220     		movs	r0, #2
 1447              		.loc 1 812 0
 1448 00a2 F361     		str	r3, [r6, #28]
 1449              		.loc 1 813 0
 1450 00a4 FFF7FEFF 		bl	chSchGoSleepS
 1451              		.loc 1 814 0
 1452 00a8 049A     		ldr	r2, [sp, #16]
 1453 00aa 12B1     		cbz	r2, .L87
 1454              		.loc 1 815 0
 1455 00ac 01A8     		add	r0, sp, #4
 1456 00ae FFF7FEFF 		bl	chVTResetI
 1457              	.L87:
 1458              		.loc 1 817 0
 1459 00b2 E969     		ldr	r1, [r5, #28]
 1460 00b4 486A     		ldr	r0, [r1, #36]
 1461 00b6 DAE7     		b	.L83
 1462              	.L85:
 1463              		.loc 1 808 0
 1464 00b8 A088     		ldrh	r0, [r4, #4]
 1465              		.loc 1 812 0
 1466 00ba 0A4D     		ldr	r5, .L93+4
 1467              		.loc 1 808 0
 1468 00bc 83B2     		uxth	r3, r0
 1469 00be 43F40072 		orr	r2, r3, #512
ARM GAS  /tmp/ccoTvsNi.s 			page 27


 1470 00c2 A280     		strh	r2, [r4, #4]	@ movhi
 1471              		.loc 1 809 0
 1472 00c4 B4F800C0 		ldrh	ip, [r4, #0]
 1473              		.loc 1 812 0
 1474 00c8 E869     		ldr	r0, [r5, #28]
 1475              		.loc 1 809 0
 1476 00ca 1FFA8CFE 		uxth	lr, ip
 1477 00ce 4EF4A061 		orr	r1, lr, #1280
 1478 00d2 2180     		strh	r1, [r4, #0]	@ movhi
 1479              		.loc 1 812 0
 1480 00d4 F061     		str	r0, [r6, #28]
 1481              		.loc 1 813 0
 1482 00d6 0220     		movs	r0, #2
 1483 00d8 FFF7FEFF 		bl	chSchGoSleepS
 1484 00dc E9E7     		b	.L87
 1485              	.L94:
 1486 00de 00BF     		.align	2
 1487              	.L93:
 1488 00e0 00000000 		.word	i2c_lld_safety_timeout
 1489 00e4 00000000 		.word	rlist
 1490              		.cfi_endproc
 1491              	.LFE130:
 1492              		.size	i2c_lld_master_receive_timeout, .-i2c_lld_master_receive_timeout
 1493 00e8 AFF30080 		.section	.text.i2c_lld_master_transmit_timeout,"ax",%progbits
 1493      AFF30080 
 1494              		.align	2
 1495              		.p2align 4,,15
 1496              		.global	i2c_lld_master_transmit_timeout
 1497              		.thumb
 1498              		.thumb_func
 1499              		.type	i2c_lld_master_transmit_timeout, %function
 1500              	i2c_lld_master_transmit_timeout:
 1501              	.LFB131:
 1502              		.loc 1 848 0
 1503              		.cfi_startproc
 1504              		@ args = 12, pretend = 0, frame = 24
 1505              		@ frame_needed = 0, uses_anonymous_args = 0
 1506              	.LVL132:
 1507 0000 2DE9F043 		push	{r4, r5, r6, r7, r8, r9, lr}
 1508              	.LCFI11:
 1509              		.cfi_def_cfa_offset 28
 1510              		.cfi_offset 14, -4
 1511              		.cfi_offset 9, -8
 1512              		.cfi_offset 8, -12
 1513              		.cfi_offset 7, -16
 1514              		.cfi_offset 6, -20
 1515              		.cfi_offset 5, -24
 1516              		.cfi_offset 4, -28
 1517 0004 87B0     		sub	sp, sp, #28
 1518              	.LCFI12:
 1519              		.cfi_def_cfa_offset 56
 1520              		.loc 1 848 0
 1521 0006 0646     		mov	r6, r0
 1522 0008 109D     		ldr	r5, [sp, #64]
 1523              		.loc 1 849 0
 1524 000a 046B     		ldr	r4, [r0, #48]
 1525              	.LVL133:
ARM GAS  /tmp/ccoTvsNi.s 			page 28


 1526              		.loc 1 858 0
 1527 000c 681C     		adds	r0, r5, #1
 1528              	.LVL134:
 1529              		.loc 1 848 0
 1530 000e 0F46     		mov	r7, r1
 1531 0010 9046     		mov	r8, r2
 1532 0012 9946     		mov	r9, r3
 1533              		.loc 1 858 0
 1534 0014 05D0     		beq	.L96
 1535              		.loc 1 859 0
 1536 0016 01A8     		add	r0, sp, #4
 1537 0018 2946     		mov	r1, r5
 1538              	.LVL135:
 1539 001a 324A     		ldr	r2, .L109
 1540              	.LVL136:
 1541 001c 3346     		mov	r3, r6
 1542              	.LVL137:
 1543 001e FFF7FEFF 		bl	chVTSetI
 1544              	.LVL138:
 1545              	.L96:
 1546              	.LBB76:
 1547              		.loc 1 862 0
 1548 0022 0023     		movs	r3, #0
 1549              	.LVL139:
 1550              	@ 862 "./os/hal/platforms/STM32/i2c_lld.c" 1
 1551 0024 83F31188 		msr     BASEPRI, r3
 1552              	@ 0 "" 2
 1553              	.LVL140:
 1554              		.thumb
 1555              	.LBE76:
 1556              		.loc 1 869 0
 1557 0028 F06A     		ldr	r0, [r6, #44]
 1558              		.loc 1 873 0
 1559 002a B36A     		ldr	r3, [r6, #40]
 1560              	.LVL141:
 1561              		.loc 1 869 0
 1562 002c 0268     		ldr	r2, [r0, #0]
 1563              		.loc 1 873 0
 1564 002e 1B68     		ldr	r3, [r3, #0]
 1565 0030 0E98     		ldr	r0, [sp, #56]
 1566              		.loc 1 865 0
 1567 0032 7F00     		lsls	r7, r7, #1
 1568              		.loc 1 866 0
 1569 0034 0021     		movs	r1, #0
 1570              		.loc 1 865 0
 1571 0036 3784     		strh	r7, [r6, #32]	@ movhi
 1572              		.loc 1 866 0
 1573 0038 B160     		str	r1, [r6, #8]
 1574              		.loc 1 869 0
 1575 003a C2F80C80 		str	r8, [r2, #12]
 1576              		.loc 1 870 0
 1577 003e C2F80490 		str	r9, [r2, #4]
 1578              		.loc 1 874 0
 1579 0042 0F9A     		ldr	r2, [sp, #60]
 1580              		.loc 1 873 0
 1581 0044 D860     		str	r0, [r3, #12]
 1582              		.loc 1 874 0
ARM GAS  /tmp/ccoTvsNi.s 			page 29


 1583 0046 5A60     		str	r2, [r3, #4]
 1584              		.loc 1 878 0
 1585 0048 02E0     		b	.L97
 1586              	.LVL142:
 1587              	.L98:
 1588              	.LBB77:
 1589              		.loc 1 882 0
 1590 004a 0023     		movs	r3, #0
 1591              	.LVL143:
 1592              	@ 882 "./os/hal/platforms/STM32/i2c_lld.c" 1
 1593 004c 83F31188 		msr     BASEPRI, r3
 1594              	@ 0 "" 2
 1595              	.LVL144:
 1596              		.thumb
 1597              	.L97:
 1598              	.LBE77:
 1599              		.loc 1 878 0 discriminator 1
 1600 0050 218B     		ldrh	r1, [r4, #24]
 1601 0052 11F0020F 		tst	r1, #2
 1602              	.LBB78:
 1603              		.loc 1 879 0 discriminator 1
 1604 0056 4FF02003 		mov	r3, #32
 1605              	.LVL145:
 1606              	.LBE78:
 1607              		.loc 1 878 0 discriminator 1
 1608 005a 02D1     		bne	.L100
 1609              		.loc 1 878 0 is_stmt 0 discriminator 2
 1610 005c 2088     		ldrh	r0, [r4, #0]
 1611 005e 8205     		lsls	r2, r0, #22
 1612 0060 0BD5     		bpl	.L108
 1613              	.L100:
 1614              	.LBB79:
 1615              		.loc 1 879 0 is_stmt 1
 1616              	@ 879 "./os/hal/platforms/STM32/i2c_lld.c" 1
 1617 0062 83F31188 		msr     BASEPRI, r3
 1618              	@ 0 "" 2
 1619              	.LVL146:
 1620              		.thumb
 1621              	.LBE79:
 1622              		.loc 1 880 0
 1623 0066 691C     		adds	r1, r5, #1
 1624 0068 EFD0     		beq	.L98
 1625              		.loc 1 880 0 is_stmt 0 discriminator 1
 1626 006a 049A     		ldr	r2, [sp, #16]
 1627 006c 002A     		cmp	r2, #0
 1628 006e ECD1     		bne	.L98
 1629              	.L106:
 1630              		.loc 1 891 0 is_stmt 1
 1631 0070 4FF0FF30 		mov	r0, #-1
 1632              	.L99:
 1633              		.loc 1 904 0
 1634 0074 07B0     		add	sp, sp, #28
 1635 0076 BDE8F083 		pop	{r4, r5, r6, r7, r8, r9, pc}
 1636              	.LVL147:
 1637              	.L108:
 1638              	.LBB80:
 1639              		.loc 1 886 0
ARM GAS  /tmp/ccoTvsNi.s 			page 30


 1640              	@ 886 "./os/hal/platforms/STM32/i2c_lld.c" 1
 1641 007a 83F31188 		msr     BASEPRI, r3
 1642              	@ 0 "" 2
 1643              	.LVL148:
 1644              		.thumb
 1645              	.LBE80:
 1646              		.loc 1 890 0
 1647 007e 6B1C     		adds	r3, r5, #1
 1648              	.LVL149:
 1649 0080 1CD0     		beq	.L101
 1650              		.loc 1 890 0 is_stmt 0 discriminator 1
 1651 0082 049B     		ldr	r3, [sp, #16]
 1652 0084 002B     		cmp	r3, #0
 1653 0086 F3D0     		beq	.L106
 1654              		.loc 1 894 0 is_stmt 1
 1655 0088 A388     		ldrh	r3, [r4, #4]
 1656              		.loc 1 898 0
 1657 008a 174D     		ldr	r5, .L109+4
 1658              		.loc 1 894 0
 1659 008c 98B2     		uxth	r0, r3
 1660 008e 40F40072 		orr	r2, r0, #512
 1661 0092 A280     		strh	r2, [r4, #4]	@ movhi
 1662              		.loc 1 895 0
 1663 0094 B4F800E0 		ldrh	lr, [r4, #0]
 1664              		.loc 1 898 0
 1665 0098 EB69     		ldr	r3, [r5, #28]
 1666              		.loc 1 895 0
 1667 009a 1FFA8EFC 		uxth	ip, lr
 1668 009e 4CF48071 		orr	r1, ip, #256
 1669 00a2 2180     		strh	r1, [r4, #0]	@ movhi
 1670              		.loc 1 899 0
 1671 00a4 0220     		movs	r0, #2
 1672              		.loc 1 898 0
 1673 00a6 F361     		str	r3, [r6, #28]
 1674              		.loc 1 899 0
 1675 00a8 FFF7FEFF 		bl	chSchGoSleepS
 1676              		.loc 1 900 0
 1677 00ac 0498     		ldr	r0, [sp, #16]
 1678 00ae 10B1     		cbz	r0, .L103
 1679              		.loc 1 901 0
 1680 00b0 01A8     		add	r0, sp, #4
 1681 00b2 FFF7FEFF 		bl	chVTResetI
 1682              	.L103:
 1683              		.loc 1 903 0
 1684 00b6 EA69     		ldr	r2, [r5, #28]
 1685 00b8 506A     		ldr	r0, [r2, #36]
 1686 00ba DBE7     		b	.L99
 1687              	.L101:
 1688              		.loc 1 894 0
 1689 00bc A188     		ldrh	r1, [r4, #4]
 1690              		.loc 1 898 0
 1691 00be 0A4D     		ldr	r5, .L109+4
 1692              		.loc 1 894 0
 1693 00c0 8BB2     		uxth	r3, r1
 1694 00c2 43F40070 		orr	r0, r3, #512
 1695 00c6 A080     		strh	r0, [r4, #4]	@ movhi
 1696              		.loc 1 895 0
ARM GAS  /tmp/ccoTvsNi.s 			page 31


 1697 00c8 2288     		ldrh	r2, [r4, #0]
 1698              		.loc 1 898 0
 1699 00ca E969     		ldr	r1, [r5, #28]
 1700              		.loc 1 895 0
 1701 00cc 1FFA82FE 		uxth	lr, r2
 1702 00d0 4EF4807C 		orr	ip, lr, #256
 1703 00d4 A4F800C0 		strh	ip, [r4, #0]	@ movhi
 1704              		.loc 1 899 0
 1705 00d8 0220     		movs	r0, #2
 1706              		.loc 1 898 0
 1707 00da F161     		str	r1, [r6, #28]
 1708              		.loc 1 899 0
 1709 00dc FFF7FEFF 		bl	chSchGoSleepS
 1710 00e0 E9E7     		b	.L103
 1711              	.L110:
 1712 00e2 00BF     		.align	2
 1713              	.L109:
 1714 00e4 00000000 		.word	i2c_lld_safety_timeout
 1715 00e8 00000000 		.word	rlist
 1716              		.cfi_endproc
 1717              	.LFE131:
 1718              		.size	i2c_lld_master_transmit_timeout, .-i2c_lld_master_transmit_timeout
 1719              		.global	I2CD1
 1720 00ec AFF30080 		.section	.bss.I2CD1,"aw",%nobits
 1721              		.align	2
 1722              		.set	.LANCHOR0,. + 0
 1723              		.type	I2CD1, %object
 1724              		.size	I2CD1, 52
 1725              	I2CD1:
 1726 0000 00000000 		.space	52
 1726      00000000 
 1726      00000000 
 1726      00000000 
 1726      00000000 
 1727              		.text
 1728              	.Letext0:
 1729              		.file 2 "/usr/bin/../lib/gcc/arm-none-eabi/4.6.2/include/stddef.h"
 1730              		.file 3 "/usr/bin/../lib/gcc/arm-none-eabi/4.6.2/../../../../arm-none-eabi/include/stdint.h"
 1731              		.file 4 "./os/ports/GCC/ARMCMx/chtypes.h"
 1732              		.file 5 "./os/kernel/include/chlists.h"
 1733              		.file 6 "./os/kernel/include/chthreads.h"
 1734              		.file 7 "./os/ports/GCC/ARMCMx/chcore_v7m.h"
 1735              		.file 8 "./os/kernel/include/chvt.h"
 1736              		.file 9 "./os/kernel/include/chschd.h"
 1737              		.file 10 "./os/kernel/include/chmtx.h"
 1738              		.file 11 "./os/hal/platforms/STM32F4xx/stm32f4xx.h"
 1739              		.file 12 "./os/hal/platforms/STM32F4xx/stm32_dma.h"
 1740              		.file 13 "./os/hal/include/i2c.h"
 1741              		.file 14 "./os/hal/platforms/STM32/i2c_lld.h"
 1742              		.file 15 "./os/ports/common/ARMCMx/CMSIS/include/core_cm4.h"