ARM GAS  /tmp/ccrKr3sP.s 			page 1


   1              		.syntax unified
   2              		.cpu cortex-m4
   3              		.fpu softvfp
   4              		.eabi_attribute 20, 1
   5              		.eabi_attribute 21, 1
   6              		.eabi_attribute 23, 3
   7              		.eabi_attribute 24, 1
   8              		.eabi_attribute 25, 1
   9              		.eabi_attribute 26, 1
  10              		.eabi_attribute 30, 2
  11              		.eabi_attribute 34, 1
  12              		.eabi_attribute 18, 4
  13              		.thumb
  14              		.file	"main.c"
  15              		.text
  16              	.Ltext0:
  17              		.cfi_sections	.debug_frame
  18              		.section	.text.startup.main,"ax",%progbits
  19              		.align	2
  20              		.p2align 4,,15
  21              		.global	main
  22              		.thumb
  23              		.thumb_func
  24              		.type	main, %function
  25              	main:
  26              	.LFB118:
  27              		.file 1 "main.c"
  28              		.loc 1 60 0
  29              		.cfi_startproc
  30              		@ Volatile: function does not return.
  31              		@ args = 0, pretend = 0, frame = 0
  32              		@ frame_needed = 0, uses_anonymous_args = 0
  33 0000 00B5     		push	{lr}
  34              	.LCFI0:
  35              		.cfi_def_cfa_offset 4
  36              		.cfi_offset 14, -4
  37 0002 83B0     		sub	sp, sp, #12
  38              	.LCFI1:
  39              		.cfi_def_cfa_offset 16
  40              		.loc 1 69 0
  41 0004 FFF7FEFF 		bl	halInit
  42              		.loc 1 70 0
  43 0008 FFF7FEFF 		bl	chSysInit
  44              		.loc 1 76 0
  45 000c 1A48     		ldr	r0, .L4
  46 000e 0021     		movs	r1, #0
  47 0010 FFF7FEFF 		bl	sdStart
  48              		.loc 1 77 0
  49 0014 4FF48060 		mov	r0, #1024
  50 0018 C4F20200 		movt	r0, 16386
  51 001c 4FF48061 		mov	r1, #1024
  52 0020 40F28232 		movw	r2, #898
  53 0024 FFF7FEFF 		bl	_pal_lld_setgroupmode
  54              		.loc 1 78 0
  55 0028 4FF48060 		mov	r0, #1024
  56 002c C4F20200 		movt	r0, 16386
  57 0030 4FF40061 		mov	r1, #2048
ARM GAS  /tmp/ccrKr3sP.s 			page 2


  58 0034 40F28232 		movw	r2, #898
  59 0038 FFF7FEFF 		bl	_pal_lld_setgroupmode
  60              		.loc 1 88 0
  61 003c 0024     		movs	r4, #0
  62 003e 42F63011 		movw	r1, #10544
  63 0042 4022     		movs	r2, #64
  64 0044 0D4B     		ldr	r3, .L4+4
  65 0046 0E48     		ldr	r0, .L4+8
  66 0048 0094     		str	r4, [sp, #0]
  67 004a FFF7FEFF 		bl	chThdCreateStatic
  68              		.loc 1 93 0
  69 004e 0D48     		ldr	r0, .L4+12
  70 0050 0D4B     		ldr	r3, .L4+16
  71 0052 0094     		str	r4, [sp, #0]
  72 0054 4FF4D871 		mov	r1, #432
  73 0058 7F22     		movs	r2, #127
  74 005a FFF7FEFF 		bl	chThdCreateStatic
  75              	.L2:
  76              		.loc 1 108 0 discriminator 1
  77 005e 0B49     		ldr	r1, .L4+20
  78 0060 0548     		ldr	r0, .L4
  79 0062 FFF7FEFF 		bl	chprintf
  80              		.loc 1 109 0 discriminator 1
  81 0066 41F28830 		movw	r0, #5000
  82 006a FFF7FEFF 		bl	chThdSleep
  83              		.loc 1 110 0 discriminator 1
  84 006e 0448     		ldr	r0, .L4+8
  85 0070 FFF7FEFF 		bl	chSchReadyI
  86 0074 F3E7     		b	.L2
  87              	.L5:
  88 0076 00BF     		.align	2
  89              	.L4:
  90 0078 00000000 		.word	SD3
  91 007c 00000000 		.word	Camera_Thread
  92 0080 00000000 		.word	.LANCHOR0
  93 0084 00000000 		.word	.LANCHOR1
  94 0088 00000000 		.word	UART_Thread
  95 008c 00000000 		.word	.LC0
  96              		.cfi_endproc
  97              	.LFE118:
  98              		.size	main, .-main
  99              		.global	waCamera_Thread
 100              		.global	waUART_Thread
 101              		.section	.rodata.str1.4,"aMS",%progbits,1
 102              		.align	2
 103              	.LC0:
 104 0000 496E7369 		.ascii	"Inside main() thread\015\012\000"
 104      6465206D 
 104      61696E28 
 104      29207468 
 104      72656164 
 105 0017 00       		.section	.bss.waCamera_Thread,"aw",%nobits
 106              		.align	3
 107              		.set	.LANCHOR0,. + 0
 108              		.type	waCamera_Thread, %object
 109              		.size	waCamera_Thread, 10544
 110              	waCamera_Thread:
ARM GAS  /tmp/ccrKr3sP.s 			page 3


 111 0000 00000000 		.space	10544
 111      00000000 
 111      00000000 
 111      00000000 
 111      00000000 
 112              		.section	.bss.waUART_Thread,"aw",%nobits
 113              		.align	3
 114              		.set	.LANCHOR1,. + 0
 115              		.type	waUART_Thread, %object
 116              		.size	waUART_Thread, 432
 117              	waUART_Thread:
 118 0000 00000000 		.space	432
 118      00000000 
 118      00000000 
 118      00000000 
 118      00000000 
 119              		.text
 120              	.Letext0:
 121              		.file 2 "/usr/bin/../lib/gcc/arm-none-eabi/4.6.2/include/stddef.h"
 122              		.file 3 "/usr/bin/../lib/gcc/arm-none-eabi/4.6.2/../../../../arm-none-eabi/include/stdint.h"
 123              		.file 4 "./os/ports/GCC/ARMCMx/chtypes.h"
 124              		.file 5 "./os/kernel/include/chlists.h"
 125              		.file 6 "./os/kernel/include/chthreads.h"
 126              		.file 7 "./os/ports/GCC/ARMCMx/chcore_v7m.h"
 127              		.file 8 "./os/kernel/include/chschd.h"
 128              		.file 9 "./os/kernel/include/chmtx.h"
 129              		.file 10 "./os/kernel/include/chevents.h"
 130              		.file 11 "./os/kernel/include/chqueues.h"
 131              		.file 12 "./os/kernel/include/chioch.h"
 132              		.file 13 "./os/hal/platforms/STM32F4xx/stm32f4xx.h"
 133              		.file 14 "./os/hal/platforms/STM32/GPIOv2/pal_lld.h"
 134              		.file 15 "./os/hal/include/serial.h"
 135              		.file 16 "./os/ports/common/ARMCMx/CMSIS/include/core_cm4.h"
 136              		.file 17 "./uart_iface/uart_iface.h"
 137              		.file 18 "./camera_iface/camera_iface.h"
 138              		.file 19 "./os/hal/platforms/STM32/serial_lld.h"
 139              		.section	.debug_info,"",%progbits
 140              	.Ldebug_info0:
 141 0000 790B0000 		.4byte	0xb79
 142 0004 0200     		.2byte	0x2
 143 0006 00000000 		.4byte	.Ldebug_abbrev0
 144 000a 04       		.byte	0x4
 145 000b 01       		.uleb128 0x1
 146 000c E1000000 		.4byte	.LASF130
 147 0010 01       		.byte	0x1
 148 0011 DC020000 		.4byte	.LASF131
 149 0015 52010000 		.4byte	.LASF132
 150 0019 00000000 		.4byte	0
 151 001d 00000000 		.4byte	0
 152 0021 00000000 		.4byte	.Ldebug_ranges0+0
 153 0025 00000000 		.4byte	.Ldebug_line0
 154 0029 02       		.uleb128 0x2
 155 002a 04       		.byte	0x4
 156 002b 05       		.byte	0x5
 157 002c 696E7400 		.ascii	"int\000"
 158 0030 03       		.uleb128 0x3
 159 0031 00000000 		.4byte	.LASF2
ARM GAS  /tmp/ccrKr3sP.s 			page 4


 160 0035 02       		.byte	0x2
 161 0036 D4       		.byte	0xd4
 162 0037 3B000000 		.4byte	0x3b
 163 003b 04       		.uleb128 0x4
 164 003c 04       		.byte	0x4
 165 003d 07       		.byte	0x7
 166 003e D0010000 		.4byte	.LASF0
 167 0042 04       		.uleb128 0x4
 168 0043 01       		.byte	0x1
 169 0044 06       		.byte	0x6
 170 0045 A5000000 		.4byte	.LASF1
 171 0049 03       		.uleb128 0x3
 172 004a EE040000 		.4byte	.LASF3
 173 004e 03       		.byte	0x3
 174 004f 2A       		.byte	0x2a
 175 0050 54000000 		.4byte	0x54
 176 0054 04       		.uleb128 0x4
 177 0055 01       		.byte	0x1
 178 0056 08       		.byte	0x8
 179 0057 82030000 		.4byte	.LASF4
 180 005b 04       		.uleb128 0x4
 181 005c 02       		.byte	0x2
 182 005d 05       		.byte	0x5
 183 005e AC030000 		.4byte	.LASF5
 184 0062 03       		.uleb128 0x3
 185 0063 DD010000 		.4byte	.LASF6
 186 0067 03       		.byte	0x3
 187 0068 36       		.byte	0x36
 188 0069 6D000000 		.4byte	0x6d
 189 006d 04       		.uleb128 0x4
 190 006e 02       		.byte	0x2
 191 006f 07       		.byte	0x7
 192 0070 20020000 		.4byte	.LASF7
 193 0074 03       		.uleb128 0x3
 194 0075 7A030000 		.4byte	.LASF8
 195 0079 03       		.byte	0x3
 196 007a 4F       		.byte	0x4f
 197 007b 7F000000 		.4byte	0x7f
 198 007f 04       		.uleb128 0x4
 199 0080 04       		.byte	0x4
 200 0081 05       		.byte	0x5
 201 0082 D8000000 		.4byte	.LASF9
 202 0086 03       		.uleb128 0x3
 203 0087 B7040000 		.4byte	.LASF10
 204 008b 03       		.byte	0x3
 205 008c 50       		.byte	0x50
 206 008d 91000000 		.4byte	0x91
 207 0091 04       		.uleb128 0x4
 208 0092 04       		.byte	0x4
 209 0093 07       		.byte	0x7
 210 0094 3A040000 		.4byte	.LASF11
 211 0098 04       		.uleb128 0x4
 212 0099 08       		.byte	0x8
 213 009a 05       		.byte	0x5
 214 009b 97000000 		.4byte	.LASF12
 215 009f 03       		.uleb128 0x3
 216 00a0 0E000000 		.4byte	.LASF13
ARM GAS  /tmp/ccrKr3sP.s 			page 5


 217 00a4 03       		.byte	0x3
 218 00a5 78       		.byte	0x78
 219 00a6 AA000000 		.4byte	0xaa
 220 00aa 04       		.uleb128 0x4
 221 00ab 08       		.byte	0x8
 222 00ac 07       		.byte	0x7
 223 00ad 3E000000 		.4byte	.LASF14
 224 00b1 03       		.uleb128 0x3
 225 00b2 30000000 		.4byte	.LASF15
 226 00b6 03       		.byte	0x3
 227 00b7 A6       		.byte	0xa6
 228 00b8 3B000000 		.4byte	0x3b
 229 00bc 03       		.uleb128 0x3
 230 00bd C3000000 		.4byte	.LASF16
 231 00c1 04       		.byte	0x4
 232 00c2 2E       		.byte	0x2e
 233 00c3 74000000 		.4byte	0x74
 234 00c7 03       		.uleb128 0x3
 235 00c8 55020000 		.4byte	.LASF17
 236 00cc 04       		.byte	0x4
 237 00cd 2F       		.byte	0x2f
 238 00ce 49000000 		.4byte	0x49
 239 00d2 03       		.uleb128 0x3
 240 00d3 2A010000 		.4byte	.LASF18
 241 00d7 04       		.byte	0x4
 242 00d8 30       		.byte	0x30
 243 00d9 49000000 		.4byte	0x49
 244 00dd 03       		.uleb128 0x3
 245 00de 15030000 		.4byte	.LASF19
 246 00e2 04       		.byte	0x4
 247 00e3 31       		.byte	0x31
 248 00e4 49000000 		.4byte	0x49
 249 00e8 03       		.uleb128 0x3
 250 00e9 60030000 		.4byte	.LASF20
 251 00ed 04       		.byte	0x4
 252 00ee 32       		.byte	0x32
 253 00ef 86000000 		.4byte	0x86
 254 00f3 03       		.uleb128 0x3
 255 00f4 33020000 		.4byte	.LASF21
 256 00f8 04       		.byte	0x4
 257 00f9 33       		.byte	0x33
 258 00fa 74000000 		.4byte	0x74
 259 00fe 03       		.uleb128 0x3
 260 00ff 69020000 		.4byte	.LASF22
 261 0103 04       		.byte	0x4
 262 0104 35       		.byte	0x35
 263 0105 86000000 		.4byte	0x86
 264 0109 03       		.uleb128 0x3
 265 010a 77040000 		.4byte	.LASF23
 266 010e 04       		.byte	0x4
 267 010f 36       		.byte	0x36
 268 0110 86000000 		.4byte	0x86
 269 0114 03       		.uleb128 0x3
 270 0115 C4010000 		.4byte	.LASF24
 271 0119 04       		.byte	0x4
 272 011a 37       		.byte	0x37
 273 011b 74000000 		.4byte	0x74
ARM GAS  /tmp/ccrKr3sP.s 			page 6


 274 011f 03       		.uleb128 0x3
 275 0120 EB030000 		.4byte	.LASF25
 276 0124 05       		.byte	0x5
 277 0125 2A       		.byte	0x2a
 278 0126 2A010000 		.4byte	0x12a
 279 012a 05       		.uleb128 0x5
 280 012b EB030000 		.4byte	.LASF25
 281 012f 48       		.byte	0x48
 282 0130 06       		.byte	0x6
 283 0131 5E       		.byte	0x5e
 284 0132 41020000 		.4byte	0x241
 285 0136 06       		.uleb128 0x6
 286 0137 CC030000 		.4byte	.LASF26
 287 013b 06       		.byte	0x6
 288 013c 5F       		.byte	0x5f
 289 013d 66020000 		.4byte	0x266
 290 0141 02       		.byte	0x2
 291 0142 23       		.byte	0x23
 292 0143 00       		.uleb128 0
 293 0144 06       		.uleb128 0x6
 294 0145 4F030000 		.4byte	.LASF27
 295 0149 06       		.byte	0x6
 296 014a 61       		.byte	0x61
 297 014b 66020000 		.4byte	0x266
 298 014f 02       		.byte	0x2
 299 0150 23       		.byte	0x23
 300 0151 04       		.uleb128 0x4
 301 0152 06       		.uleb128 0x6
 302 0153 80000000 		.4byte	.LASF28
 303 0157 06       		.byte	0x6
 304 0158 63       		.byte	0x63
 305 0159 E8000000 		.4byte	0xe8
 306 015d 02       		.byte	0x2
 307 015e 23       		.byte	0x23
 308 015f 08       		.uleb128 0x8
 309 0160 06       		.uleb128 0x6
 310 0161 38050000 		.4byte	.LASF29
 311 0165 06       		.byte	0x6
 312 0166 64       		.byte	0x64
 313 0167 3E030000 		.4byte	0x33e
 314 016b 02       		.byte	0x2
 315 016c 23       		.byte	0x23
 316 016d 0C       		.uleb128 0xc
 317 016e 06       		.uleb128 0x6
 318 016f 89010000 		.4byte	.LASF30
 319 0173 06       		.byte	0x6
 320 0174 66       		.byte	0x66
 321 0175 66020000 		.4byte	0x266
 322 0179 02       		.byte	0x2
 323 017a 23       		.byte	0x23
 324 017b 10       		.uleb128 0x10
 325 017c 06       		.uleb128 0x6
 326 017d C1020000 		.4byte	.LASF31
 327 0181 06       		.byte	0x6
 328 0182 67       		.byte	0x67
 329 0183 66020000 		.4byte	0x266
 330 0187 02       		.byte	0x2
ARM GAS  /tmp/ccrKr3sP.s 			page 7


 331 0188 23       		.byte	0x23
 332 0189 14       		.uleb128 0x14
 333 018a 06       		.uleb128 0x6
 334 018b C6040000 		.4byte	.LASF32
 335 018f 06       		.byte	0x6
 336 0190 6E       		.byte	0x6e
 337 0191 CC040000 		.4byte	0x4cc
 338 0195 02       		.byte	0x2
 339 0196 23       		.byte	0x23
 340 0197 18       		.uleb128 0x18
 341 0198 06       		.uleb128 0x6
 342 0199 B6030000 		.4byte	.LASF33
 343 019d 06       		.byte	0x6
 344 019e 79       		.byte	0x79
 345 019f D2000000 		.4byte	0xd2
 346 01a3 02       		.byte	0x2
 347 01a4 23       		.byte	0x23
 348 01a5 1C       		.uleb128 0x1c
 349 01a6 06       		.uleb128 0x6
 350 01a7 D3030000 		.4byte	.LASF34
 351 01ab 06       		.byte	0x6
 352 01ac 7D       		.byte	0x7d
 353 01ad C7000000 		.4byte	0xc7
 354 01b1 02       		.byte	0x2
 355 01b2 23       		.byte	0x23
 356 01b3 1D       		.uleb128 0x1d
 357 01b4 06       		.uleb128 0x6
 358 01b5 33010000 		.4byte	.LASF35
 359 01b9 06       		.byte	0x6
 360 01ba 82       		.byte	0x82
 361 01bb DD000000 		.4byte	0xdd
 362 01bf 02       		.byte	0x2
 363 01c0 23       		.byte	0x23
 364 01c1 1E       		.uleb128 0x1e
 365 01c2 06       		.uleb128 0x6
 366 01c3 4B010000 		.4byte	.LASF36
 367 01c7 06       		.byte	0x6
 368 01c8 89       		.byte	0x89
 369 01c9 66030000 		.4byte	0x366
 370 01cd 02       		.byte	0x2
 371 01ce 23       		.byte	0x23
 372 01cf 20       		.uleb128 0x20
 373 01d0 07       		.uleb128 0x7
 374 01d1 705F7500 		.ascii	"p_u\000"
 375 01d5 06       		.byte	0x6
 376 01d6 AE       		.byte	0xae
 377 01d7 97040000 		.4byte	0x497
 378 01db 02       		.byte	0x2
 379 01dc 23       		.byte	0x23
 380 01dd 24       		.uleb128 0x24
 381 01de 06       		.uleb128 0x6
 382 01df 3E050000 		.4byte	.LASF37
 383 01e3 06       		.byte	0x6
 384 01e4 B3       		.byte	0xb3
 385 01e5 8E020000 		.4byte	0x28e
 386 01e9 02       		.byte	0x2
 387 01ea 23       		.byte	0x23
ARM GAS  /tmp/ccrKr3sP.s 			page 8


 388 01eb 28       		.uleb128 0x28
 389 01ec 06       		.uleb128 0x6
 390 01ed FD010000 		.4byte	.LASF38
 391 01f1 06       		.byte	0x6
 392 01f2 B9       		.byte	0xb9
 393 01f3 6C020000 		.4byte	0x26c
 394 01f7 02       		.byte	0x2
 395 01f8 23       		.byte	0x23
 396 01f9 2C       		.uleb128 0x2c
 397 01fa 06       		.uleb128 0x6
 398 01fb 90030000 		.4byte	.LASF39
 399 01ff 06       		.byte	0x6
 400 0200 BD       		.byte	0xbd
 401 0201 F3000000 		.4byte	0xf3
 402 0205 02       		.byte	0x2
 403 0206 23       		.byte	0x23
 404 0207 34       		.uleb128 0x34
 405 0208 06       		.uleb128 0x6
 406 0209 F2030000 		.4byte	.LASF40
 407 020d 06       		.byte	0x6
 408 020e C3       		.byte	0xc3
 409 020f FE000000 		.4byte	0xfe
 410 0213 02       		.byte	0x2
 411 0214 23       		.byte	0x23
 412 0215 38       		.uleb128 0x38
 413 0216 06       		.uleb128 0x6
 414 0217 A2030000 		.4byte	.LASF41
 415 021b 06       		.byte	0x6
 416 021c CA       		.byte	0xca
 417 021d DE040000 		.4byte	0x4de
 418 0221 02       		.byte	0x2
 419 0222 23       		.byte	0x23
 420 0223 3C       		.uleb128 0x3c
 421 0224 06       		.uleb128 0x6
 422 0225 81040000 		.4byte	.LASF42
 423 0229 06       		.byte	0x6
 424 022a CE       		.byte	0xce
 425 022b E8000000 		.4byte	0xe8
 426 022f 02       		.byte	0x2
 427 0230 23       		.byte	0x23
 428 0231 40       		.uleb128 0x40
 429 0232 06       		.uleb128 0x6
 430 0233 BB000000 		.4byte	.LASF43
 431 0237 06       		.byte	0x6
 432 0238 D4       		.byte	0xd4
 433 0239 A4020000 		.4byte	0x2a4
 434 023d 02       		.byte	0x2
 435 023e 23       		.byte	0x23
 436 023f 44       		.uleb128 0x44
 437 0240 00       		.byte	0
 438 0241 08       		.uleb128 0x8
 439 0242 08       		.byte	0x8
 440 0243 05       		.byte	0x5
 441 0244 61       		.byte	0x61
 442 0245 66020000 		.4byte	0x266
 443 0249 06       		.uleb128 0x6
 444 024a CC030000 		.4byte	.LASF26
ARM GAS  /tmp/ccrKr3sP.s 			page 9


 445 024e 05       		.byte	0x5
 446 024f 62       		.byte	0x62
 447 0250 66020000 		.4byte	0x266
 448 0254 02       		.byte	0x2
 449 0255 23       		.byte	0x23
 450 0256 00       		.uleb128 0
 451 0257 06       		.uleb128 0x6
 452 0258 4F030000 		.4byte	.LASF27
 453 025c 05       		.byte	0x5
 454 025d 64       		.byte	0x64
 455 025e 66020000 		.4byte	0x266
 456 0262 02       		.byte	0x2
 457 0263 23       		.byte	0x23
 458 0264 04       		.uleb128 0x4
 459 0265 00       		.byte	0
 460 0266 09       		.uleb128 0x9
 461 0267 04       		.byte	0x4
 462 0268 1F010000 		.4byte	0x11f
 463 026c 03       		.uleb128 0x3
 464 026d CF020000 		.4byte	.LASF44
 465 0271 05       		.byte	0x5
 466 0272 66       		.byte	0x66
 467 0273 41020000 		.4byte	0x241
 468 0277 08       		.uleb128 0x8
 469 0278 04       		.byte	0x4
 470 0279 05       		.byte	0x5
 471 027a 6B       		.byte	0x6b
 472 027b 8E020000 		.4byte	0x28e
 473 027f 06       		.uleb128 0x6
 474 0280 CC030000 		.4byte	.LASF26
 475 0284 05       		.byte	0x5
 476 0285 6D       		.byte	0x6d
 477 0286 66020000 		.4byte	0x266
 478 028a 02       		.byte	0x2
 479 028b 23       		.byte	0x23
 480 028c 00       		.uleb128 0
 481 028d 00       		.byte	0
 482 028e 03       		.uleb128 0x3
 483 028f 5D020000 		.4byte	.LASF45
 484 0293 05       		.byte	0x5
 485 0294 70       		.byte	0x70
 486 0295 77020000 		.4byte	0x277
 487 0299 03       		.uleb128 0x3
 488 029a AF010000 		.4byte	.LASF46
 489 029e 07       		.byte	0x7
 490 029f D7       		.byte	0xd7
 491 02a0 A4020000 		.4byte	0x2a4
 492 02a4 0A       		.uleb128 0xa
 493 02a5 04       		.byte	0x4
 494 02a6 03       		.uleb128 0x3
 495 02a7 97020000 		.4byte	.LASF47
 496 02ab 07       		.byte	0x7
 497 02ac DD       		.byte	0xdd
 498 02ad 9F000000 		.4byte	0x9f
 499 02b1 05       		.uleb128 0x5
 500 02b2 A7040000 		.4byte	.LASF48
 501 02b6 24       		.byte	0x24
ARM GAS  /tmp/ccrKr3sP.s 			page 10


 502 02b7 07       		.byte	0x7
 503 02b8 FE       		.byte	0xfe
 504 02b9 3E030000 		.4byte	0x33e
 505 02bd 0B       		.uleb128 0xb
 506 02be 723400   		.ascii	"r4\000"
 507 02c1 07       		.byte	0x7
 508 02c2 1101     		.2byte	0x111
 509 02c4 99020000 		.4byte	0x299
 510 02c8 02       		.byte	0x2
 511 02c9 23       		.byte	0x23
 512 02ca 00       		.uleb128 0
 513 02cb 0B       		.uleb128 0xb
 514 02cc 723500   		.ascii	"r5\000"
 515 02cf 07       		.byte	0x7
 516 02d0 1201     		.2byte	0x112
 517 02d2 99020000 		.4byte	0x299
 518 02d6 02       		.byte	0x2
 519 02d7 23       		.byte	0x23
 520 02d8 04       		.uleb128 0x4
 521 02d9 0B       		.uleb128 0xb
 522 02da 723600   		.ascii	"r6\000"
 523 02dd 07       		.byte	0x7
 524 02de 1301     		.2byte	0x113
 525 02e0 99020000 		.4byte	0x299
 526 02e4 02       		.byte	0x2
 527 02e5 23       		.byte	0x23
 528 02e6 08       		.uleb128 0x8
 529 02e7 0B       		.uleb128 0xb
 530 02e8 723700   		.ascii	"r7\000"
 531 02eb 07       		.byte	0x7
 532 02ec 1401     		.2byte	0x114
 533 02ee 99020000 		.4byte	0x299
 534 02f2 02       		.byte	0x2
 535 02f3 23       		.byte	0x23
 536 02f4 0C       		.uleb128 0xc
 537 02f5 0B       		.uleb128 0xb
 538 02f6 723800   		.ascii	"r8\000"
 539 02f9 07       		.byte	0x7
 540 02fa 1501     		.2byte	0x115
 541 02fc 99020000 		.4byte	0x299
 542 0300 02       		.byte	0x2
 543 0301 23       		.byte	0x23
 544 0302 10       		.uleb128 0x10
 545 0303 0B       		.uleb128 0xb
 546 0304 723900   		.ascii	"r9\000"
 547 0307 07       		.byte	0x7
 548 0308 1601     		.2byte	0x116
 549 030a 99020000 		.4byte	0x299
 550 030e 02       		.byte	0x2
 551 030f 23       		.byte	0x23
 552 0310 14       		.uleb128 0x14
 553 0311 0B       		.uleb128 0xb
 554 0312 72313000 		.ascii	"r10\000"
 555 0316 07       		.byte	0x7
 556 0317 1701     		.2byte	0x117
 557 0319 99020000 		.4byte	0x299
 558 031d 02       		.byte	0x2
ARM GAS  /tmp/ccrKr3sP.s 			page 11


 559 031e 23       		.byte	0x23
 560 031f 18       		.uleb128 0x18
 561 0320 0B       		.uleb128 0xb
 562 0321 72313100 		.ascii	"r11\000"
 563 0325 07       		.byte	0x7
 564 0326 1801     		.2byte	0x118
 565 0328 99020000 		.4byte	0x299
 566 032c 02       		.byte	0x2
 567 032d 23       		.byte	0x23
 568 032e 1C       		.uleb128 0x1c
 569 032f 0B       		.uleb128 0xb
 570 0330 6C7200   		.ascii	"lr\000"
 571 0333 07       		.byte	0x7
 572 0334 1901     		.2byte	0x119
 573 0336 99020000 		.4byte	0x299
 574 033a 02       		.byte	0x2
 575 033b 23       		.byte	0x23
 576 033c 20       		.uleb128 0x20
 577 033d 00       		.byte	0
 578 033e 0C       		.uleb128 0xc
 579 033f 95040000 		.4byte	.LASF49
 580 0343 04       		.byte	0x4
 581 0344 07       		.byte	0x7
 582 0345 2301     		.2byte	0x123
 583 0347 5B030000 		.4byte	0x35b
 584 034b 0B       		.uleb128 0xb
 585 034c 72313300 		.ascii	"r13\000"
 586 0350 07       		.byte	0x7
 587 0351 2401     		.2byte	0x124
 588 0353 5B030000 		.4byte	0x35b
 589 0357 02       		.byte	0x2
 590 0358 23       		.byte	0x23
 591 0359 00       		.uleb128 0
 592 035a 00       		.byte	0
 593 035b 09       		.uleb128 0x9
 594 035c 04       		.byte	0x4
 595 035d B1020000 		.4byte	0x2b1
 596 0361 0D       		.uleb128 0xd
 597 0362 86000000 		.4byte	0x86
 598 0366 0D       		.uleb128 0xd
 599 0367 09010000 		.4byte	0x109
 600 036b 08       		.uleb128 0x8
 601 036c 20       		.byte	0x20
 602 036d 08       		.byte	0x8
 603 036e 5E       		.byte	0x5e
 604 036f D6030000 		.4byte	0x3d6
 605 0373 06       		.uleb128 0x6
 606 0374 1B040000 		.4byte	.LASF50
 607 0378 08       		.byte	0x8
 608 0379 5F       		.byte	0x5f
 609 037a 6C020000 		.4byte	0x26c
 610 037e 02       		.byte	0x2
 611 037f 23       		.byte	0x23
 612 0380 00       		.uleb128 0
 613 0381 06       		.uleb128 0x6
 614 0382 BE030000 		.4byte	.LASF51
 615 0386 08       		.byte	0x8
ARM GAS  /tmp/ccrKr3sP.s 			page 12


 616 0387 60       		.byte	0x60
 617 0388 E8000000 		.4byte	0xe8
 618 038c 02       		.byte	0x2
 619 038d 23       		.byte	0x23
 620 038e 08       		.uleb128 0x8
 621 038f 06       		.uleb128 0x6
 622 0390 C9020000 		.4byte	.LASF52
 623 0394 08       		.byte	0x8
 624 0395 62       		.byte	0x62
 625 0396 3E030000 		.4byte	0x33e
 626 039a 02       		.byte	0x2
 627 039b 23       		.byte	0x23
 628 039c 0C       		.uleb128 0xc
 629 039d 06       		.uleb128 0x6
 630 039e A7010000 		.4byte	.LASF53
 631 03a2 08       		.byte	0x8
 632 03a3 65       		.byte	0x65
 633 03a4 66020000 		.4byte	0x266
 634 03a8 02       		.byte	0x2
 635 03a9 23       		.byte	0x23
 636 03aa 10       		.uleb128 0x10
 637 03ab 06       		.uleb128 0x6
 638 03ac E3020000 		.4byte	.LASF54
 639 03b0 08       		.byte	0x8
 640 03b1 66       		.byte	0x66
 641 03b2 66020000 		.4byte	0x266
 642 03b6 02       		.byte	0x2
 643 03b7 23       		.byte	0x23
 644 03b8 14       		.uleb128 0x14
 645 03b9 06       		.uleb128 0x6
 646 03ba 70030000 		.4byte	.LASF55
 647 03be 08       		.byte	0x8
 648 03bf 6A       		.byte	0x6a
 649 03c0 14010000 		.4byte	0x114
 650 03c4 02       		.byte	0x2
 651 03c5 23       		.byte	0x23
 652 03c6 18       		.uleb128 0x18
 653 03c7 06       		.uleb128 0x6
 654 03c8 4C040000 		.4byte	.LASF56
 655 03cc 08       		.byte	0x8
 656 03cd 6C       		.byte	0x6c
 657 03ce 66020000 		.4byte	0x266
 658 03d2 02       		.byte	0x2
 659 03d3 23       		.byte	0x23
 660 03d4 1C       		.uleb128 0x1c
 661 03d5 00       		.byte	0
 662 03d6 03       		.uleb128 0x3
 663 03d7 D5040000 		.4byte	.LASF57
 664 03db 08       		.byte	0x8
 665 03dc 6E       		.byte	0x6e
 666 03dd 6B030000 		.4byte	0x36b
 667 03e1 05       		.uleb128 0x5
 668 03e2 AE020000 		.4byte	.LASF58
 669 03e6 10       		.byte	0x10
 670 03e7 09       		.byte	0x9
 671 03e8 2C       		.byte	0x2c
 672 03e9 18040000 		.4byte	0x418
ARM GAS  /tmp/ccrKr3sP.s 			page 13


 673 03ed 06       		.uleb128 0x6
 674 03ee CA000000 		.4byte	.LASF59
 675 03f2 09       		.byte	0x9
 676 03f3 2D       		.byte	0x2d
 677 03f4 6C020000 		.4byte	0x26c
 678 03f8 02       		.byte	0x2
 679 03f9 23       		.byte	0x23
 680 03fa 00       		.uleb128 0
 681 03fb 06       		.uleb128 0x6
 682 03fc 30050000 		.4byte	.LASF60
 683 0400 09       		.byte	0x9
 684 0401 2F       		.byte	0x2f
 685 0402 66020000 		.4byte	0x266
 686 0406 02       		.byte	0x2
 687 0407 23       		.byte	0x23
 688 0408 08       		.uleb128 0x8
 689 0409 06       		.uleb128 0x6
 690 040a 70040000 		.4byte	.LASF61
 691 040e 09       		.byte	0x9
 692 040f 31       		.byte	0x31
 693 0410 18040000 		.4byte	0x418
 694 0414 02       		.byte	0x2
 695 0415 23       		.byte	0x23
 696 0416 0C       		.uleb128 0xc
 697 0417 00       		.byte	0
 698 0418 09       		.uleb128 0x9
 699 0419 04       		.byte	0x4
 700 041a E1030000 		.4byte	0x3e1
 701 041e 03       		.uleb128 0x3
 702 041f AE020000 		.4byte	.LASF58
 703 0423 09       		.byte	0x9
 704 0424 33       		.byte	0x33
 705 0425 E1030000 		.4byte	0x3e1
 706 0429 03       		.uleb128 0x3
 707 042a 08050000 		.4byte	.LASF62
 708 042e 0A       		.byte	0xa
 709 042f 29       		.byte	0x29
 710 0430 34040000 		.4byte	0x434
 711 0434 05       		.uleb128 0x5
 712 0435 08050000 		.4byte	.LASF62
 713 0439 0C       		.byte	0xc
 714 043a 0A       		.byte	0xa
 715 043b 2E       		.byte	0x2e
 716 043c 6B040000 		.4byte	0x46b
 717 0440 06       		.uleb128 0x6
 718 0441 DB030000 		.4byte	.LASF63
 719 0445 0A       		.byte	0xa
 720 0446 2F       		.byte	0x2f
 721 0447 6B040000 		.4byte	0x46b
 722 044b 02       		.byte	0x2
 723 044c 23       		.byte	0x23
 724 044d 00       		.uleb128 0
 725 044e 06       		.uleb128 0x6
 726 044f 96030000 		.4byte	.LASF64
 727 0453 0A       		.byte	0xa
 728 0454 32       		.byte	0x32
 729 0455 66020000 		.4byte	0x266
ARM GAS  /tmp/ccrKr3sP.s 			page 14


 730 0459 02       		.byte	0x2
 731 045a 23       		.byte	0x23
 732 045b 04       		.uleb128 0x4
 733 045c 06       		.uleb128 0x6
 734 045d EB020000 		.4byte	.LASF65
 735 0461 0A       		.byte	0xa
 736 0462 34       		.byte	0x34
 737 0463 FE000000 		.4byte	0xfe
 738 0467 02       		.byte	0x2
 739 0468 23       		.byte	0x23
 740 0469 08       		.uleb128 0x8
 741 046a 00       		.byte	0
 742 046b 09       		.uleb128 0x9
 743 046c 04       		.byte	0x4
 744 046d 29040000 		.4byte	0x429
 745 0471 05       		.uleb128 0x5
 746 0472 B8010000 		.4byte	.LASF66
 747 0476 04       		.byte	0x4
 748 0477 0A       		.byte	0xa
 749 0478 3C       		.byte	0x3c
 750 0479 8C040000 		.4byte	0x48c
 751 047d 06       		.uleb128 0x6
 752 047e CD040000 		.4byte	.LASF67
 753 0482 0A       		.byte	0xa
 754 0483 3D       		.byte	0x3d
 755 0484 6B040000 		.4byte	0x46b
 756 0488 02       		.byte	0x2
 757 0489 23       		.byte	0x23
 758 048a 00       		.uleb128 0
 759 048b 00       		.byte	0
 760 048c 03       		.uleb128 0x3
 761 048d B8010000 		.4byte	.LASF66
 762 0491 0A       		.byte	0xa
 763 0492 40       		.byte	0x40
 764 0493 71040000 		.4byte	0x471
 765 0497 0E       		.uleb128 0xe
 766 0498 04       		.byte	0x4
 767 0499 06       		.byte	0x6
 768 049a 90       		.byte	0x90
 769 049b CC040000 		.4byte	0x4cc
 770 049f 0F       		.uleb128 0xf
 771 04a0 07000000 		.4byte	.LASF68
 772 04a4 06       		.byte	0x6
 773 04a5 97       		.byte	0x97
 774 04a6 F3000000 		.4byte	0xf3
 775 04aa 0F       		.uleb128 0xf
 776 04ab 6A000000 		.4byte	.LASF69
 777 04af 06       		.byte	0x6
 778 04b0 9E       		.byte	0x9e
 779 04b1 F3000000 		.4byte	0xf3
 780 04b5 0F       		.uleb128 0xf
 781 04b6 16050000 		.4byte	.LASF70
 782 04ba 06       		.byte	0x6
 783 04bb A5       		.byte	0xa5
 784 04bc A4020000 		.4byte	0x2a4
 785 04c0 0F       		.uleb128 0xf
 786 04c1 C5030000 		.4byte	.LASF71
ARM GAS  /tmp/ccrKr3sP.s 			page 15


 787 04c5 06       		.byte	0x6
 788 04c6 AC       		.byte	0xac
 789 04c7 FE000000 		.4byte	0xfe
 790 04cb 00       		.byte	0
 791 04cc 09       		.uleb128 0x9
 792 04cd 04       		.byte	0x4
 793 04ce D2040000 		.4byte	0x4d2
 794 04d2 10       		.uleb128 0x10
 795 04d3 D7040000 		.4byte	0x4d7
 796 04d7 04       		.uleb128 0x4
 797 04d8 01       		.byte	0x1
 798 04d9 08       		.byte	0x8
 799 04da 5B040000 		.4byte	.LASF72
 800 04de 09       		.uleb128 0x9
 801 04df 04       		.byte	0x4
 802 04e0 1E040000 		.4byte	0x41e
 803 04e4 03       		.uleb128 0x3
 804 04e5 8A020000 		.4byte	.LASF73
 805 04e9 0B       		.byte	0xb
 806 04ea 37       		.byte	0x37
 807 04eb EF040000 		.4byte	0x4ef
 808 04ef 05       		.uleb128 0x5
 809 04f0 8A020000 		.4byte	.LASF73
 810 04f4 20       		.byte	0x20
 811 04f5 0B       		.byte	0xb
 812 04f6 45       		.byte	0x45
 813 04f7 5E050000 		.4byte	0x55e
 814 04fb 06       		.uleb128 0x6
 815 04fc 8D000000 		.4byte	.LASF74
 816 0500 0B       		.byte	0xb
 817 0501 46       		.byte	0x46
 818 0502 6C020000 		.4byte	0x26c
 819 0506 02       		.byte	0x2
 820 0507 23       		.byte	0x23
 821 0508 00       		.uleb128 0
 822 0509 06       		.uleb128 0x6
 823 050a 11040000 		.4byte	.LASF75
 824 050e 0B       		.byte	0xb
 825 050f 47       		.byte	0x47
 826 0510 30000000 		.4byte	0x30
 827 0514 02       		.byte	0x2
 828 0515 23       		.byte	0x23
 829 0516 08       		.uleb128 0x8
 830 0517 06       		.uleb128 0x6
 831 0518 3A010000 		.4byte	.LASF76
 832 051c 0B       		.byte	0xb
 833 051d 48       		.byte	0x48
 834 051e 81050000 		.4byte	0x581
 835 0522 02       		.byte	0x2
 836 0523 23       		.byte	0x23
 837 0524 0C       		.uleb128 0xc
 838 0525 06       		.uleb128 0x6
 839 0526 C0040000 		.4byte	.LASF77
 840 052a 0B       		.byte	0xb
 841 052b 49       		.byte	0x49
 842 052c 81050000 		.4byte	0x581
 843 0530 02       		.byte	0x2
ARM GAS  /tmp/ccrKr3sP.s 			page 16


 844 0531 23       		.byte	0x23
 845 0532 10       		.uleb128 0x10
 846 0533 06       		.uleb128 0x6
 847 0534 43010000 		.4byte	.LASF78
 848 0538 0B       		.byte	0xb
 849 0539 4B       		.byte	0x4b
 850 053a 81050000 		.4byte	0x581
 851 053e 02       		.byte	0x2
 852 053f 23       		.byte	0x23
 853 0540 14       		.uleb128 0x14
 854 0541 06       		.uleb128 0x6
 855 0542 68030000 		.4byte	.LASF79
 856 0546 0B       		.byte	0xb
 857 0547 4C       		.byte	0x4c
 858 0548 81050000 		.4byte	0x581
 859 054c 02       		.byte	0x2
 860 054d 23       		.byte	0x23
 861 054e 18       		.uleb128 0x18
 862 054f 06       		.uleb128 0x6
 863 0550 DF040000 		.4byte	.LASF80
 864 0554 0B       		.byte	0xb
 865 0555 4D       		.byte	0x4d
 866 0556 5E050000 		.4byte	0x55e
 867 055a 02       		.byte	0x2
 868 055b 23       		.byte	0x23
 869 055c 1C       		.uleb128 0x1c
 870 055d 00       		.byte	0
 871 055e 03       		.uleb128 0x3
 872 055f 80020000 		.4byte	.LASF81
 873 0563 0B       		.byte	0xb
 874 0564 3A       		.byte	0x3a
 875 0565 69050000 		.4byte	0x569
 876 0569 09       		.uleb128 0x9
 877 056a 04       		.byte	0x4
 878 056b 6F050000 		.4byte	0x56f
 879 056f 11       		.uleb128 0x11
 880 0570 01       		.byte	0x1
 881 0571 7B050000 		.4byte	0x57b
 882 0575 12       		.uleb128 0x12
 883 0576 7B050000 		.4byte	0x57b
 884 057a 00       		.byte	0
 885 057b 09       		.uleb128 0x9
 886 057c 04       		.byte	0x4
 887 057d E4040000 		.4byte	0x4e4
 888 0581 09       		.uleb128 0x9
 889 0582 04       		.byte	0x4
 890 0583 49000000 		.4byte	0x49
 891 0587 03       		.uleb128 0x3
 892 0588 75020000 		.4byte	.LASF82
 893 058c 0B       		.byte	0xb
 894 058d 76       		.byte	0x76
 895 058e E4040000 		.4byte	0x4e4
 896 0592 03       		.uleb128 0x3
 897 0593 17000000 		.4byte	.LASF83
 898 0597 0B       		.byte	0xb
 899 0598 E6       		.byte	0xe6
 900 0599 E4040000 		.4byte	0x4e4
ARM GAS  /tmp/ccrKr3sP.s 			page 17


 901 059d 13       		.uleb128 0x13
 902 059e 01       		.byte	0x1
 903 059f 30000000 		.4byte	0x30
 904 05a3 B7050000 		.4byte	0x5b7
 905 05a7 12       		.uleb128 0x12
 906 05a8 A4020000 		.4byte	0x2a4
 907 05ac 12       		.uleb128 0x12
 908 05ad B7050000 		.4byte	0x5b7
 909 05b1 12       		.uleb128 0x12
 910 05b2 30000000 		.4byte	0x30
 911 05b6 00       		.byte	0
 912 05b7 09       		.uleb128 0x9
 913 05b8 04       		.byte	0x4
 914 05b9 BD050000 		.4byte	0x5bd
 915 05bd 10       		.uleb128 0x10
 916 05be 49000000 		.4byte	0x49
 917 05c2 09       		.uleb128 0x9
 918 05c3 04       		.byte	0x4
 919 05c4 9D050000 		.4byte	0x59d
 920 05c8 13       		.uleb128 0x13
 921 05c9 01       		.byte	0x1
 922 05ca 30000000 		.4byte	0x30
 923 05ce E2050000 		.4byte	0x5e2
 924 05d2 12       		.uleb128 0x12
 925 05d3 A4020000 		.4byte	0x2a4
 926 05d7 12       		.uleb128 0x12
 927 05d8 81050000 		.4byte	0x581
 928 05dc 12       		.uleb128 0x12
 929 05dd 30000000 		.4byte	0x30
 930 05e1 00       		.byte	0
 931 05e2 09       		.uleb128 0x9
 932 05e3 04       		.byte	0x4
 933 05e4 C8050000 		.4byte	0x5c8
 934 05e8 05       		.uleb128 0x5
 935 05e9 55000000 		.4byte	.LASF84
 936 05ed 20       		.byte	0x20
 937 05ee 0C       		.byte	0xc
 938 05ef 51       		.byte	0x51
 939 05f0 65060000 		.4byte	0x665
 940 05f4 06       		.uleb128 0x6
 941 05f5 A2020000 		.4byte	.LASF85
 942 05f9 0C       		.byte	0xc
 943 05fa 52       		.byte	0x52
 944 05fb C2050000 		.4byte	0x5c2
 945 05ff 02       		.byte	0x2
 946 0600 23       		.byte	0x23
 947 0601 00       		.uleb128 0
 948 0602 06       		.uleb128 0x6
 949 0603 56040000 		.4byte	.LASF86
 950 0607 0C       		.byte	0xc
 951 0608 52       		.byte	0x52
 952 0609 E2050000 		.4byte	0x5e2
 953 060d 02       		.byte	0x2
 954 060e 23       		.byte	0x23
 955 060f 04       		.uleb128 0x4
 956 0610 06       		.uleb128 0x6
 957 0611 91010000 		.4byte	.LASF87
ARM GAS  /tmp/ccrKr3sP.s 			page 18


 958 0615 0C       		.byte	0xc
 959 0616 52       		.byte	0x52
 960 0617 75060000 		.4byte	0x675
 961 061b 02       		.byte	0x2
 962 061c 23       		.byte	0x23
 963 061d 08       		.uleb128 0x8
 964 061e 06       		.uleb128 0x6
 965 061f 1D050000 		.4byte	.LASF88
 966 0623 0C       		.byte	0xc
 967 0624 52       		.byte	0x52
 968 0625 75060000 		.4byte	0x675
 969 0629 02       		.byte	0x2
 970 062a 23       		.byte	0x23
 971 062b 0C       		.uleb128 0xc
 972 062c 07       		.uleb128 0x7
 973 062d 70757400 		.ascii	"put\000"
 974 0631 0C       		.byte	0xc
 975 0632 52       		.byte	0x52
 976 0633 95060000 		.4byte	0x695
 977 0637 02       		.byte	0x2
 978 0638 23       		.byte	0x23
 979 0639 10       		.uleb128 0x10
 980 063a 07       		.uleb128 0x7
 981 063b 67657400 		.ascii	"get\000"
 982 063f 0C       		.byte	0xc
 983 0640 52       		.byte	0x52
 984 0641 B0060000 		.4byte	0x6b0
 985 0645 02       		.byte	0x2
 986 0646 23       		.byte	0x23
 987 0647 14       		.uleb128 0x14
 988 0648 06       		.uleb128 0x6
 989 0649 4E020000 		.4byte	.LASF89
 990 064d 0C       		.byte	0xc
 991 064e 52       		.byte	0x52
 992 064f D5060000 		.4byte	0x6d5
 993 0653 02       		.byte	0x2
 994 0654 23       		.byte	0x23
 995 0655 18       		.uleb128 0x18
 996 0656 06       		.uleb128 0x6
 997 0657 87000000 		.4byte	.LASF90
 998 065b 0C       		.byte	0xc
 999 065c 52       		.byte	0x52
 1000 065d FA060000 		.4byte	0x6fa
 1001 0661 02       		.byte	0x2
 1002 0662 23       		.byte	0x23
 1003 0663 1C       		.uleb128 0x1c
 1004 0664 00       		.byte	0
 1005 0665 13       		.uleb128 0x13
 1006 0666 01       		.byte	0x1
 1007 0667 BC000000 		.4byte	0xbc
 1008 066b 75060000 		.4byte	0x675
 1009 066f 12       		.uleb128 0x12
 1010 0670 A4020000 		.4byte	0x2a4
 1011 0674 00       		.byte	0
 1012 0675 09       		.uleb128 0x9
 1013 0676 04       		.byte	0x4
 1014 0677 65060000 		.4byte	0x665
ARM GAS  /tmp/ccrKr3sP.s 			page 19


 1015 067b 13       		.uleb128 0x13
 1016 067c 01       		.byte	0x1
 1017 067d F3000000 		.4byte	0xf3
 1018 0681 95060000 		.4byte	0x695
 1019 0685 12       		.uleb128 0x12
 1020 0686 A4020000 		.4byte	0x2a4
 1021 068a 12       		.uleb128 0x12
 1022 068b 49000000 		.4byte	0x49
 1023 068f 12       		.uleb128 0x12
 1024 0690 09010000 		.4byte	0x109
 1025 0694 00       		.byte	0
 1026 0695 09       		.uleb128 0x9
 1027 0696 04       		.byte	0x4
 1028 0697 7B060000 		.4byte	0x67b
 1029 069b 13       		.uleb128 0x13
 1030 069c 01       		.byte	0x1
 1031 069d F3000000 		.4byte	0xf3
 1032 06a1 B0060000 		.4byte	0x6b0
 1033 06a5 12       		.uleb128 0x12
 1034 06a6 A4020000 		.4byte	0x2a4
 1035 06aa 12       		.uleb128 0x12
 1036 06ab 09010000 		.4byte	0x109
 1037 06af 00       		.byte	0
 1038 06b0 09       		.uleb128 0x9
 1039 06b1 04       		.byte	0x4
 1040 06b2 9B060000 		.4byte	0x69b
 1041 06b6 13       		.uleb128 0x13
 1042 06b7 01       		.byte	0x1
 1043 06b8 30000000 		.4byte	0x30
 1044 06bc D5060000 		.4byte	0x6d5
 1045 06c0 12       		.uleb128 0x12
 1046 06c1 A4020000 		.4byte	0x2a4
 1047 06c5 12       		.uleb128 0x12
 1048 06c6 B7050000 		.4byte	0x5b7
 1049 06ca 12       		.uleb128 0x12
 1050 06cb 30000000 		.4byte	0x30
 1051 06cf 12       		.uleb128 0x12
 1052 06d0 09010000 		.4byte	0x109
 1053 06d4 00       		.byte	0
 1054 06d5 09       		.uleb128 0x9
 1055 06d6 04       		.byte	0x4
 1056 06d7 B6060000 		.4byte	0x6b6
 1057 06db 13       		.uleb128 0x13
 1058 06dc 01       		.byte	0x1
 1059 06dd 30000000 		.4byte	0x30
 1060 06e1 FA060000 		.4byte	0x6fa
 1061 06e5 12       		.uleb128 0x12
 1062 06e6 A4020000 		.4byte	0x2a4
 1063 06ea 12       		.uleb128 0x12
 1064 06eb 81050000 		.4byte	0x581
 1065 06ef 12       		.uleb128 0x12
 1066 06f0 30000000 		.4byte	0x30
 1067 06f4 12       		.uleb128 0x12
 1068 06f5 09010000 		.4byte	0x109
 1069 06f9 00       		.byte	0
 1070 06fa 09       		.uleb128 0x9
 1071 06fb 04       		.byte	0x4
ARM GAS  /tmp/ccrKr3sP.s 			page 20


 1072 06fc DB060000 		.4byte	0x6db
 1073 0700 08       		.uleb128 0x8
 1074 0701 04       		.byte	0x4
 1075 0702 0C       		.byte	0xc
 1076 0703 5C       		.byte	0x5c
 1077 0704 17070000 		.4byte	0x717
 1078 0708 07       		.uleb128 0x7
 1079 0709 766D7400 		.ascii	"vmt\000"
 1080 070d 0C       		.byte	0xc
 1081 070e 5E       		.byte	0x5e
 1082 070f 17070000 		.4byte	0x717
 1083 0713 02       		.byte	0x2
 1084 0714 23       		.byte	0x23
 1085 0715 00       		.uleb128 0
 1086 0716 00       		.byte	0
 1087 0717 09       		.uleb128 0x9
 1088 0718 04       		.byte	0x4
 1089 0719 1D070000 		.4byte	0x71d
 1090 071d 10       		.uleb128 0x10
 1091 071e E8050000 		.4byte	0x5e8
 1092 0722 03       		.uleb128 0x3
 1093 0723 F6040000 		.4byte	.LASF91
 1094 0727 0C       		.byte	0xc
 1095 0728 60       		.byte	0x60
 1096 0729 00070000 		.4byte	0x700
 1097 072d 14       		.uleb128 0x14
 1098 072e 9D040000 		.4byte	.LASF92
 1099 0732 0C       		.byte	0xc
 1100 0733 0B01     		.2byte	0x10b
 1101 0735 B1000000 		.4byte	0xb1
 1102 0739 13       		.uleb128 0x13
 1103 073a 01       		.byte	0x1
 1104 073b 2D070000 		.4byte	0x72d
 1105 073f 49070000 		.4byte	0x749
 1106 0743 12       		.uleb128 0x12
 1107 0744 A4020000 		.4byte	0x2a4
 1108 0748 00       		.byte	0
 1109 0749 09       		.uleb128 0x9
 1110 074a 04       		.byte	0x4
 1111 074b 39070000 		.4byte	0x739
 1112 074f 0D       		.uleb128 0xd
 1113 0750 62000000 		.4byte	0x62
 1114 0754 0D       		.uleb128 0xd
 1115 0755 74000000 		.4byte	0x74
 1116 0759 15       		.uleb128 0x15
 1117 075a 1C       		.byte	0x1c
 1118 075b 0D       		.byte	0xd
 1119 075c 9303     		.2byte	0x393
 1120 075e 33080000 		.4byte	0x833
 1121 0762 0B       		.uleb128 0xb
 1122 0763 535200   		.ascii	"SR\000"
 1123 0766 0D       		.byte	0xd
 1124 0767 9503     		.2byte	0x395
 1125 0769 4F070000 		.4byte	0x74f
 1126 076d 02       		.byte	0x2
 1127 076e 23       		.byte	0x23
 1128 076f 00       		.uleb128 0
ARM GAS  /tmp/ccrKr3sP.s 			page 21


 1129 0770 16       		.uleb128 0x16
 1130 0771 1D030000 		.4byte	.LASF93
 1131 0775 0D       		.byte	0xd
 1132 0776 9603     		.2byte	0x396
 1133 0778 62000000 		.4byte	0x62
 1134 077c 02       		.byte	0x2
 1135 077d 23       		.byte	0x23
 1136 077e 02       		.uleb128 0x2
 1137 077f 0B       		.uleb128 0xb
 1138 0780 445200   		.ascii	"DR\000"
 1139 0783 0D       		.byte	0xd
 1140 0784 9703     		.2byte	0x397
 1141 0786 4F070000 		.4byte	0x74f
 1142 078a 02       		.byte	0x2
 1143 078b 23       		.byte	0x23
 1144 078c 04       		.uleb128 0x4
 1145 078d 16       		.uleb128 0x16
 1146 078e 27030000 		.4byte	.LASF94
 1147 0792 0D       		.byte	0xd
 1148 0793 9803     		.2byte	0x398
 1149 0795 62000000 		.4byte	0x62
 1150 0799 02       		.byte	0x2
 1151 079a 23       		.byte	0x23
 1152 079b 06       		.uleb128 0x6
 1153 079c 0B       		.uleb128 0xb
 1154 079d 42525200 		.ascii	"BRR\000"
 1155 07a1 0D       		.byte	0xd
 1156 07a2 9903     		.2byte	0x399
 1157 07a4 4F070000 		.4byte	0x74f
 1158 07a8 02       		.byte	0x2
 1159 07a9 23       		.byte	0x23
 1160 07aa 08       		.uleb128 0x8
 1161 07ab 16       		.uleb128 0x16
 1162 07ac 31030000 		.4byte	.LASF95
 1163 07b0 0D       		.byte	0xd
 1164 07b1 9A03     		.2byte	0x39a
 1165 07b3 62000000 		.4byte	0x62
 1166 07b7 02       		.byte	0x2
 1167 07b8 23       		.byte	0x23
 1168 07b9 0A       		.uleb128 0xa
 1169 07ba 0B       		.uleb128 0xb
 1170 07bb 43523100 		.ascii	"CR1\000"
 1171 07bf 0D       		.byte	0xd
 1172 07c0 9B03     		.2byte	0x39b
 1173 07c2 4F070000 		.4byte	0x74f
 1174 07c6 02       		.byte	0x2
 1175 07c7 23       		.byte	0x23
 1176 07c8 0C       		.uleb128 0xc
 1177 07c9 16       		.uleb128 0x16
 1178 07ca 3B030000 		.4byte	.LASF96
 1179 07ce 0D       		.byte	0xd
 1180 07cf 9C03     		.2byte	0x39c
 1181 07d1 62000000 		.4byte	0x62
 1182 07d5 02       		.byte	0x2
 1183 07d6 23       		.byte	0x23
 1184 07d7 0E       		.uleb128 0xe
 1185 07d8 0B       		.uleb128 0xb
ARM GAS  /tmp/ccrKr3sP.s 			page 22


 1186 07d9 43523200 		.ascii	"CR2\000"
 1187 07dd 0D       		.byte	0xd
 1188 07de 9D03     		.2byte	0x39d
 1189 07e0 4F070000 		.4byte	0x74f
 1190 07e4 02       		.byte	0x2
 1191 07e5 23       		.byte	0x23
 1192 07e6 10       		.uleb128 0x10
 1193 07e7 16       		.uleb128 0x16
 1194 07e8 45030000 		.4byte	.LASF97
 1195 07ec 0D       		.byte	0xd
 1196 07ed 9E03     		.2byte	0x39e
 1197 07ef 62000000 		.4byte	0x62
 1198 07f3 02       		.byte	0x2
 1199 07f4 23       		.byte	0x23
 1200 07f5 12       		.uleb128 0x12
 1201 07f6 0B       		.uleb128 0xb
 1202 07f7 43523300 		.ascii	"CR3\000"
 1203 07fb 0D       		.byte	0xd
 1204 07fc 9F03     		.2byte	0x39f
 1205 07fe 4F070000 		.4byte	0x74f
 1206 0802 02       		.byte	0x2
 1207 0803 23       		.byte	0x23
 1208 0804 14       		.uleb128 0x14
 1209 0805 16       		.uleb128 0x16
 1210 0806 07040000 		.4byte	.LASF98
 1211 080a 0D       		.byte	0xd
 1212 080b A003     		.2byte	0x3a0
 1213 080d 62000000 		.4byte	0x62
 1214 0811 02       		.byte	0x2
 1215 0812 23       		.byte	0x23
 1216 0813 16       		.uleb128 0x16
 1217 0814 16       		.uleb128 0x16
 1218 0815 B6000000 		.4byte	.LASF99
 1219 0819 0D       		.byte	0xd
 1220 081a A103     		.2byte	0x3a1
 1221 081c 4F070000 		.4byte	0x74f
 1222 0820 02       		.byte	0x2
 1223 0821 23       		.byte	0x23
 1224 0822 18       		.uleb128 0x18
 1225 0823 16       		.uleb128 0x16
 1226 0824 56030000 		.4byte	.LASF100
 1227 0828 0D       		.byte	0xd
 1228 0829 A203     		.2byte	0x3a2
 1229 082b 62000000 		.4byte	0x62
 1230 082f 02       		.byte	0x2
 1231 0830 23       		.byte	0x23
 1232 0831 1A       		.uleb128 0x1a
 1233 0832 00       		.byte	0
 1234 0833 14       		.uleb128 0x14
 1235 0834 40020000 		.4byte	.LASF101
 1236 0838 0D       		.byte	0xd
 1237 0839 A303     		.2byte	0x3a3
 1238 083b 59070000 		.4byte	0x759
 1239 083f 08       		.uleb128 0x8
 1240 0840 04       		.byte	0x4
 1241 0841 0E       		.byte	0xe
 1242 0842 9D       		.byte	0x9d
ARM GAS  /tmp/ccrKr3sP.s 			page 23


 1243 0843 64080000 		.4byte	0x864
 1244 0847 07       		.uleb128 0x7
 1245 0848 73657400 		.ascii	"set\000"
 1246 084c 0E       		.byte	0xe
 1247 084d 9E       		.byte	0x9e
 1248 084e 62000000 		.4byte	0x62
 1249 0852 02       		.byte	0x2
 1250 0853 23       		.byte	0x23
 1251 0854 00       		.uleb128 0
 1252 0855 06       		.uleb128 0x6
 1253 0856 A8020000 		.4byte	.LASF102
 1254 085a 0E       		.byte	0xe
 1255 085b 9F       		.byte	0x9f
 1256 085c 62000000 		.4byte	0x62
 1257 0860 02       		.byte	0x2
 1258 0861 23       		.byte	0x23
 1259 0862 02       		.uleb128 0x2
 1260 0863 00       		.byte	0
 1261 0864 0E       		.uleb128 0xe
 1262 0865 04       		.byte	0x4
 1263 0866 0E       		.byte	0xe
 1264 0867 9B       		.byte	0x9b
 1265 0868 7F080000 		.4byte	0x87f
 1266 086c 17       		.uleb128 0x17
 1267 086d 5700     		.ascii	"W\000"
 1268 086f 0E       		.byte	0xe
 1269 0870 9C       		.byte	0x9c
 1270 0871 86000000 		.4byte	0x86
 1271 0875 17       		.uleb128 0x17
 1272 0876 4800     		.ascii	"H\000"
 1273 0878 0E       		.byte	0xe
 1274 0879 A0       		.byte	0xa0
 1275 087a 3F080000 		.4byte	0x83f
 1276 087e 00       		.byte	0
 1277 087f 08       		.uleb128 0x8
 1278 0880 28       		.byte	0x28
 1279 0881 0E       		.byte	0xe
 1280 0882 93       		.byte	0x93
 1281 0883 14090000 		.4byte	0x914
 1282 0887 06       		.uleb128 0x6
 1283 0888 2A000000 		.4byte	.LASF103
 1284 088c 0E       		.byte	0xe
 1285 088d 95       		.byte	0x95
 1286 088e 61030000 		.4byte	0x361
 1287 0892 02       		.byte	0x2
 1288 0893 23       		.byte	0x23
 1289 0894 00       		.uleb128 0
 1290 0895 06       		.uleb128 0x6
 1291 0896 23000000 		.4byte	.LASF104
 1292 089a 0E       		.byte	0xe
 1293 089b 96       		.byte	0x96
 1294 089c 61030000 		.4byte	0x361
 1295 08a0 02       		.byte	0x2
 1296 08a1 23       		.byte	0x23
 1297 08a2 04       		.uleb128 0x4
 1298 08a3 06       		.uleb128 0x6
 1299 08a4 9F010000 		.4byte	.LASF105
ARM GAS  /tmp/ccrKr3sP.s 			page 24


 1300 08a8 0E       		.byte	0xe
 1301 08a9 97       		.byte	0x97
 1302 08aa 61030000 		.4byte	0x361
 1303 08ae 02       		.byte	0x2
 1304 08af 23       		.byte	0x23
 1305 08b0 08       		.uleb128 0x8
 1306 08b1 06       		.uleb128 0x6
 1307 08b2 64000000 		.4byte	.LASF106
 1308 08b6 0E       		.byte	0xe
 1309 08b7 98       		.byte	0x98
 1310 08b8 61030000 		.4byte	0x361
 1311 08bc 02       		.byte	0x2
 1312 08bd 23       		.byte	0x23
 1313 08be 0C       		.uleb128 0xc
 1314 08bf 07       		.uleb128 0x7
 1315 08c0 49445200 		.ascii	"IDR\000"
 1316 08c4 0E       		.byte	0xe
 1317 08c5 99       		.byte	0x99
 1318 08c6 61030000 		.4byte	0x361
 1319 08ca 02       		.byte	0x2
 1320 08cb 23       		.byte	0x23
 1321 08cc 10       		.uleb128 0x10
 1322 08cd 07       		.uleb128 0x7
 1323 08ce 4F445200 		.ascii	"ODR\000"
 1324 08d2 0E       		.byte	0xe
 1325 08d3 9A       		.byte	0x9a
 1326 08d4 61030000 		.4byte	0x361
 1327 08d8 02       		.byte	0x2
 1328 08d9 23       		.byte	0x23
 1329 08da 14       		.uleb128 0x14
 1330 08db 06       		.uleb128 0x6
 1331 08dc B1000000 		.4byte	.LASF107
 1332 08e0 0E       		.byte	0xe
 1333 08e1 A1       		.byte	0xa1
 1334 08e2 14090000 		.4byte	0x914
 1335 08e6 02       		.byte	0x2
 1336 08e7 23       		.byte	0x23
 1337 08e8 18       		.uleb128 0x18
 1338 08e9 06       		.uleb128 0x6
 1339 08ea 15020000 		.4byte	.LASF108
 1340 08ee 0E       		.byte	0xe
 1341 08ef A2       		.byte	0xa2
 1342 08f0 61030000 		.4byte	0x361
 1343 08f4 02       		.byte	0x2
 1344 08f5 23       		.byte	0x23
 1345 08f6 1C       		.uleb128 0x1c
 1346 08f7 06       		.uleb128 0x6
 1347 08f8 06030000 		.4byte	.LASF109
 1348 08fc 0E       		.byte	0xe
 1349 08fd A3       		.byte	0xa3
 1350 08fe 61030000 		.4byte	0x361
 1351 0902 02       		.byte	0x2
 1352 0903 23       		.byte	0x23
 1353 0904 20       		.uleb128 0x20
 1354 0905 06       		.uleb128 0x6
 1355 0906 F3020000 		.4byte	.LASF110
 1356 090a 0E       		.byte	0xe
ARM GAS  /tmp/ccrKr3sP.s 			page 25


 1357 090b A4       		.byte	0xa4
 1358 090c 61030000 		.4byte	0x361
 1359 0910 02       		.byte	0x2
 1360 0911 23       		.byte	0x23
 1361 0912 24       		.uleb128 0x24
 1362 0913 00       		.byte	0
 1363 0914 0D       		.uleb128 0xd
 1364 0915 64080000 		.4byte	0x864
 1365 0919 03       		.uleb128 0x3
 1366 091a 08020000 		.4byte	.LASF111
 1367 091e 0E       		.byte	0xe
 1368 091f A5       		.byte	0xa5
 1369 0920 7F080000 		.4byte	0x87f
 1370 0924 03       		.uleb128 0x3
 1371 0925 B4020000 		.4byte	.LASF112
 1372 0929 0E       		.byte	0xe
 1373 092a EF       		.byte	0xef
 1374 092b 86000000 		.4byte	0x86
 1375 092f 18       		.uleb128 0x18
 1376 0930 01       		.byte	0x1
 1377 0931 0F       		.byte	0xf
 1378 0932 64       		.byte	0x64
 1379 0933 4A090000 		.4byte	0x94a
 1380 0937 19       		.uleb128 0x19
 1381 0938 FD030000 		.4byte	.LASF113
 1382 093c 00       		.sleb128 0
 1383 093d 19       		.uleb128 0x19
 1384 093e E3030000 		.4byte	.LASF114
 1385 0942 01       		.sleb128 1
 1386 0943 19       		.uleb128 0x19
 1387 0944 AE040000 		.4byte	.LASF115
 1388 0948 02       		.sleb128 2
 1389 0949 00       		.byte	0
 1390 094a 03       		.uleb128 0x3
 1391 094b 23040000 		.4byte	.LASF116
 1392 094f 0F       		.byte	0xf
 1393 0950 68       		.byte	0x68
 1394 0951 2F090000 		.4byte	0x92f
 1395 0955 03       		.uleb128 0x3
 1396 0956 2D040000 		.4byte	.LASF117
 1397 095a 0F       		.byte	0xf
 1398 095b 6D       		.byte	0x6d
 1399 095c 60090000 		.4byte	0x960
 1400 0960 05       		.uleb128 0x5
 1401 0961 2D040000 		.4byte	.LASF117
 1402 0965 D4       		.byte	0xd4
 1403 0966 0F       		.byte	0xf
 1404 0967 87       		.byte	0x87
 1405 0968 EB090000 		.4byte	0x9eb
 1406 096c 07       		.uleb128 0x7
 1407 096d 766D7400 		.ascii	"vmt\000"
 1408 0971 0F       		.byte	0xf
 1409 0972 89       		.byte	0x89
 1410 0973 760A0000 		.4byte	0xa76
 1411 0977 02       		.byte	0x2
 1412 0978 23       		.byte	0x23
 1413 0979 00       		.uleb128 0
ARM GAS  /tmp/ccrKr3sP.s 			page 26


 1414 097a 06       		.uleb128 0x6
 1415 097b 1A020000 		.4byte	.LASF118
 1416 097f 0F       		.byte	0xf
 1417 0980 8A       		.byte	0x8a
 1418 0981 8C040000 		.4byte	0x48c
 1419 0985 02       		.byte	0x2
 1420 0986 23       		.byte	0x23
 1421 0987 04       		.uleb128 0x4
 1422 0988 06       		.uleb128 0x6
 1423 0989 02050000 		.4byte	.LASF119
 1424 098d 0F       		.byte	0xf
 1425 098e 8A       		.byte	0x8a
 1426 098f 2D070000 		.4byte	0x72d
 1427 0993 02       		.byte	0x2
 1428 0994 23       		.byte	0x23
 1429 0995 08       		.uleb128 0x8
 1430 0996 06       		.uleb128 0x6
 1431 0997 D2000000 		.4byte	.LASF120
 1432 099b 0F       		.byte	0xf
 1433 099c 8A       		.byte	0x8a
 1434 099d 4A090000 		.4byte	0x94a
 1435 09a1 02       		.byte	0x2
 1436 09a2 23       		.byte	0x23
 1437 09a3 0C       		.uleb128 0xc
 1438 09a4 06       		.uleb128 0x6
 1439 09a5 F6010000 		.4byte	.LASF121
 1440 09a9 0F       		.byte	0xf
 1441 09aa 8A       		.byte	0x8a
 1442 09ab 87050000 		.4byte	0x587
 1443 09af 02       		.byte	0x2
 1444 09b0 23       		.byte	0x23
 1445 09b1 10       		.uleb128 0x10
 1446 09b2 06       		.uleb128 0x6
 1447 09b3 39020000 		.4byte	.LASF122
 1448 09b7 0F       		.byte	0xf
 1449 09b8 8A       		.byte	0x8a
 1450 09b9 92050000 		.4byte	0x592
 1451 09bd 02       		.byte	0x2
 1452 09be 23       		.byte	0x23
 1453 09bf 30       		.uleb128 0x30
 1454 09c0 07       		.uleb128 0x7
 1455 09c1 696200   		.ascii	"ib\000"
 1456 09c4 0F       		.byte	0xf
 1457 09c5 8A       		.byte	0x8a
 1458 09c6 810A0000 		.4byte	0xa81
 1459 09ca 02       		.byte	0x2
 1460 09cb 23       		.byte	0x23
 1461 09cc 50       		.uleb128 0x50
 1462 09cd 07       		.uleb128 0x7
 1463 09ce 6F6200   		.ascii	"ob\000"
 1464 09d1 0F       		.byte	0xf
 1465 09d2 8A       		.byte	0x8a
 1466 09d3 810A0000 		.4byte	0xa81
 1467 09d7 03       		.byte	0x3
 1468 09d8 23       		.byte	0x23
 1469 09d9 9001     		.uleb128 0x90
 1470 09db 06       		.uleb128 0x6
ARM GAS  /tmp/ccrKr3sP.s 			page 27


 1471 09dc CA010000 		.4byte	.LASF123
 1472 09e0 0F       		.byte	0xf
 1473 09e1 8A       		.byte	0x8a
 1474 09e2 910A0000 		.4byte	0xa91
 1475 09e6 03       		.byte	0x3
 1476 09e7 23       		.byte	0x23
 1477 09e8 D001     		.uleb128 0xd0
 1478 09ea 00       		.byte	0
 1479 09eb 05       		.uleb128 0x5
 1480 09ec E6010000 		.4byte	.LASF124
 1481 09f0 24       		.byte	0x24
 1482 09f1 0F       		.byte	0xf
 1483 09f2 7C       		.byte	0x7c
 1484 09f3 760A0000 		.4byte	0xa76
 1485 09f7 06       		.uleb128 0x6
 1486 09f8 A2020000 		.4byte	.LASF85
 1487 09fc 0F       		.byte	0xf
 1488 09fd 7D       		.byte	0x7d
 1489 09fe C2050000 		.4byte	0x5c2
 1490 0a02 02       		.byte	0x2
 1491 0a03 23       		.byte	0x23
 1492 0a04 00       		.uleb128 0
 1493 0a05 06       		.uleb128 0x6
 1494 0a06 56040000 		.4byte	.LASF86
 1495 0a0a 0F       		.byte	0xf
 1496 0a0b 7D       		.byte	0x7d
 1497 0a0c E2050000 		.4byte	0x5e2
 1498 0a10 02       		.byte	0x2
 1499 0a11 23       		.byte	0x23
 1500 0a12 04       		.uleb128 0x4
 1501 0a13 06       		.uleb128 0x6
 1502 0a14 91010000 		.4byte	.LASF87
 1503 0a18 0F       		.byte	0xf
 1504 0a19 7D       		.byte	0x7d
 1505 0a1a 75060000 		.4byte	0x675
 1506 0a1e 02       		.byte	0x2
 1507 0a1f 23       		.byte	0x23
 1508 0a20 08       		.uleb128 0x8
 1509 0a21 06       		.uleb128 0x6
 1510 0a22 1D050000 		.4byte	.LASF88
 1511 0a26 0F       		.byte	0xf
 1512 0a27 7D       		.byte	0x7d
 1513 0a28 75060000 		.4byte	0x675
 1514 0a2c 02       		.byte	0x2
 1515 0a2d 23       		.byte	0x23
 1516 0a2e 0C       		.uleb128 0xc
 1517 0a2f 07       		.uleb128 0x7
 1518 0a30 70757400 		.ascii	"put\000"
 1519 0a34 0F       		.byte	0xf
 1520 0a35 7D       		.byte	0x7d
 1521 0a36 95060000 		.4byte	0x695
 1522 0a3a 02       		.byte	0x2
 1523 0a3b 23       		.byte	0x23
 1524 0a3c 10       		.uleb128 0x10
 1525 0a3d 07       		.uleb128 0x7
 1526 0a3e 67657400 		.ascii	"get\000"
 1527 0a42 0F       		.byte	0xf
ARM GAS  /tmp/ccrKr3sP.s 			page 28


 1528 0a43 7D       		.byte	0x7d
 1529 0a44 B0060000 		.4byte	0x6b0
 1530 0a48 02       		.byte	0x2
 1531 0a49 23       		.byte	0x23
 1532 0a4a 14       		.uleb128 0x14
 1533 0a4b 06       		.uleb128 0x6
 1534 0a4c 4E020000 		.4byte	.LASF89
 1535 0a50 0F       		.byte	0xf
 1536 0a51 7D       		.byte	0x7d
 1537 0a52 D5060000 		.4byte	0x6d5
 1538 0a56 02       		.byte	0x2
 1539 0a57 23       		.byte	0x23
 1540 0a58 18       		.uleb128 0x18
 1541 0a59 06       		.uleb128 0x6
 1542 0a5a 87000000 		.4byte	.LASF90
 1543 0a5e 0F       		.byte	0xf
 1544 0a5f 7D       		.byte	0x7d
 1545 0a60 FA060000 		.4byte	0x6fa
 1546 0a64 02       		.byte	0x2
 1547 0a65 23       		.byte	0x23
 1548 0a66 1C       		.uleb128 0x1c
 1549 0a67 06       		.uleb128 0x6
 1550 0a68 8C040000 		.4byte	.LASF125
 1551 0a6c 0F       		.byte	0xf
 1552 0a6d 7D       		.byte	0x7d
 1553 0a6e 49070000 		.4byte	0x749
 1554 0a72 02       		.byte	0x2
 1555 0a73 23       		.byte	0x23
 1556 0a74 20       		.uleb128 0x20
 1557 0a75 00       		.byte	0
 1558 0a76 09       		.uleb128 0x9
 1559 0a77 04       		.byte	0x4
 1560 0a78 7C0A0000 		.4byte	0xa7c
 1561 0a7c 10       		.uleb128 0x10
 1562 0a7d EB090000 		.4byte	0x9eb
 1563 0a81 1A       		.uleb128 0x1a
 1564 0a82 49000000 		.4byte	0x49
 1565 0a86 910A0000 		.4byte	0xa91
 1566 0a8a 1B       		.uleb128 0x1b
 1567 0a8b 3B000000 		.4byte	0x3b
 1568 0a8f 3F       		.byte	0x3f
 1569 0a90 00       		.byte	0
 1570 0a91 09       		.uleb128 0x9
 1571 0a92 04       		.byte	0x4
 1572 0a93 33080000 		.4byte	0x833
 1573 0a97 1C       		.uleb128 0x1c
 1574 0a98 01       		.byte	0x1
 1575 0a99 2B050000 		.4byte	.LASF133
 1576 0a9d 01       		.byte	0x1
 1577 0a9e 3C       		.byte	0x3c
 1578 0a9f 01       		.byte	0x1
 1579 0aa0 29000000 		.4byte	0x29
 1580 0aa4 00000000 		.4byte	.LFB118
 1581 0aa8 90000000 		.4byte	.LFE118
 1582 0aac 00000000 		.4byte	.LLST0
 1583 0ab0 1D       		.uleb128 0x1d
 1584 0ab1 E8040000 		.4byte	.LASF126
ARM GAS  /tmp/ccrKr3sP.s 			page 29


 1585 0ab5 08       		.byte	0x8
 1586 0ab6 72       		.byte	0x72
 1587 0ab7 D6030000 		.4byte	0x3d6
 1588 0abb 01       		.byte	0x1
 1589 0abc 01       		.byte	0x1
 1590 0abd 1E       		.uleb128 0x1e
 1591 0abe 73000000 		.4byte	.LASF127
 1592 0ac2 10       		.byte	0x10
 1593 0ac3 1A05     		.2byte	0x51a
 1594 0ac5 54070000 		.4byte	0x754
 1595 0ac9 01       		.byte	0x1
 1596 0aca 01       		.byte	0x1
 1597 0acb 1F       		.uleb128 0x1f
 1598 0acc 53443300 		.ascii	"SD3\000"
 1599 0ad0 13       		.byte	0x13
 1600 0ad1 0101     		.2byte	0x101
 1601 0ad3 55090000 		.4byte	0x955
 1602 0ad7 01       		.byte	0x1
 1603 0ad8 01       		.byte	0x1
 1604 0ad9 1A       		.uleb128 0x1a
 1605 0ada A6020000 		.4byte	0x2a6
 1606 0ade E90A0000 		.4byte	0xae9
 1607 0ae2 1B       		.uleb128 0x1b
 1608 0ae3 3B000000 		.4byte	0x3b
 1609 0ae7 35       		.byte	0x35
 1610 0ae8 00       		.byte	0
 1611 0ae9 1D       		.uleb128 0x1d
 1612 0aea F8020000 		.4byte	.LASF128
 1613 0aee 11       		.byte	0x11
 1614 0aef 37       		.byte	0x37
 1615 0af0 D90A0000 		.4byte	0xad9
 1616 0af4 01       		.byte	0x1
 1617 0af5 01       		.byte	0x1
 1618 0af6 1A       		.uleb128 0x1a
 1619 0af7 A6020000 		.4byte	0x2a6
 1620 0afb 070B0000 		.4byte	0xb07
 1621 0aff 20       		.uleb128 0x20
 1622 0b00 3B000000 		.4byte	0x3b
 1623 0b04 2505     		.2byte	0x525
 1624 0b06 00       		.byte	0
 1625 0b07 1D       		.uleb128 0x1d
 1626 0b08 60040000 		.4byte	.LASF129
 1627 0b0c 12       		.byte	0x12
 1628 0b0d FA       		.byte	0xfa
 1629 0b0e F60A0000 		.4byte	0xaf6
 1630 0b12 01       		.byte	0x1
 1631 0b13 01       		.byte	0x1
 1632 0b14 1A       		.uleb128 0x1a
 1633 0b15 A6020000 		.4byte	0x2a6
 1634 0b19 240B0000 		.4byte	0xb24
 1635 0b1d 1B       		.uleb128 0x1b
 1636 0b1e 3B000000 		.4byte	0x3b
 1637 0b22 25       		.byte	0x25
 1638 0b23 00       		.byte	0
 1639 0b24 21       		.uleb128 0x21
 1640 0b25 0B030000 		.4byte	.LASF134
 1641 0b29 01       		.byte	0x1
ARM GAS  /tmp/ccrKr3sP.s 			page 30


 1642 0b2a 27       		.byte	0x27
 1643 0b2b 140B0000 		.4byte	0xb14
 1644 0b2f 1D       		.uleb128 0x1d
 1645 0b30 E8040000 		.4byte	.LASF126
 1646 0b34 08       		.byte	0x8
 1647 0b35 72       		.byte	0x72
 1648 0b36 D6030000 		.4byte	0x3d6
 1649 0b3a 01       		.byte	0x1
 1650 0b3b 01       		.byte	0x1
 1651 0b3c 1E       		.uleb128 0x1e
 1652 0b3d 73000000 		.4byte	.LASF127
 1653 0b41 10       		.byte	0x10
 1654 0b42 1A05     		.2byte	0x51a
 1655 0b44 54070000 		.4byte	0x754
 1656 0b48 01       		.byte	0x1
 1657 0b49 01       		.byte	0x1
 1658 0b4a 1F       		.uleb128 0x1f
 1659 0b4b 53443300 		.ascii	"SD3\000"
 1660 0b4f 13       		.byte	0x13
 1661 0b50 0101     		.2byte	0x101
 1662 0b52 55090000 		.4byte	0x955
 1663 0b56 01       		.byte	0x1
 1664 0b57 01       		.byte	0x1
 1665 0b58 22       		.uleb128 0x22
 1666 0b59 F8020000 		.4byte	.LASF128
 1667 0b5d 01       		.byte	0x1
 1668 0b5e 35       		.byte	0x35
 1669 0b5f D90A0000 		.4byte	0xad9
 1670 0b63 01       		.byte	0x1
 1671 0b64 05       		.byte	0x5
 1672 0b65 03       		.byte	0x3
 1673 0b66 00000000 		.4byte	waUART_Thread
 1674 0b6a 22       		.uleb128 0x22
 1675 0b6b 60040000 		.4byte	.LASF129
 1676 0b6f 01       		.byte	0x1
 1677 0b70 36       		.byte	0x36
 1678 0b71 F60A0000 		.4byte	0xaf6
 1679 0b75 01       		.byte	0x1
 1680 0b76 05       		.byte	0x5
 1681 0b77 03       		.byte	0x3
 1682 0b78 00000000 		.4byte	waCamera_Thread
 1683 0b7c 00       		.byte	0
 1684              		.section	.debug_abbrev,"",%progbits
 1685              	.Ldebug_abbrev0:
 1686 0000 01       		.uleb128 0x1
 1687 0001 11       		.uleb128 0x11
 1688 0002 01       		.byte	0x1
 1689 0003 25       		.uleb128 0x25
 1690 0004 0E       		.uleb128 0xe
 1691 0005 13       		.uleb128 0x13
 1692 0006 0B       		.uleb128 0xb
 1693 0007 03       		.uleb128 0x3
 1694 0008 0E       		.uleb128 0xe
 1695 0009 1B       		.uleb128 0x1b
 1696 000a 0E       		.uleb128 0xe
 1697 000b 11       		.uleb128 0x11
 1698 000c 01       		.uleb128 0x1
ARM GAS  /tmp/ccrKr3sP.s 			page 31


 1699 000d 52       		.uleb128 0x52
 1700 000e 01       		.uleb128 0x1
 1701 000f 55       		.uleb128 0x55
 1702 0010 06       		.uleb128 0x6
 1703 0011 10       		.uleb128 0x10
 1704 0012 06       		.uleb128 0x6
 1705 0013 00       		.byte	0
 1706 0014 00       		.byte	0
 1707 0015 02       		.uleb128 0x2
 1708 0016 24       		.uleb128 0x24
 1709 0017 00       		.byte	0
 1710 0018 0B       		.uleb128 0xb
 1711 0019 0B       		.uleb128 0xb
 1712 001a 3E       		.uleb128 0x3e
 1713 001b 0B       		.uleb128 0xb
 1714 001c 03       		.uleb128 0x3
 1715 001d 08       		.uleb128 0x8
 1716 001e 00       		.byte	0
 1717 001f 00       		.byte	0
 1718 0020 03       		.uleb128 0x3
 1719 0021 16       		.uleb128 0x16
 1720 0022 00       		.byte	0
 1721 0023 03       		.uleb128 0x3
 1722 0024 0E       		.uleb128 0xe
 1723 0025 3A       		.uleb128 0x3a
 1724 0026 0B       		.uleb128 0xb
 1725 0027 3B       		.uleb128 0x3b
 1726 0028 0B       		.uleb128 0xb
 1727 0029 49       		.uleb128 0x49
 1728 002a 13       		.uleb128 0x13
 1729 002b 00       		.byte	0
 1730 002c 00       		.byte	0
 1731 002d 04       		.uleb128 0x4
 1732 002e 24       		.uleb128 0x24
 1733 002f 00       		.byte	0
 1734 0030 0B       		.uleb128 0xb
 1735 0031 0B       		.uleb128 0xb
 1736 0032 3E       		.uleb128 0x3e
 1737 0033 0B       		.uleb128 0xb
 1738 0034 03       		.uleb128 0x3
 1739 0035 0E       		.uleb128 0xe
 1740 0036 00       		.byte	0
 1741 0037 00       		.byte	0
 1742 0038 05       		.uleb128 0x5
 1743 0039 13       		.uleb128 0x13
 1744 003a 01       		.byte	0x1
 1745 003b 03       		.uleb128 0x3
 1746 003c 0E       		.uleb128 0xe
 1747 003d 0B       		.uleb128 0xb
 1748 003e 0B       		.uleb128 0xb
 1749 003f 3A       		.uleb128 0x3a
 1750 0040 0B       		.uleb128 0xb
 1751 0041 3B       		.uleb128 0x3b
 1752 0042 0B       		.uleb128 0xb
 1753 0043 01       		.uleb128 0x1
 1754 0044 13       		.uleb128 0x13
 1755 0045 00       		.byte	0
ARM GAS  /tmp/ccrKr3sP.s 			page 32


 1756 0046 00       		.byte	0
 1757 0047 06       		.uleb128 0x6
 1758 0048 0D       		.uleb128 0xd
 1759 0049 00       		.byte	0
 1760 004a 03       		.uleb128 0x3
 1761 004b 0E       		.uleb128 0xe
 1762 004c 3A       		.uleb128 0x3a
 1763 004d 0B       		.uleb128 0xb
 1764 004e 3B       		.uleb128 0x3b
 1765 004f 0B       		.uleb128 0xb
 1766 0050 49       		.uleb128 0x49
 1767 0051 13       		.uleb128 0x13
 1768 0052 38       		.uleb128 0x38
 1769 0053 0A       		.uleb128 0xa
 1770 0054 00       		.byte	0
 1771 0055 00       		.byte	0
 1772 0056 07       		.uleb128 0x7
 1773 0057 0D       		.uleb128 0xd
 1774 0058 00       		.byte	0
 1775 0059 03       		.uleb128 0x3
 1776 005a 08       		.uleb128 0x8
 1777 005b 3A       		.uleb128 0x3a
 1778 005c 0B       		.uleb128 0xb
 1779 005d 3B       		.uleb128 0x3b
 1780 005e 0B       		.uleb128 0xb
 1781 005f 49       		.uleb128 0x49
 1782 0060 13       		.uleb128 0x13
 1783 0061 38       		.uleb128 0x38
 1784 0062 0A       		.uleb128 0xa
 1785 0063 00       		.byte	0
 1786 0064 00       		.byte	0
 1787 0065 08       		.uleb128 0x8
 1788 0066 13       		.uleb128 0x13
 1789 0067 01       		.byte	0x1
 1790 0068 0B       		.uleb128 0xb
 1791 0069 0B       		.uleb128 0xb
 1792 006a 3A       		.uleb128 0x3a
 1793 006b 0B       		.uleb128 0xb
 1794 006c 3B       		.uleb128 0x3b
 1795 006d 0B       		.uleb128 0xb
 1796 006e 01       		.uleb128 0x1
 1797 006f 13       		.uleb128 0x13
 1798 0070 00       		.byte	0
 1799 0071 00       		.byte	0
 1800 0072 09       		.uleb128 0x9
 1801 0073 0F       		.uleb128 0xf
 1802 0074 00       		.byte	0
 1803 0075 0B       		.uleb128 0xb
 1804 0076 0B       		.uleb128 0xb
 1805 0077 49       		.uleb128 0x49
 1806 0078 13       		.uleb128 0x13
 1807 0079 00       		.byte	0
 1808 007a 00       		.byte	0
 1809 007b 0A       		.uleb128 0xa
 1810 007c 0F       		.uleb128 0xf
 1811 007d 00       		.byte	0
 1812 007e 0B       		.uleb128 0xb
ARM GAS  /tmp/ccrKr3sP.s 			page 33


 1813 007f 0B       		.uleb128 0xb
 1814 0080 00       		.byte	0
 1815 0081 00       		.byte	0
 1816 0082 0B       		.uleb128 0xb
 1817 0083 0D       		.uleb128 0xd
 1818 0084 00       		.byte	0
 1819 0085 03       		.uleb128 0x3
 1820 0086 08       		.uleb128 0x8
 1821 0087 3A       		.uleb128 0x3a
 1822 0088 0B       		.uleb128 0xb
 1823 0089 3B       		.uleb128 0x3b
 1824 008a 05       		.uleb128 0x5
 1825 008b 49       		.uleb128 0x49
 1826 008c 13       		.uleb128 0x13
 1827 008d 38       		.uleb128 0x38
 1828 008e 0A       		.uleb128 0xa
 1829 008f 00       		.byte	0
 1830 0090 00       		.byte	0
 1831 0091 0C       		.uleb128 0xc
 1832 0092 13       		.uleb128 0x13
 1833 0093 01       		.byte	0x1
 1834 0094 03       		.uleb128 0x3
 1835 0095 0E       		.uleb128 0xe
 1836 0096 0B       		.uleb128 0xb
 1837 0097 0B       		.uleb128 0xb
 1838 0098 3A       		.uleb128 0x3a
 1839 0099 0B       		.uleb128 0xb
 1840 009a 3B       		.uleb128 0x3b
 1841 009b 05       		.uleb128 0x5
 1842 009c 01       		.uleb128 0x1
 1843 009d 13       		.uleb128 0x13
 1844 009e 00       		.byte	0
 1845 009f 00       		.byte	0
 1846 00a0 0D       		.uleb128 0xd
 1847 00a1 35       		.uleb128 0x35
 1848 00a2 00       		.byte	0
 1849 00a3 49       		.uleb128 0x49
 1850 00a4 13       		.uleb128 0x13
 1851 00a5 00       		.byte	0
 1852 00a6 00       		.byte	0
 1853 00a7 0E       		.uleb128 0xe
 1854 00a8 17       		.uleb128 0x17
 1855 00a9 01       		.byte	0x1
 1856 00aa 0B       		.uleb128 0xb
 1857 00ab 0B       		.uleb128 0xb
 1858 00ac 3A       		.uleb128 0x3a
 1859 00ad 0B       		.uleb128 0xb
 1860 00ae 3B       		.uleb128 0x3b
 1861 00af 0B       		.uleb128 0xb
 1862 00b0 01       		.uleb128 0x1
 1863 00b1 13       		.uleb128 0x13
 1864 00b2 00       		.byte	0
 1865 00b3 00       		.byte	0
 1866 00b4 0F       		.uleb128 0xf
 1867 00b5 0D       		.uleb128 0xd
 1868 00b6 00       		.byte	0
 1869 00b7 03       		.uleb128 0x3
ARM GAS  /tmp/ccrKr3sP.s 			page 34


 1870 00b8 0E       		.uleb128 0xe
 1871 00b9 3A       		.uleb128 0x3a
 1872 00ba 0B       		.uleb128 0xb
 1873 00bb 3B       		.uleb128 0x3b
 1874 00bc 0B       		.uleb128 0xb
 1875 00bd 49       		.uleb128 0x49
 1876 00be 13       		.uleb128 0x13
 1877 00bf 00       		.byte	0
 1878 00c0 00       		.byte	0
 1879 00c1 10       		.uleb128 0x10
 1880 00c2 26       		.uleb128 0x26
 1881 00c3 00       		.byte	0
 1882 00c4 49       		.uleb128 0x49
 1883 00c5 13       		.uleb128 0x13
 1884 00c6 00       		.byte	0
 1885 00c7 00       		.byte	0
 1886 00c8 11       		.uleb128 0x11
 1887 00c9 15       		.uleb128 0x15
 1888 00ca 01       		.byte	0x1
 1889 00cb 27       		.uleb128 0x27
 1890 00cc 0C       		.uleb128 0xc
 1891 00cd 01       		.uleb128 0x1
 1892 00ce 13       		.uleb128 0x13
 1893 00cf 00       		.byte	0
 1894 00d0 00       		.byte	0
 1895 00d1 12       		.uleb128 0x12
 1896 00d2 05       		.uleb128 0x5
 1897 00d3 00       		.byte	0
 1898 00d4 49       		.uleb128 0x49
 1899 00d5 13       		.uleb128 0x13
 1900 00d6 00       		.byte	0
 1901 00d7 00       		.byte	0
 1902 00d8 13       		.uleb128 0x13
 1903 00d9 15       		.uleb128 0x15
 1904 00da 01       		.byte	0x1
 1905 00db 27       		.uleb128 0x27
 1906 00dc 0C       		.uleb128 0xc
 1907 00dd 49       		.uleb128 0x49
 1908 00de 13       		.uleb128 0x13
 1909 00df 01       		.uleb128 0x1
 1910 00e0 13       		.uleb128 0x13
 1911 00e1 00       		.byte	0
 1912 00e2 00       		.byte	0
 1913 00e3 14       		.uleb128 0x14
 1914 00e4 16       		.uleb128 0x16
 1915 00e5 00       		.byte	0
 1916 00e6 03       		.uleb128 0x3
 1917 00e7 0E       		.uleb128 0xe
 1918 00e8 3A       		.uleb128 0x3a
 1919 00e9 0B       		.uleb128 0xb
 1920 00ea 3B       		.uleb128 0x3b
 1921 00eb 05       		.uleb128 0x5
 1922 00ec 49       		.uleb128 0x49
 1923 00ed 13       		.uleb128 0x13
 1924 00ee 00       		.byte	0
 1925 00ef 00       		.byte	0
 1926 00f0 15       		.uleb128 0x15
ARM GAS  /tmp/ccrKr3sP.s 			page 35


 1927 00f1 13       		.uleb128 0x13
 1928 00f2 01       		.byte	0x1
 1929 00f3 0B       		.uleb128 0xb
 1930 00f4 0B       		.uleb128 0xb
 1931 00f5 3A       		.uleb128 0x3a
 1932 00f6 0B       		.uleb128 0xb
 1933 00f7 3B       		.uleb128 0x3b
 1934 00f8 05       		.uleb128 0x5
 1935 00f9 01       		.uleb128 0x1
 1936 00fa 13       		.uleb128 0x13
 1937 00fb 00       		.byte	0
 1938 00fc 00       		.byte	0
 1939 00fd 16       		.uleb128 0x16
 1940 00fe 0D       		.uleb128 0xd
 1941 00ff 00       		.byte	0
 1942 0100 03       		.uleb128 0x3
 1943 0101 0E       		.uleb128 0xe
 1944 0102 3A       		.uleb128 0x3a
 1945 0103 0B       		.uleb128 0xb
 1946 0104 3B       		.uleb128 0x3b
 1947 0105 05       		.uleb128 0x5
 1948 0106 49       		.uleb128 0x49
 1949 0107 13       		.uleb128 0x13
 1950 0108 38       		.uleb128 0x38
 1951 0109 0A       		.uleb128 0xa
 1952 010a 00       		.byte	0
 1953 010b 00       		.byte	0
 1954 010c 17       		.uleb128 0x17
 1955 010d 0D       		.uleb128 0xd
 1956 010e 00       		.byte	0
 1957 010f 03       		.uleb128 0x3
 1958 0110 08       		.uleb128 0x8
 1959 0111 3A       		.uleb128 0x3a
 1960 0112 0B       		.uleb128 0xb
 1961 0113 3B       		.uleb128 0x3b
 1962 0114 0B       		.uleb128 0xb
 1963 0115 49       		.uleb128 0x49
 1964 0116 13       		.uleb128 0x13
 1965 0117 00       		.byte	0
 1966 0118 00       		.byte	0
 1967 0119 18       		.uleb128 0x18
 1968 011a 04       		.uleb128 0x4
 1969 011b 01       		.byte	0x1
 1970 011c 0B       		.uleb128 0xb
 1971 011d 0B       		.uleb128 0xb
 1972 011e 3A       		.uleb128 0x3a
 1973 011f 0B       		.uleb128 0xb
 1974 0120 3B       		.uleb128 0x3b
 1975 0121 0B       		.uleb128 0xb
 1976 0122 01       		.uleb128 0x1
 1977 0123 13       		.uleb128 0x13
 1978 0124 00       		.byte	0
 1979 0125 00       		.byte	0
 1980 0126 19       		.uleb128 0x19
 1981 0127 28       		.uleb128 0x28
 1982 0128 00       		.byte	0
 1983 0129 03       		.uleb128 0x3
ARM GAS  /tmp/ccrKr3sP.s 			page 36


 1984 012a 0E       		.uleb128 0xe
 1985 012b 1C       		.uleb128 0x1c
 1986 012c 0D       		.uleb128 0xd
 1987 012d 00       		.byte	0
 1988 012e 00       		.byte	0
 1989 012f 1A       		.uleb128 0x1a
 1990 0130 01       		.uleb128 0x1
 1991 0131 01       		.byte	0x1
 1992 0132 49       		.uleb128 0x49
 1993 0133 13       		.uleb128 0x13
 1994 0134 01       		.uleb128 0x1
 1995 0135 13       		.uleb128 0x13
 1996 0136 00       		.byte	0
 1997 0137 00       		.byte	0
 1998 0138 1B       		.uleb128 0x1b
 1999 0139 21       		.uleb128 0x21
 2000 013a 00       		.byte	0
 2001 013b 49       		.uleb128 0x49
 2002 013c 13       		.uleb128 0x13
 2003 013d 2F       		.uleb128 0x2f
 2004 013e 0B       		.uleb128 0xb
 2005 013f 00       		.byte	0
 2006 0140 00       		.byte	0
 2007 0141 1C       		.uleb128 0x1c
 2008 0142 2E       		.uleb128 0x2e
 2009 0143 00       		.byte	0
 2010 0144 3F       		.uleb128 0x3f
 2011 0145 0C       		.uleb128 0xc
 2012 0146 03       		.uleb128 0x3
 2013 0147 0E       		.uleb128 0xe
 2014 0148 3A       		.uleb128 0x3a
 2015 0149 0B       		.uleb128 0xb
 2016 014a 3B       		.uleb128 0x3b
 2017 014b 0B       		.uleb128 0xb
 2018 014c 27       		.uleb128 0x27
 2019 014d 0C       		.uleb128 0xc
 2020 014e 49       		.uleb128 0x49
 2021 014f 13       		.uleb128 0x13
 2022 0150 11       		.uleb128 0x11
 2023 0151 01       		.uleb128 0x1
 2024 0152 12       		.uleb128 0x12
 2025 0153 01       		.uleb128 0x1
 2026 0154 40       		.uleb128 0x40
 2027 0155 06       		.uleb128 0x6
 2028 0156 00       		.byte	0
 2029 0157 00       		.byte	0
 2030 0158 1D       		.uleb128 0x1d
 2031 0159 34       		.uleb128 0x34
 2032 015a 00       		.byte	0
 2033 015b 03       		.uleb128 0x3
 2034 015c 0E       		.uleb128 0xe
 2035 015d 3A       		.uleb128 0x3a
 2036 015e 0B       		.uleb128 0xb
 2037 015f 3B       		.uleb128 0x3b
 2038 0160 0B       		.uleb128 0xb
 2039 0161 49       		.uleb128 0x49
 2040 0162 13       		.uleb128 0x13
ARM GAS  /tmp/ccrKr3sP.s 			page 37


 2041 0163 3F       		.uleb128 0x3f
 2042 0164 0C       		.uleb128 0xc
 2043 0165 3C       		.uleb128 0x3c
 2044 0166 0C       		.uleb128 0xc
 2045 0167 00       		.byte	0
 2046 0168 00       		.byte	0
 2047 0169 1E       		.uleb128 0x1e
 2048 016a 34       		.uleb128 0x34
 2049 016b 00       		.byte	0
 2050 016c 03       		.uleb128 0x3
 2051 016d 0E       		.uleb128 0xe
 2052 016e 3A       		.uleb128 0x3a
 2053 016f 0B       		.uleb128 0xb
 2054 0170 3B       		.uleb128 0x3b
 2055 0171 05       		.uleb128 0x5
 2056 0172 49       		.uleb128 0x49
 2057 0173 13       		.uleb128 0x13
 2058 0174 3F       		.uleb128 0x3f
 2059 0175 0C       		.uleb128 0xc
 2060 0176 3C       		.uleb128 0x3c
 2061 0177 0C       		.uleb128 0xc
 2062 0178 00       		.byte	0
 2063 0179 00       		.byte	0
 2064 017a 1F       		.uleb128 0x1f
 2065 017b 34       		.uleb128 0x34
 2066 017c 00       		.byte	0
 2067 017d 03       		.uleb128 0x3
 2068 017e 08       		.uleb128 0x8
 2069 017f 3A       		.uleb128 0x3a
 2070 0180 0B       		.uleb128 0xb
 2071 0181 3B       		.uleb128 0x3b
 2072 0182 05       		.uleb128 0x5
 2073 0183 49       		.uleb128 0x49
 2074 0184 13       		.uleb128 0x13
 2075 0185 3F       		.uleb128 0x3f
 2076 0186 0C       		.uleb128 0xc
 2077 0187 3C       		.uleb128 0x3c
 2078 0188 0C       		.uleb128 0xc
 2079 0189 00       		.byte	0
 2080 018a 00       		.byte	0
 2081 018b 20       		.uleb128 0x20
 2082 018c 21       		.uleb128 0x21
 2083 018d 00       		.byte	0
 2084 018e 49       		.uleb128 0x49
 2085 018f 13       		.uleb128 0x13
 2086 0190 2F       		.uleb128 0x2f
 2087 0191 05       		.uleb128 0x5
 2088 0192 00       		.byte	0
 2089 0193 00       		.byte	0
 2090 0194 21       		.uleb128 0x21
 2091 0195 34       		.uleb128 0x34
 2092 0196 00       		.byte	0
 2093 0197 03       		.uleb128 0x3
 2094 0198 0E       		.uleb128 0xe
 2095 0199 3A       		.uleb128 0x3a
 2096 019a 0B       		.uleb128 0xb
 2097 019b 3B       		.uleb128 0x3b
ARM GAS  /tmp/ccrKr3sP.s 			page 38


 2098 019c 0B       		.uleb128 0xb
 2099 019d 49       		.uleb128 0x49
 2100 019e 13       		.uleb128 0x13
 2101 019f 00       		.byte	0
 2102 01a0 00       		.byte	0
 2103 01a1 22       		.uleb128 0x22
 2104 01a2 34       		.uleb128 0x34
 2105 01a3 00       		.byte	0
 2106 01a4 03       		.uleb128 0x3
 2107 01a5 0E       		.uleb128 0xe
 2108 01a6 3A       		.uleb128 0x3a
 2109 01a7 0B       		.uleb128 0xb
 2110 01a8 3B       		.uleb128 0x3b
 2111 01a9 0B       		.uleb128 0xb
 2112 01aa 49       		.uleb128 0x49
 2113 01ab 13       		.uleb128 0x13
 2114 01ac 3F       		.uleb128 0x3f
 2115 01ad 0C       		.uleb128 0xc
 2116 01ae 02       		.uleb128 0x2
 2117 01af 0A       		.uleb128 0xa
 2118 01b0 00       		.byte	0
 2119 01b1 00       		.byte	0
 2120 01b2 00       		.byte	0
 2121              		.section	.debug_loc,"",%progbits
 2122              	.Ldebug_loc0:
 2123              	.LLST0:
 2124 0000 00000000 		.4byte	.LFB118
 2125 0004 02000000 		.4byte	.LCFI0
 2126 0008 0200     		.2byte	0x2
 2127 000a 7D       		.byte	0x7d
 2128 000b 00       		.sleb128 0
 2129 000c 02000000 		.4byte	.LCFI0
 2130 0010 04000000 		.4byte	.LCFI1
 2131 0014 0200     		.2byte	0x2
 2132 0016 7D       		.byte	0x7d
 2133 0017 04       		.sleb128 4
 2134 0018 04000000 		.4byte	.LCFI1
 2135 001c 90000000 		.4byte	.LFE118
 2136 0020 0200     		.2byte	0x2
 2137 0022 7D       		.byte	0x7d
 2138 0023 10       		.sleb128 16
 2139 0024 00000000 		.4byte	0
 2140 0028 00000000 		.4byte	0
 2141              		.section	.debug_aranges,"",%progbits
 2142 0000 1C000000 		.4byte	0x1c
 2143 0004 0200     		.2byte	0x2
 2144 0006 00000000 		.4byte	.Ldebug_info0
 2145 000a 04       		.byte	0x4
 2146 000b 00       		.byte	0
 2147 000c 0000     		.2byte	0
 2148 000e 0000     		.2byte	0
 2149 0010 00000000 		.4byte	.LFB118
 2150 0014 90000000 		.4byte	.LFE118-.LFB118
 2151 0018 00000000 		.4byte	0
 2152 001c 00000000 		.4byte	0
 2153              		.section	.debug_ranges,"",%progbits
 2154              	.Ldebug_ranges0:
ARM GAS  /tmp/ccrKr3sP.s 			page 39


 2155 0000 00000000 		.4byte	.LFB118
 2156 0004 90000000 		.4byte	.LFE118
 2157 0008 00000000 		.4byte	0
 2158 000c 00000000 		.4byte	0
 2159              		.section	.debug_line,"",%progbits
 2160              	.Ldebug_line0:
 2161 0000 93020000 		.section	.debug_str,"MS",%progbits,1
 2161      02006302 
 2161      00000201 
 2161      FB0E0D00 
 2161      01010101 
 2162              	.LASF2:
 2163 0000 73697A65 		.ascii	"size_t\000"
 2163      5F7400
 2164              	.LASF68:
 2165 0007 7264796D 		.ascii	"rdymsg\000"
 2165      736700
 2166              	.LASF13:
 2167 000e 75696E74 		.ascii	"uint64_t\000"
 2167      36345F74 
 2167      00
 2168              	.LASF83:
 2169 0017 4F757470 		.ascii	"OutputQueue\000"
 2169      75745175 
 2169      65756500 
 2170              	.LASF104:
 2171 0023 4F545950 		.ascii	"OTYPER\000"
 2171      455200
 2172              	.LASF103:
 2173 002a 4D4F4445 		.ascii	"MODER\000"
 2173      5200
 2174              	.LASF15:
 2175 0030 75696E74 		.ascii	"uint_fast16_t\000"
 2175      5F666173 
 2175      7431365F 
 2175      7400
 2176              	.LASF14:
 2177 003e 6C6F6E67 		.ascii	"long long unsigned int\000"
 2177      206C6F6E 
 2177      6720756E 
 2177      7369676E 
 2177      65642069 
 2178              	.LASF84:
 2179 0055 42617365 		.ascii	"BaseChannelVMT\000"
 2179      4368616E 
 2179      6E656C56 
 2179      4D5400
 2180              	.LASF106:
 2181 0064 50555044 		.ascii	"PUPDR\000"
 2181      5200
 2182              	.LASF69:
 2183 006a 65786974 		.ascii	"exitcode\000"
 2183      636F6465 
 2183      00
 2184              	.LASF127:
 2185 0073 49544D5F 		.ascii	"ITM_RxBuffer\000"
 2185      52784275 
ARM GAS  /tmp/ccrKr3sP.s 			page 40


 2185      66666572 
 2185      00
 2186              	.LASF28:
 2187 0080 705F7072 		.ascii	"p_prio\000"
 2187      696F00
 2188              	.LASF90:
 2189 0087 72656164 		.ascii	"readt\000"
 2189      7400
 2190              	.LASF74:
 2191 008d 715F7761 		.ascii	"q_waiting\000"
 2191      6974696E 
 2191      6700
 2192              	.LASF12:
 2193 0097 6C6F6E67 		.ascii	"long long int\000"
 2193      206C6F6E 
 2193      6720696E 
 2193      7400
 2194              	.LASF1:
 2195 00a5 7369676E 		.ascii	"signed char\000"
 2195      65642063 
 2195      68617200 
 2196              	.LASF107:
 2197 00b1 42535252 		.ascii	"BSRR\000"
 2197      00
 2198              	.LASF99:
 2199 00b6 47545052 		.ascii	"GTPR\000"
 2199      00
 2200              	.LASF43:
 2201 00bb 705F6D70 		.ascii	"p_mpool\000"
 2201      6F6F6C00 
 2202              	.LASF16:
 2203 00c3 626F6F6C 		.ascii	"bool_t\000"
 2203      5F7400
 2204              	.LASF59:
 2205 00ca 6D5F7175 		.ascii	"m_queue\000"
 2205      65756500 
 2206              	.LASF120:
 2207 00d2 73746174 		.ascii	"state\000"
 2207      6500
 2208              	.LASF9:
 2209 00d8 6C6F6E67 		.ascii	"long int\000"
 2209      20696E74 
 2209      00
 2210              	.LASF130:
 2211 00e1 474E5520 		.ascii	"GNU C 4.6.2 20120613 (release) [ARM/embedded-4_6-br"
 2211      4320342E 
 2211      362E3220 
 2211      32303132 
 2211      30363133 
 2212 0114 616E6368 		.ascii	"anch revision 188521]\000"
 2212      20726576 
 2212      6973696F 
 2212      6E203138 
 2212      38353231 
 2213              	.LASF18:
 2214 012a 74737461 		.ascii	"tstate_t\000"
 2214      74655F74 
ARM GAS  /tmp/ccrKr3sP.s 			page 41


 2214      00
 2215              	.LASF35:
 2216 0133 705F7265 		.ascii	"p_refs\000"
 2216      667300
 2217              	.LASF76:
 2218 013a 715F6275 		.ascii	"q_buffer\000"
 2218      66666572 
 2218      00
 2219              	.LASF78:
 2220 0143 715F7772 		.ascii	"q_wrptr\000"
 2220      70747200 
 2221              	.LASF36:
 2222 014b 705F7469 		.ascii	"p_time\000"
 2222      6D6500
 2223              	.LASF132:
 2224 0152 2F686F6D 		.ascii	"/home/pacifist/fox1/amsat-fox1/amsat-fox/stm32f4-de"
 2224      652F7061 
 2224      63696669 
 2224      73742F66 
 2224      6F78312F 
 2225 0185 76656C00 		.ascii	"vel\000"
 2226              	.LASF30:
 2227 0189 705F6E65 		.ascii	"p_newer\000"
 2227      77657200 
 2228              	.LASF87:
 2229 0191 70757477 		.ascii	"putwouldblock\000"
 2229      6F756C64 
 2229      626C6F63 
 2229      6B00
 2230              	.LASF105:
 2231 019f 4F535045 		.ascii	"OSPEEDR\000"
 2231      45445200 
 2232              	.LASF53:
 2233 01a7 725F6E65 		.ascii	"r_newer\000"
 2233      77657200 
 2234              	.LASF46:
 2235 01af 72656761 		.ascii	"regarm_t\000"
 2235      726D5F74 
 2235      00
 2236              	.LASF66:
 2237 01b8 4576656E 		.ascii	"EventSource\000"
 2237      74536F75 
 2237      72636500 
 2238              	.LASF24:
 2239 01c4 636E745F 		.ascii	"cnt_t\000"
 2239      7400
 2240              	.LASF123:
 2241 01ca 75736172 		.ascii	"usart\000"
 2241      7400
 2242              	.LASF0:
 2243 01d0 756E7369 		.ascii	"unsigned int\000"
 2243      676E6564 
 2243      20696E74 
 2243      00
 2244              	.LASF6:
 2245 01dd 75696E74 		.ascii	"uint16_t\000"
 2245      31365F74 
ARM GAS  /tmp/ccrKr3sP.s 			page 42


 2245      00
 2246              	.LASF124:
 2247 01e6 53657269 		.ascii	"SerialDriverVMT\000"
 2247      616C4472 
 2247      69766572 
 2247      564D5400 
 2248              	.LASF121:
 2249 01f6 69717565 		.ascii	"iqueue\000"
 2249      756500
 2250              	.LASF38:
 2251 01fd 705F6D73 		.ascii	"p_msgqueue\000"
 2251      67717565 
 2251      756500
 2252              	.LASF111:
 2253 0208 4750494F 		.ascii	"GPIO_TypeDef\000"
 2253      5F547970 
 2253      65446566 
 2253      00
 2254              	.LASF108:
 2255 0215 4C434B52 		.ascii	"LCKR\000"
 2255      00
 2256              	.LASF118:
 2257 021a 6576656E 		.ascii	"event\000"
 2257      7400
 2258              	.LASF7:
 2259 0220 73686F72 		.ascii	"short unsigned int\000"
 2259      7420756E 
 2259      7369676E 
 2259      65642069 
 2259      6E7400
 2260              	.LASF21:
 2261 0233 6D73675F 		.ascii	"msg_t\000"
 2261      7400
 2262              	.LASF122:
 2263 0239 6F717565 		.ascii	"oqueue\000"
 2263      756500
 2264              	.LASF101:
 2265 0240 55534152 		.ascii	"USART_TypeDef\000"
 2265      545F5479 
 2265      70654465 
 2265      6600
 2266              	.LASF89:
 2267 024e 77726974 		.ascii	"writet\000"
 2267      657400
 2268              	.LASF17:
 2269 0255 746D6F64 		.ascii	"tmode_t\000"
 2269      655F7400 
 2270              	.LASF45:
 2271 025d 54687265 		.ascii	"ThreadsList\000"
 2271      6164734C 
 2271      69737400 
 2272              	.LASF22:
 2273 0269 6576656E 		.ascii	"eventmask_t\000"
 2273      746D6173 
 2273      6B5F7400 
 2274              	.LASF82:
 2275 0275 496E7075 		.ascii	"InputQueue\000"
ARM GAS  /tmp/ccrKr3sP.s 			page 43


 2275      74517565 
 2275      756500
 2276              	.LASF81:
 2277 0280 716E6F74 		.ascii	"qnotify_t\000"
 2277      6966795F 
 2277      7400
 2278              	.LASF73:
 2279 028a 47656E65 		.ascii	"GenericQueue\000"
 2279      72696351 
 2279      75657565 
 2279      00
 2280              	.LASF47:
 2281 0297 73746B61 		.ascii	"stkalign_t\000"
 2281      6C69676E 
 2281      5F7400
 2282              	.LASF85:
 2283 02a2 77726974 		.ascii	"write\000"
 2283      6500
 2284              	.LASF102:
 2285 02a8 636C6561 		.ascii	"clear\000"
 2285      7200
 2286              	.LASF58:
 2287 02ae 4D757465 		.ascii	"Mutex\000"
 2287      7800
 2288              	.LASF112:
 2289 02b4 696F706F 		.ascii	"ioportmask_t\000"
 2289      72746D61 
 2289      736B5F74 
 2289      00
 2290              	.LASF31:
 2291 02c1 705F6F6C 		.ascii	"p_older\000"
 2291      64657200 
 2292              	.LASF52:
 2293 02c9 725F6374 		.ascii	"r_ctx\000"
 2293      7800
 2294              	.LASF44:
 2295 02cf 54687265 		.ascii	"ThreadsQueue\000"
 2295      61647351 
 2295      75657565 
 2295      00
 2296              	.LASF131:
 2297 02dc 6D61696E 		.ascii	"main.c\000"
 2297      2E6300
 2298              	.LASF54:
 2299 02e3 725F6F6C 		.ascii	"r_older\000"
 2299      64657200 
 2300              	.LASF65:
 2301 02eb 656C5F6D 		.ascii	"el_mask\000"
 2301      61736B00 
 2302              	.LASF110:
 2303 02f3 41465248 		.ascii	"AFRH\000"
 2303      00
 2304              	.LASF128:
 2305 02f8 77615541 		.ascii	"waUART_Thread\000"
 2305      52545F54 
 2305      68726561 
 2305      6400
ARM GAS  /tmp/ccrKr3sP.s 			page 44


 2306              	.LASF109:
 2307 0306 4146524C 		.ascii	"AFRL\000"
 2307      00
 2308              	.LASF134:
 2309 030b 77615468 		.ascii	"waThread1\000"
 2309      72656164 
 2309      3100
 2310              	.LASF19:
 2311 0315 74726566 		.ascii	"trefs_t\000"
 2311      735F7400 
 2312              	.LASF93:
 2313 031d 52455345 		.ascii	"RESERVED0\000"
 2313      52564544 
 2313      3000
 2314              	.LASF94:
 2315 0327 52455345 		.ascii	"RESERVED1\000"
 2315      52564544 
 2315      3100
 2316              	.LASF95:
 2317 0331 52455345 		.ascii	"RESERVED2\000"
 2317      52564544 
 2317      3200
 2318              	.LASF96:
 2319 033b 52455345 		.ascii	"RESERVED3\000"
 2319      52564544 
 2319      3300
 2320              	.LASF97:
 2321 0345 52455345 		.ascii	"RESERVED4\000"
 2321      52564544 
 2321      3400
 2322              	.LASF27:
 2323 034f 705F7072 		.ascii	"p_prev\000"
 2323      657600
 2324              	.LASF100:
 2325 0356 52455345 		.ascii	"RESERVED6\000"
 2325      52564544 
 2325      3600
 2326              	.LASF20:
 2327 0360 74707269 		.ascii	"tprio_t\000"
 2327      6F5F7400 
 2328              	.LASF79:
 2329 0368 715F7264 		.ascii	"q_rdptr\000"
 2329      70747200 
 2330              	.LASF55:
 2331 0370 725F7072 		.ascii	"r_preempt\000"
 2331      65656D70 
 2331      7400
 2332              	.LASF8:
 2333 037a 696E7433 		.ascii	"int32_t\000"
 2333      325F7400 
 2334              	.LASF4:
 2335 0382 756E7369 		.ascii	"unsigned char\000"
 2335      676E6564 
 2335      20636861 
 2335      7200
 2336              	.LASF39:
 2337 0390 705F6D73 		.ascii	"p_msg\000"
ARM GAS  /tmp/ccrKr3sP.s 			page 45


 2337      6700
 2338              	.LASF64:
 2339 0396 656C5F6C 		.ascii	"el_listener\000"
 2339      69737465 
 2339      6E657200 
 2340              	.LASF41:
 2341 03a2 705F6D74 		.ascii	"p_mtxlist\000"
 2341      786C6973 
 2341      7400
 2342              	.LASF5:
 2343 03ac 73686F72 		.ascii	"short int\000"
 2343      7420696E 
 2343      7400
 2344              	.LASF33:
 2345 03b6 705F7374 		.ascii	"p_state\000"
 2345      61746500 
 2346              	.LASF51:
 2347 03be 725F7072 		.ascii	"r_prio\000"
 2347      696F00
 2348              	.LASF71:
 2349 03c5 65776D61 		.ascii	"ewmask\000"
 2349      736B00
 2350              	.LASF26:
 2351 03cc 705F6E65 		.ascii	"p_next\000"
 2351      787400
 2352              	.LASF34:
 2353 03d3 705F666C 		.ascii	"p_flags\000"
 2353      61677300 
 2354              	.LASF63:
 2355 03db 656C5F6E 		.ascii	"el_next\000"
 2355      65787400 
 2356              	.LASF114:
 2357 03e3 53445F53 		.ascii	"SD_STOP\000"
 2357      544F5000 
 2358              	.LASF25:
 2359 03eb 54687265 		.ascii	"Thread\000"
 2359      616400
 2360              	.LASF40:
 2361 03f2 705F6570 		.ascii	"p_epending\000"
 2361      656E6469 
 2361      6E6700
 2362              	.LASF113:
 2363 03fd 53445F55 		.ascii	"SD_UNINIT\000"
 2363      4E494E49 
 2363      5400
 2364              	.LASF98:
 2365 0407 52455345 		.ascii	"RESERVED5\000"
 2365      52564544 
 2365      3500
 2366              	.LASF75:
 2367 0411 715F636F 		.ascii	"q_counter\000"
 2367      756E7465 
 2367      7200
 2368              	.LASF50:
 2369 041b 725F7175 		.ascii	"r_queue\000"
 2369      65756500 
 2370              	.LASF116:
ARM GAS  /tmp/ccrKr3sP.s 			page 46


 2371 0423 73647374 		.ascii	"sdstate_t\000"
 2371      6174655F 
 2371      7400
 2372              	.LASF117:
 2373 042d 53657269 		.ascii	"SerialDriver\000"
 2373      616C4472 
 2373      69766572 
 2373      00
 2374              	.LASF11:
 2375 043a 6C6F6E67 		.ascii	"long unsigned int\000"
 2375      20756E73 
 2375      69676E65 
 2375      6420696E 
 2375      7400
 2376              	.LASF56:
 2377 044c 725F6375 		.ascii	"r_current\000"
 2377      7272656E 
 2377      7400
 2378              	.LASF86:
 2379 0456 72656164 		.ascii	"read\000"
 2379      00
 2380              	.LASF72:
 2381 045b 63686172 		.ascii	"char\000"
 2381      00
 2382              	.LASF129:
 2383 0460 77614361 		.ascii	"waCamera_Thread\000"
 2383      6D657261 
 2383      5F546872 
 2383      65616400 
 2384              	.LASF61:
 2385 0470 6D5F6E65 		.ascii	"m_next\000"
 2385      787400
 2386              	.LASF23:
 2387 0477 73797374 		.ascii	"systime_t\000"
 2387      696D655F 
 2387      7400
 2388              	.LASF42:
 2389 0481 705F7265 		.ascii	"p_realprio\000"
 2389      616C7072 
 2389      696F00
 2390              	.LASF125:
 2391 048c 67657466 		.ascii	"getflags\000"
 2391      6C616773 
 2391      00
 2392              	.LASF49:
 2393 0495 636F6E74 		.ascii	"context\000"
 2393      65787400 
 2394              	.LASF92:
 2395 049d 696F666C 		.ascii	"ioflags_t\000"
 2395      6167735F 
 2395      7400
 2396              	.LASF48:
 2397 04a7 696E7463 		.ascii	"intctx\000"
 2397      747800
 2398              	.LASF115:
 2399 04ae 53445F52 		.ascii	"SD_READY\000"
 2399      45414459 
ARM GAS  /tmp/ccrKr3sP.s 			page 47


 2399      00
 2400              	.LASF10:
 2401 04b7 75696E74 		.ascii	"uint32_t\000"
 2401      33325F74 
 2401      00
 2402              	.LASF77:
 2403 04c0 715F746F 		.ascii	"q_top\000"
 2403      7000
 2404              	.LASF32:
 2405 04c6 705F6E61 		.ascii	"p_name\000"
 2405      6D6500
 2406              	.LASF67:
 2407 04cd 65735F6E 		.ascii	"es_next\000"
 2407      65787400 
 2408              	.LASF57:
 2409 04d5 52656164 		.ascii	"ReadyList\000"
 2409      794C6973 
 2409      7400
 2410              	.LASF80:
 2411 04df 715F6E6F 		.ascii	"q_notify\000"
 2411      74696679 
 2411      00
 2412              	.LASF126:
 2413 04e8 726C6973 		.ascii	"rlist\000"
 2413      7400
 2414              	.LASF3:
 2415 04ee 75696E74 		.ascii	"uint8_t\000"
 2415      385F7400 
 2416              	.LASF91:
 2417 04f6 42617365 		.ascii	"BaseChannel\000"
 2417      4368616E 
 2417      6E656C00 
 2418              	.LASF119:
 2419 0502 666C6167 		.ascii	"flags\000"
 2419      7300
 2420              	.LASF62:
 2421 0508 4576656E 		.ascii	"EventListener\000"
 2421      744C6973 
 2421      74656E65 
 2421      7200
 2422              	.LASF70:
 2423 0516 77746F62 		.ascii	"wtobjp\000"
 2423      6A7000
 2424              	.LASF88:
 2425 051d 67657477 		.ascii	"getwouldblock\000"
 2425      6F756C64 
 2425      626C6F63 
 2425      6B00
 2426              	.LASF133:
 2427 052b 6D61696E 		.ascii	"main\000"
 2427      00
 2428              	.LASF60:
 2429 0530 6D5F6F77 		.ascii	"m_owner\000"
 2429      6E657200 
 2430              	.LASF29:
 2431 0538 705F6374 		.ascii	"p_ctx\000"
 2431      7800
ARM GAS  /tmp/ccrKr3sP.s 			page 48


 2432              	.LASF37:
 2433 053e 705F7761 		.ascii	"p_waiting\000"
 2433      6974696E 
 2433      6700
 2434              		.ident	"GCC: (GNU Tools for ARM Embedded Processors) 4.6.2 20120613 (release) [ARM/embedded-4_6-br
ARM GAS  /tmp/ccrKr3sP.s 			page 49


DEFINED SYMBOLS
                            *ABS*:00000000 main.c
     /tmp/ccrKr3sP.s:19     .text.startup.main:00000000 $t
     /tmp/ccrKr3sP.s:25     .text.startup.main:00000000 main
     /tmp/ccrKr3sP.s:90     .text.startup.main:00000078 $d
     /tmp/ccrKr3sP.s:110    .bss.waCamera_Thread:00000000 waCamera_Thread
     /tmp/ccrKr3sP.s:117    .bss.waUART_Thread:00000000 waUART_Thread
     /tmp/ccrKr3sP.s:102    .rodata.str1.4:00000000 $d
     /tmp/ccrKr3sP.s:106    .bss.waCamera_Thread:00000000 $d
     /tmp/ccrKr3sP.s:113    .bss.waUART_Thread:00000000 $d
                     .debug_frame:00000010 $d

UNDEFINED SYMBOLS
halInit
chSysInit
sdStart
_pal_lld_setgroupmode
chThdCreateStatic
chprintf
chThdSleep
chSchReadyI
SD3
Camera_Thread
UART_Thread
