ARM GAS  /tmp/ccIQNw51.s 			page 1


   1              		.syntax unified
   2              		.cpu cortex-m4
   3              		.fpu softvfp
   4              		.eabi_attribute 20, 1
   5              		.eabi_attribute 21, 1
   6              		.eabi_attribute 23, 3
   7              		.eabi_attribute 24, 1
   8              		.eabi_attribute 25, 1
   9              		.eabi_attribute 26, 1
  10              		.eabi_attribute 30, 2
  11              		.eabi_attribute 34, 1
  12              		.eabi_attribute 18, 4
  13              		.thumb
  14              		.file	"pal_lld.c"
  15              		.text
  16              	.Ltext0:
  17              		.cfi_sections	.debug_frame
  18              		.section	.text._pal_lld_init,"ax",%progbits
  19              		.align	2
  20              		.p2align 4,,15
  21              		.global	_pal_lld_init
  22              		.thumb
  23              		.thumb_func
  24              		.type	_pal_lld_init, %function
  25              	_pal_lld_init:
  26              	.LFB118:
  27              		.file 1 "./os/hal/platforms/STM32/GPIOv2/pal_lld.c"
  28              		.loc 1 102 0
  29              		.cfi_startproc
  30              		@ args = 0, pretend = 0, frame = 0
  31              		@ frame_needed = 0, uses_anonymous_args = 0
  32              		@ link register save eliminated.
  33              	.LVL0:
  34              		.loc 1 110 0
  35 0000 4FF46053 		mov	r3, #14336
  36 0004 C4F20203 		movt	r3, 16386
  37 0008 1A6B     		ldr	r2, [r3, #48]
  38 000a 6FEA5222 		mvn	r2, r2, lsr #9
  39 000e 6FEA4222 		mvn	r2, r2, lsl #9
  40 0012 1A63     		str	r2, [r3, #48]
  41              		.loc 1 111 0
  42 0014 1A6D     		ldr	r2, [r3, #80]
  43 0016 6FEA5222 		mvn	r2, r2, lsr #9
  44 001a 6FEA4222 		mvn	r2, r2, lsl #9
  45 001e 1A65     		str	r2, [r3, #80]
  46              	.LVL1:
  47              	.LBB20:
  48              	.LBB21:
  49              		.loc 1 77 0
  50 0020 0023     		movs	r3, #0
  51 0022 0169     		ldr	r1, [r0, #16]
  52 0024 C4F20203 		movt	r3, 16386
  53              	.LBE21:
  54              	.LBE20:
  55              	.LBB23:
  56              	.LBB24:
  57 0028 4FF48062 		mov	r2, #1024
ARM GAS  /tmp/ccIQNw51.s 			page 2


  58              	.LBE24:
  59              	.LBE23:
  60              	.LBB27:
  61              	.LBB22:
  62 002c 5961     		str	r1, [r3, #20]
  63              		.loc 1 78 0
  64 002e 0168     		ldr	r1, [r0, #0]
  65 0030 1960     		str	r1, [r3, #0]
  66              		.loc 1 79 0
  67 0032 4168     		ldr	r1, [r0, #4]
  68 0034 5960     		str	r1, [r3, #4]
  69              		.loc 1 80 0
  70 0036 8168     		ldr	r1, [r0, #8]
  71 0038 9960     		str	r1, [r3, #8]
  72              		.loc 1 81 0
  73 003a C168     		ldr	r1, [r0, #12]
  74 003c D960     		str	r1, [r3, #12]
  75              		.loc 1 82 0
  76 003e 4169     		ldr	r1, [r0, #20]
  77 0040 1962     		str	r1, [r3, #32]
  78              		.loc 1 83 0
  79 0042 8169     		ldr	r1, [r0, #24]
  80 0044 5962     		str	r1, [r3, #36]
  81              	.LVL2:
  82              	.LBE22:
  83              	.LBE27:
  84              	.LBB28:
  85              	.LBB25:
  86              		.loc 1 77 0
  87 0046 C16A     		ldr	r1, [r0, #44]
  88 0048 C4F20202 		movt	r2, 16386
  89              	.LBE25:
  90              	.LBE28:
  91              	.LBB29:
  92              	.LBB30:
  93 004c 4FF40063 		mov	r3, #2048
  94              	.LBE30:
  95              	.LBE29:
  96              	.LBB33:
  97              	.LBB26:
  98 0050 5161     		str	r1, [r2, #20]
  99              		.loc 1 78 0
 100 0052 C169     		ldr	r1, [r0, #28]
 101 0054 1160     		str	r1, [r2, #0]
 102              		.loc 1 79 0
 103 0056 016A     		ldr	r1, [r0, #32]
 104 0058 5160     		str	r1, [r2, #4]
 105              		.loc 1 80 0
 106 005a 416A     		ldr	r1, [r0, #36]
 107 005c 9160     		str	r1, [r2, #8]
 108              		.loc 1 81 0
 109 005e 816A     		ldr	r1, [r0, #40]
 110 0060 D160     		str	r1, [r2, #12]
 111              		.loc 1 82 0
 112 0062 016B     		ldr	r1, [r0, #48]
 113 0064 1162     		str	r1, [r2, #32]
 114              		.loc 1 83 0
ARM GAS  /tmp/ccIQNw51.s 			page 3


 115 0066 416B     		ldr	r1, [r0, #52]
 116 0068 5162     		str	r1, [r2, #36]
 117              	.LVL3:
 118              	.LBE26:
 119              	.LBE33:
 120              	.LBB34:
 121              	.LBB31:
 122              		.loc 1 77 0
 123 006a C4F20203 		movt	r3, 16386
 124 006e 826C     		ldr	r2, [r0, #72]
 125 0070 5A61     		str	r2, [r3, #20]
 126              		.loc 1 78 0
 127 0072 826B     		ldr	r2, [r0, #56]
 128 0074 1A60     		str	r2, [r3, #0]
 129              		.loc 1 79 0
 130 0076 C26B     		ldr	r2, [r0, #60]
 131 0078 5A60     		str	r2, [r3, #4]
 132              		.loc 1 80 0
 133 007a 026C     		ldr	r2, [r0, #64]
 134 007c 9A60     		str	r2, [r3, #8]
 135              		.loc 1 81 0
 136 007e 426C     		ldr	r2, [r0, #68]
 137 0080 DA60     		str	r2, [r3, #12]
 138              		.loc 1 82 0
 139 0082 C26C     		ldr	r2, [r0, #76]
 140 0084 1A62     		str	r2, [r3, #32]
 141              		.loc 1 83 0
 142 0086 016D     		ldr	r1, [r0, #80]
 143              	.LBE31:
 144              	.LBE34:
 145              	.LBB35:
 146              	.LBB36:
 147              		.loc 1 77 0
 148 0088 4FF44062 		mov	r2, #3072
 149              	.LBE36:
 150              	.LBE35:
 151              	.LBB39:
 152              	.LBB32:
 153              		.loc 1 83 0
 154 008c 5962     		str	r1, [r3, #36]
 155              	.LVL4:
 156              	.LBE32:
 157              	.LBE39:
 158              	.LBB40:
 159              	.LBB37:
 160              		.loc 1 77 0
 161 008e 416E     		ldr	r1, [r0, #100]
 162 0090 C4F20202 		movt	r2, 16386
 163              	.LBE37:
 164              	.LBE40:
 165              	.LBB41:
 166              	.LBB42:
 167 0094 4FF48053 		mov	r3, #4096
 168              	.LBE42:
 169              	.LBE41:
 170              	.LBB45:
 171              	.LBB38:
ARM GAS  /tmp/ccIQNw51.s 			page 4


 172 0098 5161     		str	r1, [r2, #20]
 173              		.loc 1 78 0
 174 009a 416D     		ldr	r1, [r0, #84]
 175 009c 1160     		str	r1, [r2, #0]
 176              		.loc 1 79 0
 177 009e 816D     		ldr	r1, [r0, #88]
 178 00a0 5160     		str	r1, [r2, #4]
 179              		.loc 1 80 0
 180 00a2 C16D     		ldr	r1, [r0, #92]
 181 00a4 9160     		str	r1, [r2, #8]
 182              		.loc 1 81 0
 183 00a6 016E     		ldr	r1, [r0, #96]
 184 00a8 D160     		str	r1, [r2, #12]
 185              		.loc 1 82 0
 186 00aa 816E     		ldr	r1, [r0, #104]
 187 00ac 1162     		str	r1, [r2, #32]
 188              		.loc 1 83 0
 189 00ae C16E     		ldr	r1, [r0, #108]
 190 00b0 5162     		str	r1, [r2, #36]
 191              	.LVL5:
 192              	.LBE38:
 193              	.LBE45:
 194              	.LBB46:
 195              	.LBB43:
 196              		.loc 1 77 0
 197 00b2 C4F20203 		movt	r3, 16386
 198 00b6 D0F88020 		ldr	r2, [r0, #128]
 199 00ba 5A61     		str	r2, [r3, #20]
 200              		.loc 1 78 0
 201 00bc 026F     		ldr	r2, [r0, #112]
 202 00be 1A60     		str	r2, [r3, #0]
 203              		.loc 1 79 0
 204 00c0 426F     		ldr	r2, [r0, #116]
 205 00c2 5A60     		str	r2, [r3, #4]
 206              		.loc 1 80 0
 207 00c4 826F     		ldr	r2, [r0, #120]
 208 00c6 9A60     		str	r2, [r3, #8]
 209              		.loc 1 81 0
 210 00c8 C26F     		ldr	r2, [r0, #124]
 211 00ca DA60     		str	r2, [r3, #12]
 212              		.loc 1 82 0
 213 00cc D0F88420 		ldr	r2, [r0, #132]
 214 00d0 1A62     		str	r2, [r3, #32]
 215              		.loc 1 83 0
 216 00d2 D0F88810 		ldr	r1, [r0, #136]
 217              	.LBE43:
 218              	.LBE46:
 219              	.LBB47:
 220              	.LBB48:
 221              		.loc 1 77 0
 222 00d6 4FF4A052 		mov	r2, #5120
 223              	.LBE48:
 224              	.LBE47:
 225              	.LBB51:
 226              	.LBB44:
 227              		.loc 1 83 0
 228 00da 5962     		str	r1, [r3, #36]
ARM GAS  /tmp/ccIQNw51.s 			page 5


 229              	.LVL6:
 230              	.LBE44:
 231              	.LBE51:
 232              	.LBB52:
 233              	.LBB49:
 234              		.loc 1 77 0
 235 00dc D0F89C10 		ldr	r1, [r0, #156]
 236 00e0 C4F20202 		movt	r2, 16386
 237              	.LBE49:
 238              	.LBE52:
 239              	.LBB53:
 240              	.LBB54:
 241 00e4 4FF4C053 		mov	r3, #6144
 242              	.LBE54:
 243              	.LBE53:
 244              	.LBB58:
 245              	.LBB50:
 246 00e8 5161     		str	r1, [r2, #20]
 247              		.loc 1 78 0
 248 00ea D0F88C10 		ldr	r1, [r0, #140]
 249 00ee 1160     		str	r1, [r2, #0]
 250              		.loc 1 79 0
 251 00f0 D0F89010 		ldr	r1, [r0, #144]
 252 00f4 5160     		str	r1, [r2, #4]
 253              		.loc 1 80 0
 254 00f6 D0F89410 		ldr	r1, [r0, #148]
 255 00fa 9160     		str	r1, [r2, #8]
 256              		.loc 1 81 0
 257 00fc D0F89810 		ldr	r1, [r0, #152]
 258 0100 D160     		str	r1, [r2, #12]
 259              		.loc 1 82 0
 260 0102 D0F8A010 		ldr	r1, [r0, #160]
 261 0106 1162     		str	r1, [r2, #32]
 262              		.loc 1 83 0
 263 0108 D0F8A410 		ldr	r1, [r0, #164]
 264 010c 5162     		str	r1, [r2, #36]
 265              	.LVL7:
 266              	.LBE50:
 267              	.LBE58:
 268              	.LBB59:
 269              	.LBB55:
 270              		.loc 1 77 0
 271 010e D0F8B810 		ldr	r1, [r0, #184]
 272 0112 C4F20203 		movt	r3, 16386
 273              	.LBE55:
 274              	.LBE59:
 275              	.LBB60:
 276              	.LBB61:
 277 0116 4FF4E052 		mov	r2, #7168
 278              	.LBE61:
 279              	.LBE60:
 280              	.LBB65:
 281              	.LBB56:
 282 011a 5961     		str	r1, [r3, #20]
 283              		.loc 1 78 0
 284 011c D0F8A810 		ldr	r1, [r0, #168]
 285 0120 1960     		str	r1, [r3, #0]
ARM GAS  /tmp/ccIQNw51.s 			page 6


 286              		.loc 1 79 0
 287 0122 D0F8AC10 		ldr	r1, [r0, #172]
 288 0126 5960     		str	r1, [r3, #4]
 289              		.loc 1 80 0
 290 0128 D0F8B010 		ldr	r1, [r0, #176]
 291 012c 9960     		str	r1, [r3, #8]
 292              		.loc 1 81 0
 293 012e D0F8B410 		ldr	r1, [r0, #180]
 294 0132 D960     		str	r1, [r3, #12]
 295              		.loc 1 82 0
 296 0134 D0F8BC10 		ldr	r1, [r0, #188]
 297 0138 1962     		str	r1, [r3, #32]
 298              		.loc 1 83 0
 299 013a D0F8C010 		ldr	r1, [r0, #192]
 300              	.LBE56:
 301              	.LBE65:
 302              	.LBB66:
 303              	.LBB62:
 304              		.loc 1 77 0
 305 013e C4F20202 		movt	r2, 16386
 306              	.LBE62:
 307              	.LBE66:
 308              	.LBB67:
 309              	.LBB57:
 310              		.loc 1 83 0
 311 0142 5962     		str	r1, [r3, #36]
 312              	.LVL8:
 313              	.LBE57:
 314              	.LBE67:
 315              	.LBB68:
 316              	.LBB63:
 317              		.loc 1 77 0
 318 0144 D0F8D430 		ldr	r3, [r0, #212]
 319 0148 5361     		str	r3, [r2, #20]
 320              		.loc 1 78 0
 321 014a D0F8C430 		ldr	r3, [r0, #196]
 322 014e 1360     		str	r3, [r2, #0]
 323              		.loc 1 79 0
 324 0150 D0F8C830 		ldr	r3, [r0, #200]
 325 0154 5360     		str	r3, [r2, #4]
 326              		.loc 1 80 0
 327 0156 D0F8CC30 		ldr	r3, [r0, #204]
 328 015a 9360     		str	r3, [r2, #8]
 329              		.loc 1 81 0
 330 015c D0F8D030 		ldr	r3, [r0, #208]
 331 0160 D360     		str	r3, [r2, #12]
 332              		.loc 1 82 0
 333 0162 D0F8D830 		ldr	r3, [r0, #216]
 334 0166 1362     		str	r3, [r2, #32]
 335              		.loc 1 83 0
 336 0168 D0F8DC10 		ldr	r1, [r0, #220]
 337              	.LBE63:
 338              	.LBE68:
 339              	.LBB69:
 340              	.LBB70:
 341              		.loc 1 77 0
 342 016c 4FF40053 		mov	r3, #8192
ARM GAS  /tmp/ccIQNw51.s 			page 7


 343              	.LBE70:
 344              	.LBE69:
 345              	.LBB72:
 346              	.LBB64:
 347              		.loc 1 83 0
 348 0170 5162     		str	r1, [r2, #36]
 349              	.LVL9:
 350              	.LBE64:
 351              	.LBE72:
 352              	.LBB73:
 353              	.LBB71:
 354              		.loc 1 77 0
 355 0172 D0F8F020 		ldr	r2, [r0, #240]
 356 0176 C4F20203 		movt	r3, 16386
 357 017a 5A61     		str	r2, [r3, #20]
 358              		.loc 1 78 0
 359 017c D0F8E020 		ldr	r2, [r0, #224]
 360 0180 1A60     		str	r2, [r3, #0]
 361              		.loc 1 79 0
 362 0182 D0F8E420 		ldr	r2, [r0, #228]
 363 0186 5A60     		str	r2, [r3, #4]
 364              		.loc 1 80 0
 365 0188 D0F8E820 		ldr	r2, [r0, #232]
 366 018c 9A60     		str	r2, [r3, #8]
 367              		.loc 1 81 0
 368 018e D0F8EC20 		ldr	r2, [r0, #236]
 369 0192 DA60     		str	r2, [r3, #12]
 370              		.loc 1 82 0
 371 0194 D0F8F420 		ldr	r2, [r0, #244]
 372 0198 1A62     		str	r2, [r3, #32]
 373              		.loc 1 83 0
 374 019a D0F8F820 		ldr	r2, [r0, #248]
 375 019e 5A62     		str	r2, [r3, #36]
 376 01a0 7047     		bx	lr
 377              	.LBE71:
 378              	.LBE73:
 379              		.cfi_endproc
 380              	.LFE118:
 381              		.size	_pal_lld_init, .-_pal_lld_init
 382 01a2 00BFAFF3 		.section	.text._pal_lld_setgroupmode,"ax",%progbits
 382      0080AFF3 
 382      0080AFF3 
 382      0080
 383              		.align	2
 384              		.p2align 4,,15
 385              		.global	_pal_lld_setgroupmode
 386              		.thumb
 387              		.thumb_func
 388              		.type	_pal_lld_setgroupmode, %function
 389              	_pal_lld_setgroupmode:
 390              	.LFB119:
 391              		.loc 1 154 0
 392              		.cfi_startproc
 393              		@ args = 0, pretend = 0, frame = 0
 394              		@ frame_needed = 0, uses_anonymous_args = 0
 395              		@ link register save eliminated.
 396              	.LVL10:
ARM GAS  /tmp/ccIQNw51.s 			page 8


 397 0000 2DE9F00F 		push	{r4, r5, r6, r7, r8, r9, sl, fp}
 398              	.LCFI0:
 399              		.cfi_def_cfa_offset 32
 400              		.cfi_offset 4, -32
 401              		.cfi_offset 5, -28
 402              		.cfi_offset 6, -24
 403              		.cfi_offset 7, -20
 404              		.cfi_offset 8, -16
 405              		.cfi_offset 9, -12
 406              		.cfi_offset 10, -8
 407              		.cfi_offset 11, -4
 408              		.loc 1 161 0
 409 0004 0023     		movs	r3, #0
 410              		.loc 1 156 0
 411 0006 02F00307 		and	r7, r2, #3
 412              	.LVL11:
 413              		.loc 1 157 0
 414 000a C2F38006 		ubfx	r6, r2, #2, #1
 415              	.LVL12:
 416              		.loc 1 158 0
 417 000e C2F3C105 		ubfx	r5, r2, #3, #2
 418              	.LVL13:
 419              		.loc 1 159 0
 420 0012 C2F34114 		ubfx	r4, r2, #5, #2
 421              	.LVL14:
 422              	.LBB74:
 423              		.loc 1 167 0
 424 0016 4FF00F09 		mov	r9, #15
 425              	.LBE74:
 426              		.loc 1 160 0
 427 001a C2F3C312 		ubfx	r2, r2, #7, #4
 428              	.LVL15:
 429              	.LBB75:
 430              		.loc 1 172 0
 431 001e 4FF0010A 		mov	sl, #1
 432 0022 04E0     		b	.L7
 433              	.LVL16:
 434              	.L12:
 435              	.LBE75:
 436              		.loc 1 182 0
 437 0024 7600     		lsls	r6, r6, #1
 438              	.LVL17:
 439              		.loc 1 183 0
 440 0026 AD00     		lsls	r5, r5, #2
 441              	.LVL18:
 442              		.loc 1 184 0
 443 0028 A400     		lsls	r4, r4, #2
 444              	.LVL19:
 445              		.loc 1 185 0
 446 002a BF00     		lsls	r7, r7, #2
 447              	.LVL20:
 448              		.loc 1 186 0
 449 002c 0133     		adds	r3, r3, #1
 450              	.LVL21:
 451              	.L7:
 452              	.LBB76:
 453              		.loc 1 166 0
ARM GAS  /tmp/ccIQNw51.s 			page 9


 454 002e 03F0070C 		and	ip, r3, #7
 455 0032 4FEA8C0C 		lsl	ip, ip, #2
 456              	.LBE76:
 457              		.loc 1 163 0
 458 0036 11F0010F 		tst	r1, #1
 459              	.LBB77:
 460              		.loc 1 166 0
 461 003a 02FA0CF8 		lsl	r8, r2, ip
 462              	.LVL22:
 463              		.loc 1 167 0
 464 003e 09FA0CFC 		lsl	ip, r9, ip
 465              	.LVL23:
 466              	.LBE77:
 467              		.loc 1 163 0
 468 0042 3CD0     		beq	.L3
 469              	.LVL24:
 470              	.LBB78:
 471              		.loc 1 168 0
 472 0044 072B     		cmp	r3, #7
 473              		.loc 1 169 0
 474 0046 95BF     		itete	ls
 475 0048 D0F820B0 		ldrls	fp, [r0, #32]
 476              		.loc 1 171 0
 477 004c D0F824B0 		ldrhi	fp, [r0, #36]
 478              		.loc 1 169 0
 479 0050 2BEA0C0C 		bicls	ip, fp, ip
 480              	.LVL25:
 481              		.loc 1 171 0
 482 0054 2BEA0C0C 		bichi	ip, fp, ip
 483              		.loc 1 169 0
 484 0058 95BF     		itete	ls
 485 005a 4CEA0808 		orrls	r8, ip, r8
 486              	.LVL26:
 487              		.loc 1 171 0
 488 005e 4CEA0808 		orrhi	r8, ip, r8
 489              		.loc 1 169 0
 490 0062 C0F82080 		strls	r8, [r0, #32]
 491              		.loc 1 171 0
 492 0066 C0F82480 		strhi	r8, [r0, #36]
 493              		.loc 1 173 0
 494 006a D0F804C0 		ldr	ip, [r0, #4]
 495              		.loc 1 172 0
 496 006e 0AFA03F8 		lsl	r8, sl, r3
 497              		.loc 1 173 0
 498 0072 2CEA080C 		bic	ip, ip, r8
 499 0076 4CEA060C 		orr	ip, ip, r6
 500 007a C0F804C0 		str	ip, [r0, #4]
 501              	.LVL27:
 502              		.loc 1 174 0
 503 007e 4FF0030B 		mov	fp, #3
 504              		.loc 1 152 0
 505 0082 4FEA430C 		lsl	ip, r3, #1
 506              		.loc 1 175 0
 507 0086 D0F80880 		ldr	r8, [r0, #8]
 508              		.loc 1 174 0
 509 008a 0BFA0CFC 		lsl	ip, fp, ip
 510              	.LVL28:
ARM GAS  /tmp/ccIQNw51.s 			page 10


 511              		.loc 1 175 0
 512 008e 6FEA0C0C 		mvn	ip, ip
 513              	.LVL29:
 514 0092 0CEA0808 		and	r8, ip, r8
 515 0096 48EA0508 		orr	r8, r8, r5
 516 009a C0F80880 		str	r8, [r0, #8]
 517              		.loc 1 176 0
 518 009e D0F80C80 		ldr	r8, [r0, #12]
 519 00a2 0CEA0808 		and	r8, ip, r8
 520 00a6 48EA0408 		orr	r8, r8, r4
 521 00aa C0F80C80 		str	r8, [r0, #12]
 522              		.loc 1 177 0
 523 00ae D0F80080 		ldr	r8, [r0, #0]
 524 00b2 0CEA080C 		and	ip, ip, r8
 525              	.LVL30:
 526 00b6 4CEA070C 		orr	ip, ip, r7
 527 00ba C0F800C0 		str	ip, [r0, #0]
 528              	.LVL31:
 529              	.L3:
 530              	.LBE78:
 531              		.loc 1 180 0
 532 00be 4908     		lsrs	r1, r1, #1
 533              	.LVL32:
 534 00c0 B0D1     		bne	.L12
 535              		.loc 1 188 0
 536 00c2 BDE8F00F 		pop	{r4, r5, r6, r7, r8, r9, sl, fp}
 537 00c6 7047     		bx	lr
 538              		.cfi_endproc
 539              	.LFE119:
 540              		.size	_pal_lld_setgroupmode, .-_pal_lld_setgroupmode
 541 00c8 AFF30080 		.text
 541      AFF30080 
 542              	.Letext0:
 543              		.file 2 "/home/mitchd/Documents/FOX-1/amsat-fox/x86_64-toolchain/arm/bin/../lib/gcc/arm-none-eabi/
 544              		.file 3 "./os/hal/platforms/STM32F4xx/stm32f4xx.h"
 545              		.file 4 "./os/hal/platforms/STM32/GPIOv2/pal_lld.h"
 546              		.file 5 "./os/ports/common/ARMCMx/CMSIS/include/core_cm4.h"