ARM GAS  /tmp/ccIQNw51.s 			page 1


   1              		.syntax unified
   2              		.cpu cortex-m4
   3              		.fpu softvfp
   4              		.eabi_attribute 20, 1
   5              		.eabi_attribute 21, 1
   6              		.eabi_attribute 23, 3
   7              		.eabi_attribute 24, 1
   8              		.eabi_attribute 25, 1
   9              		.eabi_attribute 26, 1
  10              		.eabi_attribute 30, 2
  11              		.eabi_attribute 34, 1
  12              		.eabi_attribute 18, 4
  13              		.thumb
  14              		.file	"pal_lld.c"
  15              		.text
  16              	.Ltext0:
  17              		.cfi_sections	.debug_frame
  18              		.section	.text._pal_lld_init,"ax",%progbits
  19              		.align	2
  20              		.p2align 4,,15
  21              		.global	_pal_lld_init
  22              		.thumb
  23              		.thumb_func
  24              		.type	_pal_lld_init, %function
  25              	_pal_lld_init:
  26              	.LFB118:
  27              		.file 1 "./os/hal/platforms/STM32/GPIOv2/pal_lld.c"
  28              		.loc 1 102 0
  29              		.cfi_startproc
  30              		@ args = 0, pretend = 0, frame = 0
  31              		@ frame_needed = 0, uses_anonymous_args = 0
  32              		@ link register save eliminated.
  33              	.LVL0:
  34              		.loc 1 110 0
  35 0000 4FF46053 		mov	r3, #14336
  36 0004 C4F20203 		movt	r3, 16386
  37 0008 1A6B     		ldr	r2, [r3, #48]
  38 000a 6FEA5222 		mvn	r2, r2, lsr #9
  39 000e 6FEA4222 		mvn	r2, r2, lsl #9
  40 0012 1A63     		str	r2, [r3, #48]
  41              		.loc 1 111 0
  42 0014 1A6D     		ldr	r2, [r3, #80]
  43 0016 6FEA5222 		mvn	r2, r2, lsr #9
  44 001a 6FEA4222 		mvn	r2, r2, lsl #9
  45 001e 1A65     		str	r2, [r3, #80]
  46              	.LVL1:
  47              	.LBB20:
  48              	.LBB21:
  49              		.loc 1 77 0
  50 0020 0023     		movs	r3, #0
  51 0022 0169     		ldr	r1, [r0, #16]
  52 0024 C4F20203 		movt	r3, 16386
  53              	.LBE21:
  54              	.LBE20:
  55              	.LBB23:
  56              	.LBB24:
  57 0028 4FF48062 		mov	r2, #1024
ARM GAS  /tmp/ccIQNw51.s 			page 2


  58              	.LBE24:
  59              	.LBE23:
  60              	.LBB27:
  61              	.LBB22:
  62 002c 5961     		str	r1, [r3, #20]
  63              		.loc 1 78 0
  64 002e 0168     		ldr	r1, [r0, #0]
  65 0030 1960     		str	r1, [r3, #0]
  66              		.loc 1 79 0
  67 0032 4168     		ldr	r1, [r0, #4]
  68 0034 5960     		str	r1, [r3, #4]
  69              		.loc 1 80 0
  70 0036 8168     		ldr	r1, [r0, #8]
  71 0038 9960     		str	r1, [r3, #8]
  72              		.loc 1 81 0
  73 003a C168     		ldr	r1, [r0, #12]
  74 003c D960     		str	r1, [r3, #12]
  75              		.loc 1 82 0
  76 003e 4169     		ldr	r1, [r0, #20]
  77 0040 1962     		str	r1, [r3, #32]
  78              		.loc 1 83 0
  79 0042 8169     		ldr	r1, [r0, #24]
  80 0044 5962     		str	r1, [r3, #36]
  81              	.LVL2:
  82              	.LBE22:
  83              	.LBE27:
  84              	.LBB28:
  85              	.LBB25:
  86              		.loc 1 77 0
  87 0046 C16A     		ldr	r1, [r0, #44]
  88 0048 C4F20202 		movt	r2, 16386
  89              	.LBE25:
  90              	.LBE28:
  91              	.LBB29:
  92              	.LBB30:
  93 004c 4FF40063 		mov	r3, #2048
  94              	.LBE30:
  95              	.LBE29:
  96              	.LBB33:
  97              	.LBB26:
  98 0050 5161     		str	r1, [r2, #20]
  99              		.loc 1 78 0
 100 0052 C169     		ldr	r1, [r0, #28]
 101 0054 1160     		str	r1, [r2, #0]
 102              		.loc 1 79 0
 103 0056 016A     		ldr	r1, [r0, #32]
 104 0058 5160     		str	r1, [r2, #4]
 105              		.loc 1 80 0
 106 005a 416A     		ldr	r1, [r0, #36]
 107 005c 9160     		str	r1, [r2, #8]
 108              		.loc 1 81 0
 109 005e 816A     		ldr	r1, [r0, #40]
 110 0060 D160     		str	r1, [r2, #12]
 111              		.loc 1 82 0
 112 0062 016B     		ldr	r1, [r0, #48]
 113 0064 1162     		str	r1, [r2, #32]
 114              		.loc 1 83 0
ARM GAS  /tmp/ccIQNw51.s 			page 3


 115 0066 416B     		ldr	r1, [r0, #52]
 116 0068 5162     		str	r1, [r2, #36]
 117              	.LVL3:
 118              	.LBE26:
 119              	.LBE33:
 120              	.LBB34:
 121              	.LBB31:
 122              		.loc 1 77 0
 123 006a C4F20203 		movt	r3, 16386
 124 006e 826C     		ldr	r2, [r0, #72]
 125 0070 5A61     		str	r2, [r3, #20]
 126              		.loc 1 78 0
 127 0072 826B     		ldr	r2, [r0, #56]
 128 0074 1A60     		str	r2, [r3, #0]
 129              		.loc 1 79 0
 130 0076 C26B     		ldr	r2, [r0, #60]
 131 0078 5A60     		str	r2, [r3, #4]
 132              		.loc 1 80 0
 133 007a 026C     		ldr	r2, [r0, #64]
 134 007c 9A60     		str	r2, [r3, #8]
 135              		.loc 1 81 0
 136 007e 426C     		ldr	r2, [r0, #68]
 137 0080 DA60     		str	r2, [r3, #12]
 138              		.loc 1 82 0
 139 0082 C26C     		ldr	r2, [r0, #76]
 140 0084 1A62     		str	r2, [r3, #32]
 141              		.loc 1 83 0
 142 0086 016D     		ldr	r1, [r0, #80]
 143              	.LBE31:
 144              	.LBE34:
 145              	.LBB35:
 146              	.LBB36:
 147              		.loc 1 77 0
 148 0088 4FF44062 		mov	r2, #3072
 149              	.LBE36:
 150              	.LBE35:
 151              	.LBB39:
 152              	.LBB32:
 153              		.loc 1 83 0
 154 008c 5962     		str	r1, [r3, #36]
 155              	.LVL4:
 156              	.LBE32:
 157              	.LBE39:
 158              	.LBB40:
 159              	.LBB37:
 160              		.loc 1 77 0
 161 008e 416E     		ldr	r1, [r0, #100]
 162 0090 C4F20202 		movt	r2, 16386
 163              	.LBE37:
 164              	.LBE40:
 165              	.LBB41:
 166              	.LBB42:
 167 0094 4FF48053 		mov	r3, #4096
 168              	.LBE42:
 169              	.LBE41:
 170              	.LBB45:
 171              	.LBB38:
ARM GAS  /tmp/ccIQNw51.s 			page 4


 172 0098 5161     		str	r1, [r2, #20]
 173              		.loc 1 78 0
 174 009a 416D     		ldr	r1, [r0, #84]
 175 009c 1160     		str	r1, [r2, #0]
 176              		.loc 1 79 0
 177 009e 816D     		ldr	r1, [r0, #88]
 178 00a0 5160     		str	r1, [r2, #4]
 179              		.loc 1 80 0
 180 00a2 C16D     		ldr	r1, [r0, #92]
 181 00a4 9160     		str	r1, [r2, #8]
 182              		.loc 1 81 0
 183 00a6 016E     		ldr	r1, [r0, #96]
 184 00a8 D160     		str	r1, [r2, #12]
 185              		.loc 1 82 0
 186 00aa 816E     		ldr	r1, [r0, #104]
 187 00ac 1162     		str	r1, [r2, #32]
 188              		.loc 1 83 0
 189 00ae C16E     		ldr	r1, [r0, #108]
 190 00b0 5162     		str	r1, [r2, #36]
 191              	.LVL5:
 192              	.LBE38:
 193              	.LBE45:
 194              	.LBB46:
 195              	.LBB43:
 196              		.loc 1 77 0
 197 00b2 C4F20203 		movt	r3, 16386
 198 00b6 D0F88020 		ldr	r2, [r0, #128]
 199 00ba 5A61     		str	r2, [r3, #20]
 200              		.loc 1 78 0
 201 00bc 026F     		ldr	r2, [r0, #112]
 202 00be 1A60     		str	r2, [r3, #0]
 203              		.loc 1 79 0
 204 00c0 426F     		ldr	r2, [r0, #116]
 205 00c2 5A60     		str	r2, [r3, #4]
 206              		.loc 1 80 0
 207 00c4 826F     		ldr	r2, [r0, #120]
 208 00c6 9A60     		str	r2, [r3, #8]
 209              		.loc 1 81 0
 210 00c8 C26F     		ldr	r2, [r0, #124]
 211 00ca DA60     		str	r2, [r3, #12]
 212              		.loc 1 82 0
 213 00cc D0F88420 		ldr	r2, [r0, #132]
 214 00d0 1A62     		str	r2, [r3, #32]
 215              		.loc 1 83 0
 216 00d2 D0F88810 		ldr	r1, [r0, #136]
 217              	.LBE43:
 218              	.LBE46:
 219              	.LBB47:
 220              	.LBB48:
 221              		.loc 1 77 0
 222 00d6 4FF4A052 		mov	r2, #5120
 223              	.LBE48:
 224              	.LBE47:
 225              	.LBB51:
 226              	.LBB44:
 227              		.loc 1 83 0
 228 00da 5962     		str	r1, [r3, #36]
ARM GAS  /tmp/ccIQNw51.s 			page 5


 229              	.LVL6:
 230              	.LBE44:
 231              	.LBE51:
 232              	.LBB52:
 233              	.LBB49:
 234              		.loc 1 77 0
 235 00dc D0F89C10 		ldr	r1, [r0, #156]
 236 00e0 C4F20202 		movt	r2, 16386
 237              	.LBE49:
 238              	.LBE52:
 239              	.LBB53:
 240              	.LBB54:
 241 00e4 4FF4C053 		mov	r3, #6144
 242              	.LBE54:
 243              	.LBE53:
 244              	.LBB58:
 245              	.LBB50:
 246 00e8 5161     		str	r1, [r2, #20]
 247              		.loc 1 78 0
 248 00ea D0F88C10 		ldr	r1, [r0, #140]
 249 00ee 1160     		str	r1, [r2, #0]
 250              		.loc 1 79 0
 251 00f0 D0F89010 		ldr	r1, [r0, #144]
 252 00f4 5160     		str	r1, [r2, #4]
 253              		.loc 1 80 0
 254 00f6 D0F89410 		ldr	r1, [r0, #148]
 255 00fa 9160     		str	r1, [r2, #8]
 256              		.loc 1 81 0
 257 00fc D0F89810 		ldr	r1, [r0, #152]
 258 0100 D160     		str	r1, [r2, #12]
 259              		.loc 1 82 0
 260 0102 D0F8A010 		ldr	r1, [r0, #160]
 261 0106 1162     		str	r1, [r2, #32]
 262              		.loc 1 83 0
 263 0108 D0F8A410 		ldr	r1, [r0, #164]
 264 010c 5162     		str	r1, [r2, #36]
 265              	.LVL7:
 266              	.LBE50:
 267              	.LBE58:
 268              	.LBB59:
 269              	.LBB55:
 270              		.loc 1 77 0
 271 010e D0F8B810 		ldr	r1, [r0, #184]
 272 0112 C4F20203 		movt	r3, 16386
 273              	.LBE55:
 274              	.LBE59:
 275              	.LBB60:
 276              	.LBB61:
 277 0116 4FF4E052 		mov	r2, #7168
 278              	.LBE61:
 279              	.LBE60:
 280              	.LBB65:
 281              	.LBB56:
 282 011a 5961     		str	r1, [r3, #20]
 283              		.loc 1 78 0
 284 011c D0F8A810 		ldr	r1, [r0, #168]
 285 0120 1960     		str	r1, [r3, #0]
ARM GAS  /tmp/ccIQNw51.s 			page 6


 286              		.loc 1 79 0
 287 0122 D0F8AC10 		ldr	r1, [r0, #172]
 288 0126 5960     		str	r1, [r3, #4]
 289              		.loc 1 80 0
 290 0128 D0F8B010 		ldr	r1, [r0, #176]
 291 012c 9960     		str	r1, [r3, #8]
 292              		.loc 1 81 0
 293 012e D0F8B410 		ldr	r1, [r0, #180]
 294 0132 D960     		str	r1, [r3, #12]
 295              		.loc 1 82 0
 296 0134 D0F8BC10 		ldr	r1, [r0, #188]
 297 0138 1962     		str	r1, [r3, #32]
 298              		.loc 1 83 0
 299 013a D0F8C010 		ldr	r1, [r0, #192]
 300              	.LBE56:
 301              	.LBE65:
 302              	.LBB66:
 303              	.LBB62:
 304              		.loc 1 77 0
 305 013e C4F20202 		movt	r2, 16386
 306              	.LBE62:
 307              	.LBE66:
 308              	.LBB67:
 309              	.LBB57:
 310              		.loc 1 83 0
 311 0142 5962     		str	r1, [r3, #36]
 312              	.LVL8:
 313              	.LBE57:
 314              	.LBE67:
 315              	.LBB68:
 316              	.LBB63:
 317              		.loc 1 77 0
 318 0144 D0F8D430 		ldr	r3, [r0, #212]
 319 0148 5361     		str	r3, [r2, #20]
 320              		.loc 1 78 0
 321 014a D0F8C430 		ldr	r3, [r0, #196]
 322 014e 1360     		str	r3, [r2, #0]
 323              		.loc 1 79 0
 324 0150 D0F8C830 		ldr	r3, [r0, #200]
 325 0154 5360     		str	r3, [r2, #4]
 326              		.loc 1 80 0
 327 0156 D0F8CC30 		ldr	r3, [r0, #204]
 328 015a 9360     		str	r3, [r2, #8]
 329              		.loc 1 81 0
 330 015c D0F8D030 		ldr	r3, [r0, #208]
 331 0160 D360     		str	r3, [r2, #12]
 332              		.loc 1 82 0
 333 0162 D0F8D830 		ldr	r3, [r0, #216]
 334 0166 1362     		str	r3, [r2, #32]
 335              		.loc 1 83 0
 336 0168 D0F8DC10 		ldr	r1, [r0, #220]
 337              	.LBE63:
 338              	.LBE68:
 339              	.LBB69:
 340              	.LBB70:
 341              		.loc 1 77 0
 342 016c 4FF40053 		mov	r3, #8192
ARM GAS  /tmp/ccIQNw51.s 			page 7


 343              	.LBE70:
 344              	.LBE69:
 345              	.LBB72:
 346              	.LBB64:
 347              		.loc 1 83 0
 348 0170 5162     		str	r1, [r2, #36]
 349              	.LVL9:
 350              	.LBE64:
 351              	.LBE72:
 352              	.LBB73:
 353              	.LBB71:
 354              		.loc 1 77 0
 355 0172 D0F8F020 		ldr	r2, [r0, #240]
 356 0176 C4F20203 		movt	r3, 16386
 357 017a 5A61     		str	r2, [r3, #20]
 358              		.loc 1 78 0
 359 017c D0F8E020 		ldr	r2, [r0, #224]
 360 0180 1A60     		str	r2, [r3, #0]
 361              		.loc 1 79 0
 362 0182 D0F8E420 		ldr	r2, [r0, #228]
 363 0186 5A60     		str	r2, [r3, #4]
 364              		.loc 1 80 0
 365 0188 D0F8E820 		ldr	r2, [r0, #232]
 366 018c 9A60     		str	r2, [r3, #8]
 367              		.loc 1 81 0
 368 018e D0F8EC20 		ldr	r2, [r0, #236]
 369 0192 DA60     		str	r2, [r3, #12]
 370              		.loc 1 82 0
 371 0194 D0F8F420 		ldr	r2, [r0, #244]
 372 0198 1A62     		str	r2, [r3, #32]
 373              		.loc 1 83 0
 374 019a D0F8F820 		ldr	r2, [r0, #248]
 375 019e 5A62     		str	r2, [r3, #36]
 376 01a0 7047     		bx	lr
 377              	.LBE71:
 378              	.LBE73:
 379              		.cfi_endproc
 380              	.LFE118:
 381              		.size	_pal_lld_init, .-_pal_lld_init
 382 01a2 00BFAFF3 		.section	.text._pal_lld_setgroupmode,"ax",%progbits
 382      0080AFF3 
 382      0080AFF3 
 382      0080
 383              		.align	2
 384              		.p2align 4,,15
 385              		.global	_pal_lld_setgroupmode
 386              		.thumb
 387              		.thumb_func
 388              		.type	_pal_lld_setgroupmode, %function
 389              	_pal_lld_setgroupmode:
 390              	.LFB119:
 391              		.loc 1 154 0
 392              		.cfi_startproc
 393              		@ args = 0, pretend = 0, frame = 0
 394              		@ frame_needed = 0, uses_anonymous_args = 0
 395              		@ link register save eliminated.
 396              	.LVL10:
ARM GAS  /tmp/ccIQNw51.s 			page 8


 397 0000 2DE9F00F 		push	{r4, r5, r6, r7, r8, r9, sl, fp}
 398              	.LCFI0:
 399              		.cfi_def_cfa_offset 32
 400              		.cfi_offset 4, -32
 401              		.cfi_offset 5, -28
 402              		.cfi_offset 6, -24
 403              		.cfi_offset 7, -20
 404              		.cfi_offset 8, -16
 405              		.cfi_offset 9, -12
 406              		.cfi_offset 10, -8
 407              		.cfi_offset 11, -4
 408              		.loc 1 161 0
 409 0004 0023     		movs	r3, #0
 410              		.loc 1 156 0
 411 0006 02F00307 		and	r7, r2, #3
 412              	.LVL11:
 413              		.loc 1 157 0
 414 000a C2F38006 		ubfx	r6, r2, #2, #1
 415              	.LVL12:
 416              		.loc 1 158 0
 417 000e C2F3C105 		ubfx	r5, r2, #3, #2
 418              	.LVL13:
 419              		.loc 1 159 0
 420 0012 C2F34114 		ubfx	r4, r2, #5, #2
 421              	.LVL14:
 422              	.LBB74:
 423              		.loc 1 167 0
 424 0016 4FF00F09 		mov	r9, #15
 425              	.LBE74:
 426              		.loc 1 160 0
 427 001a C2F3C312 		ubfx	r2, r2, #7, #4
 428              	.LVL15:
 429              	.LBB75:
 430              		.loc 1 172 0
 431 001e 4FF0010A 		mov	sl, #1
 432 0022 04E0     		b	.L7
 433              	.LVL16:
 434              	.L12:
 435              	.LBE75:
 436              		.loc 1 182 0
 437 0024 7600     		lsls	r6, r6, #1
 438              	.LVL17:
 439              		.loc 1 183 0
 440 0026 AD00     		lsls	r5, r5, #2
 441              	.LVL18:
 442              		.loc 1 184 0
 443 0028 A400     		lsls	r4, r4, #2
 444              	.LVL19:
 445              		.loc 1 185 0
 446 002a BF00     		lsls	r7, r7, #2
 447              	.LVL20:
 448              		.loc 1 186 0
 449 002c 0133     		adds	r3, r3, #1
 450              	.LVL21:
 451              	.L7:
 452              	.LBB76:
 453              		.loc 1 166 0
ARM GAS  /tmp/ccIQNw51.s 			page 9


 454 002e 03F0070C 		and	ip, r3, #7
 455 0032 4FEA8C0C 		lsl	ip, ip, #2
 456              	.LBE76:
 457              		.loc 1 163 0
 458 0036 11F0010F 		tst	r1, #1
 459              	.LBB77:
 460              		.loc 1 166 0
 461 003a 02FA0CF8 		lsl	r8, r2, ip
 462              	.LVL22:
 463              		.loc 1 167 0
 464 003e 09FA0CFC 		lsl	ip, r9, ip
 465              	.LVL23:
 466              	.LBE77:
 467              		.loc 1 163 0
 468 0042 3CD0     		beq	.L3
 469              	.LVL24:
 470              	.LBB78:
 471              		.loc 1 168 0
 472 0044 072B     		cmp	r3, #7
 473              		.loc 1 169 0
 474 0046 95BF     		itete	ls
 475 0048 D0F820B0 		ldrls	fp, [r0, #32]
 476              		.loc 1 171 0
 477 004c D0F824B0 		ldrhi	fp, [r0, #36]
 478              		.loc 1 169 0
 479 0050 2BEA0C0C 		bicls	ip, fp, ip
 480              	.LVL25:
 481              		.loc 1 171 0
 482 0054 2BEA0C0C 		bichi	ip, fp, ip
 483              		.loc 1 169 0
 484 0058 95BF     		itete	ls
 485 005a 4CEA0808 		orrls	r8, ip, r8
 486              	.LVL26:
 487              		.loc 1 171 0
 488 005e 4CEA0808 		orrhi	r8, ip, r8
 489              		.loc 1 169 0
 490 0062 C0F82080 		strls	r8, [r0, #32]
 491              		.loc 1 171 0
 492 0066 C0F82480 		strhi	r8, [r0, #36]
 493              		.loc 1 173 0
 494 006a D0F804C0 		ldr	ip, [r0, #4]
 495              		.loc 1 172 0
 496 006e 0AFA03F8 		lsl	r8, sl, r3
 497              		.loc 1 173 0
 498 0072 2CEA080C 		bic	ip, ip, r8
 499 0076 4CEA060C 		orr	ip, ip, r6
 500 007a C0F804C0 		str	ip, [r0, #4]
 501              	.LVL27:
 502              		.loc 1 174 0
 503 007e 4FF0030B 		mov	fp, #3
 504              		.loc 1 152 0
 505 0082 4FEA430C 		lsl	ip, r3, #1
 506              		.loc 1 175 0
 507 0086 D0F80880 		ldr	r8, [r0, #8]
 508              		.loc 1 174 0
 509 008a 0BFA0CFC 		lsl	ip, fp, ip
 510              	.LVL28:
ARM GAS  /tmp/ccIQNw51.s 			page 10


 511              		.loc 1 175 0
 512 008e 6FEA0C0C 		mvn	ip, ip
 513              	.LVL29:
 514 0092 0CEA0808 		and	r8, ip, r8
 515 0096 48EA0508 		orr	r8, r8, r5
 516 009a C0F80880 		str	r8, [r0, #8]
 517              		.loc 1 176 0
 518 009e D0F80C80 		ldr	r8, [r0, #12]
 519 00a2 0CEA0808 		and	r8, ip, r8
 520 00a6 48EA0408 		orr	r8, r8, r4
 521 00aa C0F80C80 		str	r8, [r0, #12]
 522              		.loc 1 177 0
 523 00ae D0F80080 		ldr	r8, [r0, #0]
 524 00b2 0CEA080C 		and	ip, ip, r8
 525              	.LVL30:
 526 00b6 4CEA070C 		orr	ip, ip, r7
 527 00ba C0F800C0 		str	ip, [r0, #0]
 528              	.LVL31:
 529              	.L3:
 530              	.LBE78:
 531              		.loc 1 180 0
 532 00be 4908     		lsrs	r1, r1, #1
 533              	.LVL32:
 534 00c0 B0D1     		bne	.L12
 535              		.loc 1 188 0
 536 00c2 BDE8F00F 		pop	{r4, r5, r6, r7, r8, r9, sl, fp}
 537 00c6 7047     		bx	lr
 538              		.cfi_endproc
 539              	.LFE119:
 540              		.size	_pal_lld_setgroupmode, .-_pal_lld_setgroupmode
 541 00c8 AFF30080 		.text
 541      AFF30080 
 542              	.Letext0:
 543              		.file 2 "/home/mitchd/Documents/FOX-1/amsat-fox/x86_64-toolchain/arm/bin/../lib/gcc/arm-none-eabi/
 544              		.file 3 "./os/hal/platforms/STM32F4xx/stm32f4xx.h"
 545              		.file 4 "./os/hal/platforms/STM32/GPIOv2/pal_lld.h"
 546              		.file 5 "./os/ports/common/ARMCMx/CMSIS/include/core_cm4.h"
 547              		.section	.debug_info,"",%progbits
 548              	.Ldebug_info0:
 549 0000 40070000 		.4byte	0x740
 550 0004 0200     		.2byte	0x2
 551 0006 00000000 		.4byte	.Ldebug_abbrev0
 552 000a 04       		.byte	0x4
 553 000b 01       		.uleb128 0x1
 554 000c AD010000 		.4byte	.LASF81
 555 0010 01       		.byte	0x1
 556 0011 55020000 		.4byte	.LASF82
 557 0015 16020000 		.4byte	.LASF83
 558 0019 50010000 		.4byte	.Ldebug_ranges0+0x150
 559 001d 00000000 		.4byte	0
 560 0021 00000000 		.4byte	0
 561 0025 00000000 		.4byte	.Ldebug_line0
 562 0029 02       		.uleb128 0x2
 563 002a 04       		.byte	0x4
 564 002b 05       		.byte	0x5
 565 002c 696E7400 		.ascii	"int\000"
 566 0030 03       		.uleb128 0x3
ARM GAS  /tmp/ccIQNw51.s 			page 11


 567 0031 04       		.byte	0x4
 568 0032 07       		.byte	0x7
 569 0033 35030000 		.4byte	.LASF0
 570 0037 03       		.uleb128 0x3
 571 0038 01       		.byte	0x1
 572 0039 06       		.byte	0x6
 573 003a 68010000 		.4byte	.LASF1
 574 003e 03       		.uleb128 0x3
 575 003f 01       		.byte	0x1
 576 0040 08       		.byte	0x8
 577 0041 52010000 		.4byte	.LASF2
 578 0045 03       		.uleb128 0x3
 579 0046 02       		.byte	0x2
 580 0047 05       		.byte	0x5
 581 0048 60000000 		.4byte	.LASF3
 582 004c 04       		.uleb128 0x4
 583 004d A4010000 		.4byte	.LASF5
 584 0051 02       		.byte	0x2
 585 0052 36       		.byte	0x36
 586 0053 57000000 		.4byte	0x57
 587 0057 03       		.uleb128 0x3
 588 0058 02       		.byte	0x2
 589 0059 07       		.byte	0x7
 590 005a DD010000 		.4byte	.LASF4
 591 005e 04       		.uleb128 0x4
 592 005f FF010000 		.4byte	.LASF6
 593 0063 02       		.byte	0x2
 594 0064 4F       		.byte	0x4f
 595 0065 69000000 		.4byte	0x69
 596 0069 03       		.uleb128 0x3
 597 006a 04       		.byte	0x4
 598 006b 05       		.byte	0x5
 599 006c 08010000 		.4byte	.LASF7
 600 0070 04       		.uleb128 0x4
 601 0071 8B010000 		.4byte	.LASF8
 602 0075 02       		.byte	0x2
 603 0076 50       		.byte	0x50
 604 0077 7B000000 		.4byte	0x7b
 605 007b 03       		.uleb128 0x3
 606 007c 04       		.byte	0x4
 607 007d 07       		.byte	0x7
 608 007e B9010000 		.4byte	.LASF9
 609 0082 03       		.uleb128 0x3
 610 0083 08       		.byte	0x8
 611 0084 05       		.byte	0x5
 612 0085 EC000000 		.4byte	.LASF10
 613 0089 03       		.uleb128 0x3
 614 008a 08       		.byte	0x8
 615 008b 07       		.byte	0x7
 616 008c 74010000 		.4byte	.LASF11
 617 0090 05       		.uleb128 0x5
 618 0091 70000000 		.4byte	0x70
 619 0095 03       		.uleb128 0x3
 620 0096 04       		.byte	0x4
 621 0097 07       		.byte	0x7
 622 0098 73000000 		.4byte	.LASF12
 623 009c 03       		.uleb128 0x3
ARM GAS  /tmp/ccIQNw51.s 			page 12


 624 009d 01       		.byte	0x1
 625 009e 08       		.byte	0x8
 626 009f FA010000 		.4byte	.LASF13
 627 00a3 06       		.uleb128 0x6
 628 00a4 70000000 		.4byte	0x70
 629 00a8 B3000000 		.4byte	0xb3
 630 00ac 07       		.uleb128 0x7
 631 00ad 95000000 		.4byte	0x95
 632 00b1 01       		.byte	0x1
 633 00b2 00       		.byte	0
 634 00b3 05       		.uleb128 0x5
 635 00b4 5E000000 		.4byte	0x5e
 636 00b8 08       		.uleb128 0x8
 637 00b9 88       		.byte	0x88
 638 00ba 03       		.byte	0x3
 639 00bb DB02     		.2byte	0x2db
 640 00bd 85020000 		.4byte	0x285
 641 00c1 09       		.uleb128 0x9
 642 00c2 435200   		.ascii	"CR\000"
 643 00c5 03       		.byte	0x3
 644 00c6 DD02     		.2byte	0x2dd
 645 00c8 90000000 		.4byte	0x90
 646 00cc 02       		.byte	0x2
 647 00cd 23       		.byte	0x23
 648 00ce 00       		.uleb128 0
 649 00cf 0A       		.uleb128 0xa
 650 00d0 D0010000 		.4byte	.LASF14
 651 00d4 03       		.byte	0x3
 652 00d5 DE02     		.2byte	0x2de
 653 00d7 90000000 		.4byte	0x90
 654 00db 02       		.byte	0x2
 655 00dc 23       		.byte	0x23
 656 00dd 04       		.uleb128 0x4
 657 00de 0A       		.uleb128 0xa
 658 00df 42030000 		.4byte	.LASF15
 659 00e3 03       		.byte	0x3
 660 00e4 DF02     		.2byte	0x2df
 661 00e6 90000000 		.4byte	0x90
 662 00ea 02       		.byte	0x2
 663 00eb 23       		.byte	0x23
 664 00ec 08       		.uleb128 0x8
 665 00ed 09       		.uleb128 0x9
 666 00ee 43495200 		.ascii	"CIR\000"
 667 00f2 03       		.byte	0x3
 668 00f3 E002     		.2byte	0x2e0
 669 00f5 90000000 		.4byte	0x90
 670 00f9 02       		.byte	0x2
 671 00fa 23       		.byte	0x23
 672 00fb 0C       		.uleb128 0xc
 673 00fc 0A       		.uleb128 0xa
 674 00fd FB020000 		.4byte	.LASF16
 675 0101 03       		.byte	0x3
 676 0102 E102     		.2byte	0x2e1
 677 0104 90000000 		.4byte	0x90
 678 0108 02       		.byte	0x2
 679 0109 23       		.byte	0x23
 680 010a 10       		.uleb128 0x10
ARM GAS  /tmp/ccIQNw51.s 			page 13


 681 010b 0A       		.uleb128 0xa
 682 010c 9B010000 		.4byte	.LASF17
 683 0110 03       		.byte	0x3
 684 0111 E202     		.2byte	0x2e2
 685 0113 90000000 		.4byte	0x90
 686 0117 02       		.byte	0x2
 687 0118 23       		.byte	0x23
 688 0119 14       		.uleb128 0x14
 689 011a 0A       		.uleb128 0xa
 690 011b 11030000 		.4byte	.LASF18
 691 011f 03       		.byte	0x3
 692 0120 E302     		.2byte	0x2e3
 693 0122 90000000 		.4byte	0x90
 694 0126 02       		.byte	0x2
 695 0127 23       		.byte	0x23
 696 0128 18       		.uleb128 0x18
 697 0129 0A       		.uleb128 0xa
 698 012a 8B020000 		.4byte	.LASF19
 699 012e 03       		.byte	0x3
 700 012f E402     		.2byte	0x2e4
 701 0131 70000000 		.4byte	0x70
 702 0135 02       		.byte	0x2
 703 0136 23       		.byte	0x23
 704 0137 1C       		.uleb128 0x1c
 705 0138 0A       		.uleb128 0xa
 706 0139 27000000 		.4byte	.LASF20
 707 013d 03       		.byte	0x3
 708 013e E502     		.2byte	0x2e5
 709 0140 90000000 		.4byte	0x90
 710 0144 02       		.byte	0x2
 711 0145 23       		.byte	0x23
 712 0146 20       		.uleb128 0x20
 713 0147 0A       		.uleb128 0xa
 714 0148 2A010000 		.4byte	.LASF21
 715 014c 03       		.byte	0x3
 716 014d E602     		.2byte	0x2e6
 717 014f 90000000 		.4byte	0x90
 718 0153 02       		.byte	0x2
 719 0154 23       		.byte	0x23
 720 0155 24       		.uleb128 0x24
 721 0156 0A       		.uleb128 0xa
 722 0157 95020000 		.4byte	.LASF22
 723 015b 03       		.byte	0x3
 724 015c E702     		.2byte	0x2e7
 725 015e A3000000 		.4byte	0xa3
 726 0162 02       		.byte	0x2
 727 0163 23       		.byte	0x23
 728 0164 28       		.uleb128 0x28
 729 0165 0A       		.uleb128 0xa
 730 0166 D8020000 		.4byte	.LASF23
 731 016a 03       		.byte	0x3
 732 016b E802     		.2byte	0x2e8
 733 016d 90000000 		.4byte	0x90
 734 0171 02       		.byte	0x2
 735 0172 23       		.byte	0x23
 736 0173 30       		.uleb128 0x30
 737 0174 0A       		.uleb128 0xa
ARM GAS  /tmp/ccIQNw51.s 			page 14


 738 0175 30000000 		.4byte	.LASF24
 739 0179 03       		.byte	0x3
 740 017a E902     		.2byte	0x2e9
 741 017c 90000000 		.4byte	0x90
 742 0180 02       		.byte	0x2
 743 0181 23       		.byte	0x23
 744 0182 34       		.uleb128 0x34
 745 0183 0A       		.uleb128 0xa
 746 0184 DC000000 		.4byte	.LASF25
 747 0188 03       		.byte	0x3
 748 0189 EA02     		.2byte	0x2ea
 749 018b 90000000 		.4byte	0x90
 750 018f 02       		.byte	0x2
 751 0190 23       		.byte	0x23
 752 0191 38       		.uleb128 0x38
 753 0192 0A       		.uleb128 0xa
 754 0193 9F020000 		.4byte	.LASF26
 755 0197 03       		.byte	0x3
 756 0198 EB02     		.2byte	0x2eb
 757 019a 70000000 		.4byte	0x70
 758 019e 02       		.byte	0x2
 759 019f 23       		.byte	0x23
 760 01a0 3C       		.uleb128 0x3c
 761 01a1 0A       		.uleb128 0xa
 762 01a2 C0000000 		.4byte	.LASF27
 763 01a6 03       		.byte	0x3
 764 01a7 EC02     		.2byte	0x2ec
 765 01a9 90000000 		.4byte	0x90
 766 01ad 02       		.byte	0x2
 767 01ae 23       		.byte	0x23
 768 01af 40       		.uleb128 0x40
 769 01b0 0A       		.uleb128 0xa
 770 01b1 60010000 		.4byte	.LASF28
 771 01b5 03       		.byte	0x3
 772 01b6 ED02     		.2byte	0x2ed
 773 01b8 90000000 		.4byte	0x90
 774 01bc 02       		.byte	0x2
 775 01bd 23       		.byte	0x23
 776 01be 44       		.uleb128 0x44
 777 01bf 0A       		.uleb128 0xa
 778 01c0 A9020000 		.4byte	.LASF29
 779 01c4 03       		.byte	0x3
 780 01c5 EE02     		.2byte	0x2ee
 781 01c7 A3000000 		.4byte	0xa3
 782 01cb 02       		.byte	0x2
 783 01cc 23       		.byte	0x23
 784 01cd 48       		.uleb128 0x48
 785 01ce 0A       		.uleb128 0xa
 786 01cf 00000000 		.4byte	.LASF30
 787 01d3 03       		.byte	0x3
 788 01d4 EF02     		.2byte	0x2ef
 789 01d6 90000000 		.4byte	0x90
 790 01da 02       		.byte	0x2
 791 01db 23       		.byte	0x23
 792 01dc 50       		.uleb128 0x50
 793 01dd 0A       		.uleb128 0xa
 794 01de 4B020000 		.4byte	.LASF31
ARM GAS  /tmp/ccIQNw51.s 			page 15


 795 01e2 03       		.byte	0x3
 796 01e3 F002     		.2byte	0x2f0
 797 01e5 90000000 		.4byte	0x90
 798 01e9 02       		.byte	0x2
 799 01ea 23       		.byte	0x23
 800 01eb 54       		.uleb128 0x54
 801 01ec 0A       		.uleb128 0xa
 802 01ed A6000000 		.4byte	.LASF32
 803 01f1 03       		.byte	0x3
 804 01f2 F102     		.2byte	0x2f1
 805 01f4 90000000 		.4byte	0x90
 806 01f8 02       		.byte	0x2
 807 01f9 23       		.byte	0x23
 808 01fa 58       		.uleb128 0x58
 809 01fb 0A       		.uleb128 0xa
 810 01fc B3020000 		.4byte	.LASF33
 811 0200 03       		.byte	0x3
 812 0201 F202     		.2byte	0x2f2
 813 0203 70000000 		.4byte	0x70
 814 0207 02       		.byte	0x2
 815 0208 23       		.byte	0x23
 816 0209 5C       		.uleb128 0x5c
 817 020a 0A       		.uleb128 0xa
 818 020b F0010000 		.4byte	.LASF34
 819 020f 03       		.byte	0x3
 820 0210 F302     		.2byte	0x2f3
 821 0212 90000000 		.4byte	0x90
 822 0216 02       		.byte	0x2
 823 0217 23       		.byte	0x23
 824 0218 60       		.uleb128 0x60
 825 0219 0A       		.uleb128 0xa
 826 021a 4C030000 		.4byte	.LASF35
 827 021e 03       		.byte	0x3
 828 021f F402     		.2byte	0x2f4
 829 0221 90000000 		.4byte	0x90
 830 0225 02       		.byte	0x2
 831 0226 23       		.byte	0x23
 832 0227 64       		.uleb128 0x64
 833 0228 0A       		.uleb128 0xa
 834 0229 BD020000 		.4byte	.LASF36
 835 022d 03       		.byte	0x3
 836 022e F502     		.2byte	0x2f5
 837 0230 A3000000 		.4byte	0xa3
 838 0234 02       		.byte	0x2
 839 0235 23       		.byte	0x23
 840 0236 68       		.uleb128 0x68
 841 0237 0A       		.uleb128 0xa
 842 0238 7C000000 		.4byte	.LASF37
 843 023c 03       		.byte	0x3
 844 023d F602     		.2byte	0x2f6
 845 023f 90000000 		.4byte	0x90
 846 0243 02       		.byte	0x2
 847 0244 23       		.byte	0x23
 848 0245 70       		.uleb128 0x70
 849 0246 09       		.uleb128 0x9
 850 0247 43535200 		.ascii	"CSR\000"
 851 024b 03       		.byte	0x3
ARM GAS  /tmp/ccIQNw51.s 			page 16


 852 024c F702     		.2byte	0x2f7
 853 024e 90000000 		.4byte	0x90
 854 0252 02       		.byte	0x2
 855 0253 23       		.byte	0x23
 856 0254 74       		.uleb128 0x74
 857 0255 0A       		.uleb128 0xa
 858 0256 C7020000 		.4byte	.LASF38
 859 025a 03       		.byte	0x3
 860 025b F802     		.2byte	0x2f8
 861 025d A3000000 		.4byte	0xa3
 862 0261 02       		.byte	0x2
 863 0262 23       		.byte	0x23
 864 0263 78       		.uleb128 0x78
 865 0264 0A       		.uleb128 0xa
 866 0265 99000000 		.4byte	.LASF39
 867 0269 03       		.byte	0x3
 868 026a F902     		.2byte	0x2f9
 869 026c 90000000 		.4byte	0x90
 870 0270 03       		.byte	0x3
 871 0271 23       		.byte	0x23
 872 0272 8001     		.uleb128 0x80
 873 0274 0A       		.uleb128 0xa
 874 0275 88000000 		.4byte	.LASF40
 875 0279 03       		.byte	0x3
 876 027a FA02     		.2byte	0x2fa
 877 027c 90000000 		.4byte	0x90
 878 0280 03       		.byte	0x3
 879 0281 23       		.byte	0x23
 880 0282 8401     		.uleb128 0x84
 881 0284 00       		.byte	0
 882 0285 0B       		.uleb128 0xb
 883 0286 18010000 		.4byte	.LASF41
 884 028a 03       		.byte	0x3
 885 028b FB02     		.2byte	0x2fb
 886 028d B8000000 		.4byte	0xb8
 887 0291 0C       		.uleb128 0xc
 888 0292 04       		.byte	0x4
 889 0293 04       		.byte	0x4
 890 0294 9D       		.byte	0x9d
 891 0295 B6020000 		.4byte	0x2b6
 892 0299 0D       		.uleb128 0xd
 893 029a 73657400 		.ascii	"set\000"
 894 029e 04       		.byte	0x4
 895 029f 9E       		.byte	0x9e
 896 02a0 4C000000 		.4byte	0x4c
 897 02a4 02       		.byte	0x2
 898 02a5 23       		.byte	0x23
 899 02a6 00       		.uleb128 0
 900 02a7 0E       		.uleb128 0xe
 901 02a8 33010000 		.4byte	.LASF42
 902 02ac 04       		.byte	0x4
 903 02ad 9F       		.byte	0x9f
 904 02ae 4C000000 		.4byte	0x4c
 905 02b2 02       		.byte	0x2
 906 02b3 23       		.byte	0x23
 907 02b4 02       		.uleb128 0x2
 908 02b5 00       		.byte	0
ARM GAS  /tmp/ccIQNw51.s 			page 17


 909 02b6 0F       		.uleb128 0xf
 910 02b7 04       		.byte	0x4
 911 02b8 04       		.byte	0x4
 912 02b9 9B       		.byte	0x9b
 913 02ba D1020000 		.4byte	0x2d1
 914 02be 10       		.uleb128 0x10
 915 02bf 5700     		.ascii	"W\000"
 916 02c1 04       		.byte	0x4
 917 02c2 9C       		.byte	0x9c
 918 02c3 70000000 		.4byte	0x70
 919 02c7 10       		.uleb128 0x10
 920 02c8 4800     		.ascii	"H\000"
 921 02ca 04       		.byte	0x4
 922 02cb A0       		.byte	0xa0
 923 02cc 91020000 		.4byte	0x291
 924 02d0 00       		.byte	0
 925 02d1 0C       		.uleb128 0xc
 926 02d2 28       		.byte	0x28
 927 02d3 04       		.byte	0x4
 928 02d4 93       		.byte	0x93
 929 02d5 66030000 		.4byte	0x366
 930 02d9 0E       		.uleb128 0xe
 931 02da 24010000 		.4byte	.LASF43
 932 02de 04       		.byte	0x4
 933 02df 95       		.byte	0x95
 934 02e0 90000000 		.4byte	0x90
 935 02e4 02       		.byte	0x2
 936 02e5 23       		.byte	0x23
 937 02e6 00       		.uleb128 0
 938 02e7 0E       		.uleb128 0xe
 939 02e8 D5000000 		.4byte	.LASF44
 940 02ec 04       		.byte	0x4
 941 02ed 96       		.byte	0x96
 942 02ee 90000000 		.4byte	0x90
 943 02f2 02       		.byte	0x2
 944 02f3 23       		.byte	0x23
 945 02f4 04       		.uleb128 0x4
 946 02f5 0E       		.uleb128 0xe
 947 02f6 E4000000 		.4byte	.LASF45
 948 02fa 04       		.byte	0x4
 949 02fb 97       		.byte	0x97
 950 02fc 90000000 		.4byte	0x90
 951 0300 02       		.byte	0x2
 952 0301 23       		.byte	0x23
 953 0302 08       		.uleb128 0x8
 954 0303 0E       		.uleb128 0xe
 955 0304 FA000000 		.4byte	.LASF46
 956 0308 04       		.byte	0x4
 957 0309 98       		.byte	0x98
 958 030a 90000000 		.4byte	0x90
 959 030e 02       		.byte	0x2
 960 030f 23       		.byte	0x23
 961 0310 0C       		.uleb128 0xc
 962 0311 0D       		.uleb128 0xd
 963 0312 49445200 		.ascii	"IDR\000"
 964 0316 04       		.byte	0x4
 965 0317 99       		.byte	0x99
ARM GAS  /tmp/ccIQNw51.s 			page 18


 966 0318 90000000 		.4byte	0x90
 967 031c 02       		.byte	0x2
 968 031d 23       		.byte	0x23
 969 031e 10       		.uleb128 0x10
 970 031f 0D       		.uleb128 0xd
 971 0320 4F445200 		.ascii	"ODR\000"
 972 0324 04       		.byte	0x4
 973 0325 9A       		.byte	0x9a
 974 0326 90000000 		.4byte	0x90
 975 032a 02       		.byte	0x2
 976 032b 23       		.byte	0x23
 977 032c 14       		.uleb128 0x14
 978 032d 0E       		.uleb128 0xe
 979 032e 56030000 		.4byte	.LASF47
 980 0332 04       		.byte	0x4
 981 0333 A1       		.byte	0xa1
 982 0334 66030000 		.4byte	0x366
 983 0338 02       		.byte	0x2
 984 0339 23       		.byte	0x23
 985 033a 18       		.uleb128 0x18
 986 033b 0E       		.uleb128 0xe
 987 033c 47030000 		.4byte	.LASF48
 988 0340 04       		.byte	0x4
 989 0341 A2       		.byte	0xa2
 990 0342 90000000 		.4byte	0x90
 991 0346 02       		.byte	0x2
 992 0347 23       		.byte	0x23
 993 0348 1C       		.uleb128 0x1c
 994 0349 0E       		.uleb128 0xe
 995 034a D8010000 		.4byte	.LASF49
 996 034e 04       		.byte	0x4
 997 034f A3       		.byte	0xa3
 998 0350 90000000 		.4byte	0x90
 999 0354 02       		.byte	0x2
 1000 0355 23       		.byte	0x23
 1001 0356 20       		.uleb128 0x20
 1002 0357 0E       		.uleb128 0xe
 1003 0358 CB010000 		.4byte	.LASF50
 1004 035c 04       		.byte	0x4
 1005 035d A4       		.byte	0xa4
 1006 035e 90000000 		.4byte	0x90
 1007 0362 02       		.byte	0x2
 1008 0363 23       		.byte	0x23
 1009 0364 24       		.uleb128 0x24
 1010 0365 00       		.byte	0
 1011 0366 05       		.uleb128 0x5
 1012 0367 B6020000 		.4byte	0x2b6
 1013 036b 04       		.uleb128 0x4
 1014 036c 04030000 		.4byte	.LASF51
 1015 0370 04       		.byte	0x4
 1016 0371 A5       		.byte	0xa5
 1017 0372 D1020000 		.4byte	0x2d1
 1018 0376 0C       		.uleb128 0xc
 1019 0377 1C       		.byte	0x1c
 1020 0378 04       		.byte	0x4
 1021 0379 AA       		.byte	0xaa
 1022 037a E1030000 		.4byte	0x3e1
ARM GAS  /tmp/ccIQNw51.s 			page 19


 1023 037e 0E       		.uleb128 0xe
 1024 037f F5020000 		.4byte	.LASF52
 1025 0383 04       		.byte	0x4
 1026 0384 AC       		.byte	0xac
 1027 0385 70000000 		.4byte	0x70
 1028 0389 02       		.byte	0x2
 1029 038a 23       		.byte	0x23
 1030 038b 00       		.uleb128 0
 1031 038c 0E       		.uleb128 0xe
 1032 038d 94010000 		.4byte	.LASF53
 1033 0391 04       		.byte	0x4
 1034 0392 AE       		.byte	0xae
 1035 0393 70000000 		.4byte	0x70
 1036 0397 02       		.byte	0x2
 1037 0398 23       		.byte	0x23
 1038 0399 04       		.uleb128 0x4
 1039 039a 0E       		.uleb128 0xe
 1040 039b 00010000 		.4byte	.LASF54
 1041 039f 04       		.byte	0x4
 1042 03a0 B0       		.byte	0xb0
 1043 03a1 70000000 		.4byte	0x70
 1044 03a5 02       		.byte	0x2
 1045 03a6 23       		.byte	0x23
 1046 03a7 08       		.uleb128 0x8
 1047 03a8 0E       		.uleb128 0xe
 1048 03a9 E5020000 		.4byte	.LASF55
 1049 03ad 04       		.byte	0x4
 1050 03ae B2       		.byte	0xb2
 1051 03af 70000000 		.4byte	0x70
 1052 03b3 02       		.byte	0x2
 1053 03b4 23       		.byte	0x23
 1054 03b5 0C       		.uleb128 0xc
 1055 03b6 0D       		.uleb128 0xd
 1056 03b7 6F647200 		.ascii	"odr\000"
 1057 03bb 04       		.byte	0x4
 1058 03bc B4       		.byte	0xb4
 1059 03bd 70000000 		.4byte	0x70
 1060 03c1 02       		.byte	0x2
 1061 03c2 23       		.byte	0x23
 1062 03c3 10       		.uleb128 0x10
 1063 03c4 0E       		.uleb128 0xe
 1064 03c5 F0020000 		.4byte	.LASF56
 1065 03c9 04       		.byte	0x4
 1066 03ca B6       		.byte	0xb6
 1067 03cb 70000000 		.4byte	0x70
 1068 03cf 02       		.byte	0x2
 1069 03d0 23       		.byte	0x23
 1070 03d1 14       		.uleb128 0x14
 1071 03d2 0E       		.uleb128 0xe
 1072 03d3 EB020000 		.4byte	.LASF57
 1073 03d7 04       		.byte	0x4
 1074 03d8 B8       		.byte	0xb8
 1075 03d9 70000000 		.4byte	0x70
 1076 03dd 02       		.byte	0x2
 1077 03de 23       		.byte	0x23
 1078 03df 18       		.uleb128 0x18
 1079 03e0 00       		.byte	0
ARM GAS  /tmp/ccIQNw51.s 			page 20


 1080 03e1 04       		.uleb128 0x4
 1081 03e2 38000000 		.4byte	.LASF58
 1082 03e6 04       		.byte	0x4
 1083 03e7 B9       		.byte	0xb9
 1084 03e8 76030000 		.4byte	0x376
 1085 03ec 0C       		.uleb128 0xc
 1086 03ed FC       		.byte	0xfc
 1087 03ee 04       		.byte	0x4
 1088 03ef C2       		.byte	0xc2
 1089 03f0 77040000 		.4byte	0x477
 1090 03f4 0E       		.uleb128 0xe
 1091 03f5 40010000 		.4byte	.LASF59
 1092 03f9 04       		.byte	0x4
 1093 03fa C4       		.byte	0xc4
 1094 03fb E1030000 		.4byte	0x3e1
 1095 03ff 02       		.byte	0x2
 1096 0400 23       		.byte	0x23
 1097 0401 00       		.uleb128 0
 1098 0402 0E       		.uleb128 0xe
 1099 0403 9F000000 		.4byte	.LASF60
 1100 0407 04       		.byte	0x4
 1101 0408 C6       		.byte	0xc6
 1102 0409 E1030000 		.4byte	0x3e1
 1103 040d 02       		.byte	0x2
 1104 040e 23       		.byte	0x23
 1105 040f 1C       		.uleb128 0x1c
 1106 0410 0E       		.uleb128 0xe
 1107 0411 0A000000 		.4byte	.LASF61
 1108 0415 04       		.byte	0x4
 1109 0416 C8       		.byte	0xc8
 1110 0417 E1030000 		.4byte	0x3e1
 1111 041b 02       		.byte	0x2
 1112 041c 23       		.byte	0x23
 1113 041d 38       		.uleb128 0x38
 1114 041e 0E       		.uleb128 0xe
 1115 041f 11010000 		.4byte	.LASF62
 1116 0423 04       		.byte	0x4
 1117 0424 CA       		.byte	0xca
 1118 0425 E1030000 		.4byte	0x3e1
 1119 0429 02       		.byte	0x2
 1120 042a 23       		.byte	0x23
 1121 042b 54       		.uleb128 0x54
 1122 042c 0E       		.uleb128 0xe
 1123 042d 84020000 		.4byte	.LASF63
 1124 0431 04       		.byte	0x4
 1125 0432 CD       		.byte	0xcd
 1126 0433 E1030000 		.4byte	0x3e1
 1127 0437 02       		.byte	0x2
 1128 0438 23       		.byte	0x23
 1129 0439 70       		.uleb128 0x70
 1130 043a 0E       		.uleb128 0xe
 1131 043b 4B000000 		.4byte	.LASF64
 1132 043f 04       		.byte	0x4
 1133 0440 D1       		.byte	0xd1
 1134 0441 E1030000 		.4byte	0x3e1
 1135 0445 03       		.byte	0x3
 1136 0446 23       		.byte	0x23
ARM GAS  /tmp/ccIQNw51.s 			page 21


 1137 0447 8C01     		.uleb128 0x8c
 1138 0449 0E       		.uleb128 0xe
 1139 044a 39010000 		.4byte	.LASF65
 1140 044e 04       		.byte	0x4
 1141 044f D5       		.byte	0xd5
 1142 0450 E1030000 		.4byte	0x3e1
 1143 0454 03       		.byte	0x3
 1144 0455 23       		.byte	0x23
 1145 0456 A801     		.uleb128 0xa8
 1146 0458 0E       		.uleb128 0xe
 1147 0459 D1020000 		.4byte	.LASF66
 1148 045d 04       		.byte	0x4
 1149 045e D9       		.byte	0xd9
 1150 045f E1030000 		.4byte	0x3e1
 1151 0463 03       		.byte	0x3
 1152 0464 23       		.byte	0x23
 1153 0465 C401     		.uleb128 0xc4
 1154 0467 0E       		.uleb128 0xe
 1155 0468 81000000 		.4byte	.LASF67
 1156 046c 04       		.byte	0x4
 1157 046d DD       		.byte	0xdd
 1158 046e E1030000 		.4byte	0x3e1
 1159 0472 03       		.byte	0x3
 1160 0473 23       		.byte	0x23
 1161 0474 E001     		.uleb128 0xe0
 1162 0476 00       		.byte	0
 1163 0477 04       		.uleb128 0x4
 1164 0478 07020000 		.4byte	.LASF68
 1165 047c 04       		.byte	0x4
 1166 047d DF       		.byte	0xdf
 1167 047e EC030000 		.4byte	0x3ec
 1168 0482 04       		.uleb128 0x4
 1169 0483 C8000000 		.4byte	.LASF69
 1170 0487 04       		.byte	0x4
 1171 0488 EF       		.byte	0xef
 1172 0489 70000000 		.4byte	0x70
 1173 048d 04       		.uleb128 0x4
 1174 048e B7000000 		.4byte	.LASF70
 1175 0492 04       		.byte	0x4
 1176 0493 F4       		.byte	0xf4
 1177 0494 70000000 		.4byte	0x70
 1178 0498 04       		.uleb128 0x4
 1179 0499 47010000 		.4byte	.LASF71
 1180 049d 04       		.byte	0x4
 1181 049e FC       		.byte	0xfc
 1182 049f A3040000 		.4byte	0x4a3
 1183 04a3 11       		.uleb128 0x11
 1184 04a4 04       		.byte	0x4
 1185 04a5 6B030000 		.4byte	0x36b
 1186 04a9 12       		.uleb128 0x12
 1187 04aa 6A000000 		.4byte	.LASF84
 1188 04ae 01       		.byte	0x1
 1189 04af 4B       		.byte	0x4b
 1190 04b0 01       		.byte	0x1
 1191 04b1 01       		.byte	0x1
 1192 04b2 CD040000 		.4byte	0x4cd
 1193 04b6 13       		.uleb128 0x13
ARM GAS  /tmp/ccIQNw51.s 			page 22


 1194 04b7 93000000 		.4byte	.LASF72
 1195 04bb 01       		.byte	0x1
 1196 04bc 4B       		.byte	0x4b
 1197 04bd A3040000 		.4byte	0x4a3
 1198 04c1 13       		.uleb128 0x13
 1199 04c2 B0000000 		.4byte	.LASF73
 1200 04c6 01       		.byte	0x1
 1201 04c7 4B       		.byte	0x4b
 1202 04c8 CD040000 		.4byte	0x4cd
 1203 04cc 00       		.byte	0
 1204 04cd 11       		.uleb128 0x11
 1205 04ce 04       		.byte	0x4
 1206 04cf D3040000 		.4byte	0x4d3
 1207 04d3 14       		.uleb128 0x14
 1208 04d4 E1030000 		.4byte	0x3e1
 1209 04d8 15       		.uleb128 0x15
 1210 04d9 01       		.byte	0x1
 1211 04da 52000000 		.4byte	.LASF74
 1212 04de 01       		.byte	0x1
 1213 04df 66       		.byte	0x66
 1214 04e0 01       		.byte	0x1
 1215 04e1 00000000 		.4byte	.LFB118
 1216 04e5 A2010000 		.4byte	.LFE118
 1217 04e9 02       		.byte	0x2
 1218 04ea 7D       		.byte	0x7d
 1219 04eb 00       		.sleb128 0
 1220 04ec 01       		.byte	0x1
 1221 04ed 55060000 		.4byte	0x655
 1222 04f1 16       		.uleb128 0x16
 1223 04f2 B0000000 		.4byte	.LASF73
 1224 04f6 01       		.byte	0x1
 1225 04f7 66       		.byte	0x66
 1226 04f8 55060000 		.4byte	0x655
 1227 04fc 01       		.byte	0x1
 1228 04fd 50       		.byte	0x50
 1229 04fe 17       		.uleb128 0x17
 1230 04ff A9040000 		.4byte	0x4a9
 1231 0503 20000000 		.4byte	.LBB20
 1232 0507 00000000 		.4byte	.Ldebug_ranges0+0
 1233 050b 01       		.byte	0x1
 1234 050c 75       		.byte	0x75
 1235 050d 22050000 		.4byte	0x522
 1236 0511 18       		.uleb128 0x18
 1237 0512 C1040000 		.4byte	0x4c1
 1238 0516 01       		.byte	0x1
 1239 0517 50       		.byte	0x50
 1240 0518 19       		.uleb128 0x19
 1241 0519 B6040000 		.4byte	0x4b6
 1242 051d 00000240 		.4byte	0x40020000
 1243 0521 00       		.byte	0
 1244 0522 17       		.uleb128 0x17
 1245 0523 A9040000 		.4byte	0x4a9
 1246 0527 28000000 		.4byte	.LBB23
 1247 052b 18000000 		.4byte	.Ldebug_ranges0+0x18
 1248 052f 01       		.byte	0x1
 1249 0530 76       		.byte	0x76
 1250 0531 48050000 		.4byte	0x548
ARM GAS  /tmp/ccIQNw51.s 			page 23


 1251 0535 18       		.uleb128 0x18
 1252 0536 C1040000 		.4byte	0x4c1
 1253 053a 03       		.byte	0x3
 1254 053b 70       		.byte	0x70
 1255 053c 1C       		.sleb128 28
 1256 053d 9F       		.byte	0x9f
 1257 053e 19       		.uleb128 0x19
 1258 053f B6040000 		.4byte	0x4b6
 1259 0543 00040240 		.4byte	0x40020400
 1260 0547 00       		.byte	0
 1261 0548 17       		.uleb128 0x17
 1262 0549 A9040000 		.4byte	0x4a9
 1263 054d 4C000000 		.4byte	.LBB29
 1264 0551 38000000 		.4byte	.Ldebug_ranges0+0x38
 1265 0555 01       		.byte	0x1
 1266 0556 77       		.byte	0x77
 1267 0557 6E050000 		.4byte	0x56e
 1268 055b 18       		.uleb128 0x18
 1269 055c C1040000 		.4byte	0x4c1
 1270 0560 03       		.byte	0x3
 1271 0561 70       		.byte	0x70
 1272 0562 38       		.sleb128 56
 1273 0563 9F       		.byte	0x9f
 1274 0564 19       		.uleb128 0x19
 1275 0565 B6040000 		.4byte	0x4b6
 1276 0569 00080240 		.4byte	0x40020800
 1277 056d 00       		.byte	0
 1278 056e 17       		.uleb128 0x17
 1279 056f A9040000 		.4byte	0x4a9
 1280 0573 88000000 		.4byte	.LBB35
 1281 0577 58000000 		.4byte	.Ldebug_ranges0+0x58
 1282 057b 01       		.byte	0x1
 1283 057c 78       		.byte	0x78
 1284 057d 95050000 		.4byte	0x595
 1285 0581 18       		.uleb128 0x18
 1286 0582 C1040000 		.4byte	0x4c1
 1287 0586 04       		.byte	0x4
 1288 0587 70       		.byte	0x70
 1289 0588 D400     		.sleb128 84
 1290 058a 9F       		.byte	0x9f
 1291 058b 19       		.uleb128 0x19
 1292 058c B6040000 		.4byte	0x4b6
 1293 0590 000C0240 		.4byte	0x40020c00
 1294 0594 00       		.byte	0
 1295 0595 17       		.uleb128 0x17
 1296 0596 A9040000 		.4byte	0x4a9
 1297 059a 94000000 		.4byte	.LBB41
 1298 059e 78000000 		.4byte	.Ldebug_ranges0+0x78
 1299 05a2 01       		.byte	0x1
 1300 05a3 7A       		.byte	0x7a
 1301 05a4 BC050000 		.4byte	0x5bc
 1302 05a8 18       		.uleb128 0x18
 1303 05a9 C1040000 		.4byte	0x4c1
 1304 05ad 04       		.byte	0x4
 1305 05ae 70       		.byte	0x70
 1306 05af F000     		.sleb128 112
 1307 05b1 9F       		.byte	0x9f
ARM GAS  /tmp/ccIQNw51.s 			page 24


 1308 05b2 19       		.uleb128 0x19
 1309 05b3 B6040000 		.4byte	0x4b6
 1310 05b7 00100240 		.4byte	0x40021000
 1311 05bb 00       		.byte	0
 1312 05bc 17       		.uleb128 0x17
 1313 05bd A9040000 		.4byte	0x4a9
 1314 05c1 D6000000 		.4byte	.LBB47
 1315 05c5 98000000 		.4byte	.Ldebug_ranges0+0x98
 1316 05c9 01       		.byte	0x1
 1317 05ca 7D       		.byte	0x7d
 1318 05cb E3050000 		.4byte	0x5e3
 1319 05cf 18       		.uleb128 0x18
 1320 05d0 C1040000 		.4byte	0x4c1
 1321 05d4 04       		.byte	0x4
 1322 05d5 70       		.byte	0x70
 1323 05d6 8C01     		.sleb128 140
 1324 05d8 9F       		.byte	0x9f
 1325 05d9 19       		.uleb128 0x19
 1326 05da B6040000 		.4byte	0x4b6
 1327 05de 00140240 		.4byte	0x40021400
 1328 05e2 00       		.byte	0
 1329 05e3 17       		.uleb128 0x17
 1330 05e4 A9040000 		.4byte	0x4a9
 1331 05e8 E4000000 		.4byte	.LBB53
 1332 05ec B8000000 		.4byte	.Ldebug_ranges0+0xb8
 1333 05f0 01       		.byte	0x1
 1334 05f1 80       		.byte	0x80
 1335 05f2 0A060000 		.4byte	0x60a
 1336 05f6 18       		.uleb128 0x18
 1337 05f7 C1040000 		.4byte	0x4c1
 1338 05fb 04       		.byte	0x4
 1339 05fc 70       		.byte	0x70
 1340 05fd A801     		.sleb128 168
 1341 05ff 9F       		.byte	0x9f
 1342 0600 19       		.uleb128 0x19
 1343 0601 B6040000 		.4byte	0x4b6
 1344 0605 00180240 		.4byte	0x40021800
 1345 0609 00       		.byte	0
 1346 060a 17       		.uleb128 0x17
 1347 060b A9040000 		.4byte	0x4a9
 1348 060f 16010000 		.4byte	.LBB60
 1349 0613 E0000000 		.4byte	.Ldebug_ranges0+0xe0
 1350 0617 01       		.byte	0x1
 1351 0618 83       		.byte	0x83
 1352 0619 31060000 		.4byte	0x631
 1353 061d 18       		.uleb128 0x18
 1354 061e C1040000 		.4byte	0x4c1
 1355 0622 04       		.byte	0x4
 1356 0623 70       		.byte	0x70
 1357 0624 C401     		.sleb128 196
 1358 0626 9F       		.byte	0x9f
 1359 0627 19       		.uleb128 0x19
 1360 0628 B6040000 		.4byte	0x4b6
 1361 062c 001C0240 		.4byte	0x40021c00
 1362 0630 00       		.byte	0
 1363 0631 1A       		.uleb128 0x1a
 1364 0632 A9040000 		.4byte	0x4a9
ARM GAS  /tmp/ccIQNw51.s 			page 25


 1365 0636 6C010000 		.4byte	.LBB69
 1366 063a 08010000 		.4byte	.Ldebug_ranges0+0x108
 1367 063e 01       		.byte	0x1
 1368 063f 86       		.byte	0x86
 1369 0640 18       		.uleb128 0x18
 1370 0641 C1040000 		.4byte	0x4c1
 1371 0645 04       		.byte	0x4
 1372 0646 70       		.byte	0x70
 1373 0647 E001     		.sleb128 224
 1374 0649 9F       		.byte	0x9f
 1375 064a 19       		.uleb128 0x19
 1376 064b B6040000 		.4byte	0x4b6
 1377 064f 00200240 		.4byte	0x40022000
 1378 0653 00       		.byte	0
 1379 0654 00       		.byte	0
 1380 0655 11       		.uleb128 0x11
 1381 0656 04       		.byte	0x4
 1382 0657 5B060000 		.4byte	0x65b
 1383 065b 14       		.uleb128 0x14
 1384 065c 77040000 		.4byte	0x477
 1385 0660 1B       		.uleb128 0x1b
 1386 0661 01       		.byte	0x1
 1387 0662 11000000 		.4byte	.LASF75
 1388 0666 01       		.byte	0x1
 1389 0667 98       		.byte	0x98
 1390 0668 01       		.byte	0x1
 1391 0669 00000000 		.4byte	.LFB119
 1392 066d C8000000 		.4byte	.LFE119
 1393 0671 00000000 		.4byte	.LLST0
 1394 0675 01       		.byte	0x1
 1395 0676 35070000 		.4byte	0x735
 1396 067a 16       		.uleb128 0x16
 1397 067b 7F020000 		.4byte	.LASF76
 1398 067f 01       		.byte	0x1
 1399 0680 98       		.byte	0x98
 1400 0681 98040000 		.4byte	0x498
 1401 0685 01       		.byte	0x1
 1402 0686 50       		.byte	0x50
 1403 0687 1C       		.uleb128 0x1c
 1404 0688 E0020000 		.4byte	.LASF77
 1405 068c 01       		.byte	0x1
 1406 068d 99       		.byte	0x99
 1407 068e 82040000 		.4byte	0x482
 1408 0692 20000000 		.4byte	.LLST1
 1409 0696 1C       		.uleb128 0x1c
 1410 0697 11020000 		.4byte	.LASF78
 1411 069b 01       		.byte	0x1
 1412 069c 9A       		.byte	0x9a
 1413 069d 8D040000 		.4byte	0x48d
 1414 06a1 4D000000 		.4byte	.LLST2
 1415 06a5 1D       		.uleb128 0x1d
 1416 06a6 F5020000 		.4byte	.LASF52
 1417 06aa 01       		.byte	0x1
 1418 06ab 9C       		.byte	0x9c
 1419 06ac 70000000 		.4byte	0x70
 1420 06b0 01       		.byte	0x1
 1421 06b1 57       		.byte	0x57
ARM GAS  /tmp/ccIQNw51.s 			page 26


 1422 06b2 1D       		.uleb128 0x1d
 1423 06b3 94010000 		.4byte	.LASF53
 1424 06b7 01       		.byte	0x1
 1425 06b8 9D       		.byte	0x9d
 1426 06b9 70000000 		.4byte	0x70
 1427 06bd 01       		.byte	0x1
 1428 06be 56       		.byte	0x56
 1429 06bf 1D       		.uleb128 0x1d
 1430 06c0 00010000 		.4byte	.LASF54
 1431 06c4 01       		.byte	0x1
 1432 06c5 9E       		.byte	0x9e
 1433 06c6 70000000 		.4byte	0x70
 1434 06ca 01       		.byte	0x1
 1435 06cb 55       		.byte	0x55
 1436 06cc 1D       		.uleb128 0x1d
 1437 06cd E5020000 		.4byte	.LASF55
 1438 06d1 01       		.byte	0x1
 1439 06d2 9F       		.byte	0x9f
 1440 06d3 70000000 		.4byte	0x70
 1441 06d7 01       		.byte	0x1
 1442 06d8 54       		.byte	0x54
 1443 06d9 1D       		.uleb128 0x1d
 1444 06da 1A030000 		.4byte	.LASF79
 1445 06de 01       		.byte	0x1
 1446 06df A0       		.byte	0xa0
 1447 06e0 70000000 		.4byte	0x70
 1448 06e4 01       		.byte	0x1
 1449 06e5 52       		.byte	0x52
 1450 06e6 1E       		.uleb128 0x1e
 1451 06e7 62697400 		.ascii	"bit\000"
 1452 06eb 01       		.byte	0x1
 1453 06ec A1       		.byte	0xa1
 1454 06ed 70000000 		.4byte	0x70
 1455 06f1 6E000000 		.4byte	.LLST3
 1456 06f5 1F       		.uleb128 0x1f
 1457 06f6 20010000 		.4byte	.Ldebug_ranges0+0x120
 1458 06fa 20       		.uleb128 0x20
 1459 06fb 2C030000 		.4byte	.LASF80
 1460 06ff 01       		.byte	0x1
 1461 0700 A4       		.byte	0xa4
 1462 0701 70000000 		.4byte	0x70
 1463 0705 8D000000 		.4byte	.LLST4
 1464 0709 1E       		.uleb128 0x1e
 1465 070a 6D3100   		.ascii	"m1\000"
 1466 070d 01       		.byte	0x1
 1467 070e A4       		.byte	0xa4
 1468 070f 70000000 		.4byte	0x70
 1469 0713 C8000000 		.4byte	.LLST5
 1470 0717 1E       		.uleb128 0x1e
 1471 0718 6D3200   		.ascii	"m2\000"
 1472 071b 01       		.byte	0x1
 1473 071c A4       		.byte	0xa4
 1474 071d 70000000 		.4byte	0x70
 1475 0721 DF000000 		.4byte	.LLST6
 1476 0725 1E       		.uleb128 0x1e
 1477 0726 6D3400   		.ascii	"m4\000"
 1478 0729 01       		.byte	0x1
ARM GAS  /tmp/ccIQNw51.s 			page 27


 1479 072a A4       		.byte	0xa4
 1480 072b 70000000 		.4byte	0x70
 1481 072f 22010000 		.4byte	.LLST7
 1482 0733 00       		.byte	0
 1483 0734 00       		.byte	0
 1484 0735 21       		.uleb128 0x21
 1485 0736 1F030000 		.4byte	.LASF85
 1486 073a 05       		.byte	0x5
 1487 073b 1A05     		.2byte	0x51a
 1488 073d B3000000 		.4byte	0xb3
 1489 0741 01       		.byte	0x1
 1490 0742 01       		.byte	0x1
 1491 0743 00       		.byte	0
 1492              		.section	.debug_abbrev,"",%progbits
 1493              	.Ldebug_abbrev0:
 1494 0000 01       		.uleb128 0x1
 1495 0001 11       		.uleb128 0x11
 1496 0002 01       		.byte	0x1
 1497 0003 25       		.uleb128 0x25
 1498 0004 0E       		.uleb128 0xe
 1499 0005 13       		.uleb128 0x13
 1500 0006 0B       		.uleb128 0xb
 1501 0007 03       		.uleb128 0x3
 1502 0008 0E       		.uleb128 0xe
 1503 0009 1B       		.uleb128 0x1b
 1504 000a 0E       		.uleb128 0xe
 1505 000b 55       		.uleb128 0x55
 1506 000c 06       		.uleb128 0x6
 1507 000d 11       		.uleb128 0x11
 1508 000e 01       		.uleb128 0x1
 1509 000f 52       		.uleb128 0x52
 1510 0010 01       		.uleb128 0x1
 1511 0011 10       		.uleb128 0x10
 1512 0012 06       		.uleb128 0x6
 1513 0013 00       		.byte	0
 1514 0014 00       		.byte	0
 1515 0015 02       		.uleb128 0x2
 1516 0016 24       		.uleb128 0x24
 1517 0017 00       		.byte	0
 1518 0018 0B       		.uleb128 0xb
 1519 0019 0B       		.uleb128 0xb
 1520 001a 3E       		.uleb128 0x3e
 1521 001b 0B       		.uleb128 0xb
 1522 001c 03       		.uleb128 0x3
 1523 001d 08       		.uleb128 0x8
 1524 001e 00       		.byte	0
 1525 001f 00       		.byte	0
 1526 0020 03       		.uleb128 0x3
 1527 0021 24       		.uleb128 0x24
 1528 0022 00       		.byte	0
 1529 0023 0B       		.uleb128 0xb
 1530 0024 0B       		.uleb128 0xb
 1531 0025 3E       		.uleb128 0x3e
 1532 0026 0B       		.uleb128 0xb
 1533 0027 03       		.uleb128 0x3
 1534 0028 0E       		.uleb128 0xe
 1535 0029 00       		.byte	0
ARM GAS  /tmp/ccIQNw51.s 			page 28


 1536 002a 00       		.byte	0
 1537 002b 04       		.uleb128 0x4
 1538 002c 16       		.uleb128 0x16
 1539 002d 00       		.byte	0
 1540 002e 03       		.uleb128 0x3
 1541 002f 0E       		.uleb128 0xe
 1542 0030 3A       		.uleb128 0x3a
 1543 0031 0B       		.uleb128 0xb
 1544 0032 3B       		.uleb128 0x3b
 1545 0033 0B       		.uleb128 0xb
 1546 0034 49       		.uleb128 0x49
 1547 0035 13       		.uleb128 0x13
 1548 0036 00       		.byte	0
 1549 0037 00       		.byte	0
 1550 0038 05       		.uleb128 0x5
 1551 0039 35       		.uleb128 0x35
 1552 003a 00       		.byte	0
 1553 003b 49       		.uleb128 0x49
 1554 003c 13       		.uleb128 0x13
 1555 003d 00       		.byte	0
 1556 003e 00       		.byte	0
 1557 003f 06       		.uleb128 0x6
 1558 0040 01       		.uleb128 0x1
 1559 0041 01       		.byte	0x1
 1560 0042 49       		.uleb128 0x49
 1561 0043 13       		.uleb128 0x13
 1562 0044 01       		.uleb128 0x1
 1563 0045 13       		.uleb128 0x13
 1564 0046 00       		.byte	0
 1565 0047 00       		.byte	0
 1566 0048 07       		.uleb128 0x7
 1567 0049 21       		.uleb128 0x21
 1568 004a 00       		.byte	0
 1569 004b 49       		.uleb128 0x49
 1570 004c 13       		.uleb128 0x13
 1571 004d 2F       		.uleb128 0x2f
 1572 004e 0B       		.uleb128 0xb
 1573 004f 00       		.byte	0
 1574 0050 00       		.byte	0
 1575 0051 08       		.uleb128 0x8
 1576 0052 13       		.uleb128 0x13
 1577 0053 01       		.byte	0x1
 1578 0054 0B       		.uleb128 0xb
 1579 0055 0B       		.uleb128 0xb
 1580 0056 3A       		.uleb128 0x3a
 1581 0057 0B       		.uleb128 0xb
 1582 0058 3B       		.uleb128 0x3b
 1583 0059 05       		.uleb128 0x5
 1584 005a 01       		.uleb128 0x1
 1585 005b 13       		.uleb128 0x13
 1586 005c 00       		.byte	0
 1587 005d 00       		.byte	0
 1588 005e 09       		.uleb128 0x9
 1589 005f 0D       		.uleb128 0xd
 1590 0060 00       		.byte	0
 1591 0061 03       		.uleb128 0x3
 1592 0062 08       		.uleb128 0x8
ARM GAS  /tmp/ccIQNw51.s 			page 29


 1593 0063 3A       		.uleb128 0x3a
 1594 0064 0B       		.uleb128 0xb
 1595 0065 3B       		.uleb128 0x3b
 1596 0066 05       		.uleb128 0x5
 1597 0067 49       		.uleb128 0x49
 1598 0068 13       		.uleb128 0x13
 1599 0069 38       		.uleb128 0x38
 1600 006a 0A       		.uleb128 0xa
 1601 006b 00       		.byte	0
 1602 006c 00       		.byte	0
 1603 006d 0A       		.uleb128 0xa
 1604 006e 0D       		.uleb128 0xd
 1605 006f 00       		.byte	0
 1606 0070 03       		.uleb128 0x3
 1607 0071 0E       		.uleb128 0xe
 1608 0072 3A       		.uleb128 0x3a
 1609 0073 0B       		.uleb128 0xb
 1610 0074 3B       		.uleb128 0x3b
 1611 0075 05       		.uleb128 0x5
 1612 0076 49       		.uleb128 0x49
 1613 0077 13       		.uleb128 0x13
 1614 0078 38       		.uleb128 0x38
 1615 0079 0A       		.uleb128 0xa
 1616 007a 00       		.byte	0
 1617 007b 00       		.byte	0
 1618 007c 0B       		.uleb128 0xb
 1619 007d 16       		.uleb128 0x16
 1620 007e 00       		.byte	0
 1621 007f 03       		.uleb128 0x3
 1622 0080 0E       		.uleb128 0xe
 1623 0081 3A       		.uleb128 0x3a
 1624 0082 0B       		.uleb128 0xb
 1625 0083 3B       		.uleb128 0x3b
 1626 0084 05       		.uleb128 0x5
 1627 0085 49       		.uleb128 0x49
 1628 0086 13       		.uleb128 0x13
 1629 0087 00       		.byte	0
 1630 0088 00       		.byte	0
 1631 0089 0C       		.uleb128 0xc
 1632 008a 13       		.uleb128 0x13
 1633 008b 01       		.byte	0x1
 1634 008c 0B       		.uleb128 0xb
 1635 008d 0B       		.uleb128 0xb
 1636 008e 3A       		.uleb128 0x3a
 1637 008f 0B       		.uleb128 0xb
 1638 0090 3B       		.uleb128 0x3b
 1639 0091 0B       		.uleb128 0xb
 1640 0092 01       		.uleb128 0x1
 1641 0093 13       		.uleb128 0x13
 1642 0094 00       		.byte	0
 1643 0095 00       		.byte	0
 1644 0096 0D       		.uleb128 0xd
 1645 0097 0D       		.uleb128 0xd
 1646 0098 00       		.byte	0
 1647 0099 03       		.uleb128 0x3
 1648 009a 08       		.uleb128 0x8
 1649 009b 3A       		.uleb128 0x3a
ARM GAS  /tmp/ccIQNw51.s 			page 30


 1650 009c 0B       		.uleb128 0xb
 1651 009d 3B       		.uleb128 0x3b
 1652 009e 0B       		.uleb128 0xb
 1653 009f 49       		.uleb128 0x49
 1654 00a0 13       		.uleb128 0x13
 1655 00a1 38       		.uleb128 0x38
 1656 00a2 0A       		.uleb128 0xa
 1657 00a3 00       		.byte	0
 1658 00a4 00       		.byte	0
 1659 00a5 0E       		.uleb128 0xe
 1660 00a6 0D       		.uleb128 0xd
 1661 00a7 00       		.byte	0
 1662 00a8 03       		.uleb128 0x3
 1663 00a9 0E       		.uleb128 0xe
 1664 00aa 3A       		.uleb128 0x3a
 1665 00ab 0B       		.uleb128 0xb
 1666 00ac 3B       		.uleb128 0x3b
 1667 00ad 0B       		.uleb128 0xb
 1668 00ae 49       		.uleb128 0x49
 1669 00af 13       		.uleb128 0x13
 1670 00b0 38       		.uleb128 0x38
 1671 00b1 0A       		.uleb128 0xa
 1672 00b2 00       		.byte	0
 1673 00b3 00       		.byte	0
 1674 00b4 0F       		.uleb128 0xf
 1675 00b5 17       		.uleb128 0x17
 1676 00b6 01       		.byte	0x1
 1677 00b7 0B       		.uleb128 0xb
 1678 00b8 0B       		.uleb128 0xb
 1679 00b9 3A       		.uleb128 0x3a
 1680 00ba 0B       		.uleb128 0xb
 1681 00bb 3B       		.uleb128 0x3b
 1682 00bc 0B       		.uleb128 0xb
 1683 00bd 01       		.uleb128 0x1
 1684 00be 13       		.uleb128 0x13
 1685 00bf 00       		.byte	0
 1686 00c0 00       		.byte	0
 1687 00c1 10       		.uleb128 0x10
 1688 00c2 0D       		.uleb128 0xd
 1689 00c3 00       		.byte	0
 1690 00c4 03       		.uleb128 0x3
 1691 00c5 08       		.uleb128 0x8
 1692 00c6 3A       		.uleb128 0x3a
 1693 00c7 0B       		.uleb128 0xb
 1694 00c8 3B       		.uleb128 0x3b
 1695 00c9 0B       		.uleb128 0xb
 1696 00ca 49       		.uleb128 0x49
 1697 00cb 13       		.uleb128 0x13
 1698 00cc 00       		.byte	0
 1699 00cd 00       		.byte	0
 1700 00ce 11       		.uleb128 0x11
 1701 00cf 0F       		.uleb128 0xf
 1702 00d0 00       		.byte	0
 1703 00d1 0B       		.uleb128 0xb
 1704 00d2 0B       		.uleb128 0xb
 1705 00d3 49       		.uleb128 0x49
 1706 00d4 13       		.uleb128 0x13
ARM GAS  /tmp/ccIQNw51.s 			page 31


 1707 00d5 00       		.byte	0
 1708 00d6 00       		.byte	0
 1709 00d7 12       		.uleb128 0x12
 1710 00d8 2E       		.uleb128 0x2e
 1711 00d9 01       		.byte	0x1
 1712 00da 03       		.uleb128 0x3
 1713 00db 0E       		.uleb128 0xe
 1714 00dc 3A       		.uleb128 0x3a
 1715 00dd 0B       		.uleb128 0xb
 1716 00de 3B       		.uleb128 0x3b
 1717 00df 0B       		.uleb128 0xb
 1718 00e0 27       		.uleb128 0x27
 1719 00e1 0C       		.uleb128 0xc
 1720 00e2 20       		.uleb128 0x20
 1721 00e3 0B       		.uleb128 0xb
 1722 00e4 01       		.uleb128 0x1
 1723 00e5 13       		.uleb128 0x13
 1724 00e6 00       		.byte	0
 1725 00e7 00       		.byte	0
 1726 00e8 13       		.uleb128 0x13
 1727 00e9 05       		.uleb128 0x5
 1728 00ea 00       		.byte	0
 1729 00eb 03       		.uleb128 0x3
 1730 00ec 0E       		.uleb128 0xe
 1731 00ed 3A       		.uleb128 0x3a
 1732 00ee 0B       		.uleb128 0xb
 1733 00ef 3B       		.uleb128 0x3b
 1734 00f0 0B       		.uleb128 0xb
 1735 00f1 49       		.uleb128 0x49
 1736 00f2 13       		.uleb128 0x13
 1737 00f3 00       		.byte	0
 1738 00f4 00       		.byte	0
 1739 00f5 14       		.uleb128 0x14
 1740 00f6 26       		.uleb128 0x26
 1741 00f7 00       		.byte	0
 1742 00f8 49       		.uleb128 0x49
 1743 00f9 13       		.uleb128 0x13
 1744 00fa 00       		.byte	0
 1745 00fb 00       		.byte	0
 1746 00fc 15       		.uleb128 0x15
 1747 00fd 2E       		.uleb128 0x2e
 1748 00fe 01       		.byte	0x1
 1749 00ff 3F       		.uleb128 0x3f
 1750 0100 0C       		.uleb128 0xc
 1751 0101 03       		.uleb128 0x3
 1752 0102 0E       		.uleb128 0xe
 1753 0103 3A       		.uleb128 0x3a
 1754 0104 0B       		.uleb128 0xb
 1755 0105 3B       		.uleb128 0x3b
 1756 0106 0B       		.uleb128 0xb
 1757 0107 27       		.uleb128 0x27
 1758 0108 0C       		.uleb128 0xc
 1759 0109 11       		.uleb128 0x11
 1760 010a 01       		.uleb128 0x1
 1761 010b 12       		.uleb128 0x12
 1762 010c 01       		.uleb128 0x1
 1763 010d 40       		.uleb128 0x40
ARM GAS  /tmp/ccIQNw51.s 			page 32


 1764 010e 0A       		.uleb128 0xa
 1765 010f 9742     		.uleb128 0x2117
 1766 0111 0C       		.uleb128 0xc
 1767 0112 01       		.uleb128 0x1
 1768 0113 13       		.uleb128 0x13
 1769 0114 00       		.byte	0
 1770 0115 00       		.byte	0
 1771 0116 16       		.uleb128 0x16
 1772 0117 05       		.uleb128 0x5
 1773 0118 00       		.byte	0
 1774 0119 03       		.uleb128 0x3
 1775 011a 0E       		.uleb128 0xe
 1776 011b 3A       		.uleb128 0x3a
 1777 011c 0B       		.uleb128 0xb
 1778 011d 3B       		.uleb128 0x3b
 1779 011e 0B       		.uleb128 0xb
 1780 011f 49       		.uleb128 0x49
 1781 0120 13       		.uleb128 0x13
 1782 0121 02       		.uleb128 0x2
 1783 0122 0A       		.uleb128 0xa
 1784 0123 00       		.byte	0
 1785 0124 00       		.byte	0
 1786 0125 17       		.uleb128 0x17
 1787 0126 1D       		.uleb128 0x1d
 1788 0127 01       		.byte	0x1
 1789 0128 31       		.uleb128 0x31
 1790 0129 13       		.uleb128 0x13
 1791 012a 52       		.uleb128 0x52
 1792 012b 01       		.uleb128 0x1
 1793 012c 55       		.uleb128 0x55
 1794 012d 06       		.uleb128 0x6
 1795 012e 58       		.uleb128 0x58
 1796 012f 0B       		.uleb128 0xb
 1797 0130 59       		.uleb128 0x59
 1798 0131 0B       		.uleb128 0xb
 1799 0132 01       		.uleb128 0x1
 1800 0133 13       		.uleb128 0x13
 1801 0134 00       		.byte	0
 1802 0135 00       		.byte	0
 1803 0136 18       		.uleb128 0x18
 1804 0137 05       		.uleb128 0x5
 1805 0138 00       		.byte	0
 1806 0139 31       		.uleb128 0x31
 1807 013a 13       		.uleb128 0x13
 1808 013b 02       		.uleb128 0x2
 1809 013c 0A       		.uleb128 0xa
 1810 013d 00       		.byte	0
 1811 013e 00       		.byte	0
 1812 013f 19       		.uleb128 0x19
 1813 0140 05       		.uleb128 0x5
 1814 0141 00       		.byte	0
 1815 0142 31       		.uleb128 0x31
 1816 0143 13       		.uleb128 0x13
 1817 0144 1C       		.uleb128 0x1c
 1818 0145 06       		.uleb128 0x6
 1819 0146 00       		.byte	0
 1820 0147 00       		.byte	0
ARM GAS  /tmp/ccIQNw51.s 			page 33


 1821 0148 1A       		.uleb128 0x1a
 1822 0149 1D       		.uleb128 0x1d
 1823 014a 01       		.byte	0x1
 1824 014b 31       		.uleb128 0x31
 1825 014c 13       		.uleb128 0x13
 1826 014d 52       		.uleb128 0x52
 1827 014e 01       		.uleb128 0x1
 1828 014f 55       		.uleb128 0x55
 1829 0150 06       		.uleb128 0x6
 1830 0151 58       		.uleb128 0x58
 1831 0152 0B       		.uleb128 0xb
 1832 0153 59       		.uleb128 0x59
 1833 0154 0B       		.uleb128 0xb
 1834 0155 00       		.byte	0
 1835 0156 00       		.byte	0
 1836 0157 1B       		.uleb128 0x1b
 1837 0158 2E       		.uleb128 0x2e
 1838 0159 01       		.byte	0x1
 1839 015a 3F       		.uleb128 0x3f
 1840 015b 0C       		.uleb128 0xc
 1841 015c 03       		.uleb128 0x3
 1842 015d 0E       		.uleb128 0xe
 1843 015e 3A       		.uleb128 0x3a
 1844 015f 0B       		.uleb128 0xb
 1845 0160 3B       		.uleb128 0x3b
 1846 0161 0B       		.uleb128 0xb
 1847 0162 27       		.uleb128 0x27
 1848 0163 0C       		.uleb128 0xc
 1849 0164 11       		.uleb128 0x11
 1850 0165 01       		.uleb128 0x1
 1851 0166 12       		.uleb128 0x12
 1852 0167 01       		.uleb128 0x1
 1853 0168 40       		.uleb128 0x40
 1854 0169 06       		.uleb128 0x6
 1855 016a 9742     		.uleb128 0x2117
 1856 016c 0C       		.uleb128 0xc
 1857 016d 01       		.uleb128 0x1
 1858 016e 13       		.uleb128 0x13
 1859 016f 00       		.byte	0
 1860 0170 00       		.byte	0
 1861 0171 1C       		.uleb128 0x1c
 1862 0172 05       		.uleb128 0x5
 1863 0173 00       		.byte	0
 1864 0174 03       		.uleb128 0x3
 1865 0175 0E       		.uleb128 0xe
 1866 0176 3A       		.uleb128 0x3a
 1867 0177 0B       		.uleb128 0xb
 1868 0178 3B       		.uleb128 0x3b
 1869 0179 0B       		.uleb128 0xb
 1870 017a 49       		.uleb128 0x49
 1871 017b 13       		.uleb128 0x13
 1872 017c 02       		.uleb128 0x2
 1873 017d 06       		.uleb128 0x6
 1874 017e 00       		.byte	0
 1875 017f 00       		.byte	0
 1876 0180 1D       		.uleb128 0x1d
 1877 0181 34       		.uleb128 0x34
ARM GAS  /tmp/ccIQNw51.s 			page 34


 1878 0182 00       		.byte	0
 1879 0183 03       		.uleb128 0x3
 1880 0184 0E       		.uleb128 0xe
 1881 0185 3A       		.uleb128 0x3a
 1882 0186 0B       		.uleb128 0xb
 1883 0187 3B       		.uleb128 0x3b
 1884 0188 0B       		.uleb128 0xb
 1885 0189 49       		.uleb128 0x49
 1886 018a 13       		.uleb128 0x13
 1887 018b 02       		.uleb128 0x2
 1888 018c 0A       		.uleb128 0xa
 1889 018d 00       		.byte	0
 1890 018e 00       		.byte	0
 1891 018f 1E       		.uleb128 0x1e
 1892 0190 34       		.uleb128 0x34
 1893 0191 00       		.byte	0
 1894 0192 03       		.uleb128 0x3
 1895 0193 08       		.uleb128 0x8
 1896 0194 3A       		.uleb128 0x3a
 1897 0195 0B       		.uleb128 0xb
 1898 0196 3B       		.uleb128 0x3b
 1899 0197 0B       		.uleb128 0xb
 1900 0198 49       		.uleb128 0x49
 1901 0199 13       		.uleb128 0x13
 1902 019a 02       		.uleb128 0x2
 1903 019b 06       		.uleb128 0x6
 1904 019c 00       		.byte	0
 1905 019d 00       		.byte	0
 1906 019e 1F       		.uleb128 0x1f
 1907 019f 0B       		.uleb128 0xb
 1908 01a0 01       		.byte	0x1
 1909 01a1 55       		.uleb128 0x55
 1910 01a2 06       		.uleb128 0x6
 1911 01a3 00       		.byte	0
 1912 01a4 00       		.byte	0
 1913 01a5 20       		.uleb128 0x20
 1914 01a6 34       		.uleb128 0x34
 1915 01a7 00       		.byte	0
 1916 01a8 03       		.uleb128 0x3
 1917 01a9 0E       		.uleb128 0xe
 1918 01aa 3A       		.uleb128 0x3a
 1919 01ab 0B       		.uleb128 0xb
 1920 01ac 3B       		.uleb128 0x3b
 1921 01ad 0B       		.uleb128 0xb
 1922 01ae 49       		.uleb128 0x49
 1923 01af 13       		.uleb128 0x13
 1924 01b0 02       		.uleb128 0x2
 1925 01b1 06       		.uleb128 0x6
 1926 01b2 00       		.byte	0
 1927 01b3 00       		.byte	0
 1928 01b4 21       		.uleb128 0x21
 1929 01b5 34       		.uleb128 0x34
 1930 01b6 00       		.byte	0
 1931 01b7 03       		.uleb128 0x3
 1932 01b8 0E       		.uleb128 0xe
 1933 01b9 3A       		.uleb128 0x3a
 1934 01ba 0B       		.uleb128 0xb
ARM GAS  /tmp/ccIQNw51.s 			page 35


 1935 01bb 3B       		.uleb128 0x3b
 1936 01bc 05       		.uleb128 0x5
 1937 01bd 49       		.uleb128 0x49
 1938 01be 13       		.uleb128 0x13
 1939 01bf 3F       		.uleb128 0x3f
 1940 01c0 0C       		.uleb128 0xc
 1941 01c1 3C       		.uleb128 0x3c
 1942 01c2 0C       		.uleb128 0xc
 1943 01c3 00       		.byte	0
 1944 01c4 00       		.byte	0
 1945 01c5 00       		.byte	0
 1946              		.section	.debug_loc,"",%progbits
 1947              	.Ldebug_loc0:
 1948              	.LLST0:
 1949 0000 00000000 		.4byte	.LFB119
 1950 0004 04000000 		.4byte	.LCFI0
 1951 0008 0200     		.2byte	0x2
 1952 000a 7D       		.byte	0x7d
 1953 000b 00       		.sleb128 0
 1954 000c 04000000 		.4byte	.LCFI0
 1955 0010 C8000000 		.4byte	.LFE119
 1956 0014 0200     		.2byte	0x2
 1957 0016 7D       		.byte	0x7d
 1958 0017 20       		.sleb128 32
 1959 0018 00000000 		.4byte	0
 1960 001c 00000000 		.4byte	0
 1961              	.LLST1:
 1962 0020 00000000 		.4byte	.LVL10
 1963 0024 BE000000 		.4byte	.LVL31
 1964 0028 0100     		.2byte	0x1
 1965 002a 51       		.byte	0x51
 1966 002b BE000000 		.4byte	.LVL31
 1967 002f C0000000 		.4byte	.LVL32
 1968 0033 0500     		.2byte	0x5
 1969 0035 71       		.byte	0x71
 1970 0036 00       		.sleb128 0
 1971 0037 31       		.byte	0x31
 1972 0038 25       		.byte	0x25
 1973 0039 9F       		.byte	0x9f
 1974 003a C0000000 		.4byte	.LVL32
 1975 003e C8000000 		.4byte	.LFE119
 1976 0042 0100     		.2byte	0x1
 1977 0044 51       		.byte	0x51
 1978 0045 00000000 		.4byte	0
 1979 0049 00000000 		.4byte	0
 1980              	.LLST2:
 1981 004d 00000000 		.4byte	.LVL10
 1982 0051 1E000000 		.4byte	.LVL15
 1983 0055 0100     		.2byte	0x1
 1984 0057 52       		.byte	0x52
 1985 0058 1E000000 		.4byte	.LVL15
 1986 005c C8000000 		.4byte	.LFE119
 1987 0060 0400     		.2byte	0x4
 1988 0062 F3       		.byte	0xf3
 1989 0063 01       		.uleb128 0x1
 1990 0064 52       		.byte	0x52
 1991 0065 9F       		.byte	0x9f
ARM GAS  /tmp/ccIQNw51.s 			page 36


 1992 0066 00000000 		.4byte	0
 1993 006a 00000000 		.4byte	0
 1994              	.LLST3:
 1995 006e 1E000000 		.4byte	.LVL15
 1996 0072 24000000 		.4byte	.LVL16
 1997 0076 0200     		.2byte	0x2
 1998 0078 30       		.byte	0x30
 1999 0079 9F       		.byte	0x9f
 2000 007a 24000000 		.4byte	.LVL16
 2001 007e C8000000 		.4byte	.LFE119
 2002 0082 0100     		.2byte	0x1
 2003 0084 53       		.byte	0x53
 2004 0085 00000000 		.4byte	0
 2005 0089 00000000 		.4byte	0
 2006              	.LLST4:
 2007 008d 24000000 		.4byte	.LVL16
 2008 0091 2E000000 		.4byte	.LVL21
 2009 0095 0A00     		.2byte	0xa
 2010 0097 72       		.byte	0x72
 2011 0098 00       		.sleb128 0
 2012 0099 73       		.byte	0x73
 2013 009a 00       		.sleb128 0
 2014 009b 37       		.byte	0x37
 2015 009c 1A       		.byte	0x1a
 2016 009d 32       		.byte	0x32
 2017 009e 24       		.byte	0x24
 2018 009f 24       		.byte	0x24
 2019 00a0 9F       		.byte	0x9f
 2020 00a1 3E000000 		.4byte	.LVL22
 2021 00a5 5E000000 		.4byte	.LVL26
 2022 00a9 0100     		.2byte	0x1
 2023 00ab 58       		.byte	0x58
 2024 00ac 5E000000 		.4byte	.LVL26
 2025 00b0 C8000000 		.4byte	.LFE119
 2026 00b4 0A00     		.2byte	0xa
 2027 00b6 72       		.byte	0x72
 2028 00b7 00       		.sleb128 0
 2029 00b8 73       		.byte	0x73
 2030 00b9 00       		.sleb128 0
 2031 00ba 37       		.byte	0x37
 2032 00bb 1A       		.byte	0x1a
 2033 00bc 32       		.byte	0x32
 2034 00bd 24       		.byte	0x24
 2035 00be 24       		.byte	0x24
 2036 00bf 9F       		.byte	0x9f
 2037 00c0 00000000 		.4byte	0
 2038 00c4 00000000 		.4byte	0
 2039              	.LLST5:
 2040 00c8 44000000 		.4byte	.LVL24
 2041 00cc BE000000 		.4byte	.LVL31
 2042 00d0 0500     		.2byte	0x5
 2043 00d2 31       		.byte	0x31
 2044 00d3 73       		.byte	0x73
 2045 00d4 00       		.sleb128 0
 2046 00d5 24       		.byte	0x24
 2047 00d6 9F       		.byte	0x9f
 2048 00d7 00000000 		.4byte	0
ARM GAS  /tmp/ccIQNw51.s 			page 37


 2049 00db 00000000 		.4byte	0
 2050              	.LLST6:
 2051 00df 7E000000 		.4byte	.LVL27
 2052 00e3 8E000000 		.4byte	.LVL28
 2053 00e7 0700     		.2byte	0x7
 2054 00e9 33       		.byte	0x33
 2055 00ea 73       		.byte	0x73
 2056 00eb 00       		.sleb128 0
 2057 00ec 31       		.byte	0x31
 2058 00ed 24       		.byte	0x24
 2059 00ee 24       		.byte	0x24
 2060 00ef 9F       		.byte	0x9f
 2061 00f0 8E000000 		.4byte	.LVL28
 2062 00f4 92000000 		.4byte	.LVL29
 2063 00f8 0100     		.2byte	0x1
 2064 00fa 5C       		.byte	0x5c
 2065 00fb 92000000 		.4byte	.LVL29
 2066 00ff B6000000 		.4byte	.LVL30
 2067 0103 0400     		.2byte	0x4
 2068 0105 7C       		.byte	0x7c
 2069 0106 00       		.sleb128 0
 2070 0107 20       		.byte	0x20
 2071 0108 9F       		.byte	0x9f
 2072 0109 B6000000 		.4byte	.LVL30
 2073 010d BE000000 		.4byte	.LVL31
 2074 0111 0700     		.2byte	0x7
 2075 0113 33       		.byte	0x33
 2076 0114 73       		.byte	0x73
 2077 0115 00       		.sleb128 0
 2078 0116 31       		.byte	0x31
 2079 0117 24       		.byte	0x24
 2080 0118 24       		.byte	0x24
 2081 0119 9F       		.byte	0x9f
 2082 011a 00000000 		.4byte	0
 2083 011e 00000000 		.4byte	0
 2084              	.LLST7:
 2085 0122 24000000 		.4byte	.LVL16
 2086 0126 2E000000 		.4byte	.LVL21
 2087 012a 0A00     		.2byte	0xa
 2088 012c 79       		.byte	0x79
 2089 012d 00       		.sleb128 0
 2090 012e 73       		.byte	0x73
 2091 012f 00       		.sleb128 0
 2092 0130 37       		.byte	0x37
 2093 0131 1A       		.byte	0x1a
 2094 0132 32       		.byte	0x32
 2095 0133 24       		.byte	0x24
 2096 0134 24       		.byte	0x24
 2097 0135 9F       		.byte	0x9f
 2098 0136 42000000 		.4byte	.LVL23
 2099 013a 54000000 		.4byte	.LVL25
 2100 013e 0100     		.2byte	0x1
 2101 0140 5C       		.byte	0x5c
 2102 0141 54000000 		.4byte	.LVL25
 2103 0145 C8000000 		.4byte	.LFE119
 2104 0149 0A00     		.2byte	0xa
 2105 014b 79       		.byte	0x79
ARM GAS  /tmp/ccIQNw51.s 			page 38


 2106 014c 00       		.sleb128 0
 2107 014d 73       		.byte	0x73
 2108 014e 00       		.sleb128 0
 2109 014f 37       		.byte	0x37
 2110 0150 1A       		.byte	0x1a
 2111 0151 32       		.byte	0x32
 2112 0152 24       		.byte	0x24
 2113 0153 24       		.byte	0x24
 2114 0154 9F       		.byte	0x9f
 2115 0155 00000000 		.4byte	0
 2116 0159 00000000 		.4byte	0
 2117              		.section	.debug_aranges,"",%progbits
 2118 0000 24000000 		.4byte	0x24
 2119 0004 0200     		.2byte	0x2
 2120 0006 00000000 		.4byte	.Ldebug_info0
 2121 000a 04       		.byte	0x4
 2122 000b 00       		.byte	0
 2123 000c 0000     		.2byte	0
 2124 000e 0000     		.2byte	0
 2125 0010 00000000 		.4byte	.LFB118
 2126 0014 A2010000 		.4byte	.LFE118-.LFB118
 2127 0018 00000000 		.4byte	.LFB119
 2128 001c C8000000 		.4byte	.LFE119-.LFB119
 2129 0020 00000000 		.4byte	0
 2130 0024 00000000 		.4byte	0
 2131              		.section	.debug_ranges,"",%progbits
 2132              	.Ldebug_ranges0:
 2133 0000 20000000 		.4byte	.LBB20
 2134 0004 28000000 		.4byte	.LBE20
 2135 0008 2C000000 		.4byte	.LBB27
 2136 000c 46000000 		.4byte	.LBE27
 2137 0010 00000000 		.4byte	0
 2138 0014 00000000 		.4byte	0
 2139 0018 28000000 		.4byte	.LBB23
 2140 001c 2C000000 		.4byte	.LBE23
 2141 0020 46000000 		.4byte	.LBB28
 2142 0024 4C000000 		.4byte	.LBE28
 2143 0028 50000000 		.4byte	.LBB33
 2144 002c 6A000000 		.4byte	.LBE33
 2145 0030 00000000 		.4byte	0
 2146 0034 00000000 		.4byte	0
 2147 0038 4C000000 		.4byte	.LBB29
 2148 003c 50000000 		.4byte	.LBE29
 2149 0040 6A000000 		.4byte	.LBB34
 2150 0044 88000000 		.4byte	.LBE34
 2151 0048 8C000000 		.4byte	.LBB39
 2152 004c 8E000000 		.4byte	.LBE39
 2153 0050 00000000 		.4byte	0
 2154 0054 00000000 		.4byte	0
 2155 0058 88000000 		.4byte	.LBB35
 2156 005c 8C000000 		.4byte	.LBE35
 2157 0060 8E000000 		.4byte	.LBB40
 2158 0064 94000000 		.4byte	.LBE40
 2159 0068 98000000 		.4byte	.LBB45
 2160 006c B2000000 		.4byte	.LBE45
 2161 0070 00000000 		.4byte	0
 2162 0074 00000000 		.4byte	0
ARM GAS  /tmp/ccIQNw51.s 			page 39


 2163 0078 94000000 		.4byte	.LBB41
 2164 007c 98000000 		.4byte	.LBE41
 2165 0080 B2000000 		.4byte	.LBB46
 2166 0084 D6000000 		.4byte	.LBE46
 2167 0088 DA000000 		.4byte	.LBB51
 2168 008c DC000000 		.4byte	.LBE51
 2169 0090 00000000 		.4byte	0
 2170 0094 00000000 		.4byte	0
 2171 0098 D6000000 		.4byte	.LBB47
 2172 009c DA000000 		.4byte	.LBE47
 2173 00a0 DC000000 		.4byte	.LBB52
 2174 00a4 E4000000 		.4byte	.LBE52
 2175 00a8 E8000000 		.4byte	.LBB58
 2176 00ac 0E010000 		.4byte	.LBE58
 2177 00b0 00000000 		.4byte	0
 2178 00b4 00000000 		.4byte	0
 2179 00b8 E4000000 		.4byte	.LBB53
 2180 00bc E8000000 		.4byte	.LBE53
 2181 00c0 0E010000 		.4byte	.LBB59
 2182 00c4 16010000 		.4byte	.LBE59
 2183 00c8 1A010000 		.4byte	.LBB65
 2184 00cc 3E010000 		.4byte	.LBE65
 2185 00d0 42010000 		.4byte	.LBB67
 2186 00d4 44010000 		.4byte	.LBE67
 2187 00d8 00000000 		.4byte	0
 2188 00dc 00000000 		.4byte	0
 2189 00e0 16010000 		.4byte	.LBB60
 2190 00e4 1A010000 		.4byte	.LBE60
 2191 00e8 3E010000 		.4byte	.LBB66
 2192 00ec 42010000 		.4byte	.LBE66
 2193 00f0 44010000 		.4byte	.LBB68
 2194 00f4 6C010000 		.4byte	.LBE68
 2195 00f8 70010000 		.4byte	.LBB72
 2196 00fc 72010000 		.4byte	.LBE72
 2197 0100 00000000 		.4byte	0
 2198 0104 00000000 		.4byte	0
 2199 0108 6C010000 		.4byte	.LBB69
 2200 010c 70010000 		.4byte	.LBE69
 2201 0110 72010000 		.4byte	.LBB73
 2202 0114 A2010000 		.4byte	.LBE73
 2203 0118 00000000 		.4byte	0
 2204 011c 00000000 		.4byte	0
 2205 0120 16000000 		.4byte	.LBB74
 2206 0124 1A000000 		.4byte	.LBE74
 2207 0128 1E000000 		.4byte	.LBB75
 2208 012c 24000000 		.4byte	.LBE75
 2209 0130 2E000000 		.4byte	.LBB76
 2210 0134 36000000 		.4byte	.LBE76
 2211 0138 3A000000 		.4byte	.LBB77
 2212 013c 42000000 		.4byte	.LBE77
 2213 0140 44000000 		.4byte	.LBB78
 2214 0144 BE000000 		.4byte	.LBE78
 2215 0148 00000000 		.4byte	0
 2216 014c 00000000 		.4byte	0
 2217 0150 00000000 		.4byte	.LFB118
 2218 0154 A2010000 		.4byte	.LFE118
 2219 0158 00000000 		.4byte	.LFB119
ARM GAS  /tmp/ccIQNw51.s 			page 40


 2220 015c C8000000 		.4byte	.LFE119
 2221 0160 00000000 		.4byte	0
 2222 0164 00000000 		.4byte	0
 2223              		.section	.debug_line,"",%progbits
 2224              	.Ldebug_line0:
 2225 0000 FB010000 		.section	.debug_str,"MS",%progbits,1
 2225      02003F01 
 2225      00000201 
 2225      FB0E0D00 
 2225      01010101 
 2226              	.LASF30:
 2227 0000 41484231 		.ascii	"AHB1LPENR\000"
 2227      4C50454E 
 2227      5200
 2228              	.LASF61:
 2229 000a 50434461 		.ascii	"PCData\000"
 2229      746100
 2230              	.LASF75:
 2231 0011 5F70616C 		.ascii	"_pal_lld_setgroupmode\000"
 2231      5F6C6C64 
 2231      5F736574 
 2231      67726F75 
 2231      706D6F64 
 2232              	.LASF20:
 2233 0027 41504231 		.ascii	"APB1RSTR\000"
 2233      52535452 
 2233      00
 2234              	.LASF24:
 2235 0030 41484232 		.ascii	"AHB2ENR\000"
 2235      454E5200 
 2236              	.LASF58:
 2237 0038 73746D33 		.ascii	"stm32_gpio_setup_t\000"
 2237      325F6770 
 2237      696F5F73 
 2237      65747570 
 2237      5F7400
 2238              	.LASF64:
 2239 004b 50464461 		.ascii	"PFData\000"
 2239      746100
 2240              	.LASF74:
 2241 0052 5F70616C 		.ascii	"_pal_lld_init\000"
 2241      5F6C6C64 
 2241      5F696E69 
 2241      7400
 2242              	.LASF3:
 2243 0060 73686F72 		.ascii	"short int\000"
 2243      7420696E 
 2243      7400
 2244              	.LASF84:
 2245 006a 696E6974 		.ascii	"initgpio\000"
 2245      6770696F 
 2245      00
 2246              	.LASF12:
 2247 0073 73697A65 		.ascii	"sizetype\000"
 2247      74797065 
 2247      00
 2248              	.LASF37:
ARM GAS  /tmp/ccIQNw51.s 			page 41


 2249 007c 42444352 		.ascii	"BDCR\000"
 2249      00
 2250              	.LASF67:
 2251 0081 50494461 		.ascii	"PIData\000"
 2251      746100
 2252              	.LASF40:
 2253 0088 504C4C49 		.ascii	"PLLI2SCFGR\000"
 2253      32534346 
 2253      475200
 2254              	.LASF72:
 2255 0093 6770696F 		.ascii	"gpiop\000"
 2255      7000
 2256              	.LASF39:
 2257 0099 53534347 		.ascii	"SSCGR\000"
 2257      5200
 2258              	.LASF60:
 2259 009f 50424461 		.ascii	"PBData\000"
 2259      746100
 2260              	.LASF32:
 2261 00a6 41484233 		.ascii	"AHB3LPENR\000"
 2261      4C50454E 
 2261      5200
 2262              	.LASF73:
 2263 00b0 636F6E66 		.ascii	"config\000"
 2263      696700
 2264              	.LASF70:
 2265 00b7 696F6D6F 		.ascii	"iomode_t\000"
 2265      64655F74 
 2265      00
 2266              	.LASF27:
 2267 00c0 41504231 		.ascii	"APB1ENR\000"
 2267      454E5200 
 2268              	.LASF69:
 2269 00c8 696F706F 		.ascii	"ioportmask_t\000"
 2269      72746D61 
 2269      736B5F74 
 2269      00
 2270              	.LASF44:
 2271 00d5 4F545950 		.ascii	"OTYPER\000"
 2271      455200
 2272              	.LASF25:
 2273 00dc 41484233 		.ascii	"AHB3ENR\000"
 2273      454E5200 
 2274              	.LASF45:
 2275 00e4 4F535045 		.ascii	"OSPEEDR\000"
 2275      45445200 
 2276              	.LASF10:
 2277 00ec 6C6F6E67 		.ascii	"long long int\000"
 2277      206C6F6E 
 2277      6720696E 
 2277      7400
 2278              	.LASF46:
 2279 00fa 50555044 		.ascii	"PUPDR\000"
 2279      5200
 2280              	.LASF54:
 2281 0100 6F737065 		.ascii	"ospeedr\000"
 2281      65647200 
ARM GAS  /tmp/ccIQNw51.s 			page 42


 2282              	.LASF7:
 2283 0108 6C6F6E67 		.ascii	"long int\000"
 2283      20696E74 
 2283      00
 2284              	.LASF62:
 2285 0111 50444461 		.ascii	"PDData\000"
 2285      746100
 2286              	.LASF41:
 2287 0118 5243435F 		.ascii	"RCC_TypeDef\000"
 2287      54797065 
 2287      44656600 
 2288              	.LASF43:
 2289 0124 4D4F4445 		.ascii	"MODER\000"
 2289      5200
 2290              	.LASF21:
 2291 012a 41504232 		.ascii	"APB2RSTR\000"
 2291      52535452 
 2291      00
 2292              	.LASF42:
 2293 0133 636C6561 		.ascii	"clear\000"
 2293      7200
 2294              	.LASF65:
 2295 0139 50474461 		.ascii	"PGData\000"
 2295      746100
 2296              	.LASF59:
 2297 0140 50414461 		.ascii	"PAData\000"
 2297      746100
 2298              	.LASF71:
 2299 0147 696F706F 		.ascii	"ioportid_t\000"
 2299      72746964 
 2299      5F7400
 2300              	.LASF2:
 2301 0152 756E7369 		.ascii	"unsigned char\000"
 2301      676E6564 
 2301      20636861 
 2301      7200
 2302              	.LASF28:
 2303 0160 41504232 		.ascii	"APB2ENR\000"
 2303      454E5200 
 2304              	.LASF1:
 2305 0168 7369676E 		.ascii	"signed char\000"
 2305      65642063 
 2305      68617200 
 2306              	.LASF11:
 2307 0174 6C6F6E67 		.ascii	"long long unsigned int\000"
 2307      206C6F6E 
 2307      6720756E 
 2307      7369676E 
 2307      65642069 
 2308              	.LASF8:
 2309 018b 75696E74 		.ascii	"uint32_t\000"
 2309      33325F74 
 2309      00
 2310              	.LASF53:
 2311 0194 6F747970 		.ascii	"otyper\000"
 2311      657200
 2312              	.LASF17:
ARM GAS  /tmp/ccIQNw51.s 			page 43


 2313 019b 41484232 		.ascii	"AHB2RSTR\000"
 2313      52535452 
 2313      00
 2314              	.LASF5:
 2315 01a4 75696E74 		.ascii	"uint16_t\000"
 2315      31365F74 
 2315      00
 2316              	.LASF81:
 2317 01ad 474E5520 		.ascii	"GNU C 4.7.2\000"
 2317      4320342E 
 2317      372E3200 
 2318              	.LASF9:
 2319 01b9 6C6F6E67 		.ascii	"long unsigned int\000"
 2319      20756E73 
 2319      69676E65 
 2319      6420696E 
 2319      7400
 2320              	.LASF50:
 2321 01cb 41465248 		.ascii	"AFRH\000"
 2321      00
 2322              	.LASF14:
 2323 01d0 504C4C43 		.ascii	"PLLCFGR\000"
 2323      46475200 
 2324              	.LASF49:
 2325 01d8 4146524C 		.ascii	"AFRL\000"
 2325      00
 2326              	.LASF4:
 2327 01dd 73686F72 		.ascii	"short unsigned int\000"
 2327      7420756E 
 2327      7369676E 
 2327      65642069 
 2327      6E7400
 2328              	.LASF34:
 2329 01f0 41504231 		.ascii	"APB1LPENR\000"
 2329      4C50454E 
 2329      5200
 2330              	.LASF13:
 2331 01fa 63686172 		.ascii	"char\000"
 2331      00
 2332              	.LASF6:
 2333 01ff 696E7433 		.ascii	"int32_t\000"
 2333      325F7400 
 2334              	.LASF68:
 2335 0207 50414C43 		.ascii	"PALConfig\000"
 2335      6F6E6669 
 2335      6700
 2336              	.LASF78:
 2337 0211 6D6F6465 		.ascii	"mode\000"
 2337      00
 2338              	.LASF83:
 2339 0216 2F686F6D 		.ascii	"/home/mitchd/Documents/FOX-1/amsat-fox/stm32f4-deve"
 2339      652F6D69 
 2339      74636864 
 2339      2F446F63 
 2339      756D656E 
 2340 0249 6C00     		.ascii	"l\000"
 2341              	.LASF31:
ARM GAS  /tmp/ccIQNw51.s 			page 44


 2342 024b 41484232 		.ascii	"AHB2LPENR\000"
 2342      4C50454E 
 2342      5200
 2343              	.LASF82:
 2344 0255 2E2F6F73 		.ascii	"./os/hal/platforms/STM32/GPIOv2/pal_lld.c\000"
 2344      2F68616C 
 2344      2F706C61 
 2344      74666F72 
 2344      6D732F53 
 2345              	.LASF76:
 2346 027f 706F7274 		.ascii	"port\000"
 2346      00
 2347              	.LASF63:
 2348 0284 50454461 		.ascii	"PEData\000"
 2348      746100
 2349              	.LASF19:
 2350 028b 52455345 		.ascii	"RESERVED0\000"
 2350      52564544 
 2350      3000
 2351              	.LASF22:
 2352 0295 52455345 		.ascii	"RESERVED1\000"
 2352      52564544 
 2352      3100
 2353              	.LASF26:
 2354 029f 52455345 		.ascii	"RESERVED2\000"
 2354      52564544 
 2354      3200
 2355              	.LASF29:
 2356 02a9 52455345 		.ascii	"RESERVED3\000"
 2356      52564544 
 2356      3300
 2357              	.LASF33:
 2358 02b3 52455345 		.ascii	"RESERVED4\000"
 2358      52564544 
 2358      3400
 2359              	.LASF36:
 2360 02bd 52455345 		.ascii	"RESERVED5\000"
 2360      52564544 
 2360      3500
 2361              	.LASF38:
 2362 02c7 52455345 		.ascii	"RESERVED6\000"
 2362      52564544 
 2362      3600
 2363              	.LASF66:
 2364 02d1 50484461 		.ascii	"PHData\000"
 2364      746100
 2365              	.LASF23:
 2366 02d8 41484231 		.ascii	"AHB1ENR\000"
 2366      454E5200 
 2367              	.LASF77:
 2368 02e0 6D61736B 		.ascii	"mask\000"
 2368      00
 2369              	.LASF55:
 2370 02e5 70757064 		.ascii	"pupdr\000"
 2370      7200
 2371              	.LASF57:
 2372 02eb 61667268 		.ascii	"afrh\000"
ARM GAS  /tmp/ccIQNw51.s 			page 45


 2372      00
 2373              	.LASF56:
 2374 02f0 6166726C 		.ascii	"afrl\000"
 2374      00
 2375              	.LASF52:
 2376 02f5 6D6F6465 		.ascii	"moder\000"
 2376      7200
 2377              	.LASF16:
 2378 02fb 41484231 		.ascii	"AHB1RSTR\000"
 2378      52535452 
 2378      00
 2379              	.LASF51:
 2380 0304 4750494F 		.ascii	"GPIO_TypeDef\000"
 2380      5F547970 
 2380      65446566 
 2380      00
 2381              	.LASF18:
 2382 0311 41484233 		.ascii	"AHB3RSTR\000"
 2382      52535452 
 2382      00
 2383              	.LASF79:
 2384 031a 616C7472 		.ascii	"altr\000"
 2384      00
 2385              	.LASF85:
 2386 031f 49544D5F 		.ascii	"ITM_RxBuffer\000"
 2386      52784275 
 2386      66666572 
 2386      00
 2387              	.LASF80:
 2388 032c 616C7472 		.ascii	"altrmask\000"
 2388      6D61736B 
 2388      00
 2389              	.LASF0:
 2390 0335 756E7369 		.ascii	"unsigned int\000"
 2390      676E6564 
 2390      20696E74 
 2390      00
 2391              	.LASF15:
 2392 0342 43464752 		.ascii	"CFGR\000"
 2392      00
 2393              	.LASF48:
 2394 0347 4C434B52 		.ascii	"LCKR\000"
 2394      00
 2395              	.LASF35:
 2396 034c 41504232 		.ascii	"APB2LPENR\000"
 2396      4C50454E 
 2396      5200
 2397              	.LASF47:
 2398 0356 42535252 		.ascii	"BSRR\000"
 2398      00
 2399              		.ident	"GCC: (GNU) 4.7.2"
ARM GAS  /tmp/ccIQNw51.s 			page 46


DEFINED SYMBOLS
                            *ABS*:0000000000000000 pal_lld.c
     /tmp/ccIQNw51.s:19     .text._pal_lld_init:0000000000000000 $t
     /tmp/ccIQNw51.s:25     .text._pal_lld_init:0000000000000000 _pal_lld_init
     /tmp/ccIQNw51.s:383    .text._pal_lld_setgroupmode:0000000000000000 $t
     /tmp/ccIQNw51.s:389    .text._pal_lld_setgroupmode:0000000000000000 _pal_lld_setgroupmode
                     .debug_frame:0000000000000010 $d

NO UNDEFINED SYMBOLS
