ARM GAS  /tmp/ccchmrf3.s 			page 1


   1              		.syntax unified
   2              		.cpu cortex-m4
   3              		.fpu softvfp
   4              		.eabi_attribute 20, 1
   5              		.eabi_attribute 21, 1
   6              		.eabi_attribute 23, 3
   7              		.eabi_attribute 24, 1
   8              		.eabi_attribute 25, 1
   9              		.eabi_attribute 26, 1
  10              		.eabi_attribute 30, 2
  11              		.eabi_attribute 34, 1
  12              		.eabi_attribute 18, 4
  13              		.thumb
  14              		.file	"pwm.c"
  15              		.text
  16              	.Ltext0:
  17              		.cfi_sections	.debug_frame
  18              		.section	.text.pwmInit,"ax",%progbits
  19              		.align	2
  20              		.p2align 4,,15
  21              		.global	pwmInit
  22              		.thumb
  23              		.thumb_func
  24              		.type	pwmInit, %function
  25              	pwmInit:
  26              	.LFB117:
  27              		.file 1 "./os/hal/src/pwm.c"
  28              		.loc 1 68 0
  29              		.cfi_startproc
  30              		@ args = 0, pretend = 0, frame = 0
  31              		@ frame_needed = 0, uses_anonymous_args = 0
  32              		@ link register save eliminated.
  33              		.loc 1 71 0
  34              		.loc 1 70 0
  35 0000 FFF7FEBF 		b	pwm_lld_init
  36              	.LVL0:
  37              		.cfi_endproc
  38              	.LFE117:
  39              		.size	pwmInit, .-pwmInit
  40 0004 AFF30080 		.section	.text.pwmObjectInit,"ax",%progbits
  40      AFF30080 
  40      AFF30080 
  41              		.align	2
  42              		.p2align 4,,15
  43              		.global	pwmObjectInit
  44              		.thumb
  45              		.thumb_func
  46              		.type	pwmObjectInit, %function
  47              	pwmObjectInit:
  48              	.LFB118:
  49              		.loc 1 80 0
  50              		.cfi_startproc
  51              		@ args = 0, pretend = 0, frame = 0
  52              		@ frame_needed = 0, uses_anonymous_args = 0
  53              		@ link register save eliminated.
  54              	.LVL1:
  55              		.loc 1 82 0
ARM GAS  /tmp/ccchmrf3.s 			page 2


  56 0000 0123     		movs	r3, #1
  57 0002 0370     		strb	r3, [r0, #0]
  58              		.loc 1 83 0
  59 0004 0023     		movs	r3, #0
  60 0006 4360     		str	r3, [r0, #4]
  61 0008 7047     		bx	lr
  62              		.cfi_endproc
  63              	.LFE118:
  64              		.size	pwmObjectInit, .-pwmObjectInit
  65 000a 00BFAFF3 		.section	.text.pwmStart,"ax",%progbits
  65      0080
  66              		.align	2
  67              		.p2align 4,,15
  68              		.global	pwmStart
  69              		.thumb
  70              		.thumb_func
  71              		.type	pwmStart, %function
  72              	pwmStart:
  73              	.LFB119:
  74              		.loc 1 99 0
  75              		.cfi_startproc
  76              		@ args = 0, pretend = 0, frame = 0
  77              		@ frame_needed = 0, uses_anonymous_args = 0
  78              	.LVL2:
  79 0000 10B5     		push	{r4, lr}
  80              	.LCFI0:
  81              		.cfi_def_cfa_offset 8
  82              		.cfi_offset 4, -8
  83              		.cfi_offset 14, -4
  84              	.LBB2:
  85              		.loc 1 103 0
  86 0002 2023     		movs	r3, #32
  87              	.LVL3:
  88              	.LBE2:
  89              		.loc 1 99 0
  90 0004 0446     		mov	r4, r0
  91              	.LBB3:
  92              		.loc 1 103 0
  93              	@ 103 "./os/hal/src/pwm.c" 1
  94 0006 83F31188 		msr     BASEPRI, r3
  95              	@ 0 "" 2
  96              	.LVL4:
  97              		.thumb
  98              	.LBE3:
  99              		.loc 1 107 0
 100 000a 8B88     		ldrh	r3, [r1, #4]
 101              	.LVL5:
 102              		.loc 1 106 0
 103 000c 4160     		str	r1, [r0, #4]
 104              		.loc 1 107 0
 105 000e 0381     		strh	r3, [r0, #8]	@ movhi
 106              		.loc 1 108 0
 107 0010 FFF7FEFF 		bl	pwm_lld_start
 108              	.LVL6:
 109              		.loc 1 109 0
 110 0014 0223     		movs	r3, #2
 111 0016 2370     		strb	r3, [r4, #0]
ARM GAS  /tmp/ccchmrf3.s 			page 3


 112              	.LBB4:
 113              		.loc 1 110 0
 114 0018 0023     		movs	r3, #0
 115              	.LVL7:
 116              	@ 110 "./os/hal/src/pwm.c" 1
 117 001a 83F31188 		msr     BASEPRI, r3
 118              	@ 0 "" 2
 119              	.LVL8:
 120              		.thumb
 121 001e 10BD     		pop	{r4, pc}
 122              	.LBE4:
 123              		.cfi_endproc
 124              	.LFE119:
 125              		.size	pwmStart, .-pwmStart
 126              		.section	.text.pwmStop,"ax",%progbits
 127              		.align	2
 128              		.p2align 4,,15
 129              		.global	pwmStop
 130              		.thumb
 131              		.thumb_func
 132              		.type	pwmStop, %function
 133              	pwmStop:
 134              	.LFB120:
 135              		.loc 1 120 0
 136              		.cfi_startproc
 137              		@ args = 0, pretend = 0, frame = 0
 138              		@ frame_needed = 0, uses_anonymous_args = 0
 139              	.LVL9:
 140 0000 10B5     		push	{r4, lr}
 141              	.LCFI1:
 142              		.cfi_def_cfa_offset 8
 143              		.cfi_offset 4, -8
 144              		.cfi_offset 14, -4
 145              	.LBB5:
 146              		.loc 1 124 0
 147 0002 2023     		movs	r3, #32
 148              	.LVL10:
 149              	.LBE5:
 150              		.loc 1 120 0
 151 0004 0446     		mov	r4, r0
 152              	.LBB6:
 153              		.loc 1 124 0
 154              	@ 124 "./os/hal/src/pwm.c" 1
 155 0006 83F31188 		msr     BASEPRI, r3
 156              	@ 0 "" 2
 157              	.LVL11:
 158              		.thumb
 159              	.LBE6:
 160              		.loc 1 127 0
 161 000a FFF7FEFF 		bl	pwm_lld_stop
 162              	.LVL12:
 163              		.loc 1 128 0
 164 000e 0123     		movs	r3, #1
 165 0010 2370     		strb	r3, [r4, #0]
 166              	.LBB7:
 167              		.loc 1 129 0
 168 0012 0023     		movs	r3, #0
ARM GAS  /tmp/ccchmrf3.s 			page 4


 169              	.LVL13:
 170              	@ 129 "./os/hal/src/pwm.c" 1
 171 0014 83F31188 		msr     BASEPRI, r3
 172              	@ 0 "" 2
 173              	.LVL14:
 174              		.thumb
 175 0018 10BD     		pop	{r4, pc}
 176              	.LBE7:
 177              		.cfi_endproc
 178              	.LFE120:
 179              		.size	pwmStop, .-pwmStop
 180 001a 00BFAFF3 		.section	.text.pwmChangePeriod,"ax",%progbits
 180      0080
 181              		.align	2
 182              		.p2align 4,,15
 183              		.global	pwmChangePeriod
 184              		.thumb
 185              		.thumb_func
 186              		.type	pwmChangePeriod, %function
 187              	pwmChangePeriod:
 188              	.LFB121:
 189              		.loc 1 147 0
 190              		.cfi_startproc
 191              		@ args = 0, pretend = 0, frame = 0
 192              		@ frame_needed = 0, uses_anonymous_args = 0
 193              		@ link register save eliminated.
 194              	.LVL15:
 195              	.LBB8:
 196              		.loc 1 151 0
 197 0000 2023     		movs	r3, #32
 198              	.LVL16:
 199              	@ 151 "./os/hal/src/pwm.c" 1
 200 0002 83F31188 		msr     BASEPRI, r3
 201              	@ 0 "" 2
 202              	.LVL17:
 203              		.thumb
 204              	.LBE8:
 205              		.loc 1 154 0
 206 0006 0369     		ldr	r3, [r0, #16]
 207              	.LVL18:
 208 0008 0181     		strh	r1, [r0, #8]	@ movhi
 209 000a 0139     		subs	r1, r1, #1
 210              	.LVL19:
 211 000c 89B2     		uxth	r1, r1
 212 000e D962     		str	r1, [r3, #44]
 213              	.LBB9:
 214              		.loc 1 155 0
 215 0010 0023     		movs	r3, #0
 216              	.LVL20:
 217              	@ 155 "./os/hal/src/pwm.c" 1
 218 0012 83F31188 		msr     BASEPRI, r3
 219              	@ 0 "" 2
 220              	.LVL21:
 221              		.thumb
 222 0016 7047     		bx	lr
 223              	.LBE9:
 224              		.cfi_endproc
ARM GAS  /tmp/ccchmrf3.s 			page 5


 225              	.LFE121:
 226              		.size	pwmChangePeriod, .-pwmChangePeriod
 227 0018 AFF30080 		.section	.text.pwmEnableChannel,"ax",%progbits
 227      AFF30080 
 228              		.align	2
 229              		.p2align 4,,15
 230              		.global	pwmEnableChannel
 231              		.thumb
 232              		.thumb_func
 233              		.type	pwmEnableChannel, %function
 234              	pwmEnableChannel:
 235              	.LFB122:
 236              		.loc 1 174 0
 237              		.cfi_startproc
 238              		@ args = 0, pretend = 0, frame = 0
 239              		@ frame_needed = 0, uses_anonymous_args = 0
 240              	.LVL22:
 241 0000 08B5     		push	{r3, lr}
 242              	.LCFI2:
 243              		.cfi_def_cfa_offset 8
 244              		.cfi_offset 3, -8
 245              		.cfi_offset 14, -4
 246              	.LBB10:
 247              		.loc 1 179 0
 248 0002 2023     		movs	r3, #32
 249              	.LVL23:
 250              	@ 179 "./os/hal/src/pwm.c" 1
 251 0004 83F31188 		msr     BASEPRI, r3
 252              	@ 0 "" 2
 253              	.LVL24:
 254              		.thumb
 255              	.LBE10:
 256              		.loc 1 182 0
 257 0008 FFF7FEFF 		bl	pwm_lld_enable_channel
 258              	.LVL25:
 259              	.LBB11:
 260              		.loc 1 183 0
 261 000c 0023     		movs	r3, #0
 262              	.LVL26:
 263              	@ 183 "./os/hal/src/pwm.c" 1
 264 000e 83F31188 		msr     BASEPRI, r3
 265              	@ 0 "" 2
 266              	.LVL27:
 267              		.thumb
 268 0012 08BD     		pop	{r3, pc}
 269              	.LBE11:
 270              		.cfi_endproc
 271              	.LFE122:
 272              		.size	pwmEnableChannel, .-pwmEnableChannel
 273 0014 AFF30080 		.section	.text.pwmDisableChannel,"ax",%progbits
 273      AFF30080 
 273      AFF30080 
 274              		.align	2
 275              		.p2align 4,,15
 276              		.global	pwmDisableChannel
 277              		.thumb
 278              		.thumb_func
ARM GAS  /tmp/ccchmrf3.s 			page 6


 279              		.type	pwmDisableChannel, %function
 280              	pwmDisableChannel:
 281              	.LFB123:
 282              		.loc 1 200 0
 283              		.cfi_startproc
 284              		@ args = 0, pretend = 0, frame = 0
 285              		@ frame_needed = 0, uses_anonymous_args = 0
 286              	.LVL28:
 287 0000 08B5     		push	{r3, lr}
 288              	.LCFI3:
 289              		.cfi_def_cfa_offset 8
 290              		.cfi_offset 3, -8
 291              		.cfi_offset 14, -4
 292              	.LBB12:
 293              		.loc 1 205 0
 294 0002 2023     		movs	r3, #32
 295              	.LVL29:
 296              	@ 205 "./os/hal/src/pwm.c" 1
 297 0004 83F31188 		msr     BASEPRI, r3
 298              	@ 0 "" 2
 299              	.LVL30:
 300              		.thumb
 301              	.LBE12:
 302              		.loc 1 208 0
 303 0008 FFF7FEFF 		bl	pwm_lld_disable_channel
 304              	.LVL31:
 305              	.LBB13:
 306              		.loc 1 209 0
 307 000c 0023     		movs	r3, #0
 308              	.LVL32:
 309              	@ 209 "./os/hal/src/pwm.c" 1
 310 000e 83F31188 		msr     BASEPRI, r3
 311              	@ 0 "" 2
 312              	.LVL33:
 313              		.thumb
 314 0012 08BD     		pop	{r3, pc}
 315              	.LBE13:
 316              		.cfi_endproc
 317              	.LFE123:
 318              		.size	pwmDisableChannel, .-pwmDisableChannel
 319 0014 AFF30080 		.text
 319      AFF30080 
 319      AFF30080 
 320              	.Letext0:
 321              		.file 2 "/home/mitchd/Documents/FOX-1/amsat-fox/x86_64-toolchain/arm/bin/../lib/gcc/arm-none-eabi/
 322              		.file 3 "./os/hal/platforms/STM32/stm32.h"
 323              		.file 4 "./os/hal/include/pwm.h"
 324              		.file 5 "./os/hal/platforms/STM32/pwm_lld.h"
 325              		.file 6 "./os/ports/common/ARMCMx/CMSIS/include/core_cm4.h"