ARM GAS  /tmp/ccszSdBy.s 			page 1


   1              		.syntax unified
   2              		.cpu cortex-m4
   3              		.fpu softvfp
   4              		.eabi_attribute 20, 1
   5              		.eabi_attribute 21, 1
   6              		.eabi_attribute 23, 3
   7              		.eabi_attribute 24, 1
   8              		.eabi_attribute 25, 1
   9              		.eabi_attribute 26, 1
  10              		.eabi_attribute 30, 2
  11              		.eabi_attribute 34, 1
  12              		.eabi_attribute 18, 4
  13              		.thumb
  14              		.file	"pwm_lld.c"
  15              		.text
  16              	.Ltext0:
  17              		.cfi_sections	.debug_frame
  18              		.section	.text.VectorB8,"ax",%progbits
  19              		.align	2
  20              		.p2align 4,,15
  21              		.global	VectorB8
  22              		.thumb
  23              		.thumb_func
  24              		.type	VectorB8, %function
  25              	VectorB8:
  26              	.LFB118:
  27              		.file 1 "./os/hal/platforms/STM32/pwm_lld.c"
  28              		.loc 1 221 0
  29              		.cfi_startproc
  30              		@ args = 0, pretend = 0, frame = 0
  31              		@ frame_needed = 0, uses_anonymous_args = 0
  32              	.LVL0:
  33 0000 38B5     		push	{r3, r4, r5, lr}
  34              	.LCFI0:
  35              		.cfi_def_cfa_offset 16
  36              		.cfi_offset 3, -16
  37              		.cfi_offset 4, -12
  38              		.cfi_offset 5, -8
  39              		.cfi_offset 14, -4
  40              	.LBB4:
  41              	.LBB5:
  42              		.loc 1 114 0
  43 0002 1C4D     		ldr	r5, .L27
  44 0004 2B69     		ldr	r3, [r5, #16]
  45 0006 1A8A     		ldrh	r2, [r3, #16]
  46              	.LVL1:
  47              		.loc 1 115 0
  48 0008 9C89     		ldrh	r4, [r3, #12]
  49 000a A4B2     		uxth	r4, r4
  50 000c 1440     		ands	r4, r4, r2
  51              	.LVL2:
  52              		.loc 1 118 0
  53 000e 04F00202 		and	r2, r4, #2
  54              		.loc 1 116 0
  55 0012 4FF6E071 		movw	r1, #65504
  56              		.loc 1 118 0
  57 0016 92B2     		uxth	r2, r2
ARM GAS  /tmp/ccszSdBy.s 			page 2


  58              		.loc 1 116 0
  59 0018 1982     		strh	r1, [r3, #16]	@ movhi
  60              		.loc 1 118 0
  61 001a 002A     		cmp	r2, #0
  62 001c 24D1     		bne	.L23
  63              	.L2:
  64              		.loc 1 120 0
  65 001e 04F00403 		and	r3, r4, #4
  66 0022 9BB2     		uxth	r3, r3
  67 0024 DBB9     		cbnz	r3, .L24
  68              	.L3:
  69              		.loc 1 122 0
  70 0026 04F00803 		and	r3, r4, #8
  71 002a 9BB2     		uxth	r3, r3
  72 002c 93B9     		cbnz	r3, .L25
  73              	.L4:
  74              		.loc 1 124 0
  75 002e 04F01003 		and	r3, r4, #16
  76 0032 9BB2     		uxth	r3, r3
  77 0034 4BB9     		cbnz	r3, .L26
  78              	.L5:
  79              		.loc 1 126 0
  80 0036 E307     		lsls	r3, r4, #31
  81 0038 03D5     		bpl	.L6
  82              		.loc 1 127 0
  83 003a 6B68     		ldr	r3, [r5, #4]
  84 003c 0D48     		ldr	r0, .L27
  85 003e 9B68     		ldr	r3, [r3, #8]
  86 0040 9847     		blx	r3
  87              	.LVL3:
  88              	.L6:
  89              	.LBE5:
  90              	.LBE4:
  91              		.loc 1 228 0
  92 0042 BDE83840 		pop	{r3, r4, r5, lr}
  93              		.loc 1 227 0
  94 0046 FFF7FEBF 		b	_port_irq_epilogue
  95              	.LVL4:
  96              	.L26:
  97              	.LBB7:
  98              	.LBB6:
  99              		.loc 1 125 0
 100 004a 6B68     		ldr	r3, [r5, #4]
 101 004c 0948     		ldr	r0, .L27
 102 004e 9B6A     		ldr	r3, [r3, #40]
 103 0050 9847     		blx	r3
 104              	.LVL5:
 105 0052 F0E7     		b	.L5
 106              	.L25:
 107              		.loc 1 123 0
 108 0054 6B68     		ldr	r3, [r5, #4]
 109 0056 0748     		ldr	r0, .L27
 110 0058 1B6A     		ldr	r3, [r3, #32]
 111 005a 9847     		blx	r3
 112              	.LVL6:
 113 005c E7E7     		b	.L4
 114              	.L24:
ARM GAS  /tmp/ccszSdBy.s 			page 3


 115              		.loc 1 121 0
 116 005e 6B68     		ldr	r3, [r5, #4]
 117 0060 0448     		ldr	r0, .L27
 118 0062 9B69     		ldr	r3, [r3, #24]
 119 0064 9847     		blx	r3
 120              	.LVL7:
 121 0066 DEE7     		b	.L3
 122              	.L23:
 123              		.loc 1 119 0
 124 0068 6B68     		ldr	r3, [r5, #4]
 125 006a 2846     		mov	r0, r5
 126 006c 1B69     		ldr	r3, [r3, #16]
 127 006e 9847     		blx	r3
 128              	.LVL8:
 129 0070 D5E7     		b	.L2
 130              	.L28:
 131 0072 00BF     		.align	2
 132              	.L27:
 133 0074 00000000 		.word	.LANCHOR0
 134              	.LBE6:
 135              	.LBE7:
 136              		.cfi_endproc
 137              	.LFE118:
 138              		.size	VectorB8, .-VectorB8
 139 0078 AFF30080 		.section	.text.pwm_lld_init,"ax",%progbits
 139      AFF30080 
 140              		.align	2
 141              		.p2align 4,,15
 142              		.global	pwm_lld_init
 143              		.thumb
 144              		.thumb_func
 145              		.type	pwm_lld_init, %function
 146              	pwm_lld_init:
 147              	.LFB119:
 148              		.loc 1 303 0
 149              		.cfi_startproc
 150              		@ args = 0, pretend = 0, frame = 0
 151              		@ frame_needed = 0, uses_anonymous_args = 0
 152 0000 10B5     		push	{r4, lr}
 153              	.LCFI1:
 154              		.cfi_def_cfa_offset 8
 155              		.cfi_offset 4, -8
 156              		.cfi_offset 14, -4
 157              		.loc 1 325 0
 158 0002 40F20004 		movw	r4, #:lower16:.LANCHOR0
 159 0006 C0F20004 		movt	r4, #:upper16:.LANCHOR0
 160 000a 2046     		mov	r0, r4
 161 000c FFF7FEFF 		bl	pwmObjectInit
 162              	.LVL9:
 163              		.loc 1 326 0
 164 0010 4FF40063 		mov	r3, #2048
 165 0014 C4F20003 		movt	r3, 16384
 166 0018 2361     		str	r3, [r4, #16]
 167 001a 10BD     		pop	{r4, pc}
 168              		.cfi_endproc
 169              	.LFE119:
 170              		.size	pwm_lld_init, .-pwm_lld_init
ARM GAS  /tmp/ccszSdBy.s 			page 4


 171 001c AFF30080 		.section	.text.pwm_lld_start,"ax",%progbits
 172              		.align	2
 173              		.p2align 4,,15
 174              		.global	pwm_lld_start
 175              		.thumb
 176              		.thumb_func
 177              		.type	pwm_lld_start, %function
 178              	pwm_lld_start:
 179              	.LFB120:
 180              		.loc 1 351 0
 181              		.cfi_startproc
 182              		@ args = 0, pretend = 0, frame = 0
 183              		@ frame_needed = 0, uses_anonymous_args = 0
 184              	.LVL10:
 185              		.loc 1 355 0
 186 0000 0378     		ldrb	r3, [r0, #0]	@ zero_extendqisi2
 187 0002 012B     		cmp	r3, #1
 188              		.loc 1 351 0
 189 0004 70B5     		push	{r4, r5, r6, lr}
 190              	.LCFI2:
 191              		.cfi_def_cfa_offset 16
 192              		.cfi_offset 4, -16
 193              		.cfi_offset 5, -12
 194              		.cfi_offset 6, -8
 195              		.cfi_offset 14, -4
 196              		.loc 1 351 0
 197 0006 0446     		mov	r4, r0
 198              		.loc 1 355 0
 199 0008 5FD0     		beq	.L57
 200              		.loc 1 430 0
 201 000a 0369     		ldr	r3, [r0, #16]
 202 000c 0022     		movs	r2, #0
 203 000e 1A80     		strh	r2, [r3, #0]	@ movhi
 204              		.loc 1 431 0
 205 0010 9A81     		strh	r2, [r3, #12]	@ movhi
 206              		.loc 1 432 0
 207 0012 1A82     		strh	r2, [r3, #16]	@ movhi
 208              		.loc 1 433 0
 209 0014 5A63     		str	r2, [r3, #52]
 210              		.loc 1 434 0
 211 0016 9A63     		str	r2, [r3, #56]
 212              		.loc 1 435 0
 213 0018 DA63     		str	r2, [r3, #60]
 214              		.loc 1 436 0
 215 001a 1A64     		str	r2, [r3, #64]
 216              		.loc 1 437 0
 217 001c 5A62     		str	r2, [r3, #36]
 218              	.LVL11:
 219              	.L33:
 220              		.loc 1 441 0
 221 001e 6168     		ldr	r1, [r4, #4]
 222              	.LVL12:
 223 0020 E668     		ldr	r6, [r4, #12]
 224 0022 0868     		ldr	r0, [r1, #0]
 225              		.loc 1 446 0
 226 0024 2589     		ldrh	r5, [r4, #8]
 227              		.loc 1 451 0
ARM GAS  /tmp/ccszSdBy.s 			page 5


 228 0026 CA68     		ldr	r2, [r1, #12]
 229              		.loc 1 447 0
 230 0028 8C8D     		ldrh	r4, [r1, #44]
 231              	.LVL13:
 232              		.loc 1 441 0
 233 002a B6FBF0F0 		udiv	r0, r6, r0
 234 002e 0138     		subs	r0, r0, #1
 235              	.LVL14:
 236              		.loc 1 446 0
 237 0030 013D     		subs	r5, r5, #1
 238              		.loc 1 451 0
 239 0032 02F00F02 		and	r2, r2, #15
 240              		.loc 1 445 0
 241 0036 80B2     		uxth	r0, r0
 242              	.LVL15:
 243              		.loc 1 446 0
 244 0038 ADB2     		uxth	r5, r5
 245              		.loc 1 451 0
 246 003a 012A     		cmp	r2, #1
 247              		.loc 1 445 0
 248 003c 1885     		strh	r0, [r3, #40]	@ movhi
 249              		.loc 1 446 0
 250 003e DD62     		str	r5, [r3, #44]
 251              		.loc 1 447 0
 252 0040 9C80     		strh	r4, [r3, #4]	@ movhi
 253              	.LVL16:
 254              		.loc 1 451 0
 255 0042 03D0     		beq	.L34
 256              		.loc 1 450 0
 257 0044 022A     		cmp	r2, #2
 258 0046 0CBF     		ite	eq
 259 0048 0322     		moveq	r2, #3
 260 004a 0022     		movne	r2, #0
 261              	.L34:
 262              	.LVL17:
 263              		.loc 1 459 0
 264 004c 4869     		ldr	r0, [r1, #20]
 265 004e 00F00F00 		and	r0, r0, #15
 266 0052 0128     		cmp	r0, #1
 267 0054 1ED0     		beq	.L38
 268 0056 0228     		cmp	r0, #2
 269 0058 1AD0     		beq	.L58
 270              		.loc 1 467 0
 271 005a C869     		ldr	r0, [r1, #28]
 272 005c 00F00F00 		and	r0, r0, #15
 273 0060 0128     		cmp	r0, #1
 274 0062 1ED0     		beq	.L41
 275              	.LVL18:
 276              	.L61:
 277 0064 0228     		cmp	r0, #2
 278 0066 2BD0     		beq	.L59
 279              	.LVL19:
 280              		.loc 1 475 0
 281 0068 486A     		ldr	r0, [r1, #36]
 282 006a 00F00F00 		and	r0, r0, #15
 283 006e 0128     		cmp	r0, #1
 284 0070 1ED0     		beq	.L44
ARM GAS  /tmp/ccszSdBy.s 			page 6


 285              	.LVL20:
 286              	.L62:
 287 0072 0228     		cmp	r0, #2
 288 0074 1FD0     		beq	.L60
 289              	.L43:
 290              	.LVL21:
 291              		.loc 1 522 0
 292 0076 8968     		ldr	r1, [r1, #8]
 293              	.LVL22:
 294              		.loc 1 520 0
 295 0078 1A84     		strh	r2, [r3, #32]	@ movhi
 296              		.loc 1 522 0
 297 007a 0A1C     		adds	r2, r1, #0
 298              	.LVL23:
 299 007c 18BF     		it	ne
 300 007e 0122     		movne	r2, #1
 301              		.loc 1 521 0
 302 0080 0121     		movs	r1, #1
 303 0082 9982     		strh	r1, [r3, #20]	@ movhi
 304              		.loc 1 522 0
 305 0084 9A81     		strh	r2, [r3, #12]	@ movhi
 306              		.loc 1 523 0
 307 0086 0022     		movs	r2, #0
 308 0088 1A82     		strh	r2, [r3, #16]	@ movhi
 309              		.loc 1 532 0
 310 008a 8522     		movs	r2, #133
 311 008c 1A80     		strh	r2, [r3, #0]	@ movhi
 312 008e 70BD     		pop	{r4, r5, r6, pc}
 313              	.LVL24:
 314              	.L58:
 315              		.loc 1 461 0
 316 0090 42F02002 		orr	r2, r2, #32
 317              	.LVL25:
 318              	.L38:
 319              		.loc 1 467 0
 320 0094 C869     		ldr	r0, [r1, #28]
 321 0096 00F00F00 		and	r0, r0, #15
 322 009a 0128     		cmp	r0, #1
 323              		.loc 1 463 0
 324 009c 42F01002 		orr	r2, r2, #16
 325              	.LVL26:
 326              		.loc 1 467 0
 327 00a0 E0D1     		bne	.L61
 328              	.LVL27:
 329              	.L41:
 330              		.loc 1 471 0
 331 00a2 42F48072 		orr	r2, r2, #256
 332              	.LVL28:
 333              	.L63:
 334              		.loc 1 475 0
 335 00a6 486A     		ldr	r0, [r1, #36]
 336 00a8 00F00F00 		and	r0, r0, #15
 337 00ac 0128     		cmp	r0, #1
 338 00ae E0D1     		bne	.L62
 339              	.LVL29:
 340              	.L44:
 341              		.loc 1 479 0
ARM GAS  /tmp/ccszSdBy.s 			page 7


 342 00b0 42F48052 		orr	r2, r2, #4096
 343              	.LVL30:
 344 00b4 DFE7     		b	.L43
 345              	.LVL31:
 346              	.L60:
 347              		.loc 1 477 0
 348 00b6 42F40052 		orr	r2, r2, #8192
 349              	.LVL32:
 350              		.loc 1 479 0
 351 00ba 42F48052 		orr	r2, r2, #4096
 352              	.LVL33:
 353 00be DAE7     		b	.L43
 354              	.LVL34:
 355              	.L59:
 356              		.loc 1 469 0
 357 00c0 42F40072 		orr	r2, r2, #512
 358              	.LVL35:
 359              		.loc 1 471 0
 360 00c4 42F48072 		orr	r2, r2, #256
 361              	.LVL36:
 362 00c8 EDE7     		b	.L63
 363              	.LVL37:
 364              	.L57:
 365              		.loc 1 387 0
 366 00ca 104B     		ldr	r3, .L65
 367 00cc 9842     		cmp	r0, r3
 368 00ce 05D0     		beq	.L64
 369              	.LVL38:
 370              	.L32:
 371              		.loc 1 419 0
 372 00d0 2369     		ldr	r3, [r4, #16]
 373 00d2 46F66802 		movw	r2, #26728
 374 00d6 1A83     		strh	r2, [r3, #24]	@ movhi
 375              		.loc 1 423 0
 376 00d8 9A83     		strh	r2, [r3, #28]	@ movhi
 377 00da A0E7     		b	.L33
 378              	.LVL39:
 379              	.L64:
 380              		.loc 1 388 0
 381 00dc 4FF46053 		mov	r3, #14336
 382 00e0 C4F20203 		movt	r3, 16386
 383              		.loc 1 390 0
 384 00e4 1E20     		movs	r0, #30
 385              	.LVL40:
 386              		.loc 1 388 0
 387 00e6 1A6C     		ldr	r2, [r3, #64]
 388 00e8 42F00402 		orr	r2, r2, #4
 389 00ec 1A64     		str	r2, [r3, #64]
 390              		.loc 1 389 0
 391 00ee 1A6A     		ldr	r2, [r3, #32]
 392 00f0 42F00402 		orr	r2, r2, #4
 393 00f4 1A62     		str	r2, [r3, #32]
 394 00f6 0022     		movs	r2, #0
 395 00f8 1A62     		str	r2, [r3, #32]
 396              		.loc 1 390 0
 397 00fa 7021     		movs	r1, #112
 398 00fc FFF7FEFF 		bl	nvicEnableVector
ARM GAS  /tmp/ccszSdBy.s 			page 8


 399              	.LVL41:
 400              		.loc 1 392 0
 401 0100 4FF43D43 		mov	r3, #48384
 402 0104 C0F20153 		movt	r3, 1281
 403 0108 E360     		str	r3, [r4, #12]
 404 010a E1E7     		b	.L32
 405              	.L66:
 406              		.align	2
 407              	.L65:
 408 010c 00000000 		.word	.LANCHOR0
 409              		.cfi_endproc
 410              	.LFE120:
 411              		.size	pwm_lld_start, .-pwm_lld_start
 412              		.section	.text.pwm_lld_stop,"ax",%progbits
 413              		.align	2
 414              		.p2align 4,,15
 415              		.global	pwm_lld_stop
 416              		.thumb
 417              		.thumb_func
 418              		.type	pwm_lld_stop, %function
 419              	pwm_lld_stop:
 420              	.LFB121:
 421              		.loc 1 542 0
 422              		.cfi_startproc
 423              		@ args = 0, pretend = 0, frame = 0
 424              		@ frame_needed = 0, uses_anonymous_args = 0
 425              	.LVL42:
 426 0000 08B5     		push	{r3, lr}
 427              	.LCFI3:
 428              		.cfi_def_cfa_offset 8
 429              		.cfi_offset 3, -8
 430              		.cfi_offset 14, -4
 431              		.loc 1 545 0
 432 0002 0378     		ldrb	r3, [r0, #0]	@ zero_extendqisi2
 433 0004 022B     		cmp	r3, #2
 434 0006 00D0     		beq	.L71
 435              	.LVL43:
 436              	.L67:
 437 0008 08BD     		pop	{r3, pc}
 438              	.LVL44:
 439              	.L71:
 440              		.loc 1 546 0
 441 000a 0369     		ldr	r3, [r0, #16]
 442 000c 0022     		movs	r2, #0
 443 000e 1A80     		strh	r2, [r3, #0]	@ movhi
 444              		.loc 1 547 0
 445 0010 9A81     		strh	r2, [r3, #12]	@ movhi
 446              		.loc 1 548 0
 447 0012 1A82     		strh	r2, [r3, #16]	@ movhi
 448              		.loc 1 573 0
 449 0014 074B     		ldr	r3, .L72
 450 0016 9842     		cmp	r0, r3
 451 0018 F6D1     		bne	.L67
 452              		.loc 1 574 0
 453 001a 1E20     		movs	r0, #30
 454              	.LVL45:
 455 001c FFF7FEFF 		bl	nvicDisableVector
ARM GAS  /tmp/ccszSdBy.s 			page 9


 456              	.LVL46:
 457              		.loc 1 575 0
 458 0020 4FF46053 		mov	r3, #14336
 459 0024 C4F20203 		movt	r3, 16386
 460 0028 1A6C     		ldr	r2, [r3, #64]
 461 002a 22F00402 		bic	r2, r2, #4
 462 002e 1A64     		str	r2, [r3, #64]
 463 0030 EAE7     		b	.L67
 464              	.L73:
 465 0032 00BF     		.align	2
 466              	.L72:
 467 0034 00000000 		.word	.LANCHOR0
 468              		.cfi_endproc
 469              	.LFE121:
 470              		.size	pwm_lld_stop, .-pwm_lld_stop
 471 0038 AFF30080 		.section	.text.pwm_lld_enable_channel,"ax",%progbits
 471      AFF30080 
 472              		.align	2
 473              		.p2align 4,,15
 474              		.global	pwm_lld_enable_channel
 475              		.thumb
 476              		.thumb_func
 477              		.type	pwm_lld_enable_channel, %function
 478              	pwm_lld_enable_channel:
 479              	.LFB122:
 480              		.loc 1 608 0
 481              		.cfi_startproc
 482              		@ args = 0, pretend = 0, frame = 0
 483              		@ frame_needed = 0, uses_anonymous_args = 0
 484              		@ link register save eliminated.
 485              	.LVL47:
 486 0000 10B4     		push	{r4}
 487              	.LCFI4:
 488              		.cfi_def_cfa_offset 4
 489              		.cfi_offset 4, -4
 490              		.loc 1 613 0
 491 0002 4468     		ldr	r4, [r0, #4]
 492              		.loc 1 610 0
 493 0004 0369     		ldr	r3, [r0, #16]
 494              		.loc 1 613 0
 495 0006 04EBC100 		add	r0, r4, r1, lsl #3
 496              	.LVL48:
 497              		.loc 1 610 0
 498 000a 01F10C04 		add	r4, r1, #12
 499 000e 03EB8404 		add	r4, r3, r4, lsl #2
 500              		.loc 1 613 0
 501 0012 0069     		ldr	r0, [r0, #16]
 502              		.loc 1 610 0
 503 0014 6260     		str	r2, [r4, #4]
 504              		.loc 1 613 0
 505 0016 60B1     		cbz	r0, .L74
 506              	.LBB8:
 507              		.loc 1 614 0
 508 0018 9A89     		ldrh	r2, [r3, #12]
 509              	.LVL49:
 510              		.loc 1 617 0
 511 001a 0220     		movs	r0, #2
ARM GAS  /tmp/ccszSdBy.s 			page 10


 512              		.loc 1 614 0
 513 001c 92B2     		uxth	r2, r2
 514              	.LVL50:
 515              		.loc 1 617 0
 516 001e 00FA01F1 		lsl	r1, r0, r1
 517              	.LVL51:
 518 0022 1142     		tst	r1, r2
 519 0024 05D1     		bne	.L74
 520              		.loc 1 618 0
 521 0026 89B2     		uxth	r1, r1
 522              		.loc 1 619 0
 523 0028 C843     		mvns	r0, r1
 524 002a 80B2     		uxth	r0, r0
 525              		.loc 1 618 0
 526 002c 1143     		orrs	r1, r1, r2
 527 002e 9981     		strh	r1, [r3, #12]	@ movhi
 528              		.loc 1 619 0
 529 0030 1882     		strh	r0, [r3, #16]	@ movhi
 530              	.LVL52:
 531              	.L74:
 532              	.LBE8:
 533              		.loc 1 622 0
 534 0032 10BC     		pop	{r4}
 535 0034 7047     		bx	lr
 536              		.cfi_endproc
 537              	.LFE122:
 538              		.size	pwm_lld_enable_channel, .-pwm_lld_enable_channel
 539 0036 00BFAFF3 		.section	.text.pwm_lld_disable_channel,"ax",%progbits
 539      0080AFF3 
 539      0080
 540              		.align	2
 541              		.p2align 4,,15
 542              		.global	pwm_lld_disable_channel
 543              		.thumb
 544              		.thumb_func
 545              		.type	pwm_lld_disable_channel, %function
 546              	pwm_lld_disable_channel:
 547              	.LFB123:
 548              		.loc 1 636 0
 549              		.cfi_startproc
 550              		@ args = 0, pretend = 0, frame = 0
 551              		@ frame_needed = 0, uses_anonymous_args = 0
 552              		@ link register save eliminated.
 553              	.LVL53:
 554              		.loc 1 638 0
 555 0000 0369     		ldr	r3, [r0, #16]
 556 0002 01F10C02 		add	r2, r1, #12
 557 0006 03EB8202 		add	r2, r3, r2, lsl #2
 558 000a 0020     		movs	r0, #0
 559              	.LVL54:
 560 000c 5060     		str	r0, [r2, #4]
 561              		.loc 1 639 0
 562 000e 9A89     		ldrh	r2, [r3, #12]
 563 0010 0220     		movs	r0, #2
 564 0012 92B2     		uxth	r2, r2
 565 0014 00FA01F1 		lsl	r1, r0, r1
 566              	.LVL55:
ARM GAS  /tmp/ccszSdBy.s 			page 11


 567 0018 22EA0101 		bic	r1, r2, r1
 568 001c 9981     		strh	r1, [r3, #12]	@ movhi
 569 001e 7047     		bx	lr
 570              		.cfi_endproc
 571              	.LFE123:
 572              		.size	pwm_lld_disable_channel, .-pwm_lld_disable_channel
 573              		.global	PWMD4
 574              		.section	.bss.PWMD4,"aw",%nobits
 575              		.align	2
 576              		.set	.LANCHOR0,. + 0
 577              		.type	PWMD4, %object
 578              		.size	PWMD4, 20
 579              	PWMD4:
 580 0000 00000000 		.space	20
 580      00000000 
 580      00000000 
 580      00000000 
 580      00000000 
 581              		.text
 582              	.Letext0:
 583              		.file 2 "/home/mitchd/Documents/FOX-1/amsat-fox/x86_64-toolchain/arm/bin/../lib/gcc/arm-none-eabi/
 584              		.file 3 "./os/hal/platforms/STM32F4xx/stm32f4xx.h"
 585              		.file 4 "./os/hal/platforms/STM32/stm32.h"
 586              		.file 5 "./os/hal/include/pwm.h"
 587              		.file 6 "./os/hal/platforms/STM32/pwm_lld.h"
 588              		.file 7 "./os/ports/common/ARMCMx/CMSIS/include/core_cm4.h"
 589              		.file 8 "./os/ports/common/ARMCMx/nvic.h"
 590              		.file 9 "./os/ports/GCC/ARMCMx/chcore_v7m.h"
 591              		.section	.debug_info,"",%progbits
 592              	.Ldebug_info0:
 593 0000 E70A0000 		.4byte	0xae7
 594 0004 0200     		.2byte	0x2
 595 0006 00000000 		.4byte	.Ldebug_abbrev0
 596 000a 04       		.byte	0x4
 597 000b 01       		.uleb128 0x1
 598 000c 0D050000 		.4byte	.LASF190
 599 0010 01       		.byte	0x1
 600 0011 49000000 		.4byte	.LASF191
 601 0015 84070000 		.4byte	.LASF192
 602 0019 30000000 		.4byte	.Ldebug_ranges0+0x30
 603 001d 00000000 		.4byte	0
 604 0021 00000000 		.4byte	0
 605 0025 00000000 		.4byte	.Ldebug_line0
 606 0029 02       		.uleb128 0x2
 607 002a 04       		.byte	0x4
 608 002b 07       		.byte	0x7
 609 002c 09030000 		.4byte	.LASF0
 610 0030 03       		.uleb128 0x3
 611 0031 04       		.byte	0x4
 612 0032 05       		.byte	0x5
 613 0033 696E7400 		.ascii	"int\000"
 614 0037 02       		.uleb128 0x2
 615 0038 01       		.byte	0x1
 616 0039 06       		.byte	0x6
 617 003a 9C010000 		.4byte	.LASF1
 618 003e 04       		.uleb128 0x4
 619 003f 46080000 		.4byte	.LASF4
ARM GAS  /tmp/ccszSdBy.s 			page 12


 620 0043 02       		.byte	0x2
 621 0044 2A       		.byte	0x2a
 622 0045 49000000 		.4byte	0x49
 623 0049 02       		.uleb128 0x2
 624 004a 01       		.byte	0x1
 625 004b 08       		.byte	0x8
 626 004c B0050000 		.4byte	.LASF2
 627 0050 02       		.uleb128 0x2
 628 0051 02       		.byte	0x2
 629 0052 05       		.byte	0x5
 630 0053 F7050000 		.4byte	.LASF3
 631 0057 04       		.uleb128 0x4
 632 0058 4E020000 		.4byte	.LASF5
 633 005c 02       		.byte	0x2
 634 005d 36       		.byte	0x36
 635 005e 62000000 		.4byte	0x62
 636 0062 02       		.uleb128 0x2
 637 0063 02       		.byte	0x2
 638 0064 07       		.byte	0x7
 639 0065 2E060000 		.4byte	.LASF6
 640 0069 04       		.uleb128 0x4
 641 006a A8050000 		.4byte	.LASF7
 642 006e 02       		.byte	0x2
 643 006f 4F       		.byte	0x4f
 644 0070 74000000 		.4byte	0x74
 645 0074 02       		.uleb128 0x2
 646 0075 04       		.byte	0x4
 647 0076 05       		.byte	0x5
 648 0077 F3010000 		.4byte	.LASF8
 649 007b 04       		.uleb128 0x4
 650 007c 98060000 		.4byte	.LASF9
 651 0080 02       		.byte	0x2
 652 0081 50       		.byte	0x50
 653 0082 86000000 		.4byte	0x86
 654 0086 02       		.uleb128 0x2
 655 0087 04       		.byte	0x4
 656 0088 07       		.byte	0x7
 657 0089 5D030000 		.4byte	.LASF10
 658 008d 02       		.uleb128 0x2
 659 008e 08       		.byte	0x8
 660 008f 05       		.byte	0x5
 661 0090 8E010000 		.4byte	.LASF11
 662 0094 02       		.uleb128 0x2
 663 0095 08       		.byte	0x8
 664 0096 07       		.byte	0x7
 665 0097 FE000000 		.4byte	.LASF12
 666 009b 05       		.uleb128 0x5
 667 009c 7B000000 		.4byte	0x7b
 668 00a0 02       		.uleb128 0x2
 669 00a1 04       		.byte	0x4
 670 00a2 07       		.byte	0x7
 671 00a3 70040000 		.4byte	.LASF13
 672 00a7 02       		.uleb128 0x2
 673 00a8 01       		.byte	0x1
 674 00a9 08       		.byte	0x8
 675 00aa 01070000 		.4byte	.LASF14
 676 00ae 06       		.uleb128 0x6
ARM GAS  /tmp/ccszSdBy.s 			page 13


 677 00af 6B040000 		.4byte	.LASF193
 678 00b3 01       		.byte	0x1
 679 00b4 03       		.byte	0x3
 680 00b5 8C       		.byte	0x8c
 681 00b6 E9020000 		.4byte	0x2e9
 682 00ba 07       		.uleb128 0x7
 683 00bb 50070000 		.4byte	.LASF15
 684 00bf 72       		.sleb128 -14
 685 00c0 07       		.uleb128 0x7
 686 00c1 3A030000 		.4byte	.LASF16
 687 00c5 74       		.sleb128 -12
 688 00c6 07       		.uleb128 0x7
 689 00c7 D8020000 		.4byte	.LASF17
 690 00cb 75       		.sleb128 -11
 691 00cc 07       		.uleb128 0x7
 692 00cd AD060000 		.4byte	.LASF18
 693 00d1 76       		.sleb128 -10
 694 00d2 07       		.uleb128 0x7
 695 00d3 9F030000 		.4byte	.LASF19
 696 00d7 7B       		.sleb128 -5
 697 00d8 07       		.uleb128 0x7
 698 00d9 CA070000 		.4byte	.LASF20
 699 00dd 7C       		.sleb128 -4
 700 00de 07       		.uleb128 0x7
 701 00df E6020000 		.4byte	.LASF21
 702 00e3 7E       		.sleb128 -2
 703 00e4 07       		.uleb128 0x7
 704 00e5 39040000 		.4byte	.LASF22
 705 00e9 7F       		.sleb128 -1
 706 00ea 07       		.uleb128 0x7
 707 00eb 49010000 		.4byte	.LASF23
 708 00ef 00       		.sleb128 0
 709 00f0 07       		.uleb128 0x7
 710 00f1 25000000 		.4byte	.LASF24
 711 00f5 01       		.sleb128 1
 712 00f6 07       		.uleb128 0x7
 713 00f7 74070000 		.4byte	.LASF25
 714 00fb 02       		.sleb128 2
 715 00fc 07       		.uleb128 0x7
 716 00fd 3B010000 		.4byte	.LASF26
 717 0101 03       		.sleb128 3
 718 0102 07       		.uleb128 0x7
 719 0103 74060000 		.4byte	.LASF27
 720 0107 04       		.sleb128 4
 721 0108 07       		.uleb128 0x7
 722 0109 19090000 		.4byte	.LASF28
 723 010d 05       		.sleb128 5
 724 010e 07       		.uleb128 0x7
 725 010f 17080000 		.4byte	.LASF29
 726 0113 06       		.sleb128 6
 727 0114 07       		.uleb128 0x7
 728 0115 3D090000 		.4byte	.LASF30
 729 0119 07       		.sleb128 7
 730 011a 07       		.uleb128 0x7
 731 011b 41060000 		.4byte	.LASF31
 732 011f 08       		.sleb128 8
 733 0120 07       		.uleb128 0x7
ARM GAS  /tmp/ccszSdBy.s 			page 14


 734 0121 CF040000 		.4byte	.LASF32
 735 0125 09       		.sleb128 9
 736 0126 07       		.uleb128 0x7
 737 0127 DE050000 		.4byte	.LASF33
 738 012b 0A       		.sleb128 10
 739 012c 07       		.uleb128 0x7
 740 012d 4D090000 		.4byte	.LASF34
 741 0131 0B       		.sleb128 11
 742 0132 07       		.uleb128 0x7
 743 0133 2B070000 		.4byte	.LASF35
 744 0137 0C       		.sleb128 12
 745 0138 07       		.uleb128 0x7
 746 0139 E4040000 		.4byte	.LASF36
 747 013d 0D       		.sleb128 13
 748 013e 07       		.uleb128 0x7
 749 013f 16030000 		.4byte	.LASF37
 750 0143 0E       		.sleb128 14
 751 0144 07       		.uleb128 0x7
 752 0145 A7040000 		.4byte	.LASF38
 753 0149 0F       		.sleb128 15
 754 014a 07       		.uleb128 0x7
 755 014b 1C020000 		.4byte	.LASF39
 756 014f 10       		.sleb128 16
 757 0150 07       		.uleb128 0x7
 758 0151 28030000 		.4byte	.LASF40
 759 0155 11       		.sleb128 17
 760 0156 07       		.uleb128 0x7
 761 0157 C9080000 		.4byte	.LASF41
 762 015b 12       		.sleb128 18
 763 015c 07       		.uleb128 0x7
 764 015d CD030000 		.4byte	.LASF42
 765 0161 13       		.sleb128 19
 766 0162 07       		.uleb128 0x7
 767 0163 17000000 		.4byte	.LASF43
 768 0167 14       		.sleb128 20
 769 0168 07       		.uleb128 0x7
 770 0169 E7000000 		.4byte	.LASF44
 771 016d 15       		.sleb128 21
 772 016e 07       		.uleb128 0x7
 773 016f EF080000 		.4byte	.LASF45
 774 0173 16       		.sleb128 22
 775 0174 07       		.uleb128 0x7
 776 0175 2E020000 		.4byte	.LASF46
 777 0179 17       		.sleb128 23
 778 017a 07       		.uleb128 0x7
 779 017b BE050000 		.4byte	.LASF47
 780 017f 18       		.sleb128 24
 781 0180 07       		.uleb128 0x7
 782 0181 82040000 		.4byte	.LASF48
 783 0185 19       		.sleb128 25
 784 0186 07       		.uleb128 0x7
 785 0187 16060000 		.4byte	.LASF49
 786 018b 1A       		.sleb128 26
 787 018c 07       		.uleb128 0x7
 788 018d 46040000 		.4byte	.LASF50
 789 0191 1B       		.sleb128 27
 790 0192 07       		.uleb128 0x7
ARM GAS  /tmp/ccszSdBy.s 			page 15


 791 0193 0D080000 		.4byte	.LASF51
 792 0197 1C       		.sleb128 28
 793 0198 07       		.uleb128 0x7
 794 0199 33090000 		.4byte	.LASF52
 795 019d 1D       		.sleb128 29
 796 019e 07       		.uleb128 0x7
 797 019f 31010000 		.4byte	.LASF53
 798 01a3 1E       		.sleb128 30
 799 01a4 07       		.uleb128 0x7
 800 01a5 89000000 		.4byte	.LASF54
 801 01a9 1F       		.sleb128 31
 802 01aa 07       		.uleb128 0x7
 803 01ab AF080000 		.4byte	.LASF55
 804 01af 20       		.sleb128 32
 805 01b0 07       		.uleb128 0x7
 806 01b1 EE070000 		.4byte	.LASF56
 807 01b5 21       		.sleb128 33
 808 01b6 07       		.uleb128 0x7
 809 01b7 24010000 		.4byte	.LASF57
 810 01bb 22       		.sleb128 34
 811 01bc 07       		.uleb128 0x7
 812 01bd F2030000 		.4byte	.LASF58
 813 01c1 23       		.sleb128 35
 814 01c2 07       		.uleb128 0x7
 815 01c3 DA040000 		.4byte	.LASF59
 816 01c7 24       		.sleb128 36
 817 01c8 07       		.uleb128 0x7
 818 01c9 22080000 		.4byte	.LASF60
 819 01cd 25       		.sleb128 37
 820 01ce 07       		.uleb128 0x7
 821 01cf A1060000 		.4byte	.LASF61
 822 01d3 26       		.sleb128 38
 823 01d4 07       		.uleb128 0x7
 824 01d5 FB070000 		.4byte	.LASF62
 825 01d9 27       		.sleb128 39
 826 01da 07       		.uleb128 0x7
 827 01db E3030000 		.4byte	.LASF63
 828 01df 28       		.sleb128 40
 829 01e0 07       		.uleb128 0x7
 830 01e1 15010000 		.4byte	.LASF64
 831 01e5 29       		.sleb128 41
 832 01e6 07       		.uleb128 0x7
 833 01e7 8A020000 		.4byte	.LASF65
 834 01eb 2A       		.sleb128 42
 835 01ec 07       		.uleb128 0x7
 836 01ed 20040000 		.4byte	.LASF66
 837 01f1 2B       		.sleb128 43
 838 01f2 07       		.uleb128 0x7
 839 01f3 AD020000 		.4byte	.LASF67
 840 01f7 2C       		.sleb128 44
 841 01f8 07       		.uleb128 0x7
 842 01f9 53040000 		.4byte	.LASF68
 843 01fd 2D       		.sleb128 45
 844 01fe 07       		.uleb128 0x7
 845 01ff 3C000000 		.4byte	.LASF69
 846 0203 2E       		.sleb128 46
 847 0204 07       		.uleb128 0x7
ARM GAS  /tmp/ccszSdBy.s 			page 16


 848 0205 57020000 		.4byte	.LASF70
 849 0209 2F       		.sleb128 47
 850 020a 07       		.uleb128 0x7
 851 020b 9E050000 		.4byte	.LASF71
 852 020f 30       		.sleb128 48
 853 0210 07       		.uleb128 0x7
 854 0211 8F030000 		.4byte	.LASF72
 855 0215 31       		.sleb128 49
 856 0216 07       		.uleb128 0x7
 857 0217 C5040000 		.4byte	.LASF73
 858 021b 32       		.sleb128 50
 859 021c 07       		.uleb128 0x7
 860 021d 82050000 		.4byte	.LASF74
 861 0221 33       		.sleb128 51
 862 0222 07       		.uleb128 0x7
 863 0223 7F020000 		.4byte	.LASF75
 864 0227 34       		.sleb128 52
 865 0228 07       		.uleb128 0x7
 866 0229 0B060000 		.4byte	.LASF76
 867 022d 35       		.sleb128 53
 868 022e 07       		.uleb128 0x7
 869 022f 69020000 		.4byte	.LASF77
 870 0233 36       		.sleb128 54
 871 0234 07       		.uleb128 0x7
 872 0235 21070000 		.4byte	.LASF78
 873 0239 37       		.sleb128 55
 874 023a 07       		.uleb128 0x7
 875 023b DC070000 		.4byte	.LASF79
 876 023f 38       		.sleb128 56
 877 0240 07       		.uleb128 0x7
 878 0241 D2080000 		.4byte	.LASF80
 879 0245 39       		.sleb128 57
 880 0246 07       		.uleb128 0x7
 881 0247 B0030000 		.4byte	.LASF81
 882 024b 3A       		.sleb128 58
 883 024c 07       		.uleb128 0x7
 884 024d 95040000 		.4byte	.LASF82
 885 0251 3B       		.sleb128 59
 886 0252 07       		.uleb128 0x7
 887 0253 8C050000 		.4byte	.LASF83
 888 0257 3C       		.sleb128 60
 889 0258 07       		.uleb128 0x7
 890 0259 79040000 		.4byte	.LASF84
 891 025d 3D       		.sleb128 61
 892 025e 07       		.uleb128 0x7
 893 025f 40020000 		.4byte	.LASF85
 894 0263 3E       		.sleb128 62
 895 0264 07       		.uleb128 0x7
 896 0265 F6040000 		.4byte	.LASF86
 897 0269 3F       		.sleb128 63
 898 026a 07       		.uleb128 0x7
 899 026b 2E000000 		.4byte	.LASF87
 900 026f C000     		.sleb128 64
 901 0271 07       		.uleb128 0x7
 902 0272 A8010000 		.4byte	.LASF88
 903 0276 C100     		.sleb128 65
 904 0278 07       		.uleb128 0x7
ARM GAS  /tmp/ccszSdBy.s 			page 17


 905 0279 0B090000 		.4byte	.LASF89
 906 027d C200     		.sleb128 66
 907 027f 07       		.uleb128 0x7
 908 0280 8C060000 		.4byte	.LASF90
 909 0284 C300     		.sleb128 67
 910 0286 07       		.uleb128 0x7
 911 0287 9B020000 		.4byte	.LASF91
 912 028b C400     		.sleb128 68
 913 028d 07       		.uleb128 0x7
 914 028e C9010000 		.4byte	.LASF92
 915 0292 C500     		.sleb128 69
 916 0294 07       		.uleb128 0x7
 917 0295 F2020000 		.4byte	.LASF93
 918 0299 C600     		.sleb128 70
 919 029b 07       		.uleb128 0x7
 920 029c B9040000 		.4byte	.LASF94
 921 02a0 C700     		.sleb128 71
 922 02a2 07       		.uleb128 0x7
 923 02a3 50030000 		.4byte	.LASF95
 924 02a7 C800     		.sleb128 72
 925 02a9 07       		.uleb128 0x7
 926 02aa 6C000000 		.4byte	.LASF96
 927 02ae C900     		.sleb128 73
 928 02b0 07       		.uleb128 0x7
 929 02b1 7B030000 		.4byte	.LASF97
 930 02b5 CA00     		.sleb128 74
 931 02b7 07       		.uleb128 0x7
 932 02b8 3D070000 		.4byte	.LASF98
 933 02bc CB00     		.sleb128 75
 934 02be 07       		.uleb128 0x7
 935 02bf 22090000 		.4byte	.LASF99
 936 02c3 CC00     		.sleb128 76
 937 02c5 07       		.uleb128 0x7
 938 02c6 22050000 		.4byte	.LASF100
 939 02ca CD00     		.sleb128 77
 940 02cc 07       		.uleb128 0x7
 941 02cd 58080000 		.4byte	.LASF101
 942 02d1 CE00     		.sleb128 78
 943 02d3 07       		.uleb128 0x7
 944 02d4 0B070000 		.4byte	.LASF102
 945 02d8 CF00     		.sleb128 79
 946 02da 07       		.uleb128 0x7
 947 02db E9050000 		.4byte	.LASF103
 948 02df D000     		.sleb128 80
 949 02e1 07       		.uleb128 0x7
 950 02e2 83080000 		.4byte	.LASF104
 951 02e6 D100     		.sleb128 81
 952 02e8 00       		.byte	0
 953 02e9 08       		.uleb128 0x8
 954 02ea 7B000000 		.4byte	0x7b
 955 02ee F9020000 		.4byte	0x2f9
 956 02f2 09       		.uleb128 0x9
 957 02f3 A0000000 		.4byte	0xa0
 958 02f7 01       		.byte	0x1
 959 02f8 00       		.byte	0
 960 02f9 08       		.uleb128 0x8
 961 02fa 7B000000 		.4byte	0x7b
ARM GAS  /tmp/ccszSdBy.s 			page 18


 962 02fe 09030000 		.4byte	0x309
 963 0302 09       		.uleb128 0x9
 964 0303 A0000000 		.4byte	0xa0
 965 0307 03       		.byte	0x3
 966 0308 00       		.byte	0
 967 0309 05       		.uleb128 0x5
 968 030a 57000000 		.4byte	0x57
 969 030e 05       		.uleb128 0x5
 970 030f 69000000 		.4byte	0x69
 971 0313 0A       		.uleb128 0xa
 972 0314 88       		.byte	0x88
 973 0315 03       		.byte	0x3
 974 0316 DB02     		.2byte	0x2db
 975 0318 E0040000 		.4byte	0x4e0
 976 031c 0B       		.uleb128 0xb
 977 031d 435200   		.ascii	"CR\000"
 978 0320 03       		.byte	0x3
 979 0321 DD02     		.2byte	0x2dd
 980 0323 9B000000 		.4byte	0x9b
 981 0327 02       		.byte	0x2
 982 0328 23       		.byte	0x23
 983 0329 00       		.uleb128 0
 984 032a 0C       		.uleb128 0xc
 985 032b 77020000 		.4byte	.LASF105
 986 032f 03       		.byte	0x3
 987 0330 DE02     		.2byte	0x2de
 988 0332 9B000000 		.4byte	0x9b
 989 0336 02       		.byte	0x2
 990 0337 23       		.byte	0x23
 991 0338 04       		.uleb128 0x4
 992 0339 0C       		.uleb128 0xc
 993 033a 8C080000 		.4byte	.LASF106
 994 033e 03       		.byte	0x3
 995 033f DF02     		.2byte	0x2df
 996 0341 9B000000 		.4byte	0x9b
 997 0345 02       		.byte	0x2
 998 0346 23       		.byte	0x23
 999 0347 08       		.uleb128 0x8
 1000 0348 0B       		.uleb128 0xb
 1001 0349 43495200 		.ascii	"CIR\000"
 1002 034d 03       		.byte	0x3
 1003 034e E002     		.2byte	0x2e0
 1004 0350 9B000000 		.4byte	0x9b
 1005 0354 02       		.byte	0x2
 1006 0355 23       		.byte	0x23
 1007 0356 0C       		.uleb128 0xc
 1008 0357 0C       		.uleb128 0xc
 1009 0358 B6010000 		.4byte	.LASF107
 1010 035c 03       		.byte	0x3
 1011 035d E102     		.2byte	0x2e1
 1012 035f 9B000000 		.4byte	0x9b
 1013 0363 02       		.byte	0x2
 1014 0364 23       		.byte	0x23
 1015 0365 10       		.uleb128 0x10
 1016 0366 0C       		.uleb128 0xc
 1017 0367 CF020000 		.4byte	.LASF108
 1018 036b 03       		.byte	0x3
ARM GAS  /tmp/ccszSdBy.s 			page 19


 1019 036c E202     		.2byte	0x2e2
 1020 036e 9B000000 		.4byte	0x9b
 1021 0372 02       		.byte	0x2
 1022 0373 23       		.byte	0x23
 1023 0374 14       		.uleb128 0x14
 1024 0375 0C       		.uleb128 0xc
 1025 0376 DA030000 		.4byte	.LASF109
 1026 037a 03       		.byte	0x3
 1027 037b E302     		.2byte	0x2e3
 1028 037d 9B000000 		.4byte	0x9b
 1029 0381 02       		.byte	0x2
 1030 0382 23       		.byte	0x23
 1031 0383 18       		.uleb128 0x18
 1032 0384 0C       		.uleb128 0xc
 1033 0385 3C050000 		.4byte	.LASF110
 1034 0389 03       		.byte	0x3
 1035 038a E402     		.2byte	0x2e4
 1036 038c 7B000000 		.4byte	0x7b
 1037 0390 02       		.byte	0x2
 1038 0391 23       		.byte	0x23
 1039 0392 1C       		.uleb128 0x1c
 1040 0393 0C       		.uleb128 0xc
 1041 0394 19050000 		.4byte	.LASF111
 1042 0398 03       		.byte	0x3
 1043 0399 E502     		.2byte	0x2e5
 1044 039b 9B000000 		.4byte	0x9b
 1045 039f 02       		.byte	0x2
 1046 03a0 23       		.byte	0x23
 1047 03a1 20       		.uleb128 0x20
 1048 03a2 0C       		.uleb128 0xc
 1049 03a3 13020000 		.4byte	.LASF112
 1050 03a7 03       		.byte	0x3
 1051 03a8 E602     		.2byte	0x2e6
 1052 03aa 9B000000 		.4byte	0x9b
 1053 03ae 02       		.byte	0x2
 1054 03af 23       		.byte	0x23
 1055 03b0 24       		.uleb128 0x24
 1056 03b1 0C       		.uleb128 0xc
 1057 03b2 46050000 		.4byte	.LASF113
 1058 03b6 03       		.byte	0x3
 1059 03b7 E702     		.2byte	0x2e7
 1060 03b9 E9020000 		.4byte	0x2e9
 1061 03bd 02       		.byte	0x2
 1062 03be 23       		.byte	0x23
 1063 03bf 28       		.uleb128 0x28
 1064 03c0 0C       		.uleb128 0xc
 1065 03c1 76080000 		.4byte	.LASF114
 1066 03c5 03       		.byte	0x3
 1067 03c6 E802     		.2byte	0x2e8
 1068 03c8 9B000000 		.4byte	0x9b
 1069 03cc 02       		.byte	0x2
 1070 03cd 23       		.byte	0x23
 1071 03ce 30       		.uleb128 0x30
 1072 03cf 0C       		.uleb128 0xc
 1073 03d0 6C070000 		.4byte	.LASF115
 1074 03d4 03       		.byte	0x3
 1075 03d5 E902     		.2byte	0x2e9
ARM GAS  /tmp/ccszSdBy.s 			page 20


 1076 03d7 9B000000 		.4byte	0x9b
 1077 03db 02       		.byte	0x2
 1078 03dc 23       		.byte	0x23
 1079 03dd 34       		.uleb128 0x34
 1080 03de 0C       		.uleb128 0xc
 1081 03df 5C060000 		.4byte	.LASF116
 1082 03e3 03       		.byte	0x3
 1083 03e4 EA02     		.2byte	0x2ea
 1084 03e6 9B000000 		.4byte	0x9b
 1085 03ea 02       		.byte	0x2
 1086 03eb 23       		.byte	0x23
 1087 03ec 38       		.uleb128 0x38
 1088 03ed 0C       		.uleb128 0xc
 1089 03ee 50050000 		.4byte	.LASF117
 1090 03f2 03       		.byte	0x3
 1091 03f3 EB02     		.2byte	0x2eb
 1092 03f5 7B000000 		.4byte	0x7b
 1093 03f9 02       		.byte	0x2
 1094 03fa 23       		.byte	0x23
 1095 03fb 3C       		.uleb128 0x3c
 1096 03fc 0C       		.uleb128 0xc
 1097 03fd 64070000 		.4byte	.LASF118
 1098 0401 03       		.byte	0x3
 1099 0402 EC02     		.2byte	0x2ec
 1100 0404 9B000000 		.4byte	0x9b
 1101 0408 02       		.byte	0x2
 1102 0409 23       		.byte	0x23
 1103 040a 40       		.uleb128 0x40
 1104 040b 0C       		.uleb128 0xc
 1105 040c 4C060000 		.4byte	.LASF119
 1106 0410 03       		.byte	0x3
 1107 0411 ED02     		.2byte	0x2ed
 1108 0413 9B000000 		.4byte	0x9b
 1109 0417 02       		.byte	0x2
 1110 0418 23       		.byte	0x23
 1111 0419 44       		.uleb128 0x44
 1112 041a 0C       		.uleb128 0xc
 1113 041b 5A050000 		.4byte	.LASF120
 1114 041f 03       		.byte	0x3
 1115 0420 EE02     		.2byte	0x2ee
 1116 0422 E9020000 		.4byte	0x2e9
 1117 0426 02       		.byte	0x2
 1118 0427 23       		.byte	0x23
 1119 0428 48       		.uleb128 0x48
 1120 0429 0C       		.uleb128 0xc
 1121 042a 5D010000 		.4byte	.LASF121
 1122 042e 03       		.byte	0x3
 1123 042f EF02     		.2byte	0x2ef
 1124 0431 9B000000 		.4byte	0x9b
 1125 0435 02       		.byte	0x2
 1126 0436 23       		.byte	0x23
 1127 0437 50       		.uleb128 0x50
 1128 0438 0C       		.uleb128 0xc
 1129 0439 03050000 		.4byte	.LASF122
 1130 043d 03       		.byte	0x3
 1131 043e F002     		.2byte	0x2f0
 1132 0440 9B000000 		.4byte	0x9b
ARM GAS  /tmp/ccszSdBy.s 			page 21


 1133 0444 02       		.byte	0x2
 1134 0445 23       		.byte	0x23
 1135 0446 54       		.uleb128 0x54
 1136 0447 0C       		.uleb128 0xc
 1137 0448 01060000 		.4byte	.LASF123
 1138 044c 03       		.byte	0x3
 1139 044d F102     		.2byte	0x2f1
 1140 044f 9B000000 		.4byte	0x9b
 1141 0453 02       		.byte	0x2
 1142 0454 23       		.byte	0x23
 1143 0455 58       		.uleb128 0x58
 1144 0456 0C       		.uleb128 0xc
 1145 0457 64050000 		.4byte	.LASF124
 1146 045b 03       		.byte	0x3
 1147 045c F202     		.2byte	0x2f2
 1148 045e 7B000000 		.4byte	0x7b
 1149 0462 02       		.byte	0x2
 1150 0463 23       		.byte	0x23
 1151 0464 5C       		.uleb128 0x5c
 1152 0465 0C       		.uleb128 0xc
 1153 0466 0D000000 		.4byte	.LASF125
 1154 046a 03       		.byte	0x3
 1155 046b F302     		.2byte	0x2f3
 1156 046d 9B000000 		.4byte	0x9b
 1157 0471 02       		.byte	0x2
 1158 0472 23       		.byte	0x23
 1159 0473 60       		.uleb128 0x60
 1160 0474 0C       		.uleb128 0xc
 1161 0475 11040000 		.4byte	.LASF126
 1162 0479 03       		.byte	0x3
 1163 047a F402     		.2byte	0x2f4
 1164 047c 9B000000 		.4byte	0x9b
 1165 0480 02       		.byte	0x2
 1166 0481 23       		.byte	0x23
 1167 0482 64       		.uleb128 0x64
 1168 0483 0C       		.uleb128 0xc
 1169 0484 6E050000 		.4byte	.LASF127
 1170 0488 03       		.byte	0x3
 1171 0489 F502     		.2byte	0x2f5
 1172 048b E9020000 		.4byte	0x2e9
 1173 048f 02       		.byte	0x2
 1174 0490 23       		.byte	0x23
 1175 0491 68       		.uleb128 0x68
 1176 0492 0C       		.uleb128 0xc
 1177 0493 2E080000 		.4byte	.LASF128
 1178 0497 03       		.byte	0x3
 1179 0498 F602     		.2byte	0x2f6
 1180 049a 9B000000 		.4byte	0x9b
 1181 049e 02       		.byte	0x2
 1182 049f 23       		.byte	0x23
 1183 04a0 70       		.uleb128 0x70
 1184 04a1 0B       		.uleb128 0xb
 1185 04a2 43535200 		.ascii	"CSR\000"
 1186 04a6 03       		.byte	0x3
 1187 04a7 F702     		.2byte	0x2f7
 1188 04a9 9B000000 		.4byte	0x9b
 1189 04ad 02       		.byte	0x2
ARM GAS  /tmp/ccszSdBy.s 			page 22


 1190 04ae 23       		.byte	0x23
 1191 04af 74       		.uleb128 0x74
 1192 04b0 0C       		.uleb128 0xc
 1193 04b1 78050000 		.4byte	.LASF129
 1194 04b5 03       		.byte	0x3
 1195 04b6 F802     		.2byte	0x2f8
 1196 04b8 E9020000 		.4byte	0x2e9
 1197 04bc 02       		.byte	0x2
 1198 04bd 23       		.byte	0x23
 1199 04be 78       		.uleb128 0x78
 1200 04bf 0C       		.uleb128 0xc
 1201 04c0 07080000 		.4byte	.LASF130
 1202 04c4 03       		.byte	0x3
 1203 04c5 F902     		.2byte	0x2f9
 1204 04c7 9B000000 		.4byte	0x9b
 1205 04cb 03       		.byte	0x3
 1206 04cc 23       		.byte	0x23
 1207 04cd 8001     		.uleb128 0x80
 1208 04cf 0C       		.uleb128 0xc
 1209 04d0 C2030000 		.4byte	.LASF131
 1210 04d4 03       		.byte	0x3
 1211 04d5 FA02     		.2byte	0x2fa
 1212 04d7 9B000000 		.4byte	0x9b
 1213 04db 03       		.byte	0x3
 1214 04dc 23       		.byte	0x23
 1215 04dd 8401     		.uleb128 0x84
 1216 04df 00       		.byte	0
 1217 04e0 0D       		.uleb128 0xd
 1218 04e1 6F030000 		.4byte	.LASF132
 1219 04e5 03       		.byte	0x3
 1220 04e6 FB02     		.2byte	0x2fb
 1221 04e8 13030000 		.4byte	0x313
 1222 04ec 0E       		.uleb128 0xe
 1223 04ed 54       		.byte	0x54
 1224 04ee 04       		.byte	0x4
 1225 04ef 72       		.byte	0x72
 1226 04f0 C1060000 		.4byte	0x6c1
 1227 04f4 0F       		.uleb128 0xf
 1228 04f5 43523100 		.ascii	"CR1\000"
 1229 04f9 04       		.byte	0x4
 1230 04fa 73       		.byte	0x73
 1231 04fb 09030000 		.4byte	0x309
 1232 04ff 02       		.byte	0x2
 1233 0500 23       		.byte	0x23
 1234 0501 00       		.uleb128 0
 1235 0502 10       		.uleb128 0x10
 1236 0503 79000000 		.4byte	.LASF133
 1237 0507 04       		.byte	0x4
 1238 0508 74       		.byte	0x74
 1239 0509 57000000 		.4byte	0x57
 1240 050d 02       		.byte	0x2
 1241 050e 23       		.byte	0x23
 1242 050f 02       		.uleb128 0x2
 1243 0510 0F       		.uleb128 0xf
 1244 0511 43523200 		.ascii	"CR2\000"
 1245 0515 04       		.byte	0x4
 1246 0516 75       		.byte	0x75
ARM GAS  /tmp/ccszSdBy.s 			page 23


 1247 0517 09030000 		.4byte	0x309
 1248 051b 02       		.byte	0x2
 1249 051c 23       		.byte	0x23
 1250 051d 04       		.uleb128 0x4
 1251 051e 10       		.uleb128 0x10
 1252 051f 81000000 		.4byte	.LASF134
 1253 0523 04       		.byte	0x4
 1254 0524 76       		.byte	0x76
 1255 0525 57000000 		.4byte	0x57
 1256 0529 02       		.byte	0x2
 1257 052a 23       		.byte	0x23
 1258 052b 06       		.uleb128 0x6
 1259 052c 10       		.uleb128 0x10
 1260 052d AB030000 		.4byte	.LASF135
 1261 0531 04       		.byte	0x4
 1262 0532 77       		.byte	0x77
 1263 0533 09030000 		.4byte	0x309
 1264 0537 02       		.byte	0x2
 1265 0538 23       		.byte	0x23
 1266 0539 08       		.uleb128 0x8
 1267 053a 10       		.uleb128 0x10
 1268 053b D9060000 		.4byte	.LASF136
 1269 053f 04       		.byte	0x4
 1270 0540 78       		.byte	0x78
 1271 0541 57000000 		.4byte	0x57
 1272 0545 02       		.byte	0x2
 1273 0546 23       		.byte	0x23
 1274 0547 0A       		.uleb128 0xa
 1275 0548 10       		.uleb128 0x10
 1276 0549 7E080000 		.4byte	.LASF137
 1277 054d 04       		.byte	0x4
 1278 054e 79       		.byte	0x79
 1279 054f 09030000 		.4byte	0x309
 1280 0553 02       		.byte	0x2
 1281 0554 23       		.byte	0x23
 1282 0555 0C       		.uleb128 0xc
 1283 0556 10       		.uleb128 0x10
 1284 0557 96000000 		.4byte	.LASF138
 1285 055b 04       		.byte	0x4
 1286 055c 7A       		.byte	0x7a
 1287 055d 57000000 		.4byte	0x57
 1288 0561 02       		.byte	0x2
 1289 0562 23       		.byte	0x23
 1290 0563 0E       		.uleb128 0xe
 1291 0564 0F       		.uleb128 0xf
 1292 0565 535200   		.ascii	"SR\000"
 1293 0568 04       		.byte	0x4
 1294 0569 7B       		.byte	0x7b
 1295 056a 09030000 		.4byte	0x309
 1296 056e 02       		.byte	0x2
 1297 056f 23       		.byte	0x23
 1298 0570 10       		.uleb128 0x10
 1299 0571 10       		.uleb128 0x10
 1300 0572 9E000000 		.4byte	.LASF139
 1301 0576 04       		.byte	0x4
 1302 0577 7C       		.byte	0x7c
 1303 0578 57000000 		.4byte	0x57
ARM GAS  /tmp/ccszSdBy.s 			page 24


 1304 057c 02       		.byte	0x2
 1305 057d 23       		.byte	0x23
 1306 057e 12       		.uleb128 0x12
 1307 057f 0F       		.uleb128 0xf
 1308 0580 45475200 		.ascii	"EGR\000"
 1309 0584 04       		.byte	0x4
 1310 0585 7D       		.byte	0x7d
 1311 0586 09030000 		.4byte	0x309
 1312 058a 02       		.byte	0x2
 1313 058b 23       		.byte	0x23
 1314 058c 14       		.uleb128 0x14
 1315 058d 10       		.uleb128 0x10
 1316 058e A6000000 		.4byte	.LASF140
 1317 0592 04       		.byte	0x4
 1318 0593 7E       		.byte	0x7e
 1319 0594 57000000 		.4byte	0x57
 1320 0598 02       		.byte	0x2
 1321 0599 23       		.byte	0x23
 1322 059a 16       		.uleb128 0x16
 1323 059b 10       		.uleb128 0x10
 1324 059c 82010000 		.4byte	.LASF141
 1325 05a0 04       		.byte	0x4
 1326 05a1 7F       		.byte	0x7f
 1327 05a2 09030000 		.4byte	0x309
 1328 05a6 02       		.byte	0x2
 1329 05a7 23       		.byte	0x23
 1330 05a8 18       		.uleb128 0x18
 1331 05a9 10       		.uleb128 0x10
 1332 05aa AE000000 		.4byte	.LASF142
 1333 05ae 04       		.byte	0x4
 1334 05af 80       		.byte	0x80
 1335 05b0 57000000 		.4byte	0x57
 1336 05b4 02       		.byte	0x2
 1337 05b5 23       		.byte	0x23
 1338 05b6 1A       		.uleb128 0x1a
 1339 05b7 10       		.uleb128 0x10
 1340 05b8 88010000 		.4byte	.LASF143
 1341 05bc 04       		.byte	0x4
 1342 05bd 81       		.byte	0x81
 1343 05be 09030000 		.4byte	0x309
 1344 05c2 02       		.byte	0x2
 1345 05c3 23       		.byte	0x23
 1346 05c4 1C       		.uleb128 0x1c
 1347 05c5 10       		.uleb128 0x10
 1348 05c6 B6000000 		.4byte	.LASF144
 1349 05ca 04       		.byte	0x4
 1350 05cb 82       		.byte	0x82
 1351 05cc 57000000 		.4byte	0x57
 1352 05d0 02       		.byte	0x2
 1353 05d1 23       		.byte	0x23
 1354 05d2 1E       		.uleb128 0x1e
 1355 05d3 10       		.uleb128 0x10
 1356 05d4 3B020000 		.4byte	.LASF145
 1357 05d8 04       		.byte	0x4
 1358 05d9 83       		.byte	0x83
 1359 05da 09030000 		.4byte	0x309
 1360 05de 02       		.byte	0x2
ARM GAS  /tmp/ccszSdBy.s 			page 25


 1361 05df 23       		.byte	0x23
 1362 05e0 20       		.uleb128 0x20
 1363 05e1 10       		.uleb128 0x10
 1364 05e2 BE000000 		.4byte	.LASF146
 1365 05e6 04       		.byte	0x4
 1366 05e7 84       		.byte	0x84
 1367 05e8 57000000 		.4byte	0x57
 1368 05ec 02       		.byte	0x2
 1369 05ed 23       		.byte	0x23
 1370 05ee 22       		.uleb128 0x22
 1371 05ef 0F       		.uleb128 0xf
 1372 05f0 434E5400 		.ascii	"CNT\000"
 1373 05f4 04       		.byte	0x4
 1374 05f5 85       		.byte	0x85
 1375 05f6 9B000000 		.4byte	0x9b
 1376 05fa 02       		.byte	0x2
 1377 05fb 23       		.byte	0x23
 1378 05fc 24       		.uleb128 0x24
 1379 05fd 0F       		.uleb128 0xf
 1380 05fe 50534300 		.ascii	"PSC\000"
 1381 0602 04       		.byte	0x4
 1382 0603 86       		.byte	0x86
 1383 0604 09030000 		.4byte	0x309
 1384 0608 02       		.byte	0x2
 1385 0609 23       		.byte	0x23
 1386 060a 28       		.uleb128 0x28
 1387 060b 10       		.uleb128 0x10
 1388 060c C6000000 		.4byte	.LASF147
 1389 0610 04       		.byte	0x4
 1390 0611 87       		.byte	0x87
 1391 0612 57000000 		.4byte	0x57
 1392 0616 02       		.byte	0x2
 1393 0617 23       		.byte	0x23
 1394 0618 2A       		.uleb128 0x2a
 1395 0619 0F       		.uleb128 0xf
 1396 061a 41525200 		.ascii	"ARR\000"
 1397 061e 04       		.byte	0x4
 1398 061f 88       		.byte	0x88
 1399 0620 9B000000 		.4byte	0x9b
 1400 0624 02       		.byte	0x2
 1401 0625 23       		.byte	0x23
 1402 0626 2C       		.uleb128 0x2c
 1403 0627 0F       		.uleb128 0xf
 1404 0628 52435200 		.ascii	"RCR\000"
 1405 062c 04       		.byte	0x4
 1406 062d 89       		.byte	0x89
 1407 062e 09030000 		.4byte	0x309
 1408 0632 02       		.byte	0x2
 1409 0633 23       		.byte	0x23
 1410 0634 30       		.uleb128 0x30
 1411 0635 10       		.uleb128 0x10
 1412 0636 DB010000 		.4byte	.LASF148
 1413 063a 04       		.byte	0x4
 1414 063b 8A       		.byte	0x8a
 1415 063c 57000000 		.4byte	0x57
 1416 0640 02       		.byte	0x2
 1417 0641 23       		.byte	0x23
ARM GAS  /tmp/ccszSdBy.s 			page 26


 1418 0642 32       		.uleb128 0x32
 1419 0643 0F       		.uleb128 0xf
 1420 0644 43435200 		.ascii	"CCR\000"
 1421 0648 04       		.byte	0x4
 1422 0649 8B       		.byte	0x8b
 1423 064a C1060000 		.4byte	0x6c1
 1424 064e 02       		.byte	0x2
 1425 064f 23       		.byte	0x23
 1426 0650 34       		.uleb128 0x34
 1427 0651 10       		.uleb128 0x10
 1428 0652 04030000 		.4byte	.LASF149
 1429 0656 04       		.byte	0x4
 1430 0657 8C       		.byte	0x8c
 1431 0658 09030000 		.4byte	0x309
 1432 065c 02       		.byte	0x2
 1433 065d 23       		.byte	0x23
 1434 065e 44       		.uleb128 0x44
 1435 065f 10       		.uleb128 0x10
 1436 0660 D5000000 		.4byte	.LASF150
 1437 0664 04       		.byte	0x4
 1438 0665 8D       		.byte	0x8d
 1439 0666 57000000 		.4byte	0x57
 1440 066a 02       		.byte	0x2
 1441 066b 23       		.byte	0x23
 1442 066c 46       		.uleb128 0x46
 1443 066d 0F       		.uleb128 0xf
 1444 066e 44435200 		.ascii	"DCR\000"
 1445 0672 04       		.byte	0x4
 1446 0673 8E       		.byte	0x8e
 1447 0674 09030000 		.4byte	0x309
 1448 0678 02       		.byte	0x2
 1449 0679 23       		.byte	0x23
 1450 067a 48       		.uleb128 0x48
 1451 067b 10       		.uleb128 0x10
 1452 067c DE000000 		.4byte	.LASF151
 1453 0680 04       		.byte	0x4
 1454 0681 8F       		.byte	0x8f
 1455 0682 57000000 		.4byte	0x57
 1456 0686 02       		.byte	0x2
 1457 0687 23       		.byte	0x23
 1458 0688 4A       		.uleb128 0x4a
 1459 0689 10       		.uleb128 0x10
 1460 068a 1C070000 		.4byte	.LASF152
 1461 068e 04       		.byte	0x4
 1462 068f 90       		.byte	0x90
 1463 0690 09030000 		.4byte	0x309
 1464 0694 02       		.byte	0x2
 1465 0695 23       		.byte	0x23
 1466 0696 4C       		.uleb128 0x4c
 1467 0697 10       		.uleb128 0x10
 1468 0698 F5000000 		.4byte	.LASF153
 1469 069c 04       		.byte	0x4
 1470 069d 91       		.byte	0x91
 1471 069e 57000000 		.4byte	0x57
 1472 06a2 02       		.byte	0x2
 1473 06a3 23       		.byte	0x23
 1474 06a4 4E       		.uleb128 0x4e
ARM GAS  /tmp/ccszSdBy.s 			page 27


 1475 06a5 0F       		.uleb128 0xf
 1476 06a6 4F5200   		.ascii	"OR\000"
 1477 06a9 04       		.byte	0x4
 1478 06aa 92       		.byte	0x92
 1479 06ab 09030000 		.4byte	0x309
 1480 06af 02       		.byte	0x2
 1481 06b0 23       		.byte	0x23
 1482 06b1 50       		.uleb128 0x50
 1483 06b2 10       		.uleb128 0x10
 1484 06b3 FC010000 		.4byte	.LASF154
 1485 06b7 04       		.byte	0x4
 1486 06b8 93       		.byte	0x93
 1487 06b9 57000000 		.4byte	0x57
 1488 06bd 02       		.byte	0x2
 1489 06be 23       		.byte	0x23
 1490 06bf 52       		.uleb128 0x52
 1491 06c0 00       		.byte	0
 1492 06c1 05       		.uleb128 0x5
 1493 06c2 F9020000 		.4byte	0x2f9
 1494 06c6 04       		.uleb128 0x4
 1495 06c7 05040000 		.4byte	.LASF155
 1496 06cb 04       		.byte	0x4
 1497 06cc 94       		.byte	0x94
 1498 06cd EC040000 		.4byte	0x4ec
 1499 06d1 11       		.uleb128 0x11
 1500 06d2 01       		.byte	0x1
 1501 06d3 05       		.byte	0x5
 1502 06d4 55       		.byte	0x55
 1503 06d5 EC060000 		.4byte	0x6ec
 1504 06d9 07       		.uleb128 0x7
 1505 06da E4080000 		.4byte	.LASF156
 1506 06de 00       		.sleb128 0
 1507 06df 07       		.uleb128 0x7
 1508 06e0 F8060000 		.4byte	.LASF157
 1509 06e4 01       		.sleb128 1
 1510 06e5 07       		.uleb128 0x7
 1511 06e6 67010000 		.4byte	.LASF158
 1512 06ea 02       		.sleb128 2
 1513 06eb 00       		.byte	0
 1514 06ec 04       		.uleb128 0x4
 1515 06ed 62080000 		.4byte	.LASF159
 1516 06f1 05       		.byte	0x5
 1517 06f2 59       		.byte	0x59
 1518 06f3 D1060000 		.4byte	0x6d1
 1519 06f7 04       		.uleb128 0x4
 1520 06f8 4E080000 		.4byte	.LASF160
 1521 06fc 05       		.byte	0x5
 1522 06fd 5E       		.byte	0x5e
 1523 06fe 02070000 		.4byte	0x702
 1524 0702 12       		.uleb128 0x12
 1525 0703 4E080000 		.4byte	.LASF160
 1526 0707 14       		.byte	0x14
 1527 0708 06       		.byte	0x6
 1528 0709 3901     		.2byte	0x139
 1529 070b 5B070000 		.4byte	0x75b
 1530 070f 0C       		.uleb128 0xc
 1531 0710 E4010000 		.4byte	.LASF161
ARM GAS  /tmp/ccszSdBy.s 			page 28


 1532 0714 06       		.byte	0x6
 1533 0715 3D01     		.2byte	0x13d
 1534 0717 EC060000 		.4byte	0x6ec
 1535 071b 02       		.byte	0x2
 1536 071c 23       		.byte	0x23
 1537 071d 00       		.uleb128 0
 1538 071e 0C       		.uleb128 0xc
 1539 071f 15070000 		.4byte	.LASF162
 1540 0723 06       		.byte	0x6
 1541 0724 4101     		.2byte	0x141
 1542 0726 43080000 		.4byte	0x843
 1543 072a 02       		.byte	0x2
 1544 072b 23       		.byte	0x23
 1545 072c 04       		.uleb128 0x4
 1546 072d 0C       		.uleb128 0xc
 1547 072e CE000000 		.4byte	.LASF163
 1548 0732 06       		.byte	0x6
 1549 0733 4501     		.2byte	0x145
 1550 0735 94070000 		.4byte	0x794
 1551 0739 02       		.byte	0x2
 1552 073a 23       		.byte	0x23
 1553 073b 08       		.uleb128 0x8
 1554 073c 0C       		.uleb128 0xc
 1555 073d A9080000 		.4byte	.LASF164
 1556 0741 06       		.byte	0x6
 1557 0742 4D01     		.2byte	0x14d
 1558 0744 7B000000 		.4byte	0x7b
 1559 0748 02       		.byte	0x2
 1560 0749 23       		.byte	0x23
 1561 074a 0C       		.uleb128 0xc
 1562 074b 0B       		.uleb128 0xb
 1563 074c 74696D00 		.ascii	"tim\000"
 1564 0750 06       		.byte	0x6
 1565 0751 5101     		.2byte	0x151
 1566 0753 4E080000 		.4byte	0x84e
 1567 0757 02       		.byte	0x2
 1568 0758 23       		.byte	0x23
 1569 0759 10       		.uleb128 0x10
 1570 075a 00       		.byte	0
 1571 075b 04       		.uleb128 0x4
 1572 075c 2E050000 		.4byte	.LASF165
 1573 0760 05       		.byte	0x5
 1574 0761 65       		.byte	0x65
 1575 0762 66070000 		.4byte	0x766
 1576 0766 13       		.uleb128 0x13
 1577 0767 04       		.byte	0x4
 1578 0768 6C070000 		.4byte	0x76c
 1579 076c 14       		.uleb128 0x14
 1580 076d 01       		.byte	0x1
 1581 076e 78070000 		.4byte	0x778
 1582 0772 15       		.uleb128 0x15
 1583 0773 78070000 		.4byte	0x778
 1584 0777 00       		.byte	0
 1585 0778 13       		.uleb128 0x13
 1586 0779 04       		.byte	0x4
 1587 077a F7060000 		.4byte	0x6f7
 1588 077e 04       		.uleb128 0x4
ARM GAS  /tmp/ccszSdBy.s 			page 29


 1589 077f BF010000 		.4byte	.LASF166
 1590 0783 06       		.byte	0x6
 1591 0784 F0       		.byte	0xf0
 1592 0785 7B000000 		.4byte	0x7b
 1593 0789 04       		.uleb128 0x4
 1594 078a 00000000 		.4byte	.LASF167
 1595 078e 06       		.byte	0x6
 1596 078f F5       		.byte	0xf5
 1597 0790 3E000000 		.4byte	0x3e
 1598 0794 04       		.uleb128 0x4
 1599 0795 6D080000 		.4byte	.LASF168
 1600 0799 06       		.byte	0x6
 1601 079a FA       		.byte	0xfa
 1602 079b 57000000 		.4byte	0x57
 1603 079f 0E       		.uleb128 0xe
 1604 07a0 08       		.byte	0x8
 1605 07a1 06       		.byte	0x6
 1606 07a2 FF       		.byte	0xff
 1607 07a3 C6070000 		.4byte	0x7c6
 1608 07a7 0C       		.uleb128 0xc
 1609 07a8 06070000 		.4byte	.LASF169
 1610 07ac 06       		.byte	0x6
 1611 07ad 0301     		.2byte	0x103
 1612 07af 7E070000 		.4byte	0x77e
 1613 07b3 02       		.byte	0x2
 1614 07b4 23       		.byte	0x23
 1615 07b5 00       		.uleb128 0
 1616 07b6 0C       		.uleb128 0xc
 1617 07b7 FC030000 		.4byte	.LASF170
 1618 07bb 06       		.byte	0x6
 1619 07bc 0901     		.2byte	0x109
 1620 07be 5B070000 		.4byte	0x75b
 1621 07c2 02       		.byte	0x2
 1622 07c3 23       		.byte	0x23
 1623 07c4 04       		.uleb128 0x4
 1624 07c5 00       		.byte	0
 1625 07c6 0D       		.uleb128 0xd
 1626 07c7 B9070000 		.4byte	.LASF171
 1627 07cb 06       		.byte	0x6
 1628 07cc 0B01     		.2byte	0x10b
 1629 07ce 9F070000 		.4byte	0x79f
 1630 07d2 0A       		.uleb128 0xa
 1631 07d3 30       		.byte	0x30
 1632 07d4 06       		.byte	0x6
 1633 07d5 1001     		.2byte	0x110
 1634 07d7 27080000 		.4byte	0x827
 1635 07db 0C       		.uleb128 0xc
 1636 07dc 53010000 		.4byte	.LASF172
 1637 07e0 06       		.byte	0x6
 1638 07e1 1601     		.2byte	0x116
 1639 07e3 7B000000 		.4byte	0x7b
 1640 07e7 02       		.byte	0x2
 1641 07e8 23       		.byte	0x23
 1642 07e9 00       		.uleb128 0
 1643 07ea 0C       		.uleb128 0xc
 1644 07eb CE000000 		.4byte	.LASF163
 1645 07ef 06       		.byte	0x6
ARM GAS  /tmp/ccszSdBy.s 			page 30


 1646 07f0 1C01     		.2byte	0x11c
 1647 07f2 94070000 		.4byte	0x794
 1648 07f6 02       		.byte	0x2
 1649 07f7 23       		.byte	0x23
 1650 07f8 04       		.uleb128 0x4
 1651 07f9 0C       		.uleb128 0xc
 1652 07fa FC030000 		.4byte	.LASF170
 1653 07fe 06       		.byte	0x6
 1654 07ff 2201     		.2byte	0x122
 1655 0801 5B070000 		.4byte	0x75b
 1656 0805 02       		.byte	0x2
 1657 0806 23       		.byte	0x23
 1658 0807 08       		.uleb128 0x8
 1659 0808 0C       		.uleb128 0xc
 1660 0809 EA010000 		.4byte	.LASF173
 1661 080d 06       		.byte	0x6
 1662 080e 2601     		.2byte	0x126
 1663 0810 27080000 		.4byte	0x827
 1664 0814 02       		.byte	0x2
 1665 0815 23       		.byte	0x23
 1666 0816 0C       		.uleb128 0xc
 1667 0817 0B       		.uleb128 0xb
 1668 0818 63723200 		.ascii	"cr2\000"
 1669 081c 06       		.byte	0x6
 1670 081d 2C01     		.2byte	0x12c
 1671 081f 57000000 		.4byte	0x57
 1672 0823 02       		.byte	0x2
 1673 0824 23       		.byte	0x23
 1674 0825 2C       		.uleb128 0x2c
 1675 0826 00       		.byte	0
 1676 0827 08       		.uleb128 0x8
 1677 0828 C6070000 		.4byte	0x7c6
 1678 082c 37080000 		.4byte	0x837
 1679 0830 09       		.uleb128 0x9
 1680 0831 A0000000 		.4byte	0xa0
 1681 0835 03       		.byte	0x3
 1682 0836 00       		.byte	0
 1683 0837 0D       		.uleb128 0xd
 1684 0838 BD060000 		.4byte	.LASF174
 1685 083c 06       		.byte	0x6
 1686 083d 3401     		.2byte	0x134
 1687 083f D2070000 		.4byte	0x7d2
 1688 0843 13       		.uleb128 0x13
 1689 0844 04       		.byte	0x4
 1690 0845 49080000 		.4byte	0x849
 1691 0849 16       		.uleb128 0x16
 1692 084a 37080000 		.4byte	0x837
 1693 084e 13       		.uleb128 0x13
 1694 084f 04       		.byte	0x4
 1695 0850 C6060000 		.4byte	0x6c6
 1696 0854 17       		.uleb128 0x17
 1697 0855 64060000 		.4byte	.LASF194
 1698 0859 01       		.byte	0x1
 1699 085a 6F       		.byte	0x6f
 1700 085b 01       		.byte	0x1
 1701 085c 01       		.byte	0x1
 1702 085d 77080000 		.4byte	0x877
ARM GAS  /tmp/ccszSdBy.s 			page 31


 1703 0861 18       		.uleb128 0x18
 1704 0862 34040000 		.4byte	.LASF180
 1705 0866 01       		.byte	0x1
 1706 0867 6F       		.byte	0x6f
 1707 0868 78070000 		.4byte	0x778
 1708 086c 19       		.uleb128 0x19
 1709 086d 737200   		.ascii	"sr\000"
 1710 0870 01       		.byte	0x1
 1711 0871 70       		.byte	0x70
 1712 0872 57000000 		.4byte	0x57
 1713 0876 00       		.byte	0
 1714 0877 1A       		.uleb128 0x1a
 1715 0878 01       		.byte	0x1
 1716 0879 C6020000 		.4byte	.LASF175
 1717 087d 01       		.byte	0x1
 1718 087e DD       		.byte	0xdd
 1719 087f 01       		.byte	0x1
 1720 0880 00000000 		.4byte	.LFB118
 1721 0884 78000000 		.4byte	.LFE118
 1722 0888 00000000 		.4byte	.LLST0
 1723 088c 01       		.byte	0x1
 1724 088d 17090000 		.4byte	0x917
 1725 0891 1B       		.uleb128 0x1b
 1726 0892 54080000 		.4byte	0x854
 1727 0896 02000000 		.4byte	.LBB4
 1728 089a 00000000 		.4byte	.Ldebug_ranges0+0
 1729 089e 01       		.byte	0x1
 1730 089f E1       		.byte	0xe1
 1731 08a0 0C090000 		.4byte	0x90c
 1732 08a4 1C       		.uleb128 0x1c
 1733 08a5 18000000 		.4byte	.Ldebug_ranges0+0x18
 1734 08a9 1D       		.uleb128 0x1d
 1735 08aa 6C080000 		.4byte	0x86c
 1736 08ae 20000000 		.4byte	.LLST1
 1737 08b2 1E       		.uleb128 0x1e
 1738 08b3 61080000 		.4byte	0x861
 1739 08b7 06       		.byte	0x6
 1740 08b8 03       		.byte	0x3
 1741 08b9 00000000 		.4byte	PWMD4
 1742 08bd 9F       		.byte	0x9f
 1743 08be 1F       		.uleb128 0x1f
 1744 08bf 42000000 		.4byte	.LVL3
 1745 08c3 CE080000 		.4byte	0x8ce
 1746 08c7 20       		.uleb128 0x20
 1747 08c8 01       		.byte	0x1
 1748 08c9 50       		.byte	0x50
 1749 08ca 02       		.byte	0x2
 1750 08cb 75       		.byte	0x75
 1751 08cc 00       		.sleb128 0
 1752 08cd 00       		.byte	0
 1753 08ce 1F       		.uleb128 0x1f
 1754 08cf 52000000 		.4byte	.LVL5
 1755 08d3 DE080000 		.4byte	0x8de
 1756 08d7 20       		.uleb128 0x20
 1757 08d8 01       		.byte	0x1
 1758 08d9 50       		.byte	0x50
 1759 08da 02       		.byte	0x2
ARM GAS  /tmp/ccszSdBy.s 			page 32


 1760 08db 75       		.byte	0x75
 1761 08dc 00       		.sleb128 0
 1762 08dd 00       		.byte	0
 1763 08de 1F       		.uleb128 0x1f
 1764 08df 5C000000 		.4byte	.LVL6
 1765 08e3 EE080000 		.4byte	0x8ee
 1766 08e7 20       		.uleb128 0x20
 1767 08e8 01       		.byte	0x1
 1768 08e9 50       		.byte	0x50
 1769 08ea 02       		.byte	0x2
 1770 08eb 75       		.byte	0x75
 1771 08ec 00       		.sleb128 0
 1772 08ed 00       		.byte	0
 1773 08ee 1F       		.uleb128 0x1f
 1774 08ef 66000000 		.4byte	.LVL7
 1775 08f3 FE080000 		.4byte	0x8fe
 1776 08f7 20       		.uleb128 0x20
 1777 08f8 01       		.byte	0x1
 1778 08f9 50       		.byte	0x50
 1779 08fa 02       		.byte	0x2
 1780 08fb 75       		.byte	0x75
 1781 08fc 00       		.sleb128 0
 1782 08fd 00       		.byte	0
 1783 08fe 21       		.uleb128 0x21
 1784 08ff 70000000 		.4byte	.LVL8
 1785 0903 20       		.uleb128 0x20
 1786 0904 01       		.byte	0x1
 1787 0905 50       		.byte	0x50
 1788 0906 02       		.byte	0x2
 1789 0907 75       		.byte	0x75
 1790 0908 00       		.sleb128 0
 1791 0909 00       		.byte	0
 1792 090a 00       		.byte	0
 1793 090b 00       		.byte	0
 1794 090c 22       		.uleb128 0x22
 1795 090d 4A000000 		.4byte	.LVL4
 1796 0911 01       		.byte	0x1
 1797 0912 A00A0000 		.4byte	0xaa0
 1798 0916 00       		.byte	0
 1799 0917 23       		.uleb128 0x23
 1800 0918 01       		.byte	0x1
 1801 0919 BC080000 		.4byte	.LASF176
 1802 091d 01       		.byte	0x1
 1803 091e 2F01     		.2byte	0x12f
 1804 0920 01       		.byte	0x1
 1805 0921 00000000 		.4byte	.LFB119
 1806 0925 1C000000 		.4byte	.LFE119
 1807 0929 3E000000 		.4byte	.LLST2
 1808 092d 01       		.byte	0x1
 1809 092e 43090000 		.4byte	0x943
 1810 0932 24       		.uleb128 0x24
 1811 0933 10000000 		.4byte	.LVL9
 1812 0937 AB0A0000 		.4byte	0xaab
 1813 093b 20       		.uleb128 0x20
 1814 093c 01       		.byte	0x1
 1815 093d 50       		.byte	0x50
 1816 093e 02       		.byte	0x2
ARM GAS  /tmp/ccszSdBy.s 			page 33


 1817 093f 74       		.byte	0x74
 1818 0940 00       		.sleb128 0
 1819 0941 00       		.byte	0
 1820 0942 00       		.byte	0
 1821 0943 23       		.uleb128 0x23
 1822 0944 01       		.byte	0x1
 1823 0945 05020000 		.4byte	.LASF177
 1824 0949 01       		.byte	0x1
 1825 094a 5F01     		.2byte	0x15f
 1826 094c 01       		.byte	0x1
 1827 094d 00000000 		.4byte	.LFB120
 1828 0951 10010000 		.4byte	.LFE120
 1829 0955 5E000000 		.4byte	.LLST3
 1830 0959 01       		.byte	0x1
 1831 095a A4090000 		.4byte	0x9a4
 1832 095e 25       		.uleb128 0x25
 1833 095f 34040000 		.4byte	.LASF180
 1834 0963 01       		.byte	0x1
 1835 0964 5F01     		.2byte	0x15f
 1836 0966 78070000 		.4byte	0x778
 1837 096a 7E000000 		.4byte	.LLST4
 1838 096e 26       		.uleb128 0x26
 1839 096f 70736300 		.ascii	"psc\000"
 1840 0973 01       		.byte	0x1
 1841 0974 6001     		.2byte	0x160
 1842 0976 7B000000 		.4byte	0x7b
 1843 097a D6000000 		.4byte	.LLST5
 1844 097e 27       		.uleb128 0x27
 1845 097f 1B040000 		.4byte	.LASF178
 1846 0983 01       		.byte	0x1
 1847 0984 6101     		.2byte	0x161
 1848 0986 57000000 		.4byte	0x57
 1849 098a 6B010000 		.4byte	.LLST6
 1850 098e 24       		.uleb128 0x24
 1851 098f 00010000 		.4byte	.LVL41
 1852 0993 BF0A0000 		.4byte	0xabf
 1853 0997 20       		.uleb128 0x20
 1854 0998 01       		.byte	0x1
 1855 0999 51       		.byte	0x51
 1856 099a 02       		.byte	0x2
 1857 099b 08       		.byte	0x8
 1858 099c 70       		.byte	0x70
 1859 099d 20       		.uleb128 0x20
 1860 099e 01       		.byte	0x1
 1861 099f 50       		.byte	0x50
 1862 09a0 01       		.byte	0x1
 1863 09a1 4E       		.byte	0x4e
 1864 09a2 00       		.byte	0
 1865 09a3 00       		.byte	0
 1866 09a4 23       		.uleb128 0x23
 1867 09a5 01       		.byte	0x1
 1868 09a6 7F060000 		.4byte	.LASF179
 1869 09aa 01       		.byte	0x1
 1870 09ab 1E02     		.2byte	0x21e
 1871 09ad 01       		.byte	0x1
 1872 09ae 00000000 		.4byte	.LFB121
 1873 09b2 38000000 		.4byte	.LFE121
ARM GAS  /tmp/ccszSdBy.s 			page 34


 1874 09b6 C1010000 		.4byte	.LLST7
 1875 09ba 01       		.byte	0x1
 1876 09bb DF090000 		.4byte	0x9df
 1877 09bf 25       		.uleb128 0x25
 1878 09c0 34040000 		.4byte	.LASF180
 1879 09c4 01       		.byte	0x1
 1880 09c5 1E02     		.2byte	0x21e
 1881 09c7 78070000 		.4byte	0x778
 1882 09cb E1010000 		.4byte	.LLST8
 1883 09cf 24       		.uleb128 0x24
 1884 09d0 20000000 		.4byte	.LVL46
 1885 09d4 D90A0000 		.4byte	0xad9
 1886 09d8 20       		.uleb128 0x20
 1887 09d9 01       		.byte	0x1
 1888 09da 50       		.byte	0x50
 1889 09db 01       		.byte	0x1
 1890 09dc 4E       		.byte	0x4e
 1891 09dd 00       		.byte	0
 1892 09de 00       		.byte	0
 1893 09df 23       		.uleb128 0x23
 1894 09e0 01       		.byte	0x1
 1895 09e1 E1060000 		.4byte	.LASF181
 1896 09e5 01       		.byte	0x1
 1897 09e6 5E02     		.2byte	0x25e
 1898 09e8 01       		.byte	0x1
 1899 09e9 00000000 		.4byte	.LFB122
 1900 09ed 36000000 		.4byte	.LFE122
 1901 09f1 1B020000 		.4byte	.LLST9
 1902 09f5 01       		.byte	0x1
 1903 09f6 450A0000 		.4byte	0xa45
 1904 09fa 25       		.uleb128 0x25
 1905 09fb 34040000 		.4byte	.LASF180
 1906 09ff 01       		.byte	0x1
 1907 0a00 5E02     		.2byte	0x25e
 1908 0a02 78070000 		.4byte	0x778
 1909 0a06 3B020000 		.4byte	.LLST10
 1910 0a0a 25       		.uleb128 0x25
 1911 0a0b 54060000 		.4byte	.LASF182
 1912 0a0f 01       		.byte	0x1
 1913 0a10 5F02     		.2byte	0x25f
 1914 0a12 89070000 		.4byte	0x789
 1915 0a16 5C020000 		.4byte	.LLST11
 1916 0a1a 25       		.uleb128 0x25
 1917 0a1b 99030000 		.4byte	.LASF183
 1918 0a1f 01       		.byte	0x1
 1919 0a20 6002     		.2byte	0x260
 1920 0a22 94070000 		.4byte	0x794
 1921 0a26 7D020000 		.4byte	.LLST12
 1922 0a2a 28       		.uleb128 0x28
 1923 0a2b 18000000 		.4byte	.LBB8
 1924 0a2f 32000000 		.4byte	.LBE8
 1925 0a33 27       		.uleb128 0x27
 1926 0a34 48090000 		.4byte	.LASF184
 1927 0a38 01       		.byte	0x1
 1928 0a39 6602     		.2byte	0x266
 1929 0a3b 7B000000 		.4byte	0x7b
 1930 0a3f 9E020000 		.4byte	.LLST13
ARM GAS  /tmp/ccszSdBy.s 			page 35


 1931 0a43 00       		.byte	0
 1932 0a44 00       		.byte	0
 1933 0a45 29       		.uleb128 0x29
 1934 0a46 01       		.byte	0x1
 1935 0a47 91080000 		.4byte	.LASF185
 1936 0a4b 01       		.byte	0x1
 1937 0a4c 7C02     		.2byte	0x27c
 1938 0a4e 01       		.byte	0x1
 1939 0a4f 00000000 		.4byte	.LFB123
 1940 0a53 20000000 		.4byte	.LFE123
 1941 0a57 02       		.byte	0x2
 1942 0a58 7D       		.byte	0x7d
 1943 0a59 00       		.sleb128 0
 1944 0a5a 01       		.byte	0x1
 1945 0a5b 800A0000 		.4byte	0xa80
 1946 0a5f 25       		.uleb128 0x25
 1947 0a60 34040000 		.4byte	.LASF180
 1948 0a64 01       		.byte	0x1
 1949 0a65 7C02     		.2byte	0x27c
 1950 0a67 78070000 		.4byte	0x778
 1951 0a6b B7020000 		.4byte	.LLST14
 1952 0a6f 25       		.uleb128 0x25
 1953 0a70 54060000 		.4byte	.LASF182
 1954 0a74 01       		.byte	0x1
 1955 0a75 7C02     		.2byte	0x27c
 1956 0a77 89070000 		.4byte	0x789
 1957 0a7b D8020000 		.4byte	.LLST15
 1958 0a7f 00       		.byte	0
 1959 0a80 2A       		.uleb128 0x2a
 1960 0a81 D1050000 		.4byte	.LASF186
 1961 0a85 07       		.byte	0x7
 1962 0a86 1A05     		.2byte	0x51a
 1963 0a88 0E030000 		.4byte	0x30e
 1964 0a8c 01       		.byte	0x1
 1965 0a8d 01       		.byte	0x1
 1966 0a8e 2B       		.uleb128 0x2b
 1967 0a8f C0020000 		.4byte	.LASF187
 1968 0a93 01       		.byte	0x1
 1969 0a94 4A       		.byte	0x4a
 1970 0a95 F7060000 		.4byte	0x6f7
 1971 0a99 01       		.byte	0x1
 1972 0a9a 05       		.byte	0x5
 1973 0a9b 03       		.byte	0x3
 1974 0a9c 00000000 		.4byte	PWMD4
 1975 0aa0 2C       		.uleb128 0x2c
 1976 0aa1 01       		.byte	0x1
 1977 0aa2 33080000 		.4byte	.LASF195
 1978 0aa6 09       		.byte	0x9
 1979 0aa7 F501     		.2byte	0x1f5
 1980 0aa9 01       		.byte	0x1
 1981 0aaa 01       		.byte	0x1
 1982 0aab 2D       		.uleb128 0x2d
 1983 0aac 01       		.byte	0x1
 1984 0aad FD080000 		.4byte	.LASF188
 1985 0ab1 05       		.byte	0x5
 1986 0ab2 E7       		.byte	0xe7
 1987 0ab3 01       		.byte	0x1
ARM GAS  /tmp/ccszSdBy.s 			page 36


 1988 0ab4 01       		.byte	0x1
 1989 0ab5 BF0A0000 		.4byte	0xabf
 1990 0ab9 15       		.uleb128 0x15
 1991 0aba 78070000 		.4byte	0x778
 1992 0abe 00       		.byte	0
 1993 0abf 2E       		.uleb128 0x2e
 1994 0ac0 01       		.byte	0x1
 1995 0ac1 71010000 		.4byte	.LASF189
 1996 0ac5 08       		.byte	0x8
 1997 0ac6 2301     		.2byte	0x123
 1998 0ac8 01       		.byte	0x1
 1999 0ac9 01       		.byte	0x1
 2000 0aca D90A0000 		.4byte	0xad9
 2001 0ace 15       		.uleb128 0x15
 2002 0acf 7B000000 		.4byte	0x7b
 2003 0ad3 15       		.uleb128 0x15
 2004 0ad4 7B000000 		.4byte	0x7b
 2005 0ad8 00       		.byte	0
 2006 0ad9 2F       		.uleb128 0x2f
 2007 0ada 01       		.byte	0x1
 2008 0adb C7060000 		.4byte	.LASF196
 2009 0adf 08       		.byte	0x8
 2010 0ae0 2401     		.2byte	0x124
 2011 0ae2 01       		.byte	0x1
 2012 0ae3 01       		.byte	0x1
 2013 0ae4 15       		.uleb128 0x15
 2014 0ae5 7B000000 		.4byte	0x7b
 2015 0ae9 00       		.byte	0
 2016 0aea 00       		.byte	0
 2017              		.section	.debug_abbrev,"",%progbits
 2018              	.Ldebug_abbrev0:
 2019 0000 01       		.uleb128 0x1
 2020 0001 11       		.uleb128 0x11
 2021 0002 01       		.byte	0x1
 2022 0003 25       		.uleb128 0x25
 2023 0004 0E       		.uleb128 0xe
 2024 0005 13       		.uleb128 0x13
 2025 0006 0B       		.uleb128 0xb
 2026 0007 03       		.uleb128 0x3
 2027 0008 0E       		.uleb128 0xe
 2028 0009 1B       		.uleb128 0x1b
 2029 000a 0E       		.uleb128 0xe
 2030 000b 55       		.uleb128 0x55
 2031 000c 06       		.uleb128 0x6
 2032 000d 11       		.uleb128 0x11
 2033 000e 01       		.uleb128 0x1
 2034 000f 52       		.uleb128 0x52
 2035 0010 01       		.uleb128 0x1
 2036 0011 10       		.uleb128 0x10
 2037 0012 06       		.uleb128 0x6
 2038 0013 00       		.byte	0
 2039 0014 00       		.byte	0
 2040 0015 02       		.uleb128 0x2
 2041 0016 24       		.uleb128 0x24
 2042 0017 00       		.byte	0
 2043 0018 0B       		.uleb128 0xb
 2044 0019 0B       		.uleb128 0xb
ARM GAS  /tmp/ccszSdBy.s 			page 37


 2045 001a 3E       		.uleb128 0x3e
 2046 001b 0B       		.uleb128 0xb
 2047 001c 03       		.uleb128 0x3
 2048 001d 0E       		.uleb128 0xe
 2049 001e 00       		.byte	0
 2050 001f 00       		.byte	0
 2051 0020 03       		.uleb128 0x3
 2052 0021 24       		.uleb128 0x24
 2053 0022 00       		.byte	0
 2054 0023 0B       		.uleb128 0xb
 2055 0024 0B       		.uleb128 0xb
 2056 0025 3E       		.uleb128 0x3e
 2057 0026 0B       		.uleb128 0xb
 2058 0027 03       		.uleb128 0x3
 2059 0028 08       		.uleb128 0x8
 2060 0029 00       		.byte	0
 2061 002a 00       		.byte	0
 2062 002b 04       		.uleb128 0x4
 2063 002c 16       		.uleb128 0x16
 2064 002d 00       		.byte	0
 2065 002e 03       		.uleb128 0x3
 2066 002f 0E       		.uleb128 0xe
 2067 0030 3A       		.uleb128 0x3a
 2068 0031 0B       		.uleb128 0xb
 2069 0032 3B       		.uleb128 0x3b
 2070 0033 0B       		.uleb128 0xb
 2071 0034 49       		.uleb128 0x49
 2072 0035 13       		.uleb128 0x13
 2073 0036 00       		.byte	0
 2074 0037 00       		.byte	0
 2075 0038 05       		.uleb128 0x5
 2076 0039 35       		.uleb128 0x35
 2077 003a 00       		.byte	0
 2078 003b 49       		.uleb128 0x49
 2079 003c 13       		.uleb128 0x13
 2080 003d 00       		.byte	0
 2081 003e 00       		.byte	0
 2082 003f 06       		.uleb128 0x6
 2083 0040 04       		.uleb128 0x4
 2084 0041 01       		.byte	0x1
 2085 0042 03       		.uleb128 0x3
 2086 0043 0E       		.uleb128 0xe
 2087 0044 0B       		.uleb128 0xb
 2088 0045 0B       		.uleb128 0xb
 2089 0046 3A       		.uleb128 0x3a
 2090 0047 0B       		.uleb128 0xb
 2091 0048 3B       		.uleb128 0x3b
 2092 0049 0B       		.uleb128 0xb
 2093 004a 01       		.uleb128 0x1
 2094 004b 13       		.uleb128 0x13
 2095 004c 00       		.byte	0
 2096 004d 00       		.byte	0
 2097 004e 07       		.uleb128 0x7
 2098 004f 28       		.uleb128 0x28
 2099 0050 00       		.byte	0
 2100 0051 03       		.uleb128 0x3
 2101 0052 0E       		.uleb128 0xe
ARM GAS  /tmp/ccszSdBy.s 			page 38


 2102 0053 1C       		.uleb128 0x1c
 2103 0054 0D       		.uleb128 0xd
 2104 0055 00       		.byte	0
 2105 0056 00       		.byte	0
 2106 0057 08       		.uleb128 0x8
 2107 0058 01       		.uleb128 0x1
 2108 0059 01       		.byte	0x1
 2109 005a 49       		.uleb128 0x49
 2110 005b 13       		.uleb128 0x13
 2111 005c 01       		.uleb128 0x1
 2112 005d 13       		.uleb128 0x13
 2113 005e 00       		.byte	0
 2114 005f 00       		.byte	0
 2115 0060 09       		.uleb128 0x9
 2116 0061 21       		.uleb128 0x21
 2117 0062 00       		.byte	0
 2118 0063 49       		.uleb128 0x49
 2119 0064 13       		.uleb128 0x13
 2120 0065 2F       		.uleb128 0x2f
 2121 0066 0B       		.uleb128 0xb
 2122 0067 00       		.byte	0
 2123 0068 00       		.byte	0
 2124 0069 0A       		.uleb128 0xa
 2125 006a 13       		.uleb128 0x13
 2126 006b 01       		.byte	0x1
 2127 006c 0B       		.uleb128 0xb
 2128 006d 0B       		.uleb128 0xb
 2129 006e 3A       		.uleb128 0x3a
 2130 006f 0B       		.uleb128 0xb
 2131 0070 3B       		.uleb128 0x3b
 2132 0071 05       		.uleb128 0x5
 2133 0072 01       		.uleb128 0x1
 2134 0073 13       		.uleb128 0x13
 2135 0074 00       		.byte	0
 2136 0075 00       		.byte	0
 2137 0076 0B       		.uleb128 0xb
 2138 0077 0D       		.uleb128 0xd
 2139 0078 00       		.byte	0
 2140 0079 03       		.uleb128 0x3
 2141 007a 08       		.uleb128 0x8
 2142 007b 3A       		.uleb128 0x3a
 2143 007c 0B       		.uleb128 0xb
 2144 007d 3B       		.uleb128 0x3b
 2145 007e 05       		.uleb128 0x5
 2146 007f 49       		.uleb128 0x49
 2147 0080 13       		.uleb128 0x13
 2148 0081 38       		.uleb128 0x38
 2149 0082 0A       		.uleb128 0xa
 2150 0083 00       		.byte	0
 2151 0084 00       		.byte	0
 2152 0085 0C       		.uleb128 0xc
 2153 0086 0D       		.uleb128 0xd
 2154 0087 00       		.byte	0
 2155 0088 03       		.uleb128 0x3
 2156 0089 0E       		.uleb128 0xe
 2157 008a 3A       		.uleb128 0x3a
 2158 008b 0B       		.uleb128 0xb
ARM GAS  /tmp/ccszSdBy.s 			page 39


 2159 008c 3B       		.uleb128 0x3b
 2160 008d 05       		.uleb128 0x5
 2161 008e 49       		.uleb128 0x49
 2162 008f 13       		.uleb128 0x13
 2163 0090 38       		.uleb128 0x38
 2164 0091 0A       		.uleb128 0xa
 2165 0092 00       		.byte	0
 2166 0093 00       		.byte	0
 2167 0094 0D       		.uleb128 0xd
 2168 0095 16       		.uleb128 0x16
 2169 0096 00       		.byte	0
 2170 0097 03       		.uleb128 0x3
 2171 0098 0E       		.uleb128 0xe
 2172 0099 3A       		.uleb128 0x3a
 2173 009a 0B       		.uleb128 0xb
 2174 009b 3B       		.uleb128 0x3b
 2175 009c 05       		.uleb128 0x5
 2176 009d 49       		.uleb128 0x49
 2177 009e 13       		.uleb128 0x13
 2178 009f 00       		.byte	0
 2179 00a0 00       		.byte	0
 2180 00a1 0E       		.uleb128 0xe
 2181 00a2 13       		.uleb128 0x13
 2182 00a3 01       		.byte	0x1
 2183 00a4 0B       		.uleb128 0xb
 2184 00a5 0B       		.uleb128 0xb
 2185 00a6 3A       		.uleb128 0x3a
 2186 00a7 0B       		.uleb128 0xb
 2187 00a8 3B       		.uleb128 0x3b
 2188 00a9 0B       		.uleb128 0xb
 2189 00aa 01       		.uleb128 0x1
 2190 00ab 13       		.uleb128 0x13
 2191 00ac 00       		.byte	0
 2192 00ad 00       		.byte	0
 2193 00ae 0F       		.uleb128 0xf
 2194 00af 0D       		.uleb128 0xd
 2195 00b0 00       		.byte	0
 2196 00b1 03       		.uleb128 0x3
 2197 00b2 08       		.uleb128 0x8
 2198 00b3 3A       		.uleb128 0x3a
 2199 00b4 0B       		.uleb128 0xb
 2200 00b5 3B       		.uleb128 0x3b
 2201 00b6 0B       		.uleb128 0xb
 2202 00b7 49       		.uleb128 0x49
 2203 00b8 13       		.uleb128 0x13
 2204 00b9 38       		.uleb128 0x38
 2205 00ba 0A       		.uleb128 0xa
 2206 00bb 00       		.byte	0
 2207 00bc 00       		.byte	0
 2208 00bd 10       		.uleb128 0x10
 2209 00be 0D       		.uleb128 0xd
 2210 00bf 00       		.byte	0
 2211 00c0 03       		.uleb128 0x3
 2212 00c1 0E       		.uleb128 0xe
 2213 00c2 3A       		.uleb128 0x3a
 2214 00c3 0B       		.uleb128 0xb
 2215 00c4 3B       		.uleb128 0x3b
ARM GAS  /tmp/ccszSdBy.s 			page 40


 2216 00c5 0B       		.uleb128 0xb
 2217 00c6 49       		.uleb128 0x49
 2218 00c7 13       		.uleb128 0x13
 2219 00c8 38       		.uleb128 0x38
 2220 00c9 0A       		.uleb128 0xa
 2221 00ca 00       		.byte	0
 2222 00cb 00       		.byte	0
 2223 00cc 11       		.uleb128 0x11
 2224 00cd 04       		.uleb128 0x4
 2225 00ce 01       		.byte	0x1
 2226 00cf 0B       		.uleb128 0xb
 2227 00d0 0B       		.uleb128 0xb
 2228 00d1 3A       		.uleb128 0x3a
 2229 00d2 0B       		.uleb128 0xb
 2230 00d3 3B       		.uleb128 0x3b
 2231 00d4 0B       		.uleb128 0xb
 2232 00d5 01       		.uleb128 0x1
 2233 00d6 13       		.uleb128 0x13
 2234 00d7 00       		.byte	0
 2235 00d8 00       		.byte	0
 2236 00d9 12       		.uleb128 0x12
 2237 00da 13       		.uleb128 0x13
 2238 00db 01       		.byte	0x1
 2239 00dc 03       		.uleb128 0x3
 2240 00dd 0E       		.uleb128 0xe
 2241 00de 0B       		.uleb128 0xb
 2242 00df 0B       		.uleb128 0xb
 2243 00e0 3A       		.uleb128 0x3a
 2244 00e1 0B       		.uleb128 0xb
 2245 00e2 3B       		.uleb128 0x3b
 2246 00e3 05       		.uleb128 0x5
 2247 00e4 01       		.uleb128 0x1
 2248 00e5 13       		.uleb128 0x13
 2249 00e6 00       		.byte	0
 2250 00e7 00       		.byte	0
 2251 00e8 13       		.uleb128 0x13
 2252 00e9 0F       		.uleb128 0xf
 2253 00ea 00       		.byte	0
 2254 00eb 0B       		.uleb128 0xb
 2255 00ec 0B       		.uleb128 0xb
 2256 00ed 49       		.uleb128 0x49
 2257 00ee 13       		.uleb128 0x13
 2258 00ef 00       		.byte	0
 2259 00f0 00       		.byte	0
 2260 00f1 14       		.uleb128 0x14
 2261 00f2 15       		.uleb128 0x15
 2262 00f3 01       		.byte	0x1
 2263 00f4 27       		.uleb128 0x27
 2264 00f5 0C       		.uleb128 0xc
 2265 00f6 01       		.uleb128 0x1
 2266 00f7 13       		.uleb128 0x13
 2267 00f8 00       		.byte	0
 2268 00f9 00       		.byte	0
 2269 00fa 15       		.uleb128 0x15
 2270 00fb 05       		.uleb128 0x5
 2271 00fc 00       		.byte	0
 2272 00fd 49       		.uleb128 0x49
ARM GAS  /tmp/ccszSdBy.s 			page 41


 2273 00fe 13       		.uleb128 0x13
 2274 00ff 00       		.byte	0
 2275 0100 00       		.byte	0
 2276 0101 16       		.uleb128 0x16
 2277 0102 26       		.uleb128 0x26
 2278 0103 00       		.byte	0
 2279 0104 49       		.uleb128 0x49
 2280 0105 13       		.uleb128 0x13
 2281 0106 00       		.byte	0
 2282 0107 00       		.byte	0
 2283 0108 17       		.uleb128 0x17
 2284 0109 2E       		.uleb128 0x2e
 2285 010a 01       		.byte	0x1
 2286 010b 03       		.uleb128 0x3
 2287 010c 0E       		.uleb128 0xe
 2288 010d 3A       		.uleb128 0x3a
 2289 010e 0B       		.uleb128 0xb
 2290 010f 3B       		.uleb128 0x3b
 2291 0110 0B       		.uleb128 0xb
 2292 0111 27       		.uleb128 0x27
 2293 0112 0C       		.uleb128 0xc
 2294 0113 20       		.uleb128 0x20
 2295 0114 0B       		.uleb128 0xb
 2296 0115 01       		.uleb128 0x1
 2297 0116 13       		.uleb128 0x13
 2298 0117 00       		.byte	0
 2299 0118 00       		.byte	0
 2300 0119 18       		.uleb128 0x18
 2301 011a 05       		.uleb128 0x5
 2302 011b 00       		.byte	0
 2303 011c 03       		.uleb128 0x3
 2304 011d 0E       		.uleb128 0xe
 2305 011e 3A       		.uleb128 0x3a
 2306 011f 0B       		.uleb128 0xb
 2307 0120 3B       		.uleb128 0x3b
 2308 0121 0B       		.uleb128 0xb
 2309 0122 49       		.uleb128 0x49
 2310 0123 13       		.uleb128 0x13
 2311 0124 00       		.byte	0
 2312 0125 00       		.byte	0
 2313 0126 19       		.uleb128 0x19
 2314 0127 34       		.uleb128 0x34
 2315 0128 00       		.byte	0
 2316 0129 03       		.uleb128 0x3
 2317 012a 08       		.uleb128 0x8
 2318 012b 3A       		.uleb128 0x3a
 2319 012c 0B       		.uleb128 0xb
 2320 012d 3B       		.uleb128 0x3b
 2321 012e 0B       		.uleb128 0xb
 2322 012f 49       		.uleb128 0x49
 2323 0130 13       		.uleb128 0x13
 2324 0131 00       		.byte	0
 2325 0132 00       		.byte	0
 2326 0133 1A       		.uleb128 0x1a
 2327 0134 2E       		.uleb128 0x2e
 2328 0135 01       		.byte	0x1
 2329 0136 3F       		.uleb128 0x3f
ARM GAS  /tmp/ccszSdBy.s 			page 42


 2330 0137 0C       		.uleb128 0xc
 2331 0138 03       		.uleb128 0x3
 2332 0139 0E       		.uleb128 0xe
 2333 013a 3A       		.uleb128 0x3a
 2334 013b 0B       		.uleb128 0xb
 2335 013c 3B       		.uleb128 0x3b
 2336 013d 0B       		.uleb128 0xb
 2337 013e 27       		.uleb128 0x27
 2338 013f 0C       		.uleb128 0xc
 2339 0140 11       		.uleb128 0x11
 2340 0141 01       		.uleb128 0x1
 2341 0142 12       		.uleb128 0x12
 2342 0143 01       		.uleb128 0x1
 2343 0144 40       		.uleb128 0x40
 2344 0145 06       		.uleb128 0x6
 2345 0146 9742     		.uleb128 0x2117
 2346 0148 0C       		.uleb128 0xc
 2347 0149 01       		.uleb128 0x1
 2348 014a 13       		.uleb128 0x13
 2349 014b 00       		.byte	0
 2350 014c 00       		.byte	0
 2351 014d 1B       		.uleb128 0x1b
 2352 014e 1D       		.uleb128 0x1d
 2353 014f 01       		.byte	0x1
 2354 0150 31       		.uleb128 0x31
 2355 0151 13       		.uleb128 0x13
 2356 0152 52       		.uleb128 0x52
 2357 0153 01       		.uleb128 0x1
 2358 0154 55       		.uleb128 0x55
 2359 0155 06       		.uleb128 0x6
 2360 0156 58       		.uleb128 0x58
 2361 0157 0B       		.uleb128 0xb
 2362 0158 59       		.uleb128 0x59
 2363 0159 0B       		.uleb128 0xb
 2364 015a 01       		.uleb128 0x1
 2365 015b 13       		.uleb128 0x13
 2366 015c 00       		.byte	0
 2367 015d 00       		.byte	0
 2368 015e 1C       		.uleb128 0x1c
 2369 015f 0B       		.uleb128 0xb
 2370 0160 01       		.byte	0x1
 2371 0161 55       		.uleb128 0x55
 2372 0162 06       		.uleb128 0x6
 2373 0163 00       		.byte	0
 2374 0164 00       		.byte	0
 2375 0165 1D       		.uleb128 0x1d
 2376 0166 34       		.uleb128 0x34
 2377 0167 00       		.byte	0
 2378 0168 31       		.uleb128 0x31
 2379 0169 13       		.uleb128 0x13
 2380 016a 02       		.uleb128 0x2
 2381 016b 06       		.uleb128 0x6
 2382 016c 00       		.byte	0
 2383 016d 00       		.byte	0
 2384 016e 1E       		.uleb128 0x1e
 2385 016f 05       		.uleb128 0x5
 2386 0170 00       		.byte	0
ARM GAS  /tmp/ccszSdBy.s 			page 43


 2387 0171 31       		.uleb128 0x31
 2388 0172 13       		.uleb128 0x13
 2389 0173 02       		.uleb128 0x2
 2390 0174 0A       		.uleb128 0xa
 2391 0175 00       		.byte	0
 2392 0176 00       		.byte	0
 2393 0177 1F       		.uleb128 0x1f
 2394 0178 898201   		.uleb128 0x4109
 2395 017b 01       		.byte	0x1
 2396 017c 11       		.uleb128 0x11
 2397 017d 01       		.uleb128 0x1
 2398 017e 01       		.uleb128 0x1
 2399 017f 13       		.uleb128 0x13
 2400 0180 00       		.byte	0
 2401 0181 00       		.byte	0
 2402 0182 20       		.uleb128 0x20
 2403 0183 8A8201   		.uleb128 0x410a
 2404 0186 00       		.byte	0
 2405 0187 02       		.uleb128 0x2
 2406 0188 0A       		.uleb128 0xa
 2407 0189 9142     		.uleb128 0x2111
 2408 018b 0A       		.uleb128 0xa
 2409 018c 00       		.byte	0
 2410 018d 00       		.byte	0
 2411 018e 21       		.uleb128 0x21
 2412 018f 898201   		.uleb128 0x4109
 2413 0192 01       		.byte	0x1
 2414 0193 11       		.uleb128 0x11
 2415 0194 01       		.uleb128 0x1
 2416 0195 00       		.byte	0
 2417 0196 00       		.byte	0
 2418 0197 22       		.uleb128 0x22
 2419 0198 898201   		.uleb128 0x4109
 2420 019b 00       		.byte	0
 2421 019c 11       		.uleb128 0x11
 2422 019d 01       		.uleb128 0x1
 2423 019e 9542     		.uleb128 0x2115
 2424 01a0 0C       		.uleb128 0xc
 2425 01a1 31       		.uleb128 0x31
 2426 01a2 13       		.uleb128 0x13
 2427 01a3 00       		.byte	0
 2428 01a4 00       		.byte	0
 2429 01a5 23       		.uleb128 0x23
 2430 01a6 2E       		.uleb128 0x2e
 2431 01a7 01       		.byte	0x1
 2432 01a8 3F       		.uleb128 0x3f
 2433 01a9 0C       		.uleb128 0xc
 2434 01aa 03       		.uleb128 0x3
 2435 01ab 0E       		.uleb128 0xe
 2436 01ac 3A       		.uleb128 0x3a
 2437 01ad 0B       		.uleb128 0xb
 2438 01ae 3B       		.uleb128 0x3b
 2439 01af 05       		.uleb128 0x5
 2440 01b0 27       		.uleb128 0x27
 2441 01b1 0C       		.uleb128 0xc
 2442 01b2 11       		.uleb128 0x11
 2443 01b3 01       		.uleb128 0x1
ARM GAS  /tmp/ccszSdBy.s 			page 44


 2444 01b4 12       		.uleb128 0x12
 2445 01b5 01       		.uleb128 0x1
 2446 01b6 40       		.uleb128 0x40
 2447 01b7 06       		.uleb128 0x6
 2448 01b8 9742     		.uleb128 0x2117
 2449 01ba 0C       		.uleb128 0xc
 2450 01bb 01       		.uleb128 0x1
 2451 01bc 13       		.uleb128 0x13
 2452 01bd 00       		.byte	0
 2453 01be 00       		.byte	0
 2454 01bf 24       		.uleb128 0x24
 2455 01c0 898201   		.uleb128 0x4109
 2456 01c3 01       		.byte	0x1
 2457 01c4 11       		.uleb128 0x11
 2458 01c5 01       		.uleb128 0x1
 2459 01c6 31       		.uleb128 0x31
 2460 01c7 13       		.uleb128 0x13
 2461 01c8 00       		.byte	0
 2462 01c9 00       		.byte	0
 2463 01ca 25       		.uleb128 0x25
 2464 01cb 05       		.uleb128 0x5
 2465 01cc 00       		.byte	0
 2466 01cd 03       		.uleb128 0x3
 2467 01ce 0E       		.uleb128 0xe
 2468 01cf 3A       		.uleb128 0x3a
 2469 01d0 0B       		.uleb128 0xb
 2470 01d1 3B       		.uleb128 0x3b
 2471 01d2 05       		.uleb128 0x5
 2472 01d3 49       		.uleb128 0x49
 2473 01d4 13       		.uleb128 0x13
 2474 01d5 02       		.uleb128 0x2
 2475 01d6 06       		.uleb128 0x6
 2476 01d7 00       		.byte	0
 2477 01d8 00       		.byte	0
 2478 01d9 26       		.uleb128 0x26
 2479 01da 34       		.uleb128 0x34
 2480 01db 00       		.byte	0
 2481 01dc 03       		.uleb128 0x3
 2482 01dd 08       		.uleb128 0x8
 2483 01de 3A       		.uleb128 0x3a
 2484 01df 0B       		.uleb128 0xb
 2485 01e0 3B       		.uleb128 0x3b
 2486 01e1 05       		.uleb128 0x5
 2487 01e2 49       		.uleb128 0x49
 2488 01e3 13       		.uleb128 0x13
 2489 01e4 02       		.uleb128 0x2
 2490 01e5 06       		.uleb128 0x6
 2491 01e6 00       		.byte	0
 2492 01e7 00       		.byte	0
 2493 01e8 27       		.uleb128 0x27
 2494 01e9 34       		.uleb128 0x34
 2495 01ea 00       		.byte	0
 2496 01eb 03       		.uleb128 0x3
 2497 01ec 0E       		.uleb128 0xe
 2498 01ed 3A       		.uleb128 0x3a
 2499 01ee 0B       		.uleb128 0xb
 2500 01ef 3B       		.uleb128 0x3b
ARM GAS  /tmp/ccszSdBy.s 			page 45


 2501 01f0 05       		.uleb128 0x5
 2502 01f1 49       		.uleb128 0x49
 2503 01f2 13       		.uleb128 0x13
 2504 01f3 02       		.uleb128 0x2
 2505 01f4 06       		.uleb128 0x6
 2506 01f5 00       		.byte	0
 2507 01f6 00       		.byte	0
 2508 01f7 28       		.uleb128 0x28
 2509 01f8 0B       		.uleb128 0xb
 2510 01f9 01       		.byte	0x1
 2511 01fa 11       		.uleb128 0x11
 2512 01fb 01       		.uleb128 0x1
 2513 01fc 12       		.uleb128 0x12
 2514 01fd 01       		.uleb128 0x1
 2515 01fe 00       		.byte	0
 2516 01ff 00       		.byte	0
 2517 0200 29       		.uleb128 0x29
 2518 0201 2E       		.uleb128 0x2e
 2519 0202 01       		.byte	0x1
 2520 0203 3F       		.uleb128 0x3f
 2521 0204 0C       		.uleb128 0xc
 2522 0205 03       		.uleb128 0x3
 2523 0206 0E       		.uleb128 0xe
 2524 0207 3A       		.uleb128 0x3a
 2525 0208 0B       		.uleb128 0xb
 2526 0209 3B       		.uleb128 0x3b
 2527 020a 05       		.uleb128 0x5
 2528 020b 27       		.uleb128 0x27
 2529 020c 0C       		.uleb128 0xc
 2530 020d 11       		.uleb128 0x11
 2531 020e 01       		.uleb128 0x1
 2532 020f 12       		.uleb128 0x12
 2533 0210 01       		.uleb128 0x1
 2534 0211 40       		.uleb128 0x40
 2535 0212 0A       		.uleb128 0xa
 2536 0213 9742     		.uleb128 0x2117
 2537 0215 0C       		.uleb128 0xc
 2538 0216 01       		.uleb128 0x1
 2539 0217 13       		.uleb128 0x13
 2540 0218 00       		.byte	0
 2541 0219 00       		.byte	0
 2542 021a 2A       		.uleb128 0x2a
 2543 021b 34       		.uleb128 0x34
 2544 021c 00       		.byte	0
 2545 021d 03       		.uleb128 0x3
 2546 021e 0E       		.uleb128 0xe
 2547 021f 3A       		.uleb128 0x3a
 2548 0220 0B       		.uleb128 0xb
 2549 0221 3B       		.uleb128 0x3b
 2550 0222 05       		.uleb128 0x5
 2551 0223 49       		.uleb128 0x49
 2552 0224 13       		.uleb128 0x13
 2553 0225 3F       		.uleb128 0x3f
 2554 0226 0C       		.uleb128 0xc
 2555 0227 3C       		.uleb128 0x3c
 2556 0228 0C       		.uleb128 0xc
 2557 0229 00       		.byte	0
ARM GAS  /tmp/ccszSdBy.s 			page 46


 2558 022a 00       		.byte	0
 2559 022b 2B       		.uleb128 0x2b
 2560 022c 34       		.uleb128 0x34
 2561 022d 00       		.byte	0
 2562 022e 03       		.uleb128 0x3
 2563 022f 0E       		.uleb128 0xe
 2564 0230 3A       		.uleb128 0x3a
 2565 0231 0B       		.uleb128 0xb
 2566 0232 3B       		.uleb128 0x3b
 2567 0233 0B       		.uleb128 0xb
 2568 0234 49       		.uleb128 0x49
 2569 0235 13       		.uleb128 0x13
 2570 0236 3F       		.uleb128 0x3f
 2571 0237 0C       		.uleb128 0xc
 2572 0238 02       		.uleb128 0x2
 2573 0239 0A       		.uleb128 0xa
 2574 023a 00       		.byte	0
 2575 023b 00       		.byte	0
 2576 023c 2C       		.uleb128 0x2c
 2577 023d 2E       		.uleb128 0x2e
 2578 023e 00       		.byte	0
 2579 023f 3F       		.uleb128 0x3f
 2580 0240 0C       		.uleb128 0xc
 2581 0241 03       		.uleb128 0x3
 2582 0242 0E       		.uleb128 0xe
 2583 0243 3A       		.uleb128 0x3a
 2584 0244 0B       		.uleb128 0xb
 2585 0245 3B       		.uleb128 0x3b
 2586 0246 05       		.uleb128 0x5
 2587 0247 27       		.uleb128 0x27
 2588 0248 0C       		.uleb128 0xc
 2589 0249 3C       		.uleb128 0x3c
 2590 024a 0C       		.uleb128 0xc
 2591 024b 00       		.byte	0
 2592 024c 00       		.byte	0
 2593 024d 2D       		.uleb128 0x2d
 2594 024e 2E       		.uleb128 0x2e
 2595 024f 01       		.byte	0x1
 2596 0250 3F       		.uleb128 0x3f
 2597 0251 0C       		.uleb128 0xc
 2598 0252 03       		.uleb128 0x3
 2599 0253 0E       		.uleb128 0xe
 2600 0254 3A       		.uleb128 0x3a
 2601 0255 0B       		.uleb128 0xb
 2602 0256 3B       		.uleb128 0x3b
 2603 0257 0B       		.uleb128 0xb
 2604 0258 27       		.uleb128 0x27
 2605 0259 0C       		.uleb128 0xc
 2606 025a 3C       		.uleb128 0x3c
 2607 025b 0C       		.uleb128 0xc
 2608 025c 01       		.uleb128 0x1
 2609 025d 13       		.uleb128 0x13
 2610 025e 00       		.byte	0
 2611 025f 00       		.byte	0
 2612 0260 2E       		.uleb128 0x2e
 2613 0261 2E       		.uleb128 0x2e
 2614 0262 01       		.byte	0x1
ARM GAS  /tmp/ccszSdBy.s 			page 47


 2615 0263 3F       		.uleb128 0x3f
 2616 0264 0C       		.uleb128 0xc
 2617 0265 03       		.uleb128 0x3
 2618 0266 0E       		.uleb128 0xe
 2619 0267 3A       		.uleb128 0x3a
 2620 0268 0B       		.uleb128 0xb
 2621 0269 3B       		.uleb128 0x3b
 2622 026a 05       		.uleb128 0x5
 2623 026b 27       		.uleb128 0x27
 2624 026c 0C       		.uleb128 0xc
 2625 026d 3C       		.uleb128 0x3c
 2626 026e 0C       		.uleb128 0xc
 2627 026f 01       		.uleb128 0x1
 2628 0270 13       		.uleb128 0x13
 2629 0271 00       		.byte	0
 2630 0272 00       		.byte	0
 2631 0273 2F       		.uleb128 0x2f
 2632 0274 2E       		.uleb128 0x2e
 2633 0275 01       		.byte	0x1
 2634 0276 3F       		.uleb128 0x3f
 2635 0277 0C       		.uleb128 0xc
 2636 0278 03       		.uleb128 0x3
 2637 0279 0E       		.uleb128 0xe
 2638 027a 3A       		.uleb128 0x3a
 2639 027b 0B       		.uleb128 0xb
 2640 027c 3B       		.uleb128 0x3b
 2641 027d 05       		.uleb128 0x5
 2642 027e 27       		.uleb128 0x27
 2643 027f 0C       		.uleb128 0xc
 2644 0280 3C       		.uleb128 0x3c
 2645 0281 0C       		.uleb128 0xc
 2646 0282 00       		.byte	0
 2647 0283 00       		.byte	0
 2648 0284 00       		.byte	0
 2649              		.section	.debug_loc,"",%progbits
 2650              	.Ldebug_loc0:
 2651              	.LLST0:
 2652 0000 00000000 		.4byte	.LFB118
 2653 0004 02000000 		.4byte	.LCFI0
 2654 0008 0200     		.2byte	0x2
 2655 000a 7D       		.byte	0x7d
 2656 000b 00       		.sleb128 0
 2657 000c 02000000 		.4byte	.LCFI0
 2658 0010 78000000 		.4byte	.LFE118
 2659 0014 0200     		.2byte	0x2
 2660 0016 7D       		.byte	0x7d
 2661 0017 10       		.sleb128 16
 2662 0018 00000000 		.4byte	0
 2663 001c 00000000 		.4byte	0
 2664              	.LLST1:
 2665 0020 08000000 		.4byte	.LVL1
 2666 0024 0E000000 		.4byte	.LVL2
 2667 0028 0100     		.2byte	0x1
 2668 002a 52       		.byte	0x52
 2669 002b 0E000000 		.4byte	.LVL2
 2670 002f 78000000 		.4byte	.LFE118
 2671 0033 0100     		.2byte	0x1
ARM GAS  /tmp/ccszSdBy.s 			page 48


 2672 0035 54       		.byte	0x54
 2673 0036 00000000 		.4byte	0
 2674 003a 00000000 		.4byte	0
 2675              	.LLST2:
 2676 003e 00000000 		.4byte	.LFB119
 2677 0042 02000000 		.4byte	.LCFI1
 2678 0046 0200     		.2byte	0x2
 2679 0048 7D       		.byte	0x7d
 2680 0049 00       		.sleb128 0
 2681 004a 02000000 		.4byte	.LCFI1
 2682 004e 1C000000 		.4byte	.LFE119
 2683 0052 0200     		.2byte	0x2
 2684 0054 7D       		.byte	0x7d
 2685 0055 08       		.sleb128 8
 2686 0056 00000000 		.4byte	0
 2687 005a 00000000 		.4byte	0
 2688              	.LLST3:
 2689 005e 00000000 		.4byte	.LFB120
 2690 0062 06000000 		.4byte	.LCFI2
 2691 0066 0200     		.2byte	0x2
 2692 0068 7D       		.byte	0x7d
 2693 0069 00       		.sleb128 0
 2694 006a 06000000 		.4byte	.LCFI2
 2695 006e 10010000 		.4byte	.LFE120
 2696 0072 0200     		.2byte	0x2
 2697 0074 7D       		.byte	0x7d
 2698 0075 10       		.sleb128 16
 2699 0076 00000000 		.4byte	0
 2700 007a 00000000 		.4byte	0
 2701              	.LLST4:
 2702 007e 00000000 		.4byte	.LVL10
 2703 0082 1E000000 		.4byte	.LVL11
 2704 0086 0100     		.2byte	0x1
 2705 0088 50       		.byte	0x50
 2706 0089 1E000000 		.4byte	.LVL11
 2707 008d 2A000000 		.4byte	.LVL13
 2708 0091 0100     		.2byte	0x1
 2709 0093 54       		.byte	0x54
 2710 0094 2A000000 		.4byte	.LVL13
 2711 0098 CA000000 		.4byte	.LVL37
 2712 009c 0400     		.2byte	0x4
 2713 009e F3       		.byte	0xf3
 2714 009f 01       		.uleb128 0x1
 2715 00a0 50       		.byte	0x50
 2716 00a1 9F       		.byte	0x9f
 2717 00a2 CA000000 		.4byte	.LVL37
 2718 00a6 D0000000 		.4byte	.LVL38
 2719 00aa 0100     		.2byte	0x1
 2720 00ac 50       		.byte	0x50
 2721 00ad D0000000 		.4byte	.LVL38
 2722 00b1 DC000000 		.4byte	.LVL39
 2723 00b5 0100     		.2byte	0x1
 2724 00b7 54       		.byte	0x54
 2725 00b8 DC000000 		.4byte	.LVL39
 2726 00bc E6000000 		.4byte	.LVL40
 2727 00c0 0100     		.2byte	0x1
 2728 00c2 50       		.byte	0x50
ARM GAS  /tmp/ccszSdBy.s 			page 49


 2729 00c3 E6000000 		.4byte	.LVL40
 2730 00c7 10010000 		.4byte	.LFE120
 2731 00cb 0100     		.2byte	0x1
 2732 00cd 54       		.byte	0x54
 2733 00ce 00000000 		.4byte	0
 2734 00d2 00000000 		.4byte	0
 2735              	.LLST5:
 2736 00d6 20000000 		.4byte	.LVL12
 2737 00da 2A000000 		.4byte	.LVL13
 2738 00de 1000     		.2byte	0x10
 2739 00e0 74       		.byte	0x74
 2740 00e1 0C       		.sleb128 12
 2741 00e2 06       		.byte	0x6
 2742 00e3 F7       		.byte	0xf7
 2743 00e4 29       		.uleb128 0x29
 2744 00e5 71       		.byte	0x71
 2745 00e6 00       		.sleb128 0
 2746 00e7 06       		.byte	0x6
 2747 00e8 F7       		.byte	0xf7
 2748 00e9 29       		.uleb128 0x29
 2749 00ea 1B       		.byte	0x1b
 2750 00eb F7       		.byte	0xf7
 2751 00ec 00       		.uleb128 0
 2752 00ed 31       		.byte	0x31
 2753 00ee 1C       		.byte	0x1c
 2754 00ef 9F       		.byte	0x9f
 2755 00f0 2A000000 		.4byte	.LVL13
 2756 00f4 30000000 		.4byte	.LVL14
 2757 00f8 0F00     		.2byte	0xf
 2758 00fa 76       		.byte	0x76
 2759 00fb 00       		.sleb128 0
 2760 00fc F7       		.byte	0xf7
 2761 00fd 29       		.uleb128 0x29
 2762 00fe 71       		.byte	0x71
 2763 00ff 00       		.sleb128 0
 2764 0100 06       		.byte	0x6
 2765 0101 F7       		.byte	0xf7
 2766 0102 29       		.uleb128 0x29
 2767 0103 1B       		.byte	0x1b
 2768 0104 F7       		.byte	0xf7
 2769 0105 00       		.uleb128 0
 2770 0106 31       		.byte	0x31
 2771 0107 1C       		.byte	0x1c
 2772 0108 9F       		.byte	0x9f
 2773 0109 30000000 		.4byte	.LVL14
 2774 010d 38000000 		.4byte	.LVL15
 2775 0111 0100     		.2byte	0x1
 2776 0113 50       		.byte	0x50
 2777 0114 38000000 		.4byte	.LVL15
 2778 0118 78000000 		.4byte	.LVL22
 2779 011c 0F00     		.2byte	0xf
 2780 011e 76       		.byte	0x76
 2781 011f 00       		.sleb128 0
 2782 0120 F7       		.byte	0xf7
 2783 0121 29       		.uleb128 0x29
 2784 0122 71       		.byte	0x71
 2785 0123 00       		.sleb128 0
ARM GAS  /tmp/ccszSdBy.s 			page 50


 2786 0124 06       		.byte	0x6
 2787 0125 F7       		.byte	0xf7
 2788 0126 29       		.uleb128 0x29
 2789 0127 1B       		.byte	0x1b
 2790 0128 F7       		.byte	0xf7
 2791 0129 00       		.uleb128 0
 2792 012a 31       		.byte	0x31
 2793 012b 1C       		.byte	0x1c
 2794 012c 9F       		.byte	0x9f
 2795 012d 78000000 		.4byte	.LVL22
 2796 0131 90000000 		.4byte	.LVL24
 2797 0135 1300     		.2byte	0x13
 2798 0137 76       		.byte	0x76
 2799 0138 00       		.sleb128 0
 2800 0139 F7       		.byte	0xf7
 2801 013a 29       		.uleb128 0x29
 2802 013b F3       		.byte	0xf3
 2803 013c 01       		.uleb128 0x1
 2804 013d 50       		.byte	0x50
 2805 013e 23       		.byte	0x23
 2806 013f 04       		.uleb128 0x4
 2807 0140 06       		.byte	0x6
 2808 0141 06       		.byte	0x6
 2809 0142 F7       		.byte	0xf7
 2810 0143 29       		.uleb128 0x29
 2811 0144 1B       		.byte	0x1b
 2812 0145 F7       		.byte	0xf7
 2813 0146 00       		.uleb128 0
 2814 0147 31       		.byte	0x31
 2815 0148 1C       		.byte	0x1c
 2816 0149 9F       		.byte	0x9f
 2817 014a 90000000 		.4byte	.LVL24
 2818 014e CA000000 		.4byte	.LVL37
 2819 0152 0F00     		.2byte	0xf
 2820 0154 76       		.byte	0x76
 2821 0155 00       		.sleb128 0
 2822 0156 F7       		.byte	0xf7
 2823 0157 29       		.uleb128 0x29
 2824 0158 71       		.byte	0x71
 2825 0159 00       		.sleb128 0
 2826 015a 06       		.byte	0x6
 2827 015b F7       		.byte	0xf7
 2828 015c 29       		.uleb128 0x29
 2829 015d 1B       		.byte	0x1b
 2830 015e F7       		.byte	0xf7
 2831 015f 00       		.uleb128 0
 2832 0160 31       		.byte	0x31
 2833 0161 1C       		.byte	0x1c
 2834 0162 9F       		.byte	0x9f
 2835 0163 00000000 		.4byte	0
 2836 0167 00000000 		.4byte	0
 2837              	.LLST6:
 2838 016b 42000000 		.4byte	.LVL16
 2839 016f 4C000000 		.4byte	.LVL17
 2840 0173 0200     		.2byte	0x2
 2841 0175 30       		.byte	0x30
 2842 0176 9F       		.byte	0x9f
ARM GAS  /tmp/ccszSdBy.s 			page 51


 2843 0177 4C000000 		.4byte	.LVL17
 2844 017b 64000000 		.4byte	.LVL18
 2845 017f 0100     		.2byte	0x1
 2846 0181 52       		.byte	0x52
 2847 0182 68000000 		.4byte	.LVL19
 2848 0186 72000000 		.4byte	.LVL20
 2849 018a 0100     		.2byte	0x1
 2850 018c 52       		.byte	0x52
 2851 018d 76000000 		.4byte	.LVL21
 2852 0191 7C000000 		.4byte	.LVL23
 2853 0195 0100     		.2byte	0x1
 2854 0197 52       		.byte	0x52
 2855 0198 90000000 		.4byte	.LVL24
 2856 019c B6000000 		.4byte	.LVL31
 2857 01a0 0100     		.2byte	0x1
 2858 01a2 52       		.byte	0x52
 2859 01a3 BA000000 		.4byte	.LVL32
 2860 01a7 C0000000 		.4byte	.LVL34
 2861 01ab 0100     		.2byte	0x1
 2862 01ad 52       		.byte	0x52
 2863 01ae C4000000 		.4byte	.LVL35
 2864 01b2 CA000000 		.4byte	.LVL37
 2865 01b6 0100     		.2byte	0x1
 2866 01b8 52       		.byte	0x52
 2867 01b9 00000000 		.4byte	0
 2868 01bd 00000000 		.4byte	0
 2869              	.LLST7:
 2870 01c1 00000000 		.4byte	.LFB121
 2871 01c5 02000000 		.4byte	.LCFI3
 2872 01c9 0200     		.2byte	0x2
 2873 01cb 7D       		.byte	0x7d
 2874 01cc 00       		.sleb128 0
 2875 01cd 02000000 		.4byte	.LCFI3
 2876 01d1 38000000 		.4byte	.LFE121
 2877 01d5 0200     		.2byte	0x2
 2878 01d7 7D       		.byte	0x7d
 2879 01d8 08       		.sleb128 8
 2880 01d9 00000000 		.4byte	0
 2881 01dd 00000000 		.4byte	0
 2882              	.LLST8:
 2883 01e1 00000000 		.4byte	.LVL42
 2884 01e5 08000000 		.4byte	.LVL43
 2885 01e9 0100     		.2byte	0x1
 2886 01eb 50       		.byte	0x50
 2887 01ec 08000000 		.4byte	.LVL43
 2888 01f0 0A000000 		.4byte	.LVL44
 2889 01f4 0400     		.2byte	0x4
 2890 01f6 F3       		.byte	0xf3
 2891 01f7 01       		.uleb128 0x1
 2892 01f8 50       		.byte	0x50
 2893 01f9 9F       		.byte	0x9f
 2894 01fa 0A000000 		.4byte	.LVL44
 2895 01fe 1C000000 		.4byte	.LVL45
 2896 0202 0100     		.2byte	0x1
 2897 0204 50       		.byte	0x50
 2898 0205 1C000000 		.4byte	.LVL45
 2899 0209 38000000 		.4byte	.LFE121
ARM GAS  /tmp/ccszSdBy.s 			page 52


 2900 020d 0400     		.2byte	0x4
 2901 020f F3       		.byte	0xf3
 2902 0210 01       		.uleb128 0x1
 2903 0211 50       		.byte	0x50
 2904 0212 9F       		.byte	0x9f
 2905 0213 00000000 		.4byte	0
 2906 0217 00000000 		.4byte	0
 2907              	.LLST9:
 2908 021b 00000000 		.4byte	.LFB122
 2909 021f 02000000 		.4byte	.LCFI4
 2910 0223 0200     		.2byte	0x2
 2911 0225 7D       		.byte	0x7d
 2912 0226 00       		.sleb128 0
 2913 0227 02000000 		.4byte	.LCFI4
 2914 022b 36000000 		.4byte	.LFE122
 2915 022f 0200     		.2byte	0x2
 2916 0231 7D       		.byte	0x7d
 2917 0232 04       		.sleb128 4
 2918 0233 00000000 		.4byte	0
 2919 0237 00000000 		.4byte	0
 2920              	.LLST10:
 2921 023b 00000000 		.4byte	.LVL47
 2922 023f 0A000000 		.4byte	.LVL48
 2923 0243 0100     		.2byte	0x1
 2924 0245 50       		.byte	0x50
 2925 0246 0A000000 		.4byte	.LVL48
 2926 024a 36000000 		.4byte	.LFE122
 2927 024e 0400     		.2byte	0x4
 2928 0250 F3       		.byte	0xf3
 2929 0251 01       		.uleb128 0x1
 2930 0252 50       		.byte	0x50
 2931 0253 9F       		.byte	0x9f
 2932 0254 00000000 		.4byte	0
 2933 0258 00000000 		.4byte	0
 2934              	.LLST11:
 2935 025c 00000000 		.4byte	.LVL47
 2936 0260 22000000 		.4byte	.LVL51
 2937 0264 0100     		.2byte	0x1
 2938 0266 51       		.byte	0x51
 2939 0267 22000000 		.4byte	.LVL51
 2940 026b 36000000 		.4byte	.LFE122
 2941 026f 0400     		.2byte	0x4
 2942 0271 F3       		.byte	0xf3
 2943 0272 01       		.uleb128 0x1
 2944 0273 51       		.byte	0x51
 2945 0274 9F       		.byte	0x9f
 2946 0275 00000000 		.4byte	0
 2947 0279 00000000 		.4byte	0
 2948              	.LLST12:
 2949 027d 00000000 		.4byte	.LVL47
 2950 0281 1A000000 		.4byte	.LVL49
 2951 0285 0100     		.2byte	0x1
 2952 0287 52       		.byte	0x52
 2953 0288 1A000000 		.4byte	.LVL49
 2954 028c 36000000 		.4byte	.LFE122
 2955 0290 0400     		.2byte	0x4
 2956 0292 F3       		.byte	0xf3
ARM GAS  /tmp/ccszSdBy.s 			page 53


 2957 0293 01       		.uleb128 0x1
 2958 0294 52       		.byte	0x52
 2959 0295 9F       		.byte	0x9f
 2960 0296 00000000 		.4byte	0
 2961 029a 00000000 		.4byte	0
 2962              	.LLST13:
 2963 029e 1E000000 		.4byte	.LVL50
 2964 02a2 32000000 		.4byte	.LVL52
 2965 02a6 0700     		.2byte	0x7
 2966 02a8 72       		.byte	0x72
 2967 02a9 00       		.sleb128 0
 2968 02aa 0A       		.byte	0xa
 2969 02ab FFFF     		.2byte	0xffff
 2970 02ad 1A       		.byte	0x1a
 2971 02ae 9F       		.byte	0x9f
 2972 02af 00000000 		.4byte	0
 2973 02b3 00000000 		.4byte	0
 2974              	.LLST14:
 2975 02b7 00000000 		.4byte	.LVL53
 2976 02bb 0C000000 		.4byte	.LVL54
 2977 02bf 0100     		.2byte	0x1
 2978 02c1 50       		.byte	0x50
 2979 02c2 0C000000 		.4byte	.LVL54
 2980 02c6 20000000 		.4byte	.LFE123
 2981 02ca 0400     		.2byte	0x4
 2982 02cc F3       		.byte	0xf3
 2983 02cd 01       		.uleb128 0x1
 2984 02ce 50       		.byte	0x50
 2985 02cf 9F       		.byte	0x9f
 2986 02d0 00000000 		.4byte	0
 2987 02d4 00000000 		.4byte	0
 2988              	.LLST15:
 2989 02d8 00000000 		.4byte	.LVL53
 2990 02dc 18000000 		.4byte	.LVL55
 2991 02e0 0100     		.2byte	0x1
 2992 02e2 51       		.byte	0x51
 2993 02e3 18000000 		.4byte	.LVL55
 2994 02e7 20000000 		.4byte	.LFE123
 2995 02eb 0400     		.2byte	0x4
 2996 02ed F3       		.byte	0xf3
 2997 02ee 01       		.uleb128 0x1
 2998 02ef 51       		.byte	0x51
 2999 02f0 9F       		.byte	0x9f
 3000 02f1 00000000 		.4byte	0
 3001 02f5 00000000 		.4byte	0
 3002              		.section	.debug_aranges,"",%progbits
 3003 0000 44000000 		.4byte	0x44
 3004 0004 0200     		.2byte	0x2
 3005 0006 00000000 		.4byte	.Ldebug_info0
 3006 000a 04       		.byte	0x4
 3007 000b 00       		.byte	0
 3008 000c 0000     		.2byte	0
 3009 000e 0000     		.2byte	0
 3010 0010 00000000 		.4byte	.LFB118
 3011 0014 78000000 		.4byte	.LFE118-.LFB118
 3012 0018 00000000 		.4byte	.LFB119
 3013 001c 1C000000 		.4byte	.LFE119-.LFB119
ARM GAS  /tmp/ccszSdBy.s 			page 54


 3014 0020 00000000 		.4byte	.LFB120
 3015 0024 10010000 		.4byte	.LFE120-.LFB120
 3016 0028 00000000 		.4byte	.LFB121
 3017 002c 38000000 		.4byte	.LFE121-.LFB121
 3018 0030 00000000 		.4byte	.LFB122
 3019 0034 36000000 		.4byte	.LFE122-.LFB122
 3020 0038 00000000 		.4byte	.LFB123
 3021 003c 20000000 		.4byte	.LFE123-.LFB123
 3022 0040 00000000 		.4byte	0
 3023 0044 00000000 		.4byte	0
 3024              		.section	.debug_ranges,"",%progbits
 3025              	.Ldebug_ranges0:
 3026 0000 02000000 		.4byte	.LBB4
 3027 0004 42000000 		.4byte	.LBE4
 3028 0008 4A000000 		.4byte	.LBB7
 3029 000c 78000000 		.4byte	.LBE7
 3030 0010 00000000 		.4byte	0
 3031 0014 00000000 		.4byte	0
 3032 0018 02000000 		.4byte	.LBB5
 3033 001c 42000000 		.4byte	.LBE5
 3034 0020 4A000000 		.4byte	.LBB6
 3035 0024 78000000 		.4byte	.LBE6
 3036 0028 00000000 		.4byte	0
 3037 002c 00000000 		.4byte	0
 3038 0030 00000000 		.4byte	.LFB118
 3039 0034 78000000 		.4byte	.LFE118
 3040 0038 00000000 		.4byte	.LFB119
 3041 003c 1C000000 		.4byte	.LFE119
 3042 0040 00000000 		.4byte	.LFB120
 3043 0044 10010000 		.4byte	.LFE120
 3044 0048 00000000 		.4byte	.LFB121
 3045 004c 38000000 		.4byte	.LFE121
 3046 0050 00000000 		.4byte	.LFB122
 3047 0054 36000000 		.4byte	.LFE122
 3048 0058 00000000 		.4byte	.LFB123
 3049 005c 20000000 		.4byte	.LFE123
 3050 0060 00000000 		.4byte	0
 3051 0064 00000000 		.4byte	0
 3052              		.section	.debug_line,"",%progbits
 3053              	.Ldebug_line0:
 3054 0000 9A020000 		.section	.debug_str,"MS",%progbits,1
 3054      0200A601 
 3054      00000201 
 3054      FB0E0D00 
 3054      01010101 
 3055              	.LASF167:
 3056 0000 70776D63 		.ascii	"pwmchannel_t\000"
 3056      68616E6E 
 3056      656C5F74 
 3056      00
 3057              	.LASF125:
 3058 000d 41504231 		.ascii	"APB1LPENR\000"
 3058      4C50454E 
 3058      5200
 3059              	.LASF43:
 3060 0017 43414E31 		.ascii	"CAN1_RX0_IRQn\000"
 3060      5F525830 
ARM GAS  /tmp/ccszSdBy.s 			page 55


 3060      5F495251 
 3060      6E00
 3061              	.LASF24:
 3062 0025 5056445F 		.ascii	"PVD_IRQn\000"
 3062      4952516E 
 3062      00
 3063              	.LASF87:
 3064 002e 43414E32 		.ascii	"CAN2_RX0_IRQn\000"
 3064      5F525830 
 3064      5F495251 
 3064      6E00
 3065              	.LASF69:
 3066 003c 54494D38 		.ascii	"TIM8_CC_IRQn\000"
 3066      5F43435F 
 3066      4952516E 
 3066      00
 3067              	.LASF191:
 3068 0049 2E2F6F73 		.ascii	"./os/hal/platforms/STM32/pwm_lld.c\000"
 3068      2F68616C 
 3068      2F706C61 
 3068      74666F72 
 3068      6D732F53 
 3069              	.LASF96:
 3070 006c 49324333 		.ascii	"I2C3_ER_IRQn\000"
 3070      5F45525F 
 3070      4952516E 
 3070      00
 3071              	.LASF133:
 3072 0079 5F726573 		.ascii	"_resvd0\000"
 3072      76643000 
 3073              	.LASF134:
 3074 0081 5F726573 		.ascii	"_resvd1\000"
 3074      76643100 
 3075              	.LASF54:
 3076 0089 49324331 		.ascii	"I2C1_EV_IRQn\000"
 3076      5F45565F 
 3076      4952516E 
 3076      00
 3077              	.LASF138:
 3078 0096 5F726573 		.ascii	"_resvd3\000"
 3078      76643300 
 3079              	.LASF139:
 3080 009e 5F726573 		.ascii	"_resvd4\000"
 3080      76643400 
 3081              	.LASF140:
 3082 00a6 5F726573 		.ascii	"_resvd5\000"
 3082      76643500 
 3083              	.LASF142:
 3084 00ae 5F726573 		.ascii	"_resvd6\000"
 3084      76643600 
 3085              	.LASF144:
 3086 00b6 5F726573 		.ascii	"_resvd7\000"
 3086      76643700 
 3087              	.LASF146:
 3088 00be 5F726573 		.ascii	"_resvd8\000"
 3088      76643800 
 3089              	.LASF147:
ARM GAS  /tmp/ccszSdBy.s 			page 56


 3090 00c6 5F726573 		.ascii	"_resvd9\000"
 3090      76643900 
 3091              	.LASF163:
 3092 00ce 70657269 		.ascii	"period\000"
 3092      6F6400
 3093              	.LASF150:
 3094 00d5 5F726573 		.ascii	"_resvd11\000"
 3094      76643131 
 3094      00
 3095              	.LASF151:
 3096 00de 5F726573 		.ascii	"_resvd12\000"
 3096      76643132 
 3096      00
 3097              	.LASF44:
 3098 00e7 43414E31 		.ascii	"CAN1_RX1_IRQn\000"
 3098      5F525831 
 3098      5F495251 
 3098      6E00
 3099              	.LASF153:
 3100 00f5 5F726573 		.ascii	"_resvd13\000"
 3100      76643133 
 3100      00
 3101              	.LASF12:
 3102 00fe 6C6F6E67 		.ascii	"long long unsigned int\000"
 3102      206C6F6E 
 3102      6720756E 
 3102      7369676E 
 3102      65642069 
 3103              	.LASF64:
 3104 0115 5254435F 		.ascii	"RTC_Alarm_IRQn\000"
 3104      416C6172 
 3104      6D5F4952 
 3104      516E00
 3105              	.LASF57:
 3106 0124 49324332 		.ascii	"I2C2_ER_IRQn\000"
 3106      5F45525F 
 3106      4952516E 
 3106      00
 3107              	.LASF53:
 3108 0131 54494D34 		.ascii	"TIM4_IRQn\000"
 3108      5F495251 
 3108      6E00
 3109              	.LASF26:
 3110 013b 5254435F 		.ascii	"RTC_WKUP_IRQn\000"
 3110      574B5550 
 3110      5F495251 
 3110      6E00
 3111              	.LASF23:
 3112 0149 57574447 		.ascii	"WWDG_IRQn\000"
 3112      5F495251 
 3112      6E00
 3113              	.LASF172:
 3114 0153 66726571 		.ascii	"frequency\000"
 3114      75656E63 
 3114      7900
 3115              	.LASF121:
 3116 015d 41484231 		.ascii	"AHB1LPENR\000"
ARM GAS  /tmp/ccszSdBy.s 			page 57


 3116      4C50454E 
 3116      5200
 3117              	.LASF158:
 3118 0167 50574D5F 		.ascii	"PWM_READY\000"
 3118      52454144 
 3118      5900
 3119              	.LASF189:
 3120 0171 6E766963 		.ascii	"nvicEnableVector\000"
 3120      456E6162 
 3120      6C655665 
 3120      63746F72 
 3120      00
 3121              	.LASF141:
 3122 0182 43434D52 		.ascii	"CCMR1\000"
 3122      3100
 3123              	.LASF143:
 3124 0188 43434D52 		.ascii	"CCMR2\000"
 3124      3200
 3125              	.LASF11:
 3126 018e 6C6F6E67 		.ascii	"long long int\000"
 3126      206C6F6E 
 3126      6720696E 
 3126      7400
 3127              	.LASF1:
 3128 019c 7369676E 		.ascii	"signed char\000"
 3128      65642063 
 3128      68617200 
 3129              	.LASF88:
 3130 01a8 43414E32 		.ascii	"CAN2_RX1_IRQn\000"
 3130      5F525831 
 3130      5F495251 
 3130      6E00
 3131              	.LASF107:
 3132 01b6 41484231 		.ascii	"AHB1RSTR\000"
 3132      52535452 
 3132      00
 3133              	.LASF166:
 3134 01bf 70776D6D 		.ascii	"pwmmode_t\000"
 3134      6F64655F 
 3134      7400
 3135              	.LASF92:
 3136 01c9 444D4132 		.ascii	"DMA2_Stream6_IRQn\000"
 3136      5F537472 
 3136      65616D36 
 3136      5F495251 
 3136      6E00
 3137              	.LASF148:
 3138 01db 5F726573 		.ascii	"_resvd10\000"
 3138      76643130 
 3138      00
 3139              	.LASF161:
 3140 01e4 73746174 		.ascii	"state\000"
 3140      6500
 3141              	.LASF173:
 3142 01ea 6368616E 		.ascii	"channels\000"
 3142      6E656C73 
 3142      00
ARM GAS  /tmp/ccszSdBy.s 			page 58


 3143              	.LASF8:
 3144 01f3 6C6F6E67 		.ascii	"long int\000"
 3144      20696E74 
 3144      00
 3145              	.LASF154:
 3146 01fc 5F726573 		.ascii	"_resvd14\000"
 3146      76643134 
 3146      00
 3147              	.LASF177:
 3148 0205 70776D5F 		.ascii	"pwm_lld_start\000"
 3148      6C6C645F 
 3148      73746172 
 3148      7400
 3149              	.LASF112:
 3150 0213 41504232 		.ascii	"APB2RSTR\000"
 3150      52535452 
 3150      00
 3151              	.LASF39:
 3152 021c 444D4131 		.ascii	"DMA1_Stream5_IRQn\000"
 3152      5F537472 
 3152      65616D35 
 3152      5F495251 
 3152      6E00
 3153              	.LASF46:
 3154 022e 45585449 		.ascii	"EXTI9_5_IRQn\000"
 3154      395F355F 
 3154      4952516E 
 3154      00
 3155              	.LASF145:
 3156 023b 43434552 		.ascii	"CCER\000"
 3156      00
 3157              	.LASF85:
 3158 0240 4554485F 		.ascii	"ETH_WKUP_IRQn\000"
 3158      574B5550 
 3158      5F495251 
 3158      6E00
 3159              	.LASF5:
 3160 024e 75696E74 		.ascii	"uint16_t\000"
 3160      31365F74 
 3160      00
 3161              	.LASF70:
 3162 0257 444D4131 		.ascii	"DMA1_Stream7_IRQn\000"
 3162      5F537472 
 3162      65616D37 
 3162      5F495251 
 3162      6E00
 3163              	.LASF77:
 3164 0269 54494D36 		.ascii	"TIM6_DAC_IRQn\000"
 3164      5F444143 
 3164      5F495251 
 3164      6E00
 3165              	.LASF105:
 3166 0277 504C4C43 		.ascii	"PLLCFGR\000"
 3166      46475200 
 3167              	.LASF75:
 3168 027f 55415254 		.ascii	"UART4_IRQn\000"
 3168      345F4952 
ARM GAS  /tmp/ccszSdBy.s 			page 59


 3168      516E00
 3169              	.LASF65:
 3170 028a 4F54475F 		.ascii	"OTG_FS_WKUP_IRQn\000"
 3170      46535F57 
 3170      4B55505F 
 3170      4952516E 
 3170      00
 3171              	.LASF91:
 3172 029b 444D4132 		.ascii	"DMA2_Stream5_IRQn\000"
 3172      5F537472 
 3172      65616D35 
 3172      5F495251 
 3172      6E00
 3173              	.LASF67:
 3174 02ad 54494D38 		.ascii	"TIM8_UP_TIM13_IRQn\000"
 3174      5F55505F 
 3174      54494D31 
 3174      335F4952 
 3174      516E00
 3175              	.LASF187:
 3176 02c0 50574D44 		.ascii	"PWMD4\000"
 3176      3400
 3177              	.LASF175:
 3178 02c6 56656374 		.ascii	"VectorB8\000"
 3178      6F724238 
 3178      00
 3179              	.LASF108:
 3180 02cf 41484232 		.ascii	"AHB2RSTR\000"
 3180      52535452 
 3180      00
 3181              	.LASF17:
 3182 02d8 42757346 		.ascii	"BusFault_IRQn\000"
 3182      61756C74 
 3182      5F495251 
 3182      6E00
 3183              	.LASF21:
 3184 02e6 50656E64 		.ascii	"PendSV_IRQn\000"
 3184      53565F49 
 3184      52516E00 
 3185              	.LASF93:
 3186 02f2 444D4132 		.ascii	"DMA2_Stream7_IRQn\000"
 3186      5F537472 
 3186      65616D37 
 3186      5F495251 
 3186      6E00
 3187              	.LASF149:
 3188 0304 42445452 		.ascii	"BDTR\000"
 3188      00
 3189              	.LASF0:
 3190 0309 756E7369 		.ascii	"unsigned int\000"
 3190      676E6564 
 3190      20696E74 
 3190      00
 3191              	.LASF37:
 3192 0316 444D4131 		.ascii	"DMA1_Stream3_IRQn\000"
 3192      5F537472 
 3192      65616D33 
ARM GAS  /tmp/ccszSdBy.s 			page 60


 3192      5F495251 
 3192      6E00
 3193              	.LASF40:
 3194 0328 444D4131 		.ascii	"DMA1_Stream6_IRQn\000"
 3194      5F537472 
 3194      65616D36 
 3194      5F495251 
 3194      6E00
 3195              	.LASF16:
 3196 033a 4D656D6F 		.ascii	"MemoryManagement_IRQn\000"
 3196      72794D61 
 3196      6E616765 
 3196      6D656E74 
 3196      5F495251 
 3197              	.LASF95:
 3198 0350 49324333 		.ascii	"I2C3_EV_IRQn\000"
 3198      5F45565F 
 3198      4952516E 
 3198      00
 3199              	.LASF10:
 3200 035d 6C6F6E67 		.ascii	"long unsigned int\000"
 3200      20756E73 
 3200      69676E65 
 3200      6420696E 
 3200      7400
 3201              	.LASF132:
 3202 036f 5243435F 		.ascii	"RCC_TypeDef\000"
 3202      54797065 
 3202      44656600 
 3203              	.LASF97:
 3204 037b 4F54475F 		.ascii	"OTG_HS_EP1_OUT_IRQn\000"
 3204      48535F45 
 3204      50315F4F 
 3204      55545F49 
 3204      52516E00 
 3205              	.LASF72:
 3206 038f 5344494F 		.ascii	"SDIO_IRQn\000"
 3206      5F495251 
 3206      6E00
 3207              	.LASF183:
 3208 0399 77696474 		.ascii	"width\000"
 3208      6800
 3209              	.LASF19:
 3210 039f 53564361 		.ascii	"SVCall_IRQn\000"
 3210      6C6C5F49 
 3210      52516E00 
 3211              	.LASF135:
 3212 03ab 534D4352 		.ascii	"SMCR\000"
 3212      00
 3213              	.LASF81:
 3214 03b0 444D4132 		.ascii	"DMA2_Stream2_IRQn\000"
 3214      5F537472 
 3214      65616D32 
 3214      5F495251 
 3214      6E00
 3215              	.LASF131:
 3216 03c2 504C4C49 		.ascii	"PLLI2SCFGR\000"
ARM GAS  /tmp/ccszSdBy.s 			page 61


 3216      32534346 
 3216      475200
 3217              	.LASF42:
 3218 03cd 43414E31 		.ascii	"CAN1_TX_IRQn\000"
 3218      5F54585F 
 3218      4952516E 
 3218      00
 3219              	.LASF109:
 3220 03da 41484233 		.ascii	"AHB3RSTR\000"
 3220      52535452 
 3220      00
 3221              	.LASF63:
 3222 03e3 45585449 		.ascii	"EXTI15_10_IRQn\000"
 3222      31355F31 
 3222      305F4952 
 3222      516E00
 3223              	.LASF58:
 3224 03f2 53504931 		.ascii	"SPI1_IRQn\000"
 3224      5F495251 
 3224      6E00
 3225              	.LASF170:
 3226 03fc 63616C6C 		.ascii	"callback\000"
 3226      6261636B 
 3226      00
 3227              	.LASF155:
 3228 0405 73746D33 		.ascii	"stm32_tim_t\000"
 3228      325F7469 
 3228      6D5F7400 
 3229              	.LASF126:
 3230 0411 41504232 		.ascii	"APB2LPENR\000"
 3230      4C50454E 
 3230      5200
 3231              	.LASF178:
 3232 041b 63636572 		.ascii	"ccer\000"
 3232      00
 3233              	.LASF66:
 3234 0420 54494D38 		.ascii	"TIM8_BRK_TIM12_IRQn\000"
 3234      5F42524B 
 3234      5F54494D 
 3234      31325F49 
 3234      52516E00 
 3235              	.LASF180:
 3236 0434 70776D70 		.ascii	"pwmp\000"
 3236      00
 3237              	.LASF22:
 3238 0439 53797354 		.ascii	"SysTick_IRQn\000"
 3238      69636B5F 
 3238      4952516E 
 3238      00
 3239              	.LASF50:
 3240 0446 54494D31 		.ascii	"TIM1_CC_IRQn\000"
 3240      5F43435F 
 3240      4952516E 
 3240      00
 3241              	.LASF68:
 3242 0453 54494D38 		.ascii	"TIM8_TRG_COM_TIM14_IRQn\000"
 3242      5F545247 
ARM GAS  /tmp/ccszSdBy.s 			page 62


 3242      5F434F4D 
 3242      5F54494D 
 3242      31345F49 
 3243              	.LASF193:
 3244 046b 4952516E 		.ascii	"IRQn\000"
 3244      00
 3245              	.LASF13:
 3246 0470 73697A65 		.ascii	"sizetype\000"
 3246      74797065 
 3246      00
 3247              	.LASF84:
 3248 0479 4554485F 		.ascii	"ETH_IRQn\000"
 3248      4952516E 
 3248      00
 3249              	.LASF48:
 3250 0482 54494D31 		.ascii	"TIM1_UP_TIM10_IRQn\000"
 3250      5F55505F 
 3250      54494D31 
 3250      305F4952 
 3250      516E00
 3251              	.LASF82:
 3252 0495 444D4132 		.ascii	"DMA2_Stream3_IRQn\000"
 3252      5F537472 
 3252      65616D33 
 3252      5F495251 
 3252      6E00
 3253              	.LASF38:
 3254 04a7 444D4131 		.ascii	"DMA1_Stream4_IRQn\000"
 3254      5F537472 
 3254      65616D34 
 3254      5F495251 
 3254      6E00
 3255              	.LASF94:
 3256 04b9 55534152 		.ascii	"USART6_IRQn\000"
 3256      54365F49 
 3256      52516E00 
 3257              	.LASF73:
 3258 04c5 54494D35 		.ascii	"TIM5_IRQn\000"
 3258      5F495251 
 3258      6E00
 3259              	.LASF32:
 3260 04cf 45585449 		.ascii	"EXTI3_IRQn\000"
 3260      335F4952 
 3260      516E00
 3261              	.LASF59:
 3262 04da 53504932 		.ascii	"SPI2_IRQn\000"
 3262      5F495251 
 3262      6E00
 3263              	.LASF36:
 3264 04e4 444D4131 		.ascii	"DMA1_Stream2_IRQn\000"
 3264      5F537472 
 3264      65616D32 
 3264      5F495251 
 3264      6E00
 3265              	.LASF86:
 3266 04f6 43414E32 		.ascii	"CAN2_TX_IRQn\000"
 3266      5F54585F 
ARM GAS  /tmp/ccszSdBy.s 			page 63


 3266      4952516E 
 3266      00
 3267              	.LASF122:
 3268 0503 41484232 		.ascii	"AHB2LPENR\000"
 3268      4C50454E 
 3268      5200
 3269              	.LASF190:
 3270 050d 474E5520 		.ascii	"GNU C 4.7.2\000"
 3270      4320342E 
 3270      372E3200 
 3271              	.LASF111:
 3272 0519 41504231 		.ascii	"APB1RSTR\000"
 3272      52535452 
 3272      00
 3273              	.LASF100:
 3274 0522 4F54475F 		.ascii	"OTG_HS_IRQn\000"
 3274      48535F49 
 3274      52516E00 
 3275              	.LASF165:
 3276 052e 70776D63 		.ascii	"pwmcallback_t\000"
 3276      616C6C62 
 3276      61636B5F 
 3276      7400
 3277              	.LASF110:
 3278 053c 52455345 		.ascii	"RESERVED0\000"
 3278      52564544 
 3278      3000
 3279              	.LASF113:
 3280 0546 52455345 		.ascii	"RESERVED1\000"
 3280      52564544 
 3280      3100
 3281              	.LASF117:
 3282 0550 52455345 		.ascii	"RESERVED2\000"
 3282      52564544 
 3282      3200
 3283              	.LASF120:
 3284 055a 52455345 		.ascii	"RESERVED3\000"
 3284      52564544 
 3284      3300
 3285              	.LASF124:
 3286 0564 52455345 		.ascii	"RESERVED4\000"
 3286      52564544 
 3286      3400
 3287              	.LASF127:
 3288 056e 52455345 		.ascii	"RESERVED5\000"
 3288      52564544 
 3288      3500
 3289              	.LASF129:
 3290 0578 52455345 		.ascii	"RESERVED6\000"
 3290      52564544 
 3290      3600
 3291              	.LASF74:
 3292 0582 53504933 		.ascii	"SPI3_IRQn\000"
 3292      5F495251 
 3292      6E00
 3293              	.LASF83:
 3294 058c 444D4132 		.ascii	"DMA2_Stream4_IRQn\000"
ARM GAS  /tmp/ccszSdBy.s 			page 64


 3294      5F537472 
 3294      65616D34 
 3294      5F495251 
 3294      6E00
 3295              	.LASF71:
 3296 059e 46534D43 		.ascii	"FSMC_IRQn\000"
 3296      5F495251 
 3296      6E00
 3297              	.LASF7:
 3298 05a8 696E7433 		.ascii	"int32_t\000"
 3298      325F7400 
 3299              	.LASF2:
 3300 05b0 756E7369 		.ascii	"unsigned char\000"
 3300      676E6564 
 3300      20636861 
 3300      7200
 3301              	.LASF47:
 3302 05be 54494D31 		.ascii	"TIM1_BRK_TIM9_IRQn\000"
 3302      5F42524B 
 3302      5F54494D 
 3302      395F4952 
 3302      516E00
 3303              	.LASF186:
 3304 05d1 49544D5F 		.ascii	"ITM_RxBuffer\000"
 3304      52784275 
 3304      66666572 
 3304      00
 3305              	.LASF33:
 3306 05de 45585449 		.ascii	"EXTI4_IRQn\000"
 3306      345F4952 
 3306      516E00
 3307              	.LASF103:
 3308 05e9 48415348 		.ascii	"HASH_RNG_IRQn\000"
 3308      5F524E47 
 3308      5F495251 
 3308      6E00
 3309              	.LASF3:
 3310 05f7 73686F72 		.ascii	"short int\000"
 3310      7420696E 
 3310      7400
 3311              	.LASF123:
 3312 0601 41484233 		.ascii	"AHB3LPENR\000"
 3312      4C50454E 
 3312      5200
 3313              	.LASF76:
 3314 060b 55415254 		.ascii	"UART5_IRQn\000"
 3314      355F4952 
 3314      516E00
 3315              	.LASF49:
 3316 0616 54494D31 		.ascii	"TIM1_TRG_COM_TIM11_IRQn\000"
 3316      5F545247 
 3316      5F434F4D 
 3316      5F54494D 
 3316      31315F49 
 3317              	.LASF6:
 3318 062e 73686F72 		.ascii	"short unsigned int\000"
 3318      7420756E 
ARM GAS  /tmp/ccszSdBy.s 			page 65


 3318      7369676E 
 3318      65642069 
 3318      6E7400
 3319              	.LASF31:
 3320 0641 45585449 		.ascii	"EXTI2_IRQn\000"
 3320      325F4952 
 3320      516E00
 3321              	.LASF119:
 3322 064c 41504232 		.ascii	"APB2ENR\000"
 3322      454E5200 
 3323              	.LASF182:
 3324 0654 6368616E 		.ascii	"channel\000"
 3324      6E656C00 
 3325              	.LASF116:
 3326 065c 41484233 		.ascii	"AHB3ENR\000"
 3326      454E5200 
 3327              	.LASF194:
 3328 0664 73657276 		.ascii	"serve_interrupt\000"
 3328      655F696E 
 3328      74657272 
 3328      75707400 
 3329              	.LASF27:
 3330 0674 464C4153 		.ascii	"FLASH_IRQn\000"
 3330      485F4952 
 3330      516E00
 3331              	.LASF179:
 3332 067f 70776D5F 		.ascii	"pwm_lld_stop\000"
 3332      6C6C645F 
 3332      73746F70 
 3332      00
 3333              	.LASF90:
 3334 068c 4F54475F 		.ascii	"OTG_FS_IRQn\000"
 3334      46535F49 
 3334      52516E00 
 3335              	.LASF9:
 3336 0698 75696E74 		.ascii	"uint32_t\000"
 3336      33325F74 
 3336      00
 3337              	.LASF61:
 3338 06a1 55534152 		.ascii	"USART2_IRQn\000"
 3338      54325F49 
 3338      52516E00 
 3339              	.LASF18:
 3340 06ad 55736167 		.ascii	"UsageFault_IRQn\000"
 3340      65466175 
 3340      6C745F49 
 3340      52516E00 
 3341              	.LASF174:
 3342 06bd 50574D43 		.ascii	"PWMConfig\000"
 3342      6F6E6669 
 3342      6700
 3343              	.LASF196:
 3344 06c7 6E766963 		.ascii	"nvicDisableVector\000"
 3344      44697361 
 3344      626C6556 
 3344      6563746F 
 3344      7200
ARM GAS  /tmp/ccszSdBy.s 			page 66


 3345              	.LASF136:
 3346 06d9 5F726573 		.ascii	"_resvd2\000"
 3346      76643200 
 3347              	.LASF181:
 3348 06e1 70776D5F 		.ascii	"pwm_lld_enable_channel\000"
 3348      6C6C645F 
 3348      656E6162 
 3348      6C655F63 
 3348      68616E6E 
 3349              	.LASF157:
 3350 06f8 50574D5F 		.ascii	"PWM_STOP\000"
 3350      53544F50 
 3350      00
 3351              	.LASF14:
 3352 0701 63686172 		.ascii	"char\000"
 3352      00
 3353              	.LASF169:
 3354 0706 6D6F6465 		.ascii	"mode\000"
 3354      00
 3355              	.LASF102:
 3356 070b 43525950 		.ascii	"CRYP_IRQn\000"
 3356      5F495251 
 3356      6E00
 3357              	.LASF162:
 3358 0715 636F6E66 		.ascii	"config\000"
 3358      696700
 3359              	.LASF152:
 3360 071c 444D4152 		.ascii	"DMAR\000"
 3360      00
 3361              	.LASF78:
 3362 0721 54494D37 		.ascii	"TIM7_IRQn\000"
 3362      5F495251 
 3362      6E00
 3363              	.LASF35:
 3364 072b 444D4131 		.ascii	"DMA1_Stream1_IRQn\000"
 3364      5F537472 
 3364      65616D31 
 3364      5F495251 
 3364      6E00
 3365              	.LASF98:
 3366 073d 4F54475F 		.ascii	"OTG_HS_EP1_IN_IRQn\000"
 3366      48535F45 
 3366      50315F49 
 3366      4E5F4952 
 3366      516E00
 3367              	.LASF15:
 3368 0750 4E6F6E4D 		.ascii	"NonMaskableInt_IRQn\000"
 3368      61736B61 
 3368      626C6549 
 3368      6E745F49 
 3368      52516E00 
 3369              	.LASF118:
 3370 0764 41504231 		.ascii	"APB1ENR\000"
 3370      454E5200 
 3371              	.LASF115:
 3372 076c 41484232 		.ascii	"AHB2ENR\000"
 3372      454E5200 
ARM GAS  /tmp/ccszSdBy.s 			page 67


 3373              	.LASF25:
 3374 0774 54414D50 		.ascii	"TAMP_STAMP_IRQn\000"
 3374      5F535441 
 3374      4D505F49 
 3374      52516E00 
 3375              	.LASF192:
 3376 0784 2F686F6D 		.ascii	"/home/mitchd/Documents/FOX-1/amsat-fox/stm32f4-deve"
 3376      652F6D69 
 3376      74636864 
 3376      2F446F63 
 3376      756D656E 
 3377 07b7 6C00     		.ascii	"l\000"
 3378              	.LASF171:
 3379 07b9 50574D43 		.ascii	"PWMChannelConfig\000"
 3379      68616E6E 
 3379      656C436F 
 3379      6E666967 
 3379      00
 3380              	.LASF20:
 3381 07ca 44656275 		.ascii	"DebugMonitor_IRQn\000"
 3381      674D6F6E 
 3381      69746F72 
 3381      5F495251 
 3381      6E00
 3382              	.LASF79:
 3383 07dc 444D4132 		.ascii	"DMA2_Stream0_IRQn\000"
 3383      5F537472 
 3383      65616D30 
 3383      5F495251 
 3383      6E00
 3384              	.LASF56:
 3385 07ee 49324332 		.ascii	"I2C2_EV_IRQn\000"
 3385      5F45565F 
 3385      4952516E 
 3385      00
 3386              	.LASF62:
 3387 07fb 55534152 		.ascii	"USART3_IRQn\000"
 3387      54335F49 
 3387      52516E00 
 3388              	.LASF130:
 3389 0807 53534347 		.ascii	"SSCGR\000"
 3389      5200
 3390              	.LASF51:
 3391 080d 54494D32 		.ascii	"TIM2_IRQn\000"
 3391      5F495251 
 3391      6E00
 3392              	.LASF29:
 3393 0817 45585449 		.ascii	"EXTI0_IRQn\000"
 3393      305F4952 
 3393      516E00
 3394              	.LASF60:
 3395 0822 55534152 		.ascii	"USART1_IRQn\000"
 3395      54315F49 
 3395      52516E00 
 3396              	.LASF128:
 3397 082e 42444352 		.ascii	"BDCR\000"
 3397      00
ARM GAS  /tmp/ccszSdBy.s 			page 68


 3398              	.LASF195:
 3399 0833 5F706F72 		.ascii	"_port_irq_epilogue\000"
 3399      745F6972 
 3399      715F6570 
 3399      696C6F67 
 3399      756500
 3400              	.LASF4:
 3401 0846 75696E74 		.ascii	"uint8_t\000"
 3401      385F7400 
 3402              	.LASF160:
 3403 084e 50574D44 		.ascii	"PWMDriver\000"
 3403      72697665 
 3403      7200
 3404              	.LASF101:
 3405 0858 44434D49 		.ascii	"DCMI_IRQn\000"
 3405      5F495251 
 3405      6E00
 3406              	.LASF159:
 3407 0862 70776D73 		.ascii	"pwmstate_t\000"
 3407      74617465 
 3407      5F7400
 3408              	.LASF168:
 3409 086d 70776D63 		.ascii	"pwmcnt_t\000"
 3409      6E745F74 
 3409      00
 3410              	.LASF114:
 3411 0876 41484231 		.ascii	"AHB1ENR\000"
 3411      454E5200 
 3412              	.LASF137:
 3413 087e 44494552 		.ascii	"DIER\000"
 3413      00
 3414              	.LASF104:
 3415 0883 4650555F 		.ascii	"FPU_IRQn\000"
 3415      4952516E 
 3415      00
 3416              	.LASF106:
 3417 088c 43464752 		.ascii	"CFGR\000"
 3417      00
 3418              	.LASF185:
 3419 0891 70776D5F 		.ascii	"pwm_lld_disable_channel\000"
 3419      6C6C645F 
 3419      64697361 
 3419      626C655F 
 3419      6368616E 
 3420              	.LASF164:
 3421 08a9 636C6F63 		.ascii	"clock\000"
 3421      6B00
 3422              	.LASF55:
 3423 08af 49324331 		.ascii	"I2C1_ER_IRQn\000"
 3423      5F45525F 
 3423      4952516E 
 3423      00
 3424              	.LASF176:
 3425 08bc 70776D5F 		.ascii	"pwm_lld_init\000"
 3425      6C6C645F 
 3425      696E6974 
 3425      00
ARM GAS  /tmp/ccszSdBy.s 			page 69


 3426              	.LASF41:
 3427 08c9 4144435F 		.ascii	"ADC_IRQn\000"
 3427      4952516E 
 3427      00
 3428              	.LASF80:
 3429 08d2 444D4132 		.ascii	"DMA2_Stream1_IRQn\000"
 3429      5F537472 
 3429      65616D31 
 3429      5F495251 
 3429      6E00
 3430              	.LASF156:
 3431 08e4 50574D5F 		.ascii	"PWM_UNINIT\000"
 3431      554E494E 
 3431      495400
 3432              	.LASF45:
 3433 08ef 43414E31 		.ascii	"CAN1_SCE_IRQn\000"
 3433      5F534345 
 3433      5F495251 
 3433      6E00
 3434              	.LASF188:
 3435 08fd 70776D4F 		.ascii	"pwmObjectInit\000"
 3435      626A6563 
 3435      74496E69 
 3435      7400
 3436              	.LASF89:
 3437 090b 43414E32 		.ascii	"CAN2_SCE_IRQn\000"
 3437      5F534345 
 3437      5F495251 
 3437      6E00
 3438              	.LASF28:
 3439 0919 5243435F 		.ascii	"RCC_IRQn\000"
 3439      4952516E 
 3439      00
 3440              	.LASF99:
 3441 0922 4F54475F 		.ascii	"OTG_HS_WKUP_IRQn\000"
 3441      48535F57 
 3441      4B55505F 
 3441      4952516E 
 3441      00
 3442              	.LASF52:
 3443 0933 54494D33 		.ascii	"TIM3_IRQn\000"
 3443      5F495251 
 3443      6E00
 3444              	.LASF30:
 3445 093d 45585449 		.ascii	"EXTI1_IRQn\000"
 3445      315F4952 
 3445      516E00
 3446              	.LASF184:
 3447 0948 64696572 		.ascii	"dier\000"
 3447      00
 3448              	.LASF34:
 3449 094d 444D4131 		.ascii	"DMA1_Stream0_IRQn\000"
 3449      5F537472 
 3449      65616D30 
 3449      5F495251 
 3449      6E00
 3450              		.ident	"GCC: (GNU) 4.7.2"
ARM GAS  /tmp/ccszSdBy.s 			page 70


ARM GAS  /tmp/ccszSdBy.s 			page 71


DEFINED SYMBOLS
                            *ABS*:0000000000000000 pwm_lld.c
     /tmp/ccszSdBy.s:19     .text.VectorB8:0000000000000000 $t
     /tmp/ccszSdBy.s:25     .text.VectorB8:0000000000000000 VectorB8
     /tmp/ccszSdBy.s:133    .text.VectorB8:0000000000000074 $d
     /tmp/ccszSdBy.s:140    .text.pwm_lld_init:0000000000000000 $t
     /tmp/ccszSdBy.s:146    .text.pwm_lld_init:0000000000000000 pwm_lld_init
     /tmp/ccszSdBy.s:576    .bss.PWMD4:0000000000000000 .LANCHOR0
     /tmp/ccszSdBy.s:172    .text.pwm_lld_start:0000000000000000 $t
     /tmp/ccszSdBy.s:178    .text.pwm_lld_start:0000000000000000 pwm_lld_start
     /tmp/ccszSdBy.s:408    .text.pwm_lld_start:000000000000010c $d
     /tmp/ccszSdBy.s:413    .text.pwm_lld_stop:0000000000000000 $t
     /tmp/ccszSdBy.s:419    .text.pwm_lld_stop:0000000000000000 pwm_lld_stop
     /tmp/ccszSdBy.s:467    .text.pwm_lld_stop:0000000000000034 $d
     /tmp/ccszSdBy.s:472    .text.pwm_lld_enable_channel:0000000000000000 $t
     /tmp/ccszSdBy.s:478    .text.pwm_lld_enable_channel:0000000000000000 pwm_lld_enable_channel
     /tmp/ccszSdBy.s:540    .text.pwm_lld_disable_channel:0000000000000000 $t
     /tmp/ccszSdBy.s:546    .text.pwm_lld_disable_channel:0000000000000000 pwm_lld_disable_channel
     /tmp/ccszSdBy.s:579    .bss.PWMD4:0000000000000000 PWMD4
     /tmp/ccszSdBy.s:575    .bss.PWMD4:0000000000000000 $d
                     .debug_frame:0000000000000010 $d
     /tmp/ccszSdBy.s:139    .text.VectorB8:0000000000000078 $t
     /tmp/ccszSdBy.s:471    .text.pwm_lld_stop:0000000000000038 $t

UNDEFINED SYMBOLS
_port_irq_epilogue
pwmObjectInit
nvicEnableVector
nvicDisableVector
