ARM GAS  /tmp/ccZZC2fc.s 			page 1


   1              		.syntax unified
   2              		.cpu cortex-m4
   3              		.fpu softvfp
   4              		.eabi_attribute 20, 1
   5              		.eabi_attribute 21, 1
   6              		.eabi_attribute 23, 3
   7              		.eabi_attribute 24, 1
   8              		.eabi_attribute 25, 1
   9              		.eabi_attribute 26, 1
  10              		.eabi_attribute 30, 2
  11              		.eabi_attribute 34, 1
  12              		.eabi_attribute 18, 4
  13              		.thumb
  14              		.file	"serial.c"
  15              		.text
  16              	.Ltext0:
  17              		.cfi_sections	.debug_frame
  18              		.section	.text.putwouldblock,"ax",%progbits
  19              		.align	2
  20              		.p2align 4,,15
  21              		.thumb
  22              		.thumb_func
  23              		.type	putwouldblock, %function
  24              	putwouldblock:
  25              	.LFB119:
  26              		.file 1 "./os/hal/src/serial.c"
  27              		.loc 1 74 0
  28              		.cfi_startproc
  29              		@ args = 0, pretend = 0, frame = 0
  30              		@ frame_needed = 0, uses_anonymous_args = 0
  31              		@ link register save eliminated.
  32              	.LVL0:
  33              		.loc 1 76 0
  34 0000 806B     		ldr	r0, [r0, #56]
  35              	.LVL1:
  36              		.loc 1 77 0
  37 0002 D0F10100 		rsbs	r0, r0, #1
  38 0006 38BF     		it	cc
  39 0008 0020     		movcc	r0, #0
  40 000a 7047     		bx	lr
  41              		.cfi_endproc
  42              	.LFE119:
  43              		.size	putwouldblock, .-putwouldblock
  44 000c AFF30080 		.section	.text.getwouldblock,"ax",%progbits
  45              		.align	2
  46              		.p2align 4,,15
  47              		.thumb
  48              		.thumb_func
  49              		.type	getwouldblock, %function
  50              	getwouldblock:
  51              	.LFB120:
  52              		.loc 1 79 0
  53              		.cfi_startproc
  54              		@ args = 0, pretend = 0, frame = 0
  55              		@ frame_needed = 0, uses_anonymous_args = 0
  56              		@ link register save eliminated.
  57              	.LVL2:
ARM GAS  /tmp/ccZZC2fc.s 			page 2


  58              		.loc 1 81 0
  59 0000 8069     		ldr	r0, [r0, #24]
  60              	.LVL3:
  61              		.loc 1 82 0
  62 0002 D0F10100 		rsbs	r0, r0, #1
  63 0006 38BF     		it	cc
  64 0008 0020     		movcc	r0, #0
  65 000a 7047     		bx	lr
  66              		.cfi_endproc
  67              	.LFE120:
  68              		.size	getwouldblock, .-getwouldblock
  69              		.section	.text.getflags,"ax",%progbits
  70              		.align	2
  71              		.p2align 4,,15
  72              		.thumb
  73              		.thumb_func
  74              		.type	getflags, %function
  75              	getflags:
  76              	.LFB125:
  77              		.loc 1 104 0
  78              		.cfi_startproc
  79              		@ args = 0, pretend = 0, frame = 0
  80              		@ frame_needed = 0, uses_anonymous_args = 0
  81              		@ link register save eliminated.
  82              	.LVL4:
  83              		.loc 1 104 0
  84 0000 0246     		mov	r2, r0
  85              	.LBB2:
  86              		.loc 1 105 0
  87 0002 2023     		movs	r3, #32
  88              	.LVL5:
  89              	@ 105 "./os/hal/src/serial.c" 1
  90 0004 83F31188 		msr     BASEPRI, r3
  91              	@ 0 "" 2
  92              	.LVL6:
  93              		.thumb
  94              	.LBE2:
  95 0008 0023     		movs	r3, #0
  96              	.LVL7:
  97 000a 8068     		ldr	r0, [r0, #8]
  98              	.LVL8:
  99 000c 9360     		str	r3, [r2, #8]
 100              	.LBB3:
 101              	@ 105 "./os/hal/src/serial.c" 1
 102 000e 83F31188 		msr     BASEPRI, r3
 103              	@ 0 "" 2
 104              	.LVL9:
 105              		.thumb
 106              	.LBE3:
 107              		.loc 1 106 0
 108 0012 7047     		bx	lr
 109              		.cfi_endproc
 110              	.LFE125:
 111              		.size	getflags, .-getflags
 112 0014 AFF30080 		.section	.text.readt,"ax",%progbits
 112      AFF30080 
 112      AFF30080 
ARM GAS  /tmp/ccZZC2fc.s 			page 3


 113              		.align	2
 114              		.p2align 4,,15
 115              		.thumb
 116              		.thumb_func
 117              		.type	readt, %function
 118              	readt:
 119              	.LFB124:
 120              		.loc 1 99 0
 121              		.cfi_startproc
 122              		@ args = 0, pretend = 0, frame = 0
 123              		@ frame_needed = 0, uses_anonymous_args = 0
 124              		@ link register save eliminated.
 125              	.LVL10:
 126              		.loc 1 101 0
 127 0000 1030     		adds	r0, r0, #16
 128              	.LVL11:
 129              		.loc 1 102 0
 130              		.loc 1 101 0
 131 0002 FFF7FEBF 		b	chIQReadTimeout
 132              	.LVL12:
 133              		.cfi_endproc
 134              	.LFE124:
 135              		.size	readt, .-readt
 136 0006 00BFAFF3 		.section	.text.reads,"ax",%progbits
 136      0080AFF3 
 136      0080
 137              		.align	2
 138              		.p2align 4,,15
 139              		.thumb
 140              		.thumb_func
 141              		.type	reads, %function
 142              	reads:
 143              	.LFB118:
 144              		.loc 1 68 0
 145              		.cfi_startproc
 146              		@ args = 0, pretend = 0, frame = 0
 147              		@ frame_needed = 0, uses_anonymous_args = 0
 148              		@ link register save eliminated.
 149              	.LVL13:
 150              		.loc 1 70 0
 151 0000 1030     		adds	r0, r0, #16
 152              	.LVL14:
 153 0002 4FF0FF33 		mov	r3, #-1
 154              		.loc 1 72 0
 155              		.loc 1 70 0
 156 0006 FFF7FEBF 		b	chIQReadTimeout
 157              	.LVL15:
 158              		.cfi_endproc
 159              	.LFE118:
 160              		.size	reads, .-reads
 161 000a 00BFAFF3 		.section	.text.writet,"ax",%progbits
 161      0080
 162              		.align	2
 163              		.p2align 4,,15
 164              		.thumb
 165              		.thumb_func
 166              		.type	writet, %function
ARM GAS  /tmp/ccZZC2fc.s 			page 4


 167              	writet:
 168              	.LFB123:
 169              		.loc 1 94 0
 170              		.cfi_startproc
 171              		@ args = 0, pretend = 0, frame = 0
 172              		@ frame_needed = 0, uses_anonymous_args = 0
 173              		@ link register save eliminated.
 174              	.LVL16:
 175              		.loc 1 96 0
 176 0000 3030     		adds	r0, r0, #48
 177              	.LVL17:
 178              		.loc 1 97 0
 179              		.loc 1 96 0
 180 0002 FFF7FEBF 		b	chOQWriteTimeout
 181              	.LVL18:
 182              		.cfi_endproc
 183              	.LFE123:
 184              		.size	writet, .-writet
 185 0006 00BFAFF3 		.section	.text.writes,"ax",%progbits
 185      0080AFF3 
 185      0080
 186              		.align	2
 187              		.p2align 4,,15
 188              		.thumb
 189              		.thumb_func
 190              		.type	writes, %function
 191              	writes:
 192              	.LFB117:
 193              		.loc 1 62 0
 194              		.cfi_startproc
 195              		@ args = 0, pretend = 0, frame = 0
 196              		@ frame_needed = 0, uses_anonymous_args = 0
 197              		@ link register save eliminated.
 198              	.LVL19:
 199              		.loc 1 64 0
 200 0000 3030     		adds	r0, r0, #48
 201              	.LVL20:
 202 0002 4FF0FF33 		mov	r3, #-1
 203              		.loc 1 66 0
 204              		.loc 1 64 0
 205 0006 FFF7FEBF 		b	chOQWriteTimeout
 206              	.LVL21:
 207              		.cfi_endproc
 208              	.LFE117:
 209              		.size	writes, .-writes
 210 000a 00BFAFF3 		.section	.text.gett,"ax",%progbits
 210      0080
 211              		.align	2
 212              		.p2align 4,,15
 213              		.thumb
 214              		.thumb_func
 215              		.type	gett, %function
 216              	gett:
 217              	.LFB122:
 218              		.loc 1 89 0
 219              		.cfi_startproc
 220              		@ args = 0, pretend = 0, frame = 0
ARM GAS  /tmp/ccZZC2fc.s 			page 5


 221              		@ frame_needed = 0, uses_anonymous_args = 0
 222              		@ link register save eliminated.
 223              	.LVL22:
 224              		.loc 1 91 0
 225 0000 1030     		adds	r0, r0, #16
 226              	.LVL23:
 227              		.loc 1 92 0
 228              		.loc 1 91 0
 229 0002 FFF7FEBF 		b	chIQGetTimeout
 230              	.LVL24:
 231              		.cfi_endproc
 232              	.LFE122:
 233              		.size	gett, .-gett
 234 0006 00BFAFF3 		.section	.text.putt,"ax",%progbits
 234      0080AFF3 
 234      0080
 235              		.align	2
 236              		.p2align 4,,15
 237              		.thumb
 238              		.thumb_func
 239              		.type	putt, %function
 240              	putt:
 241              	.LFB121:
 242              		.loc 1 84 0
 243              		.cfi_startproc
 244              		@ args = 0, pretend = 0, frame = 0
 245              		@ frame_needed = 0, uses_anonymous_args = 0
 246              		@ link register save eliminated.
 247              	.LVL25:
 248              		.loc 1 86 0
 249 0000 3030     		adds	r0, r0, #48
 250              	.LVL26:
 251              		.loc 1 87 0
 252              		.loc 1 86 0
 253 0002 FFF7FEBF 		b	chOQPutTimeout
 254              	.LVL27:
 255              		.cfi_endproc
 256              	.LFE121:
 257              		.size	putt, .-putt
 258 0006 00BFAFF3 		.section	.text.sdInit,"ax",%progbits
 258      0080AFF3 
 258      0080
 259              		.align	2
 260              		.p2align 4,,15
 261              		.global	sdInit
 262              		.thumb
 263              		.thumb_func
 264              		.type	sdInit, %function
 265              	sdInit:
 266              	.LFB126:
 267              		.loc 1 125 0
 268              		.cfi_startproc
 269              		@ args = 0, pretend = 0, frame = 0
 270              		@ frame_needed = 0, uses_anonymous_args = 0
 271              		@ link register save eliminated.
 272              		.loc 1 128 0
 273              		.loc 1 127 0
ARM GAS  /tmp/ccZZC2fc.s 			page 6


 274 0000 FFF7FEBF 		b	sd_lld_init
 275              	.LVL28:
 276              		.cfi_endproc
 277              	.LFE126:
 278              		.size	sdInit, .-sdInit
 279 0004 AFF30080 		.section	.text.sdObjectInit,"ax",%progbits
 279      AFF30080 
 279      AFF30080 
 280              		.align	2
 281              		.p2align 4,,15
 282              		.global	sdObjectInit
 283              		.thumb
 284              		.thumb_func
 285              		.type	sdObjectInit, %function
 286              	sdObjectInit:
 287              	.LFB127:
 288              		.loc 1 145 0
 289              		.cfi_startproc
 290              		@ args = 0, pretend = 0, frame = 0
 291              		@ frame_needed = 0, uses_anonymous_args = 0
 292              	.LVL29:
 293 0000 70B5     		push	{r4, r5, r6, lr}
 294              	.LCFI0:
 295              		.cfi_def_cfa_offset 16
 296              		.cfi_offset 4, -16
 297              		.cfi_offset 5, -12
 298              		.cfi_offset 6, -8
 299              		.cfi_offset 14, -4
 300              		.loc 1 147 0
 301 0002 40F20003 		movw	r3, #:lower16:.LANCHOR0
 302 0006 0546     		mov	r5, r0
 303 0008 C0F20003 		movt	r3, #:upper16:.LANCHOR0
 304              		.loc 1 145 0
 305 000c 0446     		mov	r4, r0
 306              		.loc 1 147 0
 307 000e 45F8043B 		str	r3, [r5], #4
 308              		.loc 1 148 0
 309 0012 6560     		str	r5, [r4, #4]
 310              		.loc 1 149 0
 311 0014 0025     		movs	r5, #0
 312 0016 A560     		str	r5, [r4, #8]
 313              		.loc 1 150 0
 314 0018 0125     		movs	r5, #1
 315              		.loc 1 145 0
 316 001a 0B46     		mov	r3, r1
 317 001c 1646     		mov	r6, r2
 318              		.loc 1 151 0
 319 001e 04F15001 		add	r1, r4, #80
 320              	.LVL30:
 321 0022 1022     		movs	r2, #16
 322              	.LVL31:
 323 0024 00F11000 		add	r0, r0, #16
 324              	.LVL32:
 325              		.loc 1 150 0
 326 0028 2573     		strb	r5, [r4, #12]
 327              		.loc 1 151 0
 328 002a FFF7FEFF 		bl	chIQInit
ARM GAS  /tmp/ccZZC2fc.s 			page 7


 329              	.LVL33:
 330              		.loc 1 152 0
 331 002e 04F13000 		add	r0, r4, #48
 332 0032 04F16001 		add	r1, r4, #96
 333 0036 1022     		movs	r2, #16
 334 0038 3346     		mov	r3, r6
 335              		.loc 1 153 0
 336 003a BDE87040 		pop	{r4, r5, r6, lr}
 337              		.loc 1 152 0
 338 003e FFF7FEBF 		b	chOQInit
 339              	.LVL34:
 340              		.cfi_endproc
 341              	.LFE127:
 342              		.size	sdObjectInit, .-sdObjectInit
 343 0042 00BFAFF3 		.section	.text.sdStart,"ax",%progbits
 343      0080AFF3 
 343      0080AFF3 
 343      0080
 344              		.align	2
 345              		.p2align 4,,15
 346              		.global	sdStart
 347              		.thumb
 348              		.thumb_func
 349              		.type	sdStart, %function
 350              	sdStart:
 351              	.LFB128:
 352              		.loc 1 165 0
 353              		.cfi_startproc
 354              		@ args = 0, pretend = 0, frame = 0
 355              		@ frame_needed = 0, uses_anonymous_args = 0
 356              	.LVL35:
 357 0000 10B5     		push	{r4, lr}
 358              	.LCFI1:
 359              		.cfi_def_cfa_offset 8
 360              		.cfi_offset 4, -8
 361              		.cfi_offset 14, -4
 362              	.LBB4:
 363              		.loc 1 169 0
 364 0002 2023     		movs	r3, #32
 365              	.LVL36:
 366              	.LBE4:
 367              		.loc 1 165 0
 368 0004 0446     		mov	r4, r0
 369              	.LBB5:
 370              		.loc 1 169 0
 371              	@ 169 "./os/hal/src/serial.c" 1
 372 0006 83F31188 		msr     BASEPRI, r3
 373              	@ 0 "" 2
 374              	.LVL37:
 375              		.thumb
 376              	.LBE5:
 377              		.loc 1 173 0
 378 000a FFF7FEFF 		bl	sd_lld_start
 379              	.LVL38:
 380              		.loc 1 174 0
 381 000e 0223     		movs	r3, #2
 382 0010 2373     		strb	r3, [r4, #12]
ARM GAS  /tmp/ccZZC2fc.s 			page 8


 383              	.LBB6:
 384              		.loc 1 175 0
 385 0012 0023     		movs	r3, #0
 386              	.LVL39:
 387              	@ 175 "./os/hal/src/serial.c" 1
 388 0014 83F31188 		msr     BASEPRI, r3
 389              	@ 0 "" 2
 390              	.LVL40:
 391              		.thumb
 392 0018 10BD     		pop	{r4, pc}
 393              	.LBE6:
 394              		.cfi_endproc
 395              	.LFE128:
 396              		.size	sdStart, .-sdStart
 397 001a 00BFAFF3 		.section	.text.sdStop,"ax",%progbits
 397      0080
 398              		.align	2
 399              		.p2align 4,,15
 400              		.global	sdStop
 401              		.thumb
 402              		.thumb_func
 403              		.type	sdStop, %function
 404              	sdStop:
 405              	.LFB129:
 406              		.loc 1 187 0
 407              		.cfi_startproc
 408              		@ args = 0, pretend = 0, frame = 0
 409              		@ frame_needed = 0, uses_anonymous_args = 0
 410              	.LVL41:
 411 0000 10B5     		push	{r4, lr}
 412              	.LCFI2:
 413              		.cfi_def_cfa_offset 8
 414              		.cfi_offset 4, -8
 415              		.cfi_offset 14, -4
 416              	.LBB7:
 417              		.loc 1 191 0
 418 0002 2023     		movs	r3, #32
 419              	.LVL42:
 420              	.LBE7:
 421              		.loc 1 187 0
 422 0004 0446     		mov	r4, r0
 423              	.LBB8:
 424              		.loc 1 191 0
 425              	@ 191 "./os/hal/src/serial.c" 1
 426 0006 83F31188 		msr     BASEPRI, r3
 427              	@ 0 "" 2
 428              	.LVL43:
 429              		.thumb
 430              	.LBE8:
 431              		.loc 1 195 0
 432 000a FFF7FEFF 		bl	sd_lld_stop
 433              	.LVL44:
 434              		.loc 1 196 0
 435 000e 0123     		movs	r3, #1
 436 0010 2373     		strb	r3, [r4, #12]
 437              		.loc 1 197 0
 438 0012 04F13000 		add	r0, r4, #48
ARM GAS  /tmp/ccZZC2fc.s 			page 9


 439 0016 FFF7FEFF 		bl	chOQResetI
 440              	.LVL45:
 441              		.loc 1 198 0
 442 001a 04F11000 		add	r0, r4, #16
 443 001e FFF7FEFF 		bl	chIQResetI
 444              	.LVL46:
 445              		.loc 1 199 0
 446 0022 FFF7FEFF 		bl	chSchRescheduleS
 447              	.LVL47:
 448              	.LBB9:
 449              		.loc 1 200 0
 450 0026 0023     		movs	r3, #0
 451              	.LVL48:
 452              	@ 200 "./os/hal/src/serial.c" 1
 453 0028 83F31188 		msr     BASEPRI, r3
 454              	@ 0 "" 2
 455              	.LVL49:
 456              		.thumb
 457 002c 10BD     		pop	{r4, pc}
 458              	.LBE9:
 459              		.cfi_endproc
 460              	.LFE129:
 461              		.size	sdStop, .-sdStop
 462 002e 00BF     		.section	.text.sdIncomingDataI,"ax",%progbits
 463              		.align	2
 464              		.p2align 4,,15
 465              		.global	sdIncomingDataI
 466              		.thumb
 467              		.thumb_func
 468              		.type	sdIncomingDataI, %function
 469              	sdIncomingDataI:
 470              	.LFB130:
 471              		.loc 1 219 0
 472              		.cfi_startproc
 473              		@ args = 0, pretend = 0, frame = 0
 474              		@ frame_needed = 0, uses_anonymous_args = 0
 475              	.LVL50:
 476 0000 38B5     		push	{r3, r4, r5, lr}
 477              	.LCFI3:
 478              		.cfi_def_cfa_offset 16
 479              		.cfi_offset 3, -16
 480              		.cfi_offset 4, -12
 481              		.cfi_offset 5, -8
 482              		.cfi_offset 14, -4
 483              		.loc 1 219 0
 484 0002 0D46     		mov	r5, r1
 485              		.loc 1 224 0
 486 0004 8169     		ldr	r1, [r0, #24]
 487              	.LVL51:
 488              		.loc 1 219 0
 489 0006 0446     		mov	r4, r0
 490              		.loc 1 224 0
 491 0008 39B1     		cbz	r1, .L18
 492              		.loc 1 226 0
 493 000a 04F11000 		add	r0, r4, #16
 494              	.LVL52:
 495 000e 2946     		mov	r1, r5
ARM GAS  /tmp/ccZZC2fc.s 			page 10


 496 0010 FFF7FEFF 		bl	chIQPutI
 497              	.LVL53:
 498 0014 0028     		cmp	r0, #0
 499 0016 0EDB     		blt	.L19
 500              	.L14:
 501 0018 38BD     		pop	{r3, r4, r5, pc}
 502              	.LVL54:
 503              	.L18:
 504              		.loc 1 225 0
 505 001a 8268     		ldr	r2, [r0, #8]
 506 001c 42F00402 		orr	r2, r2, #4
 507 0020 8260     		str	r2, [r0, #8]
 508 0022 0430     		adds	r0, r0, #4
 509              	.LVL55:
 510 0024 FFF7FEFF 		bl	chEvtBroadcastFlagsI
 511              	.LVL56:
 512              		.loc 1 226 0
 513 0028 04F11000 		add	r0, r4, #16
 514 002c 2946     		mov	r1, r5
 515 002e FFF7FEFF 		bl	chIQPutI
 516              	.LVL57:
 517 0032 0028     		cmp	r0, #0
 518 0034 F0DA     		bge	.L14
 519              	.L19:
 520              		.loc 1 227 0
 521 0036 A368     		ldr	r3, [r4, #8]
 522 0038 201D     		adds	r0, r4, #4
 523 003a 43F08003 		orr	r3, r3, #128
 524 003e 0021     		movs	r1, #0
 525 0040 A360     		str	r3, [r4, #8]
 526              		.loc 1 228 0
 527 0042 BDE83840 		pop	{r3, r4, r5, lr}
 528              		.loc 1 227 0
 529 0046 FFF7FEBF 		b	chEvtBroadcastFlagsI
 530              	.LVL58:
 531              		.cfi_endproc
 532              	.LFE130:
 533              		.size	sdIncomingDataI, .-sdIncomingDataI
 534 004a 00BFAFF3 		.section	.text.sdRequestDataI,"ax",%progbits
 534      0080
 535              		.align	2
 536              		.p2align 4,,15
 537              		.global	sdRequestDataI
 538              		.thumb
 539              		.thumb_func
 540              		.type	sdRequestDataI, %function
 541              	sdRequestDataI:
 542              	.LFB131:
 543              		.loc 1 245 0
 544              		.cfi_startproc
 545              		@ args = 0, pretend = 0, frame = 0
 546              		@ frame_needed = 0, uses_anonymous_args = 0
 547              	.LVL59:
 548 0000 38B5     		push	{r3, r4, r5, lr}
 549              	.LCFI4:
 550              		.cfi_def_cfa_offset 16
 551              		.cfi_offset 3, -16
ARM GAS  /tmp/ccZZC2fc.s 			page 11


 552              		.cfi_offset 4, -12
 553              		.cfi_offset 5, -8
 554              		.cfi_offset 14, -4
 555              		.loc 1 245 0
 556 0002 0446     		mov	r4, r0
 557              		.loc 1 251 0
 558 0004 00F13000 		add	r0, r0, #48
 559              	.LVL60:
 560 0008 FFF7FEFF 		bl	chOQGetI
 561              	.LVL61:
 562              		.loc 1 252 0
 563 000c 051E     		subs	r5, r0, #0
 564 000e 01DB     		blt	.L22
 565              		.loc 1 255 0
 566 0010 2846     		mov	r0, r5
 567 0012 38BD     		pop	{r3, r4, r5, pc}
 568              	.L22:
 569              		.loc 1 253 0
 570 0014 A368     		ldr	r3, [r4, #8]
 571 0016 43F00803 		orr	r3, r3, #8
 572 001a 201D     		adds	r0, r4, #4
 573 001c A360     		str	r3, [r4, #8]
 574 001e 0021     		movs	r1, #0
 575 0020 FFF7FEFF 		bl	chEvtBroadcastFlagsI
 576              	.LVL62:
 577              		.loc 1 255 0
 578 0024 2846     		mov	r0, r5
 579 0026 38BD     		pop	{r3, r4, r5, pc}
 580              		.cfi_endproc
 581              	.LFE131:
 582              		.size	sdRequestDataI, .-sdRequestDataI
 583 0028 AFF30080 		.section	.rodata.vmt,"a",%progbits
 583      AFF30080 
 584              		.align	2
 585              		.set	.LANCHOR0,. + 0
 586              		.type	vmt, %object
 587              		.size	vmt, 36
 588              	vmt:
 589 0000 00000000 		.word	writes
 590 0004 00000000 		.word	reads
 591 0008 00000000 		.word	putwouldblock
 592 000c 00000000 		.word	getwouldblock
 593 0010 00000000 		.word	putt
 594 0014 00000000 		.word	gett
 595 0018 00000000 		.word	writet
 596 001c 00000000 		.word	readt
 597 0020 00000000 		.word	getflags
 598              		.text
 599              	.Letext0:
 600              		.file 2 "/home/mitchd/Documents/FOX-1/amsat-fox/x86_64-toolchain/arm/bin/../lib/gcc/arm-none-eabi/
 601              		.file 3 "/home/mitchd/Documents/FOX-1/amsat-fox/x86_64-toolchain/arm/bin/../lib/gcc/arm-none-eabi/
 602              		.file 4 "./os/ports/GCC/ARMCMx/chtypes.h"
 603              		.file 5 "./os/kernel/include/chlists.h"
 604              		.file 6 "./os/kernel/include/chthreads.h"
 605              		.file 7 "./os/ports/GCC/ARMCMx/chcore_v7m.h"
 606              		.file 8 "./os/kernel/include/chmtx.h"
 607              		.file 9 "./os/kernel/include/chevents.h"
ARM GAS  /tmp/ccZZC2fc.s 			page 12


 608              		.file 10 "./os/kernel/include/chqueues.h"
 609              		.file 11 "./os/kernel/include/chioch.h"
 610              		.file 12 "./os/hal/platforms/STM32F4xx/stm32f4xx.h"
 611              		.file 13 "./os/hal/include/serial.h"
 612              		.file 14 "./os/hal/platforms/STM32/serial_lld.h"
 613              		.file 15 "./os/kernel/include/chschd.h"
 614              		.file 16 "./os/ports/common/ARMCMx/CMSIS/include/core_cm4.h"