ARM GAS  /tmp/cczamBoJ.s 			page 1


   1              		.syntax unified
   2              		.cpu cortex-m4
   3              		.fpu softvfp
   4              		.eabi_attribute 20, 1
   5              		.eabi_attribute 21, 1
   6              		.eabi_attribute 23, 3
   7              		.eabi_attribute 24, 1
   8              		.eabi_attribute 25, 1
   9              		.eabi_attribute 26, 1
  10              		.eabi_attribute 30, 2
  11              		.eabi_attribute 34, 1
  12              		.eabi_attribute 18, 4
  13              		.thumb
  14              		.file	"serial_lld.c"
  15              		.text
  16              	.Ltext0:
  17              		.cfi_sections	.debug_frame
  18              		.section	.text.notify2,"ax",%progbits
  19              		.align	2
  20              		.p2align 4,,15
  21              		.thumb
  22              		.thumb_func
  23              		.type	notify2, %function
  24              	notify2:
  25              	.LFB121:
  26              		.file 1 "./os/hal/platforms/STM32/serial_lld.c"
  27              		.loc 1 225 0
  28              		.cfi_startproc
  29              		@ args = 0, pretend = 0, frame = 0
  30              		@ frame_needed = 0, uses_anonymous_args = 0
  31              		@ link register save eliminated.
  32              	.LVL0:
  33              		.loc 1 228 0
  34 0000 4FF48843 		mov	r3, #17408
  35 0004 C4F20003 		movt	r3, 16384
  36 0008 9A89     		ldrh	r2, [r3, #12]
  37 000a 92B2     		uxth	r2, r2
  38 000c 42F08002 		orr	r2, r2, #128
  39 0010 9A81     		strh	r2, [r3, #12]	@ movhi
  40 0012 7047     		bx	lr
  41              		.cfi_endproc
  42              	.LFE121:
  43              		.size	notify2, .-notify2
  44              		.section	.text.VectorD8,"ax",%progbits
  45              		.align	2
  46              		.p2align 4,,15
  47              		.global	VectorD8
  48              		.thumb
  49              		.thumb_func
  50              		.type	VectorD8, %function
  51              	VectorD8:
  52              	.LFB122:
  53              		.loc 1 290 0
  54              		.cfi_startproc
  55              		@ args = 0, pretend = 0, frame = 0
  56              		@ frame_needed = 0, uses_anonymous_args = 0
  57              	.LVL1:
ARM GAS  /tmp/cczamBoJ.s 			page 2


  58 0000 2DE9F041 		push	{r4, r5, r6, r7, r8, lr}
  59              	.LCFI0:
  60              		.cfi_def_cfa_offset 24
  61              		.cfi_offset 4, -24
  62              		.cfi_offset 5, -20
  63              		.cfi_offset 6, -16
  64              		.cfi_offset 7, -12
  65              		.cfi_offset 8, -8
  66              		.cfi_offset 14, -4
  67              	.LBB30:
  68              	.LBB31:
  69              		.loc 1 171 0
  70 0004 534E     		ldr	r6, .L48
  71 0006 356F     		ldr	r5, [r6, #112]
  72              	.LVL2:
  73              		.loc 1 172 0
  74 0008 AF89     		ldrh	r7, [r5, #12]
  75              		.loc 1 173 0
  76 000a 2C88     		ldrh	r4, [r5, #0]
  77              		.loc 1 174 0
  78 000c A988     		ldrh	r1, [r5, #4]
  79              		.loc 1 173 0
  80 000e A4B2     		uxth	r4, r4
  81              		.loc 1 177 0
  82 0010 2207     		lsls	r2, r4, #28
  83              		.loc 1 172 0
  84 0012 BFB2     		uxth	r7, r7
  85              	.LVL3:
  86              		.loc 1 174 0
  87 0014 1FFA81F8 		uxth	r8, r1
  88              	.LVL4:
  89              		.loc 1 177 0
  90 0018 53D1     		bne	.L43
  91              	.LVL5:
  92              	.L3:
  93              		.loc 1 180 0
  94 001a 04F48073 		and	r3, r4, #256
  95              	.LVL6:
  96 001e 9BB2     		uxth	r3, r3
  97 0020 002B     		cmp	r3, #0
  98 0022 39D1     		bne	.L44
  99              	.L8:
 100              		.loc 1 187 0
 101 0024 04F02003 		and	r3, r4, #32
 102 0028 9BB2     		uxth	r3, r3
 103 002a 002B     		cmp	r3, #0
 104 002c 28D1     		bne	.L45
 105              	.LVL7:
 106              	.L9:
 107              		.loc 1 193 0
 108 002e 07F08003 		and	r3, r7, #128
 109              	.LVL8:
 110 0032 9BB2     		uxth	r3, r3
 111 0034 23B1     		cbz	r3, .L10
 112 0036 04F08003 		and	r3, r4, #128
 113 003a 9BB2     		uxth	r3, r3
 114 003c 002B     		cmp	r3, #0
ARM GAS  /tmp/cczamBoJ.s 			page 3


 115 003e 65D1     		bne	.L46
 116              	.LVL9:
 117              	.L10:
 118              		.loc 1 206 0
 119 0040 04F04004 		and	r4, r4, #64
 120              	.LVL10:
 121 0044 A4B2     		uxth	r4, r4
 122 0046 BCB1     		cbz	r4, .L13
 123              	.LBB32:
 124              		.loc 1 207 0
 125 0048 2023     		movs	r3, #32
 126              	.LVL11:
 127              	@ 207 "./os/hal/platforms/STM32/serial_lld.c" 1
 128 004a 83F31188 		msr     BASEPRI, r3
 129              	@ 0 "" 2
 130              	.LVL12:
 131              		.thumb
 132              	.LBE32:
 133              		.loc 1 208 0
 134 004e B368     		ldr	r3, [r6, #8]
 135              	.LVL13:
 136 0050 4148     		ldr	r0, .L48+4
 137 0052 43F01003 		orr	r3, r3, #16
 138 0056 0021     		movs	r1, #0
 139 0058 B360     		str	r3, [r6, #8]
 140 005a FFF7FEFF 		bl	chEvtBroadcastFlagsI
 141              	.LVL14:
 142              	.LBB33:
 143              		.loc 1 209 0
 144 005e 0023     		movs	r3, #0
 145              	.LVL15:
 146              	@ 209 "./os/hal/platforms/STM32/serial_lld.c" 1
 147 0060 83F31188 		msr     BASEPRI, r3
 148              	@ 0 "" 2
 149              	.LVL16:
 150              		.thumb
 151              	.LBE33:
 152              		.loc 1 210 0
 153 0064 4FF6BF73 		movw	r3, #65471
 154              	.LVL17:
 155 0068 3B40     		ands	r3, r3, r7
 156 006a AB81     		strh	r3, [r5, #12]	@ movhi
 157              		.loc 1 211 0
 158 006c 2B88     		ldrh	r3, [r5, #0]
 159 006e 23F04003 		bic	r3, r3, #64
 160 0072 1B04     		lsls	r3, r3, #16
 161 0074 1B0C     		lsrs	r3, r3, #16
 162 0076 2B80     		strh	r3, [r5, #0]	@ movhi
 163              	.LVL18:
 164              	.L13:
 165              	.LBE31:
 166              	.LBE30:
 167              		.loc 1 297 0
 168 0078 BDE8F041 		pop	{r4, r5, r6, r7, r8, lr}
 169              		.loc 1 296 0
 170 007c FFF7FEBF 		b	_port_irq_epilogue
 171              	.LVL19:
ARM GAS  /tmp/cczamBoJ.s 			page 4


 172              	.L45:
 173              	.LBB46:
 174              	.LBB45:
 175              	.LBB34:
 176              		.loc 1 188 0
 177 0080 2023     		movs	r3, #32
 178              	.LVL20:
 179              	@ 188 "./os/hal/platforms/STM32/serial_lld.c" 1
 180 0082 83F31188 		msr     BASEPRI, r3
 181              	@ 0 "" 2
 182              	.LVL21:
 183              		.thumb
 184              	.LBE34:
 185              		.loc 1 189 0
 186 0086 3348     		ldr	r0, .L48
 187 0088 5FFA88F1 		uxtb	r1, r8
 188 008c FFF7FEFF 		bl	sdIncomingDataI
 189              	.LVL22:
 190              	.LBB35:
 191              		.loc 1 190 0
 192 0090 0023     		movs	r3, #0
 193              	@ 190 "./os/hal/platforms/STM32/serial_lld.c" 1
 194 0092 83F31188 		msr     BASEPRI, r3
 195              	@ 0 "" 2
 196              	.LVL23:
 197              		.thumb
 198 0096 CAE7     		b	.L9
 199              	.LVL24:
 200              	.L44:
 201              	.LBE35:
 202              	.LBB36:
 203              		.loc 1 181 0
 204 0098 2023     		movs	r3, #32
 205              	.LVL25:
 206              	@ 181 "./os/hal/platforms/STM32/serial_lld.c" 1
 207 009a 83F31188 		msr     BASEPRI, r3
 208              	@ 0 "" 2
 209              	.LVL26:
 210              		.thumb
 211              	.LBE36:
 212              		.loc 1 182 0
 213 009e B368     		ldr	r3, [r6, #8]
 214              	.LVL27:
 215 00a0 2D48     		ldr	r0, .L48+4
 216 00a2 43F40073 		orr	r3, r3, #512
 217 00a6 0021     		movs	r1, #0
 218 00a8 B360     		str	r3, [r6, #8]
 219 00aa FFF7FEFF 		bl	chEvtBroadcastFlagsI
 220              	.LVL28:
 221              	.LBB37:
 222              		.loc 1 183 0
 223 00ae 0023     		movs	r3, #0
 224              	.LVL29:
 225              	@ 183 "./os/hal/platforms/STM32/serial_lld.c" 1
 226 00b0 83F31188 		msr     BASEPRI, r3
 227              	@ 0 "" 2
 228              	.LVL30:
ARM GAS  /tmp/cczamBoJ.s 			page 5


 229              		.thumb
 230              	.LBE37:
 231              		.loc 1 184 0
 232 00b4 2B88     		ldrh	r3, [r5, #0]
 233              	.LVL31:
 234 00b6 23F48073 		bic	r3, r3, #256
 235 00ba 1B04     		lsls	r3, r3, #16
 236 00bc 1B0C     		lsrs	r3, r3, #16
 237 00be 2B80     		strh	r3, [r5, #0]	@ movhi
 238 00c0 B0E7     		b	.L8
 239              	.LVL32:
 240              	.L43:
 241              	.LBB38:
 242              	.LBB39:
 243              		.loc 1 152 0
 244 00c2 04F00802 		and	r2, r4, #8
 245 00c6 92B2     		uxth	r2, r2
 246              		.loc 1 153 0
 247 00c8 002A     		cmp	r2, #0
 248 00ca 14BF     		ite	ne
 249 00cc 8022     		movne	r2, #128
 250 00ce 0022     		moveq	r2, #0
 251              	.LVL33:
 252              		.loc 1 154 0
 253 00d0 E307     		lsls	r3, r4, #31
 254              		.loc 1 156 0
 255 00d2 04F00203 		and	r3, r4, #2
 256 00d6 9BB2     		uxth	r3, r3
 257              		.loc 1 155 0
 258 00d8 48BF     		it	mi
 259 00da 42F02002 		orrmi	r2, r2, #32
 260              	.LVL34:
 261              		.loc 1 156 0
 262 00de 0BB1     		cbz	r3, .L6
 263              		.loc 1 157 0
 264 00e0 42F04002 		orr	r2, r2, #64
 265              	.LVL35:
 266              	.L6:
 267              		.loc 1 158 0
 268 00e4 04F00403 		and	r3, r4, #4
 269 00e8 9BB2     		uxth	r3, r3
 270 00ea 0BB1     		cbz	r3, .L7
 271              		.loc 1 159 0
 272 00ec 42F48072 		orr	r2, r2, #256
 273              	.LVL36:
 274              	.L7:
 275              	.LBB40:
 276              		.loc 1 160 0
 277 00f0 2023     		movs	r3, #32
 278              	.LVL37:
 279              	@ 160 "./os/hal/platforms/STM32/serial_lld.c" 1
 280 00f2 83F31188 		msr     BASEPRI, r3
 281              	@ 0 "" 2
 282              	.LVL38:
 283              		.thumb
 284              	.LBE40:
 285              		.loc 1 161 0
ARM GAS  /tmp/cczamBoJ.s 			page 6


 286 00f6 B368     		ldr	r3, [r6, #8]
 287              	.LVL39:
 288 00f8 1748     		ldr	r0, .L48+4
 289 00fa 1A43     		orrs	r2, r2, r3
 290              	.LVL40:
 291 00fc 0021     		movs	r1, #0
 292              	.LVL41:
 293 00fe B260     		str	r2, [r6, #8]
 294 0100 FFF7FEFF 		bl	chEvtBroadcastFlagsI
 295              	.LVL42:
 296              	.LBB41:
 297              		.loc 1 162 0
 298 0104 0023     		movs	r3, #0
 299              	@ 162 "./os/hal/platforms/STM32/serial_lld.c" 1
 300 0106 83F31188 		msr     BASEPRI, r3
 301              	@ 0 "" 2
 302              	.LVL43:
 303              		.thumb
 304 010a 86E7     		b	.L3
 305              	.LVL44:
 306              	.L46:
 307              	.LBE41:
 308              	.LBE39:
 309              	.LBE38:
 310              	.LBB42:
 311              	.LBB43:
 312              		.loc 1 195 0
 313 010c 2023     		movs	r3, #32
 314              	.LVL45:
 315              	@ 195 "./os/hal/platforms/STM32/serial_lld.c" 1
 316 010e 83F31188 		msr     BASEPRI, r3
 317              	@ 0 "" 2
 318              	.LVL46:
 319              		.thumb
 320              	.LBE43:
 321              		.loc 1 196 0
 322 0112 DFF84080 		ldr	r8, .L48
 323              	.LVL47:
 324 0116 08F13000 		add	r0, r8, #48
 325 011a FFF7FEFF 		bl	chOQGetI
 326              	.LVL48:
 327              		.loc 1 197 0
 328 011e 0028     		cmp	r0, #0
 329              		.loc 1 202 0
 330 0120 A4BF     		itt	ge
 331 0122 80B2     		uxthge	r0, r0
 332              	.LVL49:
 333 0124 A880     		strhge	r0, [r5, #4]	@ movhi
 334              		.loc 1 197 0
 335 0126 03DB     		blt	.L47
 336              	.L12:
 337              	.LBB44:
 338              		.loc 1 203 0
 339 0128 0023     		movs	r3, #0
 340              	@ 203 "./os/hal/platforms/STM32/serial_lld.c" 1
 341 012a 83F31188 		msr     BASEPRI, r3
 342              	@ 0 "" 2
ARM GAS  /tmp/cczamBoJ.s 			page 7


 343              	.LVL50:
 344              		.thumb
 345 012e 87E7     		b	.L10
 346              	.LVL51:
 347              	.L47:
 348              	.LBE44:
 349              		.loc 1 198 0
 350 0130 D8F80830 		ldr	r3, [r8, #8]
 351 0134 08F10400 		add	r0, r8, #4
 352 0138 43F00803 		orr	r3, r3, #8
 353 013c 0021     		movs	r1, #0
 354 013e C8F80830 		str	r3, [r8, #8]
 355 0142 FFF7FEFF 		bl	chEvtBroadcastFlagsI
 356              	.LVL52:
 357              		.loc 1 199 0
 358 0146 27F0C003 		bic	r3, r7, #192
 359 014a 43F04003 		orr	r3, r3, #64
 360 014e AB81     		strh	r3, [r5, #12]	@ movhi
 361 0150 EAE7     		b	.L12
 362              	.L49:
 363 0152 00BF     		.align	2
 364              	.L48:
 365 0154 00000000 		.word	.LANCHOR0
 366 0158 04000000 		.word	.LANCHOR0+4
 367              	.LBE42:
 368              	.LBE45:
 369              	.LBE46:
 370              		.cfi_endproc
 371              	.LFE122:
 372              		.size	VectorD8, .-VectorD8
 373 015c AFF30080 		.section	.text.sd_lld_init,"ax",%progbits
 374              		.align	2
 375              		.p2align 4,,15
 376              		.global	sd_lld_init
 377              		.thumb
 378              		.thumb_func
 379              		.type	sd_lld_init, %function
 380              	sd_lld_init:
 381              	.LFB123:
 382              		.loc 1 373 0
 383              		.cfi_startproc
 384              		@ args = 0, pretend = 0, frame = 0
 385              		@ frame_needed = 0, uses_anonymous_args = 0
 386 0000 10B5     		push	{r4, lr}
 387              	.LCFI1:
 388              		.cfi_def_cfa_offset 8
 389              		.cfi_offset 4, -8
 390              		.cfi_offset 14, -4
 391              		.loc 1 381 0
 392 0002 40F20004 		movw	r4, #:lower16:.LANCHOR0
 393 0006 C0F20004 		movt	r4, #:upper16:.LANCHOR0
 394 000a 40F20002 		movw	r2, #:lower16:notify2
 395 000e 2046     		mov	r0, r4
 396 0010 0021     		movs	r1, #0
 397 0012 C0F20002 		movt	r2, #:upper16:notify2
 398 0016 FFF7FEFF 		bl	sdObjectInit
 399              	.LVL53:
ARM GAS  /tmp/cczamBoJ.s 			page 8


 400              		.loc 1 382 0
 401 001a 4FF48843 		mov	r3, #17408
 402 001e C4F20003 		movt	r3, 16384
 403 0022 2367     		str	r3, [r4, #112]
 404 0024 10BD     		pop	{r4, pc}
 405              		.cfi_endproc
 406              	.LFE123:
 407              		.size	sd_lld_init, .-sd_lld_init
 408 0026 00BFAFF3 		.section	.text.sd_lld_start,"ax",%progbits
 408      0080AFF3 
 408      0080
 409              		.align	2
 410              		.p2align 4,,15
 411              		.global	sd_lld_start
 412              		.thumb
 413              		.thumb_func
 414              		.type	sd_lld_start, %function
 415              	sd_lld_start:
 416              	.LFB124:
 417              		.loc 1 416 0
 418              		.cfi_startproc
 419              		@ args = 0, pretend = 0, frame = 0
 420              		@ frame_needed = 0, uses_anonymous_args = 0
 421              	.LVL54:
 422 0000 38B5     		push	{r3, r4, r5, lr}
 423              	.LCFI2:
 424              		.cfi_def_cfa_offset 16
 425              		.cfi_offset 3, -16
 426              		.cfi_offset 4, -12
 427              		.cfi_offset 5, -8
 428              		.cfi_offset 14, -4
 429              		.loc 1 421 0
 430 0002 037B     		ldrb	r3, [r0, #12]	@ zero_extendqisi2
 431              		.loc 1 419 0
 432 0004 234C     		ldr	r4, .L58
 433 0006 0029     		cmp	r1, #0
 434 0008 18BF     		it	ne
 435 000a 0C46     		movne	r4, r1
 436              	.LVL55:
 437              		.loc 1 421 0
 438 000c 012B     		cmp	r3, #1
 439              		.loc 1 416 0
 440 000e 0546     		mov	r5, r0
 441              		.loc 1 421 0
 442 0010 30D0     		beq	.L57
 443              	.LVL56:
 444              	.L53:
 445              	.LBB49:
 446              	.LBB50:
 447              		.loc 1 100 0
 448 0012 2B6F     		ldr	r3, [r5, #112]
 449              	.LVL57:
 450              		.loc 1 106 0
 451 0014 4FF4A051 		mov	r1, #5120
 452 0018 4FF48052 		mov	r2, #4096
 453 001c C4F20102 		movt	r2, 16385
 454 0020 C4F20101 		movt	r1, 16385
ARM GAS  /tmp/cczamBoJ.s 			page 9


 455 0024 9342     		cmp	r3, r2
 456 0026 18BF     		it	ne
 457 0028 8B42     		cmpne	r3, r1
 458              		.loc 1 110 0
 459 002a 08BF     		it	eq
 460 002c 4FF43D42 		moveq	r2, #48384
 461 0030 2168     		ldr	r1, [r4, #0]
 462              		.loc 1 112 0
 463 0032 16BF     		itet	ne
 464 0034 4DF68062 		movwne	r2, #56960
 465              		.loc 1 110 0
 466 0038 C0F20152 		movteq	r2, 1281
 467              		.loc 1 112 0
 468 003c C0F28022 		movtne	r2, 640
 469 0040 B2FBF1F2 		udiv	r2, r2, r1
 470 0044 92B2     		uxth	r2, r2
 471 0046 1A81     		strh	r2, [r3, #8]	@ movhi
 472              		.loc 1 119 0
 473 0048 A288     		ldrh	r2, [r4, #4]
 474              		.loc 1 117 0
 475 004a E088     		ldrh	r0, [r4, #6]
 476              		.loc 1 118 0
 477 004c 2189     		ldrh	r1, [r4, #8]
 478              		.loc 1 119 0
 479 004e 42F40452 		orr	r2, r2, #8448
 480              		.loc 1 117 0
 481 0052 40F04000 		orr	r0, r0, #64
 482              		.loc 1 118 0
 483 0056 41F00101 		orr	r1, r1, #1
 484              		.loc 1 119 0
 485 005a 42F02C02 		orr	r2, r2, #44
 486 005e 92B2     		uxth	r2, r2
 487              		.loc 1 117 0
 488 0060 80B2     		uxth	r0, r0
 489              		.loc 1 118 0
 490 0062 89B2     		uxth	r1, r1
 491              		.loc 1 117 0
 492 0064 1882     		strh	r0, [r3, #16]	@ movhi
 493              		.loc 1 118 0
 494 0066 9982     		strh	r1, [r3, #20]	@ movhi
 495              		.loc 1 119 0
 496 0068 9A81     		strh	r2, [r3, #12]	@ movhi
 497              		.loc 1 122 0
 498 006a 0022     		movs	r2, #0
 499 006c 1A80     		strh	r2, [r3, #0]	@ movhi
 500              		.loc 1 123 0
 501 006e 1A88     		ldrh	r2, [r3, #0]
 502              		.loc 1 124 0
 503 0070 9B88     		ldrh	r3, [r3, #4]
 504              	.LVL58:
 505 0072 38BD     		pop	{r3, r4, r5, pc}
 506              	.LVL59:
 507              	.L57:
 508              	.LBE50:
 509              	.LBE49:
 510              		.loc 1 430 0
 511 0074 084B     		ldr	r3, .L58+4
ARM GAS  /tmp/cczamBoJ.s 			page 10


 512 0076 9842     		cmp	r0, r3
 513 0078 CBD1     		bne	.L53
 514              		.loc 1 431 0
 515 007a 4FF46053 		mov	r3, #14336
 516 007e C4F20203 		movt	r3, 16386
 517              		.loc 1 432 0
 518 0082 2620     		movs	r0, #38
 519              	.LVL60:
 520              		.loc 1 431 0
 521 0084 1A6C     		ldr	r2, [r3, #64]
 522 0086 42F40032 		orr	r2, r2, #131072
 523 008a 1A64     		str	r2, [r3, #64]
 524              		.loc 1 432 0
 525 008c C021     		movs	r1, #192
 526 008e FFF7FEFF 		bl	nvicEnableVector
 527              	.LVL61:
 528 0092 BEE7     		b	.L53
 529              	.L59:
 530              		.align	2
 531              	.L58:
 532 0094 00000000 		.word	.LANCHOR1
 533 0098 00000000 		.word	.LANCHOR0
 534              		.cfi_endproc
 535              	.LFE124:
 536              		.size	sd_lld_start, .-sd_lld_start
 537 009c AFF30080 		.section	.text.sd_lld_stop,"ax",%progbits
 538              		.align	2
 539              		.p2align 4,,15
 540              		.global	sd_lld_stop
 541              		.thumb
 542              		.thumb_func
 543              		.type	sd_lld_stop, %function
 544              	sd_lld_stop:
 545              	.LFB125:
 546              		.loc 1 477 0
 547              		.cfi_startproc
 548              		@ args = 0, pretend = 0, frame = 0
 549              		@ frame_needed = 0, uses_anonymous_args = 0
 550              		@ link register save eliminated.
 551              	.LVL62:
 552              		.loc 1 479 0
 553 0000 037B     		ldrb	r3, [r0, #12]	@ zero_extendqisi2
 554 0002 022B     		cmp	r3, #2
 555 0004 00D0     		beq	.L64
 556              	.L60:
 557 0006 7047     		bx	lr
 558              	.L64:
 559              		.loc 1 480 0
 560 0008 036F     		ldr	r3, [r0, #112]
 561              	.LVL63:
 562              	.LBB51:
 563              	.LBB52:
 564              		.loc 1 135 0
 565 000a 0022     		movs	r2, #0
 566 000c 9A81     		strh	r2, [r3, #12]	@ movhi
 567              		.loc 1 136 0
 568 000e 1A82     		strh	r2, [r3, #16]	@ movhi
ARM GAS  /tmp/cczamBoJ.s 			page 11


 569              		.loc 1 137 0
 570 0010 9A82     		strh	r2, [r3, #20]	@ movhi
 571              	.LBE52:
 572              	.LBE51:
 573              		.loc 1 489 0
 574 0012 074B     		ldr	r3, .L65
 575              	.LVL64:
 576 0014 9842     		cmp	r0, r3
 577 0016 F6D1     		bne	.L60
 578              		.loc 1 490 0
 579 0018 4FF46053 		mov	r3, #14336
 580 001c C4F20203 		movt	r3, 16386
 581              		.loc 1 491 0
 582 0020 2620     		movs	r0, #38
 583              	.LVL65:
 584              		.loc 1 490 0
 585 0022 1A6C     		ldr	r2, [r3, #64]
 586 0024 22F40032 		bic	r2, r2, #131072
 587 0028 1A64     		str	r2, [r3, #64]
 588              		.loc 1 524 0
 589              		.loc 1 491 0
 590 002a FFF7FEBF 		b	nvicDisableVector
 591              	.LVL66:
 592              	.L66:
 593 002e 00BF     		.align	2
 594              	.L65:
 595 0030 00000000 		.word	.LANCHOR0
 596              		.cfi_endproc
 597              	.LFE125:
 598              		.size	sd_lld_stop, .-sd_lld_stop
 599              		.global	SD2
 600 0034 AFF30080 		.section	.rodata.default_config,"a",%progbits
 600      AFF30080 
 600      AFF30080 
 601              		.align	2
 602              		.set	.LANCHOR1,. + 0
 603              		.type	default_config, %object
 604              		.size	default_config, 12
 605              	default_config:
 606 0000 00960000 		.word	38400
 607 0004 0000     		.short	0
 608 0006 0040     		.short	16384
 609 0008 0000     		.short	0
 610 000a 0000     		.space	2
 611              		.section	.bss.SD2,"aw",%nobits
 612              		.align	2
 613              		.set	.LANCHOR0,. + 0
 614              		.type	SD2, %object
 615              		.size	SD2, 116
 616              	SD2:
 617 0000 00000000 		.space	116
 617      00000000 
 617      00000000 
 617      00000000 
 617      00000000 
 618              		.text
 619              	.Letext0:
ARM GAS  /tmp/cczamBoJ.s 			page 12


 620              		.file 2 "/home/mitchd/Documents/FOX-1/amsat-fox/x86_64-toolchain/arm/bin/../lib/gcc/arm-none-eabi/
 621              		.file 3 "/home/mitchd/Documents/FOX-1/amsat-fox/x86_64-toolchain/arm/bin/../lib/gcc/arm-none-eabi/
 622              		.file 4 "./os/ports/GCC/ARMCMx/chtypes.h"
 623              		.file 5 "./os/kernel/include/chlists.h"
 624              		.file 6 "./os/kernel/include/chthreads.h"
 625              		.file 7 "./os/ports/GCC/ARMCMx/chcore_v7m.h"
 626              		.file 8 "./os/kernel/include/chmtx.h"
 627              		.file 9 "./os/kernel/include/chevents.h"
 628              		.file 10 "./os/kernel/include/chqueues.h"
 629              		.file 11 "./os/kernel/include/chioch.h"
 630              		.file 12 "./os/hal/platforms/STM32F4xx/stm32f4xx.h"
 631              		.file 13 "./os/hal/include/serial.h"
 632              		.file 14 "./os/hal/platforms/STM32/serial_lld.h"
 633              		.file 15 "./os/ports/common/ARMCMx/nvic.h"
 634              		.file 16 "./os/ports/common/ARMCMx/CMSIS/include/core_cm4.h"