ARM GAS  /tmp/ccZZC2fc.s 			page 1


   1              		.syntax unified
   2              		.cpu cortex-m4
   3              		.fpu softvfp
   4              		.eabi_attribute 20, 1
   5              		.eabi_attribute 21, 1
   6              		.eabi_attribute 23, 3
   7              		.eabi_attribute 24, 1
   8              		.eabi_attribute 25, 1
   9              		.eabi_attribute 26, 1
  10              		.eabi_attribute 30, 2
  11              		.eabi_attribute 34, 1
  12              		.eabi_attribute 18, 4
  13              		.thumb
  14              		.file	"serial.c"
  15              		.text
  16              	.Ltext0:
  17              		.cfi_sections	.debug_frame
  18              		.section	.text.putwouldblock,"ax",%progbits
  19              		.align	2
  20              		.p2align 4,,15
  21              		.thumb
  22              		.thumb_func
  23              		.type	putwouldblock, %function
  24              	putwouldblock:
  25              	.LFB119:
  26              		.file 1 "./os/hal/src/serial.c"
  27              		.loc 1 74 0
  28              		.cfi_startproc
  29              		@ args = 0, pretend = 0, frame = 0
  30              		@ frame_needed = 0, uses_anonymous_args = 0
  31              		@ link register save eliminated.
  32              	.LVL0:
  33              		.loc 1 76 0
  34 0000 806B     		ldr	r0, [r0, #56]
  35              	.LVL1:
  36              		.loc 1 77 0
  37 0002 D0F10100 		rsbs	r0, r0, #1
  38 0006 38BF     		it	cc
  39 0008 0020     		movcc	r0, #0
  40 000a 7047     		bx	lr
  41              		.cfi_endproc
  42              	.LFE119:
  43              		.size	putwouldblock, .-putwouldblock
  44 000c AFF30080 		.section	.text.getwouldblock,"ax",%progbits
  45              		.align	2
  46              		.p2align 4,,15
  47              		.thumb
  48              		.thumb_func
  49              		.type	getwouldblock, %function
  50              	getwouldblock:
  51              	.LFB120:
  52              		.loc 1 79 0
  53              		.cfi_startproc
  54              		@ args = 0, pretend = 0, frame = 0
  55              		@ frame_needed = 0, uses_anonymous_args = 0
  56              		@ link register save eliminated.
  57              	.LVL2:
ARM GAS  /tmp/ccZZC2fc.s 			page 2


  58              		.loc 1 81 0
  59 0000 8069     		ldr	r0, [r0, #24]
  60              	.LVL3:
  61              		.loc 1 82 0
  62 0002 D0F10100 		rsbs	r0, r0, #1
  63 0006 38BF     		it	cc
  64 0008 0020     		movcc	r0, #0
  65 000a 7047     		bx	lr
  66              		.cfi_endproc
  67              	.LFE120:
  68              		.size	getwouldblock, .-getwouldblock
  69              		.section	.text.getflags,"ax",%progbits
  70              		.align	2
  71              		.p2align 4,,15
  72              		.thumb
  73              		.thumb_func
  74              		.type	getflags, %function
  75              	getflags:
  76              	.LFB125:
  77              		.loc 1 104 0
  78              		.cfi_startproc
  79              		@ args = 0, pretend = 0, frame = 0
  80              		@ frame_needed = 0, uses_anonymous_args = 0
  81              		@ link register save eliminated.
  82              	.LVL4:
  83              		.loc 1 104 0
  84 0000 0246     		mov	r2, r0
  85              	.LBB2:
  86              		.loc 1 105 0
  87 0002 2023     		movs	r3, #32
  88              	.LVL5:
  89              	@ 105 "./os/hal/src/serial.c" 1
  90 0004 83F31188 		msr     BASEPRI, r3
  91              	@ 0 "" 2
  92              	.LVL6:
  93              		.thumb
  94              	.LBE2:
  95 0008 0023     		movs	r3, #0
  96              	.LVL7:
  97 000a 8068     		ldr	r0, [r0, #8]
  98              	.LVL8:
  99 000c 9360     		str	r3, [r2, #8]
 100              	.LBB3:
 101              	@ 105 "./os/hal/src/serial.c" 1
 102 000e 83F31188 		msr     BASEPRI, r3
 103              	@ 0 "" 2
 104              	.LVL9:
 105              		.thumb
 106              	.LBE3:
 107              		.loc 1 106 0
 108 0012 7047     		bx	lr
 109              		.cfi_endproc
 110              	.LFE125:
 111              		.size	getflags, .-getflags
 112 0014 AFF30080 		.section	.text.readt,"ax",%progbits
 112      AFF30080 
 112      AFF30080 
ARM GAS  /tmp/ccZZC2fc.s 			page 3


 113              		.align	2
 114              		.p2align 4,,15
 115              		.thumb
 116              		.thumb_func
 117              		.type	readt, %function
 118              	readt:
 119              	.LFB124:
 120              		.loc 1 99 0
 121              		.cfi_startproc
 122              		@ args = 0, pretend = 0, frame = 0
 123              		@ frame_needed = 0, uses_anonymous_args = 0
 124              		@ link register save eliminated.
 125              	.LVL10:
 126              		.loc 1 101 0
 127 0000 1030     		adds	r0, r0, #16
 128              	.LVL11:
 129              		.loc 1 102 0
 130              		.loc 1 101 0
 131 0002 FFF7FEBF 		b	chIQReadTimeout
 132              	.LVL12:
 133              		.cfi_endproc
 134              	.LFE124:
 135              		.size	readt, .-readt
 136 0006 00BFAFF3 		.section	.text.reads,"ax",%progbits
 136      0080AFF3 
 136      0080
 137              		.align	2
 138              		.p2align 4,,15
 139              		.thumb
 140              		.thumb_func
 141              		.type	reads, %function
 142              	reads:
 143              	.LFB118:
 144              		.loc 1 68 0
 145              		.cfi_startproc
 146              		@ args = 0, pretend = 0, frame = 0
 147              		@ frame_needed = 0, uses_anonymous_args = 0
 148              		@ link register save eliminated.
 149              	.LVL13:
 150              		.loc 1 70 0
 151 0000 1030     		adds	r0, r0, #16
 152              	.LVL14:
 153 0002 4FF0FF33 		mov	r3, #-1
 154              		.loc 1 72 0
 155              		.loc 1 70 0
 156 0006 FFF7FEBF 		b	chIQReadTimeout
 157              	.LVL15:
 158              		.cfi_endproc
 159              	.LFE118:
 160              		.size	reads, .-reads
 161 000a 00BFAFF3 		.section	.text.writet,"ax",%progbits
 161      0080
 162              		.align	2
 163              		.p2align 4,,15
 164              		.thumb
 165              		.thumb_func
 166              		.type	writet, %function
ARM GAS  /tmp/ccZZC2fc.s 			page 4


 167              	writet:
 168              	.LFB123:
 169              		.loc 1 94 0
 170              		.cfi_startproc
 171              		@ args = 0, pretend = 0, frame = 0
 172              		@ frame_needed = 0, uses_anonymous_args = 0
 173              		@ link register save eliminated.
 174              	.LVL16:
 175              		.loc 1 96 0
 176 0000 3030     		adds	r0, r0, #48
 177              	.LVL17:
 178              		.loc 1 97 0
 179              		.loc 1 96 0
 180 0002 FFF7FEBF 		b	chOQWriteTimeout
 181              	.LVL18:
 182              		.cfi_endproc
 183              	.LFE123:
 184              		.size	writet, .-writet
 185 0006 00BFAFF3 		.section	.text.writes,"ax",%progbits
 185      0080AFF3 
 185      0080
 186              		.align	2
 187              		.p2align 4,,15
 188              		.thumb
 189              		.thumb_func
 190              		.type	writes, %function
 191              	writes:
 192              	.LFB117:
 193              		.loc 1 62 0
 194              		.cfi_startproc
 195              		@ args = 0, pretend = 0, frame = 0
 196              		@ frame_needed = 0, uses_anonymous_args = 0
 197              		@ link register save eliminated.
 198              	.LVL19:
 199              		.loc 1 64 0
 200 0000 3030     		adds	r0, r0, #48
 201              	.LVL20:
 202 0002 4FF0FF33 		mov	r3, #-1
 203              		.loc 1 66 0
 204              		.loc 1 64 0
 205 0006 FFF7FEBF 		b	chOQWriteTimeout
 206              	.LVL21:
 207              		.cfi_endproc
 208              	.LFE117:
 209              		.size	writes, .-writes
 210 000a 00BFAFF3 		.section	.text.gett,"ax",%progbits
 210      0080
 211              		.align	2
 212              		.p2align 4,,15
 213              		.thumb
 214              		.thumb_func
 215              		.type	gett, %function
 216              	gett:
 217              	.LFB122:
 218              		.loc 1 89 0
 219              		.cfi_startproc
 220              		@ args = 0, pretend = 0, frame = 0
ARM GAS  /tmp/ccZZC2fc.s 			page 5


 221              		@ frame_needed = 0, uses_anonymous_args = 0
 222              		@ link register save eliminated.
 223              	.LVL22:
 224              		.loc 1 91 0
 225 0000 1030     		adds	r0, r0, #16
 226              	.LVL23:
 227              		.loc 1 92 0
 228              		.loc 1 91 0
 229 0002 FFF7FEBF 		b	chIQGetTimeout
 230              	.LVL24:
 231              		.cfi_endproc
 232              	.LFE122:
 233              		.size	gett, .-gett
 234 0006 00BFAFF3 		.section	.text.putt,"ax",%progbits
 234      0080AFF3 
 234      0080
 235              		.align	2
 236              		.p2align 4,,15
 237              		.thumb
 238              		.thumb_func
 239              		.type	putt, %function
 240              	putt:
 241              	.LFB121:
 242              		.loc 1 84 0
 243              		.cfi_startproc
 244              		@ args = 0, pretend = 0, frame = 0
 245              		@ frame_needed = 0, uses_anonymous_args = 0
 246              		@ link register save eliminated.
 247              	.LVL25:
 248              		.loc 1 86 0
 249 0000 3030     		adds	r0, r0, #48
 250              	.LVL26:
 251              		.loc 1 87 0
 252              		.loc 1 86 0
 253 0002 FFF7FEBF 		b	chOQPutTimeout
 254              	.LVL27:
 255              		.cfi_endproc
 256              	.LFE121:
 257              		.size	putt, .-putt
 258 0006 00BFAFF3 		.section	.text.sdInit,"ax",%progbits
 258      0080AFF3 
 258      0080
 259              		.align	2
 260              		.p2align 4,,15
 261              		.global	sdInit
 262              		.thumb
 263              		.thumb_func
 264              		.type	sdInit, %function
 265              	sdInit:
 266              	.LFB126:
 267              		.loc 1 125 0
 268              		.cfi_startproc
 269              		@ args = 0, pretend = 0, frame = 0
 270              		@ frame_needed = 0, uses_anonymous_args = 0
 271              		@ link register save eliminated.
 272              		.loc 1 128 0
 273              		.loc 1 127 0
ARM GAS  /tmp/ccZZC2fc.s 			page 6


 274 0000 FFF7FEBF 		b	sd_lld_init
 275              	.LVL28:
 276              		.cfi_endproc
 277              	.LFE126:
 278              		.size	sdInit, .-sdInit
 279 0004 AFF30080 		.section	.text.sdObjectInit,"ax",%progbits
 279      AFF30080 
 279      AFF30080 
 280              		.align	2
 281              		.p2align 4,,15
 282              		.global	sdObjectInit
 283              		.thumb
 284              		.thumb_func
 285              		.type	sdObjectInit, %function
 286              	sdObjectInit:
 287              	.LFB127:
 288              		.loc 1 145 0
 289              		.cfi_startproc
 290              		@ args = 0, pretend = 0, frame = 0
 291              		@ frame_needed = 0, uses_anonymous_args = 0
 292              	.LVL29:
 293 0000 70B5     		push	{r4, r5, r6, lr}
 294              	.LCFI0:
 295              		.cfi_def_cfa_offset 16
 296              		.cfi_offset 4, -16
 297              		.cfi_offset 5, -12
 298              		.cfi_offset 6, -8
 299              		.cfi_offset 14, -4
 300              		.loc 1 147 0
 301 0002 40F20003 		movw	r3, #:lower16:.LANCHOR0
 302 0006 0546     		mov	r5, r0
 303 0008 C0F20003 		movt	r3, #:upper16:.LANCHOR0
 304              		.loc 1 145 0
 305 000c 0446     		mov	r4, r0
 306              		.loc 1 147 0
 307 000e 45F8043B 		str	r3, [r5], #4
 308              		.loc 1 148 0
 309 0012 6560     		str	r5, [r4, #4]
 310              		.loc 1 149 0
 311 0014 0025     		movs	r5, #0
 312 0016 A560     		str	r5, [r4, #8]
 313              		.loc 1 150 0
 314 0018 0125     		movs	r5, #1
 315              		.loc 1 145 0
 316 001a 0B46     		mov	r3, r1
 317 001c 1646     		mov	r6, r2
 318              		.loc 1 151 0
 319 001e 04F15001 		add	r1, r4, #80
 320              	.LVL30:
 321 0022 1022     		movs	r2, #16
 322              	.LVL31:
 323 0024 00F11000 		add	r0, r0, #16
 324              	.LVL32:
 325              		.loc 1 150 0
 326 0028 2573     		strb	r5, [r4, #12]
 327              		.loc 1 151 0
 328 002a FFF7FEFF 		bl	chIQInit
ARM GAS  /tmp/ccZZC2fc.s 			page 7


 329              	.LVL33:
 330              		.loc 1 152 0
 331 002e 04F13000 		add	r0, r4, #48
 332 0032 04F16001 		add	r1, r4, #96
 333 0036 1022     		movs	r2, #16
 334 0038 3346     		mov	r3, r6
 335              		.loc 1 153 0
 336 003a BDE87040 		pop	{r4, r5, r6, lr}
 337              		.loc 1 152 0
 338 003e FFF7FEBF 		b	chOQInit
 339              	.LVL34:
 340              		.cfi_endproc
 341              	.LFE127:
 342              		.size	sdObjectInit, .-sdObjectInit
 343 0042 00BFAFF3 		.section	.text.sdStart,"ax",%progbits
 343      0080AFF3 
 343      0080AFF3 
 343      0080
 344              		.align	2
 345              		.p2align 4,,15
 346              		.global	sdStart
 347              		.thumb
 348              		.thumb_func
 349              		.type	sdStart, %function
 350              	sdStart:
 351              	.LFB128:
 352              		.loc 1 165 0
 353              		.cfi_startproc
 354              		@ args = 0, pretend = 0, frame = 0
 355              		@ frame_needed = 0, uses_anonymous_args = 0
 356              	.LVL35:
 357 0000 10B5     		push	{r4, lr}
 358              	.LCFI1:
 359              		.cfi_def_cfa_offset 8
 360              		.cfi_offset 4, -8
 361              		.cfi_offset 14, -4
 362              	.LBB4:
 363              		.loc 1 169 0
 364 0002 2023     		movs	r3, #32
 365              	.LVL36:
 366              	.LBE4:
 367              		.loc 1 165 0
 368 0004 0446     		mov	r4, r0
 369              	.LBB5:
 370              		.loc 1 169 0
 371              	@ 169 "./os/hal/src/serial.c" 1
 372 0006 83F31188 		msr     BASEPRI, r3
 373              	@ 0 "" 2
 374              	.LVL37:
 375              		.thumb
 376              	.LBE5:
 377              		.loc 1 173 0
 378 000a FFF7FEFF 		bl	sd_lld_start
 379              	.LVL38:
 380              		.loc 1 174 0
 381 000e 0223     		movs	r3, #2
 382 0010 2373     		strb	r3, [r4, #12]
ARM GAS  /tmp/ccZZC2fc.s 			page 8


 383              	.LBB6:
 384              		.loc 1 175 0
 385 0012 0023     		movs	r3, #0
 386              	.LVL39:
 387              	@ 175 "./os/hal/src/serial.c" 1
 388 0014 83F31188 		msr     BASEPRI, r3
 389              	@ 0 "" 2
 390              	.LVL40:
 391              		.thumb
 392 0018 10BD     		pop	{r4, pc}
 393              	.LBE6:
 394              		.cfi_endproc
 395              	.LFE128:
 396              		.size	sdStart, .-sdStart
 397 001a 00BFAFF3 		.section	.text.sdStop,"ax",%progbits
 397      0080
 398              		.align	2
 399              		.p2align 4,,15
 400              		.global	sdStop
 401              		.thumb
 402              		.thumb_func
 403              		.type	sdStop, %function
 404              	sdStop:
 405              	.LFB129:
 406              		.loc 1 187 0
 407              		.cfi_startproc
 408              		@ args = 0, pretend = 0, frame = 0
 409              		@ frame_needed = 0, uses_anonymous_args = 0
 410              	.LVL41:
 411 0000 10B5     		push	{r4, lr}
 412              	.LCFI2:
 413              		.cfi_def_cfa_offset 8
 414              		.cfi_offset 4, -8
 415              		.cfi_offset 14, -4
 416              	.LBB7:
 417              		.loc 1 191 0
 418 0002 2023     		movs	r3, #32
 419              	.LVL42:
 420              	.LBE7:
 421              		.loc 1 187 0
 422 0004 0446     		mov	r4, r0
 423              	.LBB8:
 424              		.loc 1 191 0
 425              	@ 191 "./os/hal/src/serial.c" 1
 426 0006 83F31188 		msr     BASEPRI, r3
 427              	@ 0 "" 2
 428              	.LVL43:
 429              		.thumb
 430              	.LBE8:
 431              		.loc 1 195 0
 432 000a FFF7FEFF 		bl	sd_lld_stop
 433              	.LVL44:
 434              		.loc 1 196 0
 435 000e 0123     		movs	r3, #1
 436 0010 2373     		strb	r3, [r4, #12]
 437              		.loc 1 197 0
 438 0012 04F13000 		add	r0, r4, #48
ARM GAS  /tmp/ccZZC2fc.s 			page 9


 439 0016 FFF7FEFF 		bl	chOQResetI
 440              	.LVL45:
 441              		.loc 1 198 0
 442 001a 04F11000 		add	r0, r4, #16
 443 001e FFF7FEFF 		bl	chIQResetI
 444              	.LVL46:
 445              		.loc 1 199 0
 446 0022 FFF7FEFF 		bl	chSchRescheduleS
 447              	.LVL47:
 448              	.LBB9:
 449              		.loc 1 200 0
 450 0026 0023     		movs	r3, #0
 451              	.LVL48:
 452              	@ 200 "./os/hal/src/serial.c" 1
 453 0028 83F31188 		msr     BASEPRI, r3
 454              	@ 0 "" 2
 455              	.LVL49:
 456              		.thumb
 457 002c 10BD     		pop	{r4, pc}
 458              	.LBE9:
 459              		.cfi_endproc
 460              	.LFE129:
 461              		.size	sdStop, .-sdStop
 462 002e 00BF     		.section	.text.sdIncomingDataI,"ax",%progbits
 463              		.align	2
 464              		.p2align 4,,15
 465              		.global	sdIncomingDataI
 466              		.thumb
 467              		.thumb_func
 468              		.type	sdIncomingDataI, %function
 469              	sdIncomingDataI:
 470              	.LFB130:
 471              		.loc 1 219 0
 472              		.cfi_startproc
 473              		@ args = 0, pretend = 0, frame = 0
 474              		@ frame_needed = 0, uses_anonymous_args = 0
 475              	.LVL50:
 476 0000 38B5     		push	{r3, r4, r5, lr}
 477              	.LCFI3:
 478              		.cfi_def_cfa_offset 16
 479              		.cfi_offset 3, -16
 480              		.cfi_offset 4, -12
 481              		.cfi_offset 5, -8
 482              		.cfi_offset 14, -4
 483              		.loc 1 219 0
 484 0002 0D46     		mov	r5, r1
 485              		.loc 1 224 0
 486 0004 8169     		ldr	r1, [r0, #24]
 487              	.LVL51:
 488              		.loc 1 219 0
 489 0006 0446     		mov	r4, r0
 490              		.loc 1 224 0
 491 0008 39B1     		cbz	r1, .L18
 492              		.loc 1 226 0
 493 000a 04F11000 		add	r0, r4, #16
 494              	.LVL52:
 495 000e 2946     		mov	r1, r5
ARM GAS  /tmp/ccZZC2fc.s 			page 10


 496 0010 FFF7FEFF 		bl	chIQPutI
 497              	.LVL53:
 498 0014 0028     		cmp	r0, #0
 499 0016 0EDB     		blt	.L19
 500              	.L14:
 501 0018 38BD     		pop	{r3, r4, r5, pc}
 502              	.LVL54:
 503              	.L18:
 504              		.loc 1 225 0
 505 001a 8268     		ldr	r2, [r0, #8]
 506 001c 42F00402 		orr	r2, r2, #4
 507 0020 8260     		str	r2, [r0, #8]
 508 0022 0430     		adds	r0, r0, #4
 509              	.LVL55:
 510 0024 FFF7FEFF 		bl	chEvtBroadcastFlagsI
 511              	.LVL56:
 512              		.loc 1 226 0
 513 0028 04F11000 		add	r0, r4, #16
 514 002c 2946     		mov	r1, r5
 515 002e FFF7FEFF 		bl	chIQPutI
 516              	.LVL57:
 517 0032 0028     		cmp	r0, #0
 518 0034 F0DA     		bge	.L14
 519              	.L19:
 520              		.loc 1 227 0
 521 0036 A368     		ldr	r3, [r4, #8]
 522 0038 201D     		adds	r0, r4, #4
 523 003a 43F08003 		orr	r3, r3, #128
 524 003e 0021     		movs	r1, #0
 525 0040 A360     		str	r3, [r4, #8]
 526              		.loc 1 228 0
 527 0042 BDE83840 		pop	{r3, r4, r5, lr}
 528              		.loc 1 227 0
 529 0046 FFF7FEBF 		b	chEvtBroadcastFlagsI
 530              	.LVL58:
 531              		.cfi_endproc
 532              	.LFE130:
 533              		.size	sdIncomingDataI, .-sdIncomingDataI
 534 004a 00BFAFF3 		.section	.text.sdRequestDataI,"ax",%progbits
 534      0080
 535              		.align	2
 536              		.p2align 4,,15
 537              		.global	sdRequestDataI
 538              		.thumb
 539              		.thumb_func
 540              		.type	sdRequestDataI, %function
 541              	sdRequestDataI:
 542              	.LFB131:
 543              		.loc 1 245 0
 544              		.cfi_startproc
 545              		@ args = 0, pretend = 0, frame = 0
 546              		@ frame_needed = 0, uses_anonymous_args = 0
 547              	.LVL59:
 548 0000 38B5     		push	{r3, r4, r5, lr}
 549              	.LCFI4:
 550              		.cfi_def_cfa_offset 16
 551              		.cfi_offset 3, -16
ARM GAS  /tmp/ccZZC2fc.s 			page 11


 552              		.cfi_offset 4, -12
 553              		.cfi_offset 5, -8
 554              		.cfi_offset 14, -4
 555              		.loc 1 245 0
 556 0002 0446     		mov	r4, r0
 557              		.loc 1 251 0
 558 0004 00F13000 		add	r0, r0, #48
 559              	.LVL60:
 560 0008 FFF7FEFF 		bl	chOQGetI
 561              	.LVL61:
 562              		.loc 1 252 0
 563 000c 051E     		subs	r5, r0, #0
 564 000e 01DB     		blt	.L22
 565              		.loc 1 255 0
 566 0010 2846     		mov	r0, r5
 567 0012 38BD     		pop	{r3, r4, r5, pc}
 568              	.L22:
 569              		.loc 1 253 0
 570 0014 A368     		ldr	r3, [r4, #8]
 571 0016 43F00803 		orr	r3, r3, #8
 572 001a 201D     		adds	r0, r4, #4
 573 001c A360     		str	r3, [r4, #8]
 574 001e 0021     		movs	r1, #0
 575 0020 FFF7FEFF 		bl	chEvtBroadcastFlagsI
 576              	.LVL62:
 577              		.loc 1 255 0
 578 0024 2846     		mov	r0, r5
 579 0026 38BD     		pop	{r3, r4, r5, pc}
 580              		.cfi_endproc
 581              	.LFE131:
 582              		.size	sdRequestDataI, .-sdRequestDataI
 583 0028 AFF30080 		.section	.rodata.vmt,"a",%progbits
 583      AFF30080 
 584              		.align	2
 585              		.set	.LANCHOR0,. + 0
 586              		.type	vmt, %object
 587              		.size	vmt, 36
 588              	vmt:
 589 0000 00000000 		.word	writes
 590 0004 00000000 		.word	reads
 591 0008 00000000 		.word	putwouldblock
 592 000c 00000000 		.word	getwouldblock
 593 0010 00000000 		.word	putt
 594 0014 00000000 		.word	gett
 595 0018 00000000 		.word	writet
 596 001c 00000000 		.word	readt
 597 0020 00000000 		.word	getflags
 598              		.text
 599              	.Letext0:
 600              		.file 2 "/home/mitchd/Documents/FOX-1/amsat-fox/x86_64-toolchain/arm/bin/../lib/gcc/arm-none-eabi/
 601              		.file 3 "/home/mitchd/Documents/FOX-1/amsat-fox/x86_64-toolchain/arm/bin/../lib/gcc/arm-none-eabi/
 602              		.file 4 "./os/ports/GCC/ARMCMx/chtypes.h"
 603              		.file 5 "./os/kernel/include/chlists.h"
 604              		.file 6 "./os/kernel/include/chthreads.h"
 605              		.file 7 "./os/ports/GCC/ARMCMx/chcore_v7m.h"
 606              		.file 8 "./os/kernel/include/chmtx.h"
 607              		.file 9 "./os/kernel/include/chevents.h"
ARM GAS  /tmp/ccZZC2fc.s 			page 12


 608              		.file 10 "./os/kernel/include/chqueues.h"
 609              		.file 11 "./os/kernel/include/chioch.h"
 610              		.file 12 "./os/hal/platforms/STM32F4xx/stm32f4xx.h"
 611              		.file 13 "./os/hal/include/serial.h"
 612              		.file 14 "./os/hal/platforms/STM32/serial_lld.h"
 613              		.file 15 "./os/kernel/include/chschd.h"
 614              		.file 16 "./os/ports/common/ARMCMx/CMSIS/include/core_cm4.h"
 615              		.section	.debug_info,"",%progbits
 616              	.Ldebug_info0:
 617 0000 90110000 		.4byte	0x1190
 618 0004 0200     		.2byte	0x2
 619 0006 00000000 		.4byte	.Ldebug_abbrev0
 620 000a 04       		.byte	0x4
 621 000b 01       		.uleb128 0x1
 622 000c 07030000 		.4byte	.LASF140
 623 0010 01       		.byte	0x1
 624 0011 1E010000 		.4byte	.LASF141
 625 0015 A9040000 		.4byte	.LASF142
 626 0019 30000000 		.4byte	.Ldebug_ranges0+0x30
 627 001d 00000000 		.4byte	0
 628 0021 00000000 		.4byte	0
 629 0025 00000000 		.4byte	.Ldebug_line0
 630 0029 02       		.uleb128 0x2
 631 002a 04       		.byte	0x4
 632 002b 05       		.byte	0x5
 633 002c 696E7400 		.ascii	"int\000"
 634 0030 03       		.uleb128 0x3
 635 0031 18000000 		.4byte	.LASF2
 636 0035 02       		.byte	0x2
 637 0036 D5       		.byte	0xd5
 638 0037 3B000000 		.4byte	0x3b
 639 003b 04       		.uleb128 0x4
 640 003c 04       		.byte	0x4
 641 003d 07       		.byte	0x7
 642 003e C6010000 		.4byte	.LASF0
 643 0042 04       		.uleb128 0x4
 644 0043 01       		.byte	0x1
 645 0044 06       		.byte	0x6
 646 0045 D5000000 		.4byte	.LASF1
 647 0049 03       		.uleb128 0x3
 648 004a 3D050000 		.4byte	.LASF3
 649 004e 03       		.byte	0x3
 650 004f 2A       		.byte	0x2a
 651 0050 54000000 		.4byte	0x54
 652 0054 04       		.uleb128 0x4
 653 0055 01       		.byte	0x1
 654 0056 08       		.byte	0x8
 655 0057 83030000 		.4byte	.LASF4
 656 005b 04       		.uleb128 0x4
 657 005c 02       		.byte	0x2
 658 005d 05       		.byte	0x5
 659 005e BC030000 		.4byte	.LASF5
 660 0062 03       		.uleb128 0x3
 661 0063 D3010000 		.4byte	.LASF6
 662 0067 03       		.byte	0x3
 663 0068 36       		.byte	0x36
 664 0069 6D000000 		.4byte	0x6d
ARM GAS  /tmp/ccZZC2fc.s 			page 13


 665 006d 04       		.uleb128 0x4
 666 006e 02       		.byte	0x2
 667 006f 07       		.byte	0x7
 668 0070 24020000 		.4byte	.LASF7
 669 0074 03       		.uleb128 0x3
 670 0075 7B030000 		.4byte	.LASF8
 671 0079 03       		.byte	0x3
 672 007a 4F       		.byte	0x4f
 673 007b 7F000000 		.4byte	0x7f
 674 007f 04       		.uleb128 0x4
 675 0080 04       		.byte	0x4
 676 0081 05       		.byte	0x5
 677 0082 03010000 		.4byte	.LASF9
 678 0086 03       		.uleb128 0x3
 679 0087 12040000 		.4byte	.LASF10
 680 008b 03       		.byte	0x3
 681 008c 50       		.byte	0x50
 682 008d 91000000 		.4byte	0x91
 683 0091 04       		.uleb128 0x4
 684 0092 04       		.byte	0x4
 685 0093 07       		.byte	0x7
 686 0094 32040000 		.4byte	.LASF11
 687 0098 04       		.uleb128 0x4
 688 0099 08       		.byte	0x8
 689 009a 05       		.byte	0x5
 690 009b C7000000 		.4byte	.LASF12
 691 009f 04       		.uleb128 0x4
 692 00a0 08       		.byte	0x8
 693 00a1 07       		.byte	0x7
 694 00a2 5C000000 		.4byte	.LASF13
 695 00a6 03       		.uleb128 0x3
 696 00a7 4E000000 		.4byte	.LASF14
 697 00ab 03       		.byte	0x3
 698 00ac A6       		.byte	0xa6
 699 00ad 3B000000 		.4byte	0x3b
 700 00b1 03       		.uleb128 0x3
 701 00b2 EE000000 		.4byte	.LASF15
 702 00b6 04       		.byte	0x4
 703 00b7 2E       		.byte	0x2e
 704 00b8 74000000 		.4byte	0x74
 705 00bc 03       		.uleb128 0x3
 706 00bd 52020000 		.4byte	.LASF16
 707 00c1 04       		.byte	0x4
 708 00c2 2F       		.byte	0x2f
 709 00c3 49000000 		.4byte	0x49
 710 00c7 03       		.uleb128 0x3
 711 00c8 0C010000 		.4byte	.LASF17
 712 00cc 04       		.byte	0x4
 713 00cd 30       		.byte	0x30
 714 00ce 49000000 		.4byte	0x49
 715 00d2 03       		.uleb128 0x3
 716 00d3 20030000 		.4byte	.LASF18
 717 00d7 04       		.byte	0x4
 718 00d8 31       		.byte	0x31
 719 00d9 49000000 		.4byte	0x49
 720 00dd 03       		.uleb128 0x3
 721 00de 6B030000 		.4byte	.LASF19
ARM GAS  /tmp/ccZZC2fc.s 			page 14


 722 00e2 04       		.byte	0x4
 723 00e3 32       		.byte	0x32
 724 00e4 86000000 		.4byte	0x86
 725 00e8 03       		.uleb128 0x3
 726 00e9 37020000 		.4byte	.LASF20
 727 00ed 04       		.byte	0x4
 728 00ee 33       		.byte	0x33
 729 00ef 74000000 		.4byte	0x74
 730 00f3 03       		.uleb128 0x3
 731 00f4 32000000 		.4byte	.LASF21
 732 00f8 04       		.byte	0x4
 733 00f9 35       		.byte	0x35
 734 00fa 86000000 		.4byte	0x86
 735 00fe 03       		.uleb128 0x3
 736 00ff 74040000 		.4byte	.LASF22
 737 0103 04       		.byte	0x4
 738 0104 36       		.byte	0x36
 739 0105 86000000 		.4byte	0x86
 740 0109 03       		.uleb128 0x3
 741 010a EC030000 		.4byte	.LASF23
 742 010e 05       		.byte	0x5
 743 010f 2A       		.byte	0x2a
 744 0110 14010000 		.4byte	0x114
 745 0114 05       		.uleb128 0x5
 746 0115 EC030000 		.4byte	.LASF23
 747 0119 48       		.byte	0x48
 748 011a 06       		.byte	0x6
 749 011b 5E       		.byte	0x5e
 750 011c 2B020000 		.4byte	0x22b
 751 0120 06       		.uleb128 0x6
 752 0121 CD030000 		.4byte	.LASF24
 753 0125 06       		.byte	0x6
 754 0126 5F       		.byte	0x5f
 755 0127 50020000 		.4byte	0x250
 756 012b 02       		.byte	0x2
 757 012c 23       		.byte	0x23
 758 012d 00       		.uleb128 0
 759 012e 06       		.uleb128 0x6
 760 012f 5A030000 		.4byte	.LASF25
 761 0133 06       		.byte	0x6
 762 0134 61       		.byte	0x61
 763 0135 50020000 		.4byte	0x250
 764 0139 02       		.byte	0x2
 765 013a 23       		.byte	0x23
 766 013b 04       		.uleb128 0x4
 767 013c 06       		.uleb128 0x6
 768 013d C3020000 		.4byte	.LASF26
 769 0141 06       		.byte	0x6
 770 0142 63       		.byte	0x63
 771 0143 DD000000 		.4byte	0xdd
 772 0147 02       		.byte	0x2
 773 0148 23       		.byte	0x23
 774 0149 08       		.uleb128 0x8
 775 014a 06       		.uleb128 0x6
 776 014b AC050000 		.4byte	.LASF27
 777 014f 06       		.byte	0x6
 778 0150 64       		.byte	0x64
ARM GAS  /tmp/ccZZC2fc.s 			page 15


 779 0151 1D030000 		.4byte	0x31d
 780 0155 02       		.byte	0x2
 781 0156 23       		.byte	0x23
 782 0157 0C       		.uleb128 0xc
 783 0158 06       		.uleb128 0x6
 784 0159 61010000 		.4byte	.LASF28
 785 015d 06       		.byte	0x6
 786 015e 66       		.byte	0x66
 787 015f 50020000 		.4byte	0x250
 788 0163 02       		.byte	0x2
 789 0164 23       		.byte	0x23
 790 0165 10       		.uleb128 0x10
 791 0166 06       		.uleb128 0x6
 792 0167 D2020000 		.4byte	.LASF29
 793 016b 06       		.byte	0x6
 794 016c 67       		.byte	0x67
 795 016d 50020000 		.4byte	0x250
 796 0171 02       		.byte	0x2
 797 0172 23       		.byte	0x23
 798 0173 14       		.uleb128 0x14
 799 0174 06       		.uleb128 0x6
 800 0175 02050000 		.4byte	.LASF30
 801 0179 06       		.byte	0x6
 802 017a 6E       		.byte	0x6e
 803 017b 37040000 		.4byte	0x437
 804 017f 02       		.byte	0x2
 805 0180 23       		.byte	0x23
 806 0181 18       		.uleb128 0x18
 807 0182 06       		.uleb128 0x6
 808 0183 AA030000 		.4byte	.LASF31
 809 0187 06       		.byte	0x6
 810 0188 79       		.byte	0x79
 811 0189 C7000000 		.4byte	0xc7
 812 018d 02       		.byte	0x2
 813 018e 23       		.byte	0x23
 814 018f 1C       		.uleb128 0x1c
 815 0190 06       		.uleb128 0x6
 816 0191 D4030000 		.4byte	.LASF32
 817 0195 06       		.byte	0x6
 818 0196 7D       		.byte	0x7d
 819 0197 BC000000 		.4byte	0xbc
 820 019b 02       		.byte	0x2
 821 019c 23       		.byte	0x23
 822 019d 1D       		.uleb128 0x1d
 823 019e 06       		.uleb128 0x6
 824 019f 34010000 		.4byte	.LASF33
 825 01a3 06       		.byte	0x6
 826 01a4 82       		.byte	0x82
 827 01a5 D2000000 		.4byte	0xd2
 828 01a9 02       		.byte	0x2
 829 01aa 23       		.byte	0x23
 830 01ab 1E       		.uleb128 0x1e
 831 01ac 06       		.uleb128 0x6
 832 01ad EC010000 		.4byte	.LASF34
 833 01b1 06       		.byte	0x6
 834 01b2 89       		.byte	0x89
 835 01b3 47030000 		.4byte	0x347
ARM GAS  /tmp/ccZZC2fc.s 			page 16


 836 01b7 02       		.byte	0x2
 837 01b8 23       		.byte	0x23
 838 01b9 20       		.uleb128 0x20
 839 01ba 07       		.uleb128 0x7
 840 01bb 705F7500 		.ascii	"p_u\000"
 841 01bf 06       		.byte	0x6
 842 01c0 AE       		.byte	0xae
 843 01c1 02040000 		.4byte	0x402
 844 01c5 02       		.byte	0x2
 845 01c6 23       		.byte	0x23
 846 01c7 24       		.uleb128 0x24
 847 01c8 06       		.uleb128 0x6
 848 01c9 B2050000 		.4byte	.LASF35
 849 01cd 06       		.byte	0x6
 850 01ce B3       		.byte	0xb3
 851 01cf 78020000 		.4byte	0x278
 852 01d3 02       		.byte	0x2
 853 01d4 23       		.byte	0x23
 854 01d5 28       		.uleb128 0x28
 855 01d6 06       		.uleb128 0x6
 856 01d7 02020000 		.4byte	.LASF36
 857 01db 06       		.byte	0x6
 858 01dc B9       		.byte	0xb9
 859 01dd 56020000 		.4byte	0x256
 860 01e1 02       		.byte	0x2
 861 01e2 23       		.byte	0x23
 862 01e3 2C       		.uleb128 0x2c
 863 01e4 06       		.uleb128 0x6
 864 01e5 28050000 		.4byte	.LASF37
 865 01e9 06       		.byte	0x6
 866 01ea BD       		.byte	0xbd
 867 01eb E8000000 		.4byte	0xe8
 868 01ef 02       		.byte	0x2
 869 01f0 23       		.byte	0x23
 870 01f1 34       		.uleb128 0x34
 871 01f2 06       		.uleb128 0x6
 872 01f3 F3030000 		.4byte	.LASF38
 873 01f7 06       		.byte	0x6
 874 01f8 C3       		.byte	0xc3
 875 01f9 F3000000 		.4byte	0xf3
 876 01fd 02       		.byte	0x2
 877 01fe 23       		.byte	0x23
 878 01ff 38       		.uleb128 0x38
 879 0200 06       		.uleb128 0x6
 880 0201 B2030000 		.4byte	.LASF39
 881 0205 06       		.byte	0x6
 882 0206 CA       		.byte	0xca
 883 0207 49040000 		.4byte	0x449
 884 020b 02       		.byte	0x2
 885 020c 23       		.byte	0x23
 886 020d 3C       		.uleb128 0x3c
 887 020e 06       		.uleb128 0x6
 888 020f 7E040000 		.4byte	.LASF40
 889 0213 06       		.byte	0x6
 890 0214 CE       		.byte	0xce
 891 0215 DD000000 		.4byte	0xdd
 892 0219 02       		.byte	0x2
ARM GAS  /tmp/ccZZC2fc.s 			page 17


 893 021a 23       		.byte	0x23
 894 021b 40       		.uleb128 0x40
 895 021c 06       		.uleb128 0x6
 896 021d E6000000 		.4byte	.LASF41
 897 0221 06       		.byte	0x6
 898 0222 D4       		.byte	0xd4
 899 0223 8E020000 		.4byte	0x28e
 900 0227 02       		.byte	0x2
 901 0228 23       		.byte	0x23
 902 0229 44       		.uleb128 0x44
 903 022a 00       		.byte	0
 904 022b 08       		.uleb128 0x8
 905 022c 08       		.byte	0x8
 906 022d 05       		.byte	0x5
 907 022e 61       		.byte	0x61
 908 022f 50020000 		.4byte	0x250
 909 0233 06       		.uleb128 0x6
 910 0234 CD030000 		.4byte	.LASF24
 911 0238 05       		.byte	0x5
 912 0239 62       		.byte	0x62
 913 023a 50020000 		.4byte	0x250
 914 023e 02       		.byte	0x2
 915 023f 23       		.byte	0x23
 916 0240 00       		.uleb128 0
 917 0241 06       		.uleb128 0x6
 918 0242 5A030000 		.4byte	.LASF25
 919 0246 05       		.byte	0x5
 920 0247 64       		.byte	0x64
 921 0248 50020000 		.4byte	0x250
 922 024c 02       		.byte	0x2
 923 024d 23       		.byte	0x23
 924 024e 04       		.uleb128 0x4
 925 024f 00       		.byte	0
 926 0250 09       		.uleb128 0x9
 927 0251 04       		.byte	0x4
 928 0252 09010000 		.4byte	0x109
 929 0256 03       		.uleb128 0x3
 930 0257 ED020000 		.4byte	.LASF42
 931 025b 05       		.byte	0x5
 932 025c 66       		.byte	0x66
 933 025d 2B020000 		.4byte	0x22b
 934 0261 08       		.uleb128 0x8
 935 0262 04       		.byte	0x4
 936 0263 05       		.byte	0x5
 937 0264 6B       		.byte	0x6b
 938 0265 78020000 		.4byte	0x278
 939 0269 06       		.uleb128 0x6
 940 026a CD030000 		.4byte	.LASF24
 941 026e 05       		.byte	0x5
 942 026f 6D       		.byte	0x6d
 943 0270 50020000 		.4byte	0x250
 944 0274 02       		.byte	0x2
 945 0275 23       		.byte	0x23
 946 0276 00       		.uleb128 0
 947 0277 00       		.byte	0
 948 0278 03       		.uleb128 0x3
 949 0279 5A020000 		.4byte	.LASF43
ARM GAS  /tmp/ccZZC2fc.s 			page 18


 950 027d 05       		.byte	0x5
 951 027e 70       		.byte	0x70
 952 027f 61020000 		.4byte	0x261
 953 0283 03       		.uleb128 0x3
 954 0284 8D010000 		.4byte	.LASF44
 955 0288 07       		.byte	0x7
 956 0289 D7       		.byte	0xd7
 957 028a 8E020000 		.4byte	0x28e
 958 028e 0A       		.uleb128 0xa
 959 028f 04       		.byte	0x4
 960 0290 05       		.uleb128 0x5
 961 0291 EC040000 		.4byte	.LASF45
 962 0295 24       		.byte	0x24
 963 0296 07       		.byte	0x7
 964 0297 FE       		.byte	0xfe
 965 0298 1D030000 		.4byte	0x31d
 966 029c 0B       		.uleb128 0xb
 967 029d 723400   		.ascii	"r4\000"
 968 02a0 07       		.byte	0x7
 969 02a1 1101     		.2byte	0x111
 970 02a3 83020000 		.4byte	0x283
 971 02a7 02       		.byte	0x2
 972 02a8 23       		.byte	0x23
 973 02a9 00       		.uleb128 0
 974 02aa 0B       		.uleb128 0xb
 975 02ab 723500   		.ascii	"r5\000"
 976 02ae 07       		.byte	0x7
 977 02af 1201     		.2byte	0x112
 978 02b1 83020000 		.4byte	0x283
 979 02b5 02       		.byte	0x2
 980 02b6 23       		.byte	0x23
 981 02b7 04       		.uleb128 0x4
 982 02b8 0B       		.uleb128 0xb
 983 02b9 723600   		.ascii	"r6\000"
 984 02bc 07       		.byte	0x7
 985 02bd 1301     		.2byte	0x113
 986 02bf 83020000 		.4byte	0x283
 987 02c3 02       		.byte	0x2
 988 02c4 23       		.byte	0x23
 989 02c5 08       		.uleb128 0x8
 990 02c6 0B       		.uleb128 0xb
 991 02c7 723700   		.ascii	"r7\000"
 992 02ca 07       		.byte	0x7
 993 02cb 1401     		.2byte	0x114
 994 02cd 83020000 		.4byte	0x283
 995 02d1 02       		.byte	0x2
 996 02d2 23       		.byte	0x23
 997 02d3 0C       		.uleb128 0xc
 998 02d4 0B       		.uleb128 0xb
 999 02d5 723800   		.ascii	"r8\000"
 1000 02d8 07       		.byte	0x7
 1001 02d9 1501     		.2byte	0x115
 1002 02db 83020000 		.4byte	0x283
 1003 02df 02       		.byte	0x2
 1004 02e0 23       		.byte	0x23
 1005 02e1 10       		.uleb128 0x10
 1006 02e2 0B       		.uleb128 0xb
ARM GAS  /tmp/ccZZC2fc.s 			page 19


 1007 02e3 723900   		.ascii	"r9\000"
 1008 02e6 07       		.byte	0x7
 1009 02e7 1601     		.2byte	0x116
 1010 02e9 83020000 		.4byte	0x283
 1011 02ed 02       		.byte	0x2
 1012 02ee 23       		.byte	0x23
 1013 02ef 14       		.uleb128 0x14
 1014 02f0 0B       		.uleb128 0xb
 1015 02f1 72313000 		.ascii	"r10\000"
 1016 02f5 07       		.byte	0x7
 1017 02f6 1701     		.2byte	0x117
 1018 02f8 83020000 		.4byte	0x283
 1019 02fc 02       		.byte	0x2
 1020 02fd 23       		.byte	0x23
 1021 02fe 18       		.uleb128 0x18
 1022 02ff 0B       		.uleb128 0xb
 1023 0300 72313100 		.ascii	"r11\000"
 1024 0304 07       		.byte	0x7
 1025 0305 1801     		.2byte	0x118
 1026 0307 83020000 		.4byte	0x283
 1027 030b 02       		.byte	0x2
 1028 030c 23       		.byte	0x23
 1029 030d 1C       		.uleb128 0x1c
 1030 030e 0B       		.uleb128 0xb
 1031 030f 6C7200   		.ascii	"lr\000"
 1032 0312 07       		.byte	0x7
 1033 0313 1901     		.2byte	0x119
 1034 0315 83020000 		.4byte	0x283
 1035 0319 02       		.byte	0x2
 1036 031a 23       		.byte	0x23
 1037 031b 20       		.uleb128 0x20
 1038 031c 00       		.byte	0
 1039 031d 0C       		.uleb128 0xc
 1040 031e A1040000 		.4byte	.LASF46
 1041 0322 04       		.byte	0x4
 1042 0323 07       		.byte	0x7
 1043 0324 2301     		.2byte	0x123
 1044 0326 3A030000 		.4byte	0x33a
 1045 032a 0B       		.uleb128 0xb
 1046 032b 72313300 		.ascii	"r13\000"
 1047 032f 07       		.byte	0x7
 1048 0330 2401     		.2byte	0x124
 1049 0332 3A030000 		.4byte	0x33a
 1050 0336 02       		.byte	0x2
 1051 0337 23       		.byte	0x23
 1052 0338 00       		.uleb128 0
 1053 0339 00       		.byte	0
 1054 033a 09       		.uleb128 0x9
 1055 033b 04       		.byte	0x4
 1056 033c 90020000 		.4byte	0x290
 1057 0340 04       		.uleb128 0x4
 1058 0341 04       		.byte	0x4
 1059 0342 07       		.byte	0x7
 1060 0343 AA020000 		.4byte	.LASF47
 1061 0347 0D       		.uleb128 0xd
 1062 0348 FE000000 		.4byte	0xfe
 1063 034c 05       		.uleb128 0x5
ARM GAS  /tmp/ccZZC2fc.s 			page 20


 1064 034d BD020000 		.4byte	.LASF48
 1065 0351 10       		.byte	0x10
 1066 0352 08       		.byte	0x8
 1067 0353 2C       		.byte	0x2c
 1068 0354 83030000 		.4byte	0x383
 1069 0358 06       		.uleb128 0x6
 1070 0359 F5000000 		.4byte	.LASF49
 1071 035d 08       		.byte	0x8
 1072 035e 2D       		.byte	0x2d
 1073 035f 56020000 		.4byte	0x256
 1074 0363 02       		.byte	0x2
 1075 0364 23       		.byte	0x23
 1076 0365 00       		.uleb128 0
 1077 0366 06       		.uleb128 0x6
 1078 0367 A4050000 		.4byte	.LASF50
 1079 036b 08       		.byte	0x8
 1080 036c 2F       		.byte	0x2f
 1081 036d 50020000 		.4byte	0x250
 1082 0371 02       		.byte	0x2
 1083 0372 23       		.byte	0x23
 1084 0373 08       		.uleb128 0x8
 1085 0374 06       		.uleb128 0x6
 1086 0375 6D040000 		.4byte	.LASF51
 1087 0379 08       		.byte	0x8
 1088 037a 31       		.byte	0x31
 1089 037b 83030000 		.4byte	0x383
 1090 037f 02       		.byte	0x2
 1091 0380 23       		.byte	0x23
 1092 0381 0C       		.uleb128 0xc
 1093 0382 00       		.byte	0
 1094 0383 09       		.uleb128 0x9
 1095 0384 04       		.byte	0x4
 1096 0385 4C030000 		.4byte	0x34c
 1097 0389 03       		.uleb128 0x3
 1098 038a BD020000 		.4byte	.LASF48
 1099 038e 08       		.byte	0x8
 1100 038f 33       		.byte	0x33
 1101 0390 4C030000 		.4byte	0x34c
 1102 0394 03       		.uleb128 0x3
 1103 0395 DE040000 		.4byte	.LASF52
 1104 0399 09       		.byte	0x9
 1105 039a 29       		.byte	0x29
 1106 039b 9F030000 		.4byte	0x39f
 1107 039f 05       		.uleb128 0x5
 1108 03a0 DE040000 		.4byte	.LASF52
 1109 03a4 0C       		.byte	0xc
 1110 03a5 09       		.byte	0x9
 1111 03a6 2E       		.byte	0x2e
 1112 03a7 D6030000 		.4byte	0x3d6
 1113 03ab 06       		.uleb128 0x6
 1114 03ac DC030000 		.4byte	.LASF53
 1115 03b0 09       		.byte	0x9
 1116 03b1 2F       		.byte	0x2f
 1117 03b2 D6030000 		.4byte	0x3d6
 1118 03b6 02       		.byte	0x2
 1119 03b7 23       		.byte	0x23
 1120 03b8 00       		.uleb128 0
ARM GAS  /tmp/ccZZC2fc.s 			page 21


 1121 03b9 06       		.uleb128 0x6
 1122 03ba 9E030000 		.4byte	.LASF54
 1123 03be 09       		.byte	0x9
 1124 03bf 32       		.byte	0x32
 1125 03c0 50020000 		.4byte	0x250
 1126 03c4 02       		.byte	0x2
 1127 03c5 23       		.byte	0x23
 1128 03c6 04       		.uleb128 0x4
 1129 03c7 06       		.uleb128 0x6
 1130 03c8 CA020000 		.4byte	.LASF55
 1131 03cc 09       		.byte	0x9
 1132 03cd 34       		.byte	0x34
 1133 03ce F3000000 		.4byte	0xf3
 1134 03d2 02       		.byte	0x2
 1135 03d3 23       		.byte	0x23
 1136 03d4 08       		.uleb128 0x8
 1137 03d5 00       		.byte	0
 1138 03d6 09       		.uleb128 0x9
 1139 03d7 04       		.byte	0x4
 1140 03d8 94030000 		.4byte	0x394
 1141 03dc 05       		.uleb128 0x5
 1142 03dd 9F010000 		.4byte	.LASF56
 1143 03e1 04       		.byte	0x4
 1144 03e2 09       		.byte	0x9
 1145 03e3 3C       		.byte	0x3c
 1146 03e4 F7030000 		.4byte	0x3f7
 1147 03e8 06       		.uleb128 0x6
 1148 03e9 09050000 		.4byte	.LASF57
 1149 03ed 09       		.byte	0x9
 1150 03ee 3D       		.byte	0x3d
 1151 03ef D6030000 		.4byte	0x3d6
 1152 03f3 02       		.byte	0x2
 1153 03f4 23       		.byte	0x23
 1154 03f5 00       		.uleb128 0
 1155 03f6 00       		.byte	0
 1156 03f7 03       		.uleb128 0x3
 1157 03f8 9F010000 		.4byte	.LASF56
 1158 03fc 09       		.byte	0x9
 1159 03fd 40       		.byte	0x40
 1160 03fe DC030000 		.4byte	0x3dc
 1161 0402 0E       		.uleb128 0xe
 1162 0403 04       		.byte	0x4
 1163 0404 06       		.byte	0x6
 1164 0405 90       		.byte	0x90
 1165 0406 37040000 		.4byte	0x437
 1166 040a 0F       		.uleb128 0xf
 1167 040b 1F000000 		.4byte	.LASF58
 1168 040f 06       		.byte	0x6
 1169 0410 97       		.byte	0x97
 1170 0411 E8000000 		.4byte	0xe8
 1171 0415 0F       		.uleb128 0xf
 1172 0416 87000000 		.4byte	.LASF59
 1173 041a 06       		.byte	0x6
 1174 041b 9E       		.byte	0x9e
 1175 041c E8000000 		.4byte	0xe8
 1176 0420 0F       		.uleb128 0xf
 1177 0421 5E050000 		.4byte	.LASF60
ARM GAS  /tmp/ccZZC2fc.s 			page 22


 1178 0425 06       		.byte	0x6
 1179 0426 A5       		.byte	0xa5
 1180 0427 8E020000 		.4byte	0x28e
 1181 042b 0F       		.uleb128 0xf
 1182 042c C6030000 		.4byte	.LASF61
 1183 0430 06       		.byte	0x6
 1184 0431 AC       		.byte	0xac
 1185 0432 F3000000 		.4byte	0xf3
 1186 0436 00       		.byte	0
 1187 0437 09       		.uleb128 0x9
 1188 0438 04       		.byte	0x4
 1189 0439 3D040000 		.4byte	0x43d
 1190 043d 10       		.uleb128 0x10
 1191 043e 42040000 		.4byte	0x442
 1192 0442 04       		.uleb128 0x4
 1193 0443 01       		.byte	0x1
 1194 0444 08       		.byte	0x8
 1195 0445 49040000 		.4byte	.LASF62
 1196 0449 09       		.uleb128 0x9
 1197 044a 04       		.byte	0x4
 1198 044b 89030000 		.4byte	0x389
 1199 044f 03       		.uleb128 0x3
 1200 0450 81020000 		.4byte	.LASF63
 1201 0454 0A       		.byte	0xa
 1202 0455 37       		.byte	0x37
 1203 0456 5A040000 		.4byte	0x45a
 1204 045a 05       		.uleb128 0x5
 1205 045b 81020000 		.4byte	.LASF63
 1206 045f 20       		.byte	0x20
 1207 0460 0A       		.byte	0xa
 1208 0461 45       		.byte	0x45
 1209 0462 C9040000 		.4byte	0x4c9
 1210 0466 06       		.uleb128 0x6
 1211 0467 BD000000 		.4byte	.LASF64
 1212 046b 0A       		.byte	0xa
 1213 046c 46       		.byte	0x46
 1214 046d 56020000 		.4byte	0x256
 1215 0471 02       		.byte	0x2
 1216 0472 23       		.byte	0x23
 1217 0473 00       		.uleb128 0
 1218 0474 06       		.uleb128 0x6
 1219 0475 B3020000 		.4byte	.LASF65
 1220 0479 0A       		.byte	0xa
 1221 047a 47       		.byte	0x47
 1222 047b 30000000 		.4byte	0x30
 1223 047f 02       		.byte	0x2
 1224 0480 23       		.byte	0x23
 1225 0481 08       		.uleb128 0x8
 1226 0482 06       		.uleb128 0x6
 1227 0483 3B010000 		.4byte	.LASF66
 1228 0487 0A       		.byte	0xa
 1229 0488 48       		.byte	0x48
 1230 0489 EC040000 		.4byte	0x4ec
 1231 048d 02       		.byte	0x2
 1232 048e 23       		.byte	0x23
 1233 048f 0C       		.uleb128 0xc
 1234 0490 06       		.uleb128 0x6
ARM GAS  /tmp/ccZZC2fc.s 			page 23


 1235 0491 FC040000 		.4byte	.LASF67
 1236 0495 0A       		.byte	0xa
 1237 0496 49       		.byte	0x49
 1238 0497 EC040000 		.4byte	0x4ec
 1239 049b 02       		.byte	0x2
 1240 049c 23       		.byte	0x23
 1241 049d 10       		.uleb128 0x10
 1242 049e 06       		.uleb128 0x6
 1243 049f 44010000 		.4byte	.LASF68
 1244 04a3 0A       		.byte	0xa
 1245 04a4 4B       		.byte	0x4b
 1246 04a5 EC040000 		.4byte	0x4ec
 1247 04a9 02       		.byte	0x2
 1248 04aa 23       		.byte	0x23
 1249 04ab 14       		.uleb128 0x14
 1250 04ac 06       		.uleb128 0x6
 1251 04ad 73030000 		.4byte	.LASF69
 1252 04b1 0A       		.byte	0xa
 1253 04b2 4C       		.byte	0x4c
 1254 04b3 EC040000 		.4byte	0x4ec
 1255 04b7 02       		.byte	0x2
 1256 04b8 23       		.byte	0x23
 1257 04b9 18       		.uleb128 0x18
 1258 04ba 06       		.uleb128 0x6
 1259 04bb 1F050000 		.4byte	.LASF70
 1260 04bf 0A       		.byte	0xa
 1261 04c0 4D       		.byte	0x4d
 1262 04c1 C9040000 		.4byte	0x4c9
 1263 04c5 02       		.byte	0x2
 1264 04c6 23       		.byte	0x23
 1265 04c7 1C       		.uleb128 0x1c
 1266 04c8 00       		.byte	0
 1267 04c9 03       		.uleb128 0x3
 1268 04ca 77020000 		.4byte	.LASF71
 1269 04ce 0A       		.byte	0xa
 1270 04cf 3A       		.byte	0x3a
 1271 04d0 D4040000 		.4byte	0x4d4
 1272 04d4 09       		.uleb128 0x9
 1273 04d5 04       		.byte	0x4
 1274 04d6 DA040000 		.4byte	0x4da
 1275 04da 11       		.uleb128 0x11
 1276 04db 01       		.byte	0x1
 1277 04dc E6040000 		.4byte	0x4e6
 1278 04e0 12       		.uleb128 0x12
 1279 04e1 E6040000 		.4byte	0x4e6
 1280 04e5 00       		.byte	0
 1281 04e6 09       		.uleb128 0x9
 1282 04e7 04       		.byte	0x4
 1283 04e8 4F040000 		.4byte	0x44f
 1284 04ec 09       		.uleb128 0x9
 1285 04ed 04       		.byte	0x4
 1286 04ee 49000000 		.4byte	0x49
 1287 04f2 03       		.uleb128 0x3
 1288 04f3 6C020000 		.4byte	.LASF72
 1289 04f7 0A       		.byte	0xa
 1290 04f8 76       		.byte	0x76
 1291 04f9 4F040000 		.4byte	0x44f
ARM GAS  /tmp/ccZZC2fc.s 			page 24


 1292 04fd 03       		.uleb128 0x3
 1293 04fe 26000000 		.4byte	.LASF73
 1294 0502 0A       		.byte	0xa
 1295 0503 E6       		.byte	0xe6
 1296 0504 4F040000 		.4byte	0x44f
 1297 0508 13       		.uleb128 0x13
 1298 0509 01       		.byte	0x1
 1299 050a 30000000 		.4byte	0x30
 1300 050e 22050000 		.4byte	0x522
 1301 0512 12       		.uleb128 0x12
 1302 0513 8E020000 		.4byte	0x28e
 1303 0517 12       		.uleb128 0x12
 1304 0518 22050000 		.4byte	0x522
 1305 051c 12       		.uleb128 0x12
 1306 051d 30000000 		.4byte	0x30
 1307 0521 00       		.byte	0
 1308 0522 09       		.uleb128 0x9
 1309 0523 04       		.byte	0x4
 1310 0524 28050000 		.4byte	0x528
 1311 0528 10       		.uleb128 0x10
 1312 0529 49000000 		.4byte	0x49
 1313 052d 09       		.uleb128 0x9
 1314 052e 04       		.byte	0x4
 1315 052f 08050000 		.4byte	0x508
 1316 0533 13       		.uleb128 0x13
 1317 0534 01       		.byte	0x1
 1318 0535 30000000 		.4byte	0x30
 1319 0539 4D050000 		.4byte	0x54d
 1320 053d 12       		.uleb128 0x12
 1321 053e 8E020000 		.4byte	0x28e
 1322 0542 12       		.uleb128 0x12
 1323 0543 EC040000 		.4byte	0x4ec
 1324 0547 12       		.uleb128 0x12
 1325 0548 30000000 		.4byte	0x30
 1326 054c 00       		.byte	0
 1327 054d 09       		.uleb128 0x9
 1328 054e 04       		.byte	0x4
 1329 054f 33050000 		.4byte	0x533
 1330 0553 13       		.uleb128 0x13
 1331 0554 01       		.byte	0x1
 1332 0555 B1000000 		.4byte	0xb1
 1333 0559 63050000 		.4byte	0x563
 1334 055d 12       		.uleb128 0x12
 1335 055e 8E020000 		.4byte	0x28e
 1336 0562 00       		.byte	0
 1337 0563 09       		.uleb128 0x9
 1338 0564 04       		.byte	0x4
 1339 0565 53050000 		.4byte	0x553
 1340 0569 13       		.uleb128 0x13
 1341 056a 01       		.byte	0x1
 1342 056b E8000000 		.4byte	0xe8
 1343 056f 83050000 		.4byte	0x583
 1344 0573 12       		.uleb128 0x12
 1345 0574 8E020000 		.4byte	0x28e
 1346 0578 12       		.uleb128 0x12
 1347 0579 49000000 		.4byte	0x49
 1348 057d 12       		.uleb128 0x12
ARM GAS  /tmp/ccZZC2fc.s 			page 25


 1349 057e FE000000 		.4byte	0xfe
 1350 0582 00       		.byte	0
 1351 0583 09       		.uleb128 0x9
 1352 0584 04       		.byte	0x4
 1353 0585 69050000 		.4byte	0x569
 1354 0589 13       		.uleb128 0x13
 1355 058a 01       		.byte	0x1
 1356 058b E8000000 		.4byte	0xe8
 1357 058f 9E050000 		.4byte	0x59e
 1358 0593 12       		.uleb128 0x12
 1359 0594 8E020000 		.4byte	0x28e
 1360 0598 12       		.uleb128 0x12
 1361 0599 FE000000 		.4byte	0xfe
 1362 059d 00       		.byte	0
 1363 059e 09       		.uleb128 0x9
 1364 059f 04       		.byte	0x4
 1365 05a0 89050000 		.4byte	0x589
 1366 05a4 13       		.uleb128 0x13
 1367 05a5 01       		.byte	0x1
 1368 05a6 30000000 		.4byte	0x30
 1369 05aa C3050000 		.4byte	0x5c3
 1370 05ae 12       		.uleb128 0x12
 1371 05af 8E020000 		.4byte	0x28e
 1372 05b3 12       		.uleb128 0x12
 1373 05b4 22050000 		.4byte	0x522
 1374 05b8 12       		.uleb128 0x12
 1375 05b9 30000000 		.4byte	0x30
 1376 05bd 12       		.uleb128 0x12
 1377 05be FE000000 		.4byte	0xfe
 1378 05c2 00       		.byte	0
 1379 05c3 09       		.uleb128 0x9
 1380 05c4 04       		.byte	0x4
 1381 05c5 A4050000 		.4byte	0x5a4
 1382 05c9 13       		.uleb128 0x13
 1383 05ca 01       		.byte	0x1
 1384 05cb 30000000 		.4byte	0x30
 1385 05cf E8050000 		.4byte	0x5e8
 1386 05d3 12       		.uleb128 0x12
 1387 05d4 8E020000 		.4byte	0x28e
 1388 05d8 12       		.uleb128 0x12
 1389 05d9 EC040000 		.4byte	0x4ec
 1390 05dd 12       		.uleb128 0x12
 1391 05de 30000000 		.4byte	0x30
 1392 05e2 12       		.uleb128 0x12
 1393 05e3 FE000000 		.4byte	0xfe
 1394 05e7 00       		.byte	0
 1395 05e8 09       		.uleb128 0x9
 1396 05e9 04       		.byte	0x4
 1397 05ea C9050000 		.4byte	0x5c9
 1398 05ee 14       		.uleb128 0x14
 1399 05ef E3020000 		.4byte	.LASF74
 1400 05f3 0B       		.byte	0xb
 1401 05f4 0B01     		.2byte	0x10b
 1402 05f6 A6000000 		.4byte	0xa6
 1403 05fa 0C       		.uleb128 0xc
 1404 05fb AB010000 		.4byte	.LASF75
 1405 05ff 24       		.byte	0x24
ARM GAS  /tmp/ccZZC2fc.s 			page 26


 1406 0600 0B       		.byte	0xb
 1407 0601 2401     		.2byte	0x124
 1408 0603 8F060000 		.4byte	0x68f
 1409 0607 15       		.uleb128 0x15
 1410 0608 9F020000 		.4byte	.LASF76
 1411 060c 0B       		.byte	0xb
 1412 060d 2501     		.2byte	0x125
 1413 060f 2D050000 		.4byte	0x52d
 1414 0613 02       		.byte	0x2
 1415 0614 23       		.byte	0x23
 1416 0615 00       		.uleb128 0
 1417 0616 15       		.uleb128 0x15
 1418 0617 44040000 		.4byte	.LASF77
 1419 061b 0B       		.byte	0xb
 1420 061c 2501     		.2byte	0x125
 1421 061e 4D050000 		.4byte	0x54d
 1422 0622 02       		.byte	0x2
 1423 0623 23       		.byte	0x23
 1424 0624 04       		.uleb128 0x4
 1425 0625 15       		.uleb128 0x15
 1426 0626 69010000 		.4byte	.LASF78
 1427 062a 0B       		.byte	0xb
 1428 062b 2501     		.2byte	0x125
 1429 062d 63050000 		.4byte	0x563
 1430 0631 02       		.byte	0x2
 1431 0632 23       		.byte	0x23
 1432 0633 08       		.uleb128 0x8
 1433 0634 15       		.uleb128 0x15
 1434 0635 71050000 		.4byte	.LASF79
 1435 0639 0B       		.byte	0xb
 1436 063a 2501     		.2byte	0x125
 1437 063c 63050000 		.4byte	0x563
 1438 0640 02       		.byte	0x2
 1439 0641 23       		.byte	0x23
 1440 0642 0C       		.uleb128 0xc
 1441 0643 0B       		.uleb128 0xb
 1442 0644 70757400 		.ascii	"put\000"
 1443 0648 0B       		.byte	0xb
 1444 0649 2501     		.2byte	0x125
 1445 064b 83050000 		.4byte	0x583
 1446 064f 02       		.byte	0x2
 1447 0650 23       		.byte	0x23
 1448 0651 10       		.uleb128 0x10
 1449 0652 0B       		.uleb128 0xb
 1450 0653 67657400 		.ascii	"get\000"
 1451 0657 0B       		.byte	0xb
 1452 0658 2501     		.2byte	0x125
 1453 065a 9E050000 		.4byte	0x59e
 1454 065e 02       		.byte	0x2
 1455 065f 23       		.byte	0x23
 1456 0660 14       		.uleb128 0x14
 1457 0661 15       		.uleb128 0x15
 1458 0662 4B020000 		.4byte	.LASF80
 1459 0666 0B       		.byte	0xb
 1460 0667 2501     		.2byte	0x125
 1461 0669 C3050000 		.4byte	0x5c3
 1462 066d 02       		.byte	0x2
ARM GAS  /tmp/ccZZC2fc.s 			page 27


 1463 066e 23       		.byte	0x23
 1464 066f 18       		.uleb128 0x18
 1465 0670 15       		.uleb128 0x15
 1466 0671 B7000000 		.4byte	.LASF81
 1467 0675 0B       		.byte	0xb
 1468 0676 2501     		.2byte	0x125
 1469 0678 E8050000 		.4byte	0x5e8
 1470 067c 02       		.byte	0x2
 1471 067d 23       		.byte	0x23
 1472 067e 1C       		.uleb128 0x1c
 1473 067f 15       		.uleb128 0x15
 1474 0680 DA020000 		.4byte	.LASF82
 1475 0684 0B       		.byte	0xb
 1476 0685 2501     		.2byte	0x125
 1477 0687 9F060000 		.4byte	0x69f
 1478 068b 02       		.byte	0x2
 1479 068c 23       		.byte	0x23
 1480 068d 20       		.uleb128 0x20
 1481 068e 00       		.byte	0
 1482 068f 13       		.uleb128 0x13
 1483 0690 01       		.byte	0x1
 1484 0691 EE050000 		.4byte	0x5ee
 1485 0695 9F060000 		.4byte	0x69f
 1486 0699 12       		.uleb128 0x12
 1487 069a 8E020000 		.4byte	0x28e
 1488 069e 00       		.byte	0
 1489 069f 09       		.uleb128 0x9
 1490 06a0 04       		.byte	0x4
 1491 06a1 8F060000 		.4byte	0x68f
 1492 06a5 16       		.uleb128 0x16
 1493 06a6 0C       		.byte	0xc
 1494 06a7 0B       		.byte	0xb
 1495 06a8 2F01     		.2byte	0x12f
 1496 06aa DC060000 		.4byte	0x6dc
 1497 06ae 0B       		.uleb128 0xb
 1498 06af 766D7400 		.ascii	"vmt\000"
 1499 06b3 0B       		.byte	0xb
 1500 06b4 3101     		.2byte	0x131
 1501 06b6 DC060000 		.4byte	0x6dc
 1502 06ba 02       		.byte	0x2
 1503 06bb 23       		.byte	0x23
 1504 06bc 00       		.uleb128 0
 1505 06bd 15       		.uleb128 0x15
 1506 06be 1E020000 		.4byte	.LASF83
 1507 06c2 0B       		.byte	0xb
 1508 06c3 3201     		.2byte	0x132
 1509 06c5 F7030000 		.4byte	0x3f7
 1510 06c9 02       		.byte	0x2
 1511 06ca 23       		.byte	0x23
 1512 06cb 04       		.uleb128 0x4
 1513 06cc 15       		.uleb128 0x15
 1514 06cd 45050000 		.4byte	.LASF84
 1515 06d1 0B       		.byte	0xb
 1516 06d2 3201     		.2byte	0x132
 1517 06d4 EE050000 		.4byte	0x5ee
 1518 06d8 02       		.byte	0x2
 1519 06d9 23       		.byte	0x23
ARM GAS  /tmp/ccZZC2fc.s 			page 28


 1520 06da 08       		.uleb128 0x8
 1521 06db 00       		.byte	0
 1522 06dc 09       		.uleb128 0x9
 1523 06dd 04       		.byte	0x4
 1524 06de E2060000 		.4byte	0x6e2
 1525 06e2 10       		.uleb128 0x10
 1526 06e3 FA050000 		.4byte	0x5fa
 1527 06e7 14       		.uleb128 0x14
 1528 06e8 89040000 		.4byte	.LASF85
 1529 06ec 0B       		.byte	0xb
 1530 06ed 3301     		.2byte	0x133
 1531 06ef A5060000 		.4byte	0x6a5
 1532 06f3 0D       		.uleb128 0xd
 1533 06f4 62000000 		.4byte	0x62
 1534 06f8 0D       		.uleb128 0xd
 1535 06f9 74000000 		.4byte	0x74
 1536 06fd 16       		.uleb128 0x16
 1537 06fe 1C       		.byte	0x1c
 1538 06ff 0C       		.byte	0xc
 1539 0700 9303     		.2byte	0x393
 1540 0702 D7070000 		.4byte	0x7d7
 1541 0706 0B       		.uleb128 0xb
 1542 0707 535200   		.ascii	"SR\000"
 1543 070a 0C       		.byte	0xc
 1544 070b 9503     		.2byte	0x395
 1545 070d F3060000 		.4byte	0x6f3
 1546 0711 02       		.byte	0x2
 1547 0712 23       		.byte	0x23
 1548 0713 00       		.uleb128 0
 1549 0714 15       		.uleb128 0x15
 1550 0715 28030000 		.4byte	.LASF86
 1551 0719 0C       		.byte	0xc
 1552 071a 9603     		.2byte	0x396
 1553 071c 62000000 		.4byte	0x62
 1554 0720 02       		.byte	0x2
 1555 0721 23       		.byte	0x23
 1556 0722 02       		.uleb128 0x2
 1557 0723 0B       		.uleb128 0xb
 1558 0724 445200   		.ascii	"DR\000"
 1559 0727 0C       		.byte	0xc
 1560 0728 9703     		.2byte	0x397
 1561 072a F3060000 		.4byte	0x6f3
 1562 072e 02       		.byte	0x2
 1563 072f 23       		.byte	0x23
 1564 0730 04       		.uleb128 0x4
 1565 0731 15       		.uleb128 0x15
 1566 0732 32030000 		.4byte	.LASF87
 1567 0736 0C       		.byte	0xc
 1568 0737 9803     		.2byte	0x398
 1569 0739 62000000 		.4byte	0x62
 1570 073d 02       		.byte	0x2
 1571 073e 23       		.byte	0x23
 1572 073f 06       		.uleb128 0x6
 1573 0740 0B       		.uleb128 0xb
 1574 0741 42525200 		.ascii	"BRR\000"
 1575 0745 0C       		.byte	0xc
 1576 0746 9903     		.2byte	0x399
ARM GAS  /tmp/ccZZC2fc.s 			page 29


 1577 0748 F3060000 		.4byte	0x6f3
 1578 074c 02       		.byte	0x2
 1579 074d 23       		.byte	0x23
 1580 074e 08       		.uleb128 0x8
 1581 074f 15       		.uleb128 0x15
 1582 0750 3C030000 		.4byte	.LASF88
 1583 0754 0C       		.byte	0xc
 1584 0755 9A03     		.2byte	0x39a
 1585 0757 62000000 		.4byte	0x62
 1586 075b 02       		.byte	0x2
 1587 075c 23       		.byte	0x23
 1588 075d 0A       		.uleb128 0xa
 1589 075e 0B       		.uleb128 0xb
 1590 075f 43523100 		.ascii	"CR1\000"
 1591 0763 0C       		.byte	0xc
 1592 0764 9B03     		.2byte	0x39b
 1593 0766 F3060000 		.4byte	0x6f3
 1594 076a 02       		.byte	0x2
 1595 076b 23       		.byte	0x23
 1596 076c 0C       		.uleb128 0xc
 1597 076d 15       		.uleb128 0x15
 1598 076e 46030000 		.4byte	.LASF89
 1599 0772 0C       		.byte	0xc
 1600 0773 9C03     		.2byte	0x39c
 1601 0775 62000000 		.4byte	0x62
 1602 0779 02       		.byte	0x2
 1603 077a 23       		.byte	0x23
 1604 077b 0E       		.uleb128 0xe
 1605 077c 0B       		.uleb128 0xb
 1606 077d 43523200 		.ascii	"CR2\000"
 1607 0781 0C       		.byte	0xc
 1608 0782 9D03     		.2byte	0x39d
 1609 0784 F3060000 		.4byte	0x6f3
 1610 0788 02       		.byte	0x2
 1611 0789 23       		.byte	0x23
 1612 078a 10       		.uleb128 0x10
 1613 078b 15       		.uleb128 0x15
 1614 078c 50030000 		.4byte	.LASF90
 1615 0790 0C       		.byte	0xc
 1616 0791 9E03     		.2byte	0x39e
 1617 0793 62000000 		.4byte	0x62
 1618 0797 02       		.byte	0x2
 1619 0798 23       		.byte	0x23
 1620 0799 12       		.uleb128 0x12
 1621 079a 0B       		.uleb128 0xb
 1622 079b 43523300 		.ascii	"CR3\000"
 1623 079f 0C       		.byte	0xc
 1624 07a0 9F03     		.2byte	0x39f
 1625 07a2 F3060000 		.4byte	0x6f3
 1626 07a6 02       		.byte	0x2
 1627 07a7 23       		.byte	0x23
 1628 07a8 14       		.uleb128 0x14
 1629 07a9 15       		.uleb128 0x15
 1630 07aa 08040000 		.4byte	.LASF91
 1631 07ae 0C       		.byte	0xc
 1632 07af A003     		.2byte	0x3a0
 1633 07b1 62000000 		.4byte	0x62
ARM GAS  /tmp/ccZZC2fc.s 			page 30


 1634 07b5 02       		.byte	0x2
 1635 07b6 23       		.byte	0x23
 1636 07b7 16       		.uleb128 0x16
 1637 07b8 15       		.uleb128 0x15
 1638 07b9 E1000000 		.4byte	.LASF92
 1639 07bd 0C       		.byte	0xc
 1640 07be A103     		.2byte	0x3a1
 1641 07c0 F3060000 		.4byte	0x6f3
 1642 07c4 02       		.byte	0x2
 1643 07c5 23       		.byte	0x23
 1644 07c6 18       		.uleb128 0x18
 1645 07c7 15       		.uleb128 0x15
 1646 07c8 61030000 		.4byte	.LASF93
 1647 07cc 0C       		.byte	0xc
 1648 07cd A203     		.2byte	0x3a2
 1649 07cf 62000000 		.4byte	0x62
 1650 07d3 02       		.byte	0x2
 1651 07d4 23       		.byte	0x23
 1652 07d5 1A       		.uleb128 0x1a
 1653 07d6 00       		.byte	0
 1654 07d7 14       		.uleb128 0x14
 1655 07d8 11050000 		.4byte	.LASF94
 1656 07dc 0C       		.byte	0xc
 1657 07dd A303     		.2byte	0x3a3
 1658 07df FD060000 		.4byte	0x6fd
 1659 07e3 17       		.uleb128 0x17
 1660 07e4 01       		.byte	0x1
 1661 07e5 0D       		.byte	0xd
 1662 07e6 64       		.byte	0x64
 1663 07e7 FE070000 		.4byte	0x7fe
 1664 07eb 18       		.uleb128 0x18
 1665 07ec FE030000 		.4byte	.LASF95
 1666 07f0 00       		.sleb128 0
 1667 07f1 18       		.uleb128 0x18
 1668 07f2 E4030000 		.4byte	.LASF96
 1669 07f6 01       		.sleb128 1
 1670 07f7 18       		.uleb128 0x18
 1671 07f8 F3040000 		.4byte	.LASF97
 1672 07fc 02       		.sleb128 2
 1673 07fd 00       		.byte	0
 1674 07fe 03       		.uleb128 0x3
 1675 07ff 1B040000 		.4byte	.LASF98
 1676 0803 0D       		.byte	0xd
 1677 0804 68       		.byte	0x68
 1678 0805 E3070000 		.4byte	0x7e3
 1679 0809 03       		.uleb128 0x3
 1680 080a 25040000 		.4byte	.LASF99
 1681 080e 0D       		.byte	0xd
 1682 080f 6D       		.byte	0x6d
 1683 0810 14080000 		.4byte	0x814
 1684 0814 05       		.uleb128 0x5
 1685 0815 25040000 		.4byte	.LASF99
 1686 0819 74       		.byte	0x74
 1687 081a 0D       		.byte	0xd
 1688 081b 87       		.byte	0x87
 1689 081c 9D080000 		.4byte	0x89d
 1690 0820 07       		.uleb128 0x7
ARM GAS  /tmp/ccZZC2fc.s 			page 31


 1691 0821 766D7400 		.ascii	"vmt\000"
 1692 0825 0D       		.byte	0xd
 1693 0826 89       		.byte	0x89
 1694 0827 74090000 		.4byte	0x974
 1695 082b 02       		.byte	0x2
 1696 082c 23       		.byte	0x23
 1697 082d 00       		.uleb128 0
 1698 082e 06       		.uleb128 0x6
 1699 082f 1E020000 		.4byte	.LASF83
 1700 0833 0D       		.byte	0xd
 1701 0834 8A       		.byte	0x8a
 1702 0835 F7030000 		.4byte	0x3f7
 1703 0839 02       		.byte	0x2
 1704 083a 23       		.byte	0x23
 1705 083b 04       		.uleb128 0x4
 1706 083c 06       		.uleb128 0x6
 1707 083d 45050000 		.4byte	.LASF84
 1708 0841 0D       		.byte	0xd
 1709 0842 8A       		.byte	0x8a
 1710 0843 EE050000 		.4byte	0x5ee
 1711 0847 02       		.byte	0x2
 1712 0848 23       		.byte	0x23
 1713 0849 08       		.uleb128 0x8
 1714 084a 06       		.uleb128 0x6
 1715 084b FD000000 		.4byte	.LASF100
 1716 084f 0D       		.byte	0xd
 1717 0850 8A       		.byte	0x8a
 1718 0851 FE070000 		.4byte	0x7fe
 1719 0855 02       		.byte	0x2
 1720 0856 23       		.byte	0x23
 1721 0857 0C       		.uleb128 0xc
 1722 0858 06       		.uleb128 0x6
 1723 0859 FB010000 		.4byte	.LASF101
 1724 085d 0D       		.byte	0xd
 1725 085e 8A       		.byte	0x8a
 1726 085f F2040000 		.4byte	0x4f2
 1727 0863 02       		.byte	0x2
 1728 0864 23       		.byte	0x23
 1729 0865 10       		.uleb128 0x10
 1730 0866 06       		.uleb128 0x6
 1731 0867 3D020000 		.4byte	.LASF102
 1732 086b 0D       		.byte	0xd
 1733 086c 8A       		.byte	0x8a
 1734 086d FD040000 		.4byte	0x4fd
 1735 0871 02       		.byte	0x2
 1736 0872 23       		.byte	0x23
 1737 0873 30       		.uleb128 0x30
 1738 0874 07       		.uleb128 0x7
 1739 0875 696200   		.ascii	"ib\000"
 1740 0878 0D       		.byte	0xd
 1741 0879 8A       		.byte	0x8a
 1742 087a 7F090000 		.4byte	0x97f
 1743 087e 02       		.byte	0x2
 1744 087f 23       		.byte	0x23
 1745 0880 50       		.uleb128 0x50
 1746 0881 07       		.uleb128 0x7
 1747 0882 6F6200   		.ascii	"ob\000"
ARM GAS  /tmp/ccZZC2fc.s 			page 32


 1748 0885 0D       		.byte	0xd
 1749 0886 8A       		.byte	0x8a
 1750 0887 7F090000 		.4byte	0x97f
 1751 088b 02       		.byte	0x2
 1752 088c 23       		.byte	0x23
 1753 088d 60       		.uleb128 0x60
 1754 088e 06       		.uleb128 0x6
 1755 088f 66020000 		.4byte	.LASF103
 1756 0893 0D       		.byte	0xd
 1757 0894 8A       		.byte	0x8a
 1758 0895 8F090000 		.4byte	0x98f
 1759 0899 02       		.byte	0x2
 1760 089a 23       		.byte	0x23
 1761 089b 70       		.uleb128 0x70
 1762 089c 00       		.byte	0
 1763 089d 08       		.uleb128 0x8
 1764 089e 0C       		.byte	0xc
 1765 089f 0E       		.byte	0xe
 1766 08a0 C4       		.byte	0xc4
 1767 08a1 DE080000 		.4byte	0x8de
 1768 08a5 06       		.uleb128 0x6
 1769 08a6 0F000000 		.4byte	.LASF104
 1770 08aa 0E       		.byte	0xe
 1771 08ab C8       		.byte	0xc8
 1772 08ac 86000000 		.4byte	0x86
 1773 08b0 02       		.byte	0x2
 1774 08b1 23       		.byte	0x23
 1775 08b2 00       		.uleb128 0
 1776 08b3 06       		.uleb128 0x6
 1777 08b4 7F050000 		.4byte	.LASF105
 1778 08b8 0E       		.byte	0xe
 1779 08b9 CC       		.byte	0xcc
 1780 08ba 62000000 		.4byte	0x62
 1781 08be 02       		.byte	0x2
 1782 08bf 23       		.byte	0x23
 1783 08c0 04       		.uleb128 0x4
 1784 08c1 06       		.uleb128 0x6
 1785 08c2 86050000 		.4byte	.LASF106
 1786 08c6 0E       		.byte	0xe
 1787 08c7 D0       		.byte	0xd0
 1788 08c8 62000000 		.4byte	0x62
 1789 08cc 02       		.byte	0x2
 1790 08cd 23       		.byte	0x23
 1791 08ce 06       		.uleb128 0x6
 1792 08cf 06       		.uleb128 0x6
 1793 08d0 8D050000 		.4byte	.LASF107
 1794 08d4 0E       		.byte	0xe
 1795 08d5 D4       		.byte	0xd4
 1796 08d6 62000000 		.4byte	0x62
 1797 08da 02       		.byte	0x2
 1798 08db 23       		.byte	0x23
 1799 08dc 08       		.uleb128 0x8
 1800 08dd 00       		.byte	0
 1801 08de 03       		.uleb128 0x3
 1802 08df 13030000 		.4byte	.LASF108
 1803 08e3 0E       		.byte	0xe
 1804 08e4 D5       		.byte	0xd5
ARM GAS  /tmp/ccZZC2fc.s 			page 33


 1805 08e5 9D080000 		.4byte	0x89d
 1806 08e9 05       		.uleb128 0x5
 1807 08ea DC010000 		.4byte	.LASF109
 1808 08ee 24       		.byte	0x24
 1809 08ef 0D       		.byte	0xd
 1810 08f0 7C       		.byte	0x7c
 1811 08f1 74090000 		.4byte	0x974
 1812 08f5 06       		.uleb128 0x6
 1813 08f6 9F020000 		.4byte	.LASF76
 1814 08fa 0D       		.byte	0xd
 1815 08fb 7D       		.byte	0x7d
 1816 08fc 2D050000 		.4byte	0x52d
 1817 0900 02       		.byte	0x2
 1818 0901 23       		.byte	0x23
 1819 0902 00       		.uleb128 0
 1820 0903 06       		.uleb128 0x6
 1821 0904 44040000 		.4byte	.LASF77
 1822 0908 0D       		.byte	0xd
 1823 0909 7D       		.byte	0x7d
 1824 090a 4D050000 		.4byte	0x54d
 1825 090e 02       		.byte	0x2
 1826 090f 23       		.byte	0x23
 1827 0910 04       		.uleb128 0x4
 1828 0911 06       		.uleb128 0x6
 1829 0912 69010000 		.4byte	.LASF78
 1830 0916 0D       		.byte	0xd
 1831 0917 7D       		.byte	0x7d
 1832 0918 63050000 		.4byte	0x563
 1833 091c 02       		.byte	0x2
 1834 091d 23       		.byte	0x23
 1835 091e 08       		.uleb128 0x8
 1836 091f 06       		.uleb128 0x6
 1837 0920 71050000 		.4byte	.LASF79
 1838 0924 0D       		.byte	0xd
 1839 0925 7D       		.byte	0x7d
 1840 0926 63050000 		.4byte	0x563
 1841 092a 02       		.byte	0x2
 1842 092b 23       		.byte	0x23
 1843 092c 0C       		.uleb128 0xc
 1844 092d 07       		.uleb128 0x7
 1845 092e 70757400 		.ascii	"put\000"
 1846 0932 0D       		.byte	0xd
 1847 0933 7D       		.byte	0x7d
 1848 0934 83050000 		.4byte	0x583
 1849 0938 02       		.byte	0x2
 1850 0939 23       		.byte	0x23
 1851 093a 10       		.uleb128 0x10
 1852 093b 07       		.uleb128 0x7
 1853 093c 67657400 		.ascii	"get\000"
 1854 0940 0D       		.byte	0xd
 1855 0941 7D       		.byte	0x7d
 1856 0942 9E050000 		.4byte	0x59e
 1857 0946 02       		.byte	0x2
 1858 0947 23       		.byte	0x23
 1859 0948 14       		.uleb128 0x14
 1860 0949 06       		.uleb128 0x6
 1861 094a 4B020000 		.4byte	.LASF80
ARM GAS  /tmp/ccZZC2fc.s 			page 34


 1862 094e 0D       		.byte	0xd
 1863 094f 7D       		.byte	0x7d
 1864 0950 C3050000 		.4byte	0x5c3
 1865 0954 02       		.byte	0x2
 1866 0955 23       		.byte	0x23
 1867 0956 18       		.uleb128 0x18
 1868 0957 06       		.uleb128 0x6
 1869 0958 B7000000 		.4byte	.LASF81
 1870 095c 0D       		.byte	0xd
 1871 095d 7D       		.byte	0x7d
 1872 095e E8050000 		.4byte	0x5e8
 1873 0962 02       		.byte	0x2
 1874 0963 23       		.byte	0x23
 1875 0964 1C       		.uleb128 0x1c
 1876 0965 06       		.uleb128 0x6
 1877 0966 DA020000 		.4byte	.LASF82
 1878 096a 0D       		.byte	0xd
 1879 096b 7D       		.byte	0x7d
 1880 096c 9F060000 		.4byte	0x69f
 1881 0970 02       		.byte	0x2
 1882 0971 23       		.byte	0x23
 1883 0972 20       		.uleb128 0x20
 1884 0973 00       		.byte	0
 1885 0974 09       		.uleb128 0x9
 1886 0975 04       		.byte	0x4
 1887 0976 7A090000 		.4byte	0x97a
 1888 097a 10       		.uleb128 0x10
 1889 097b E9080000 		.4byte	0x8e9
 1890 097f 19       		.uleb128 0x19
 1891 0980 49000000 		.4byte	0x49
 1892 0984 8F090000 		.4byte	0x98f
 1893 0988 1A       		.uleb128 0x1a
 1894 0989 40030000 		.4byte	0x340
 1895 098d 0F       		.byte	0xf
 1896 098e 00       		.byte	0
 1897 098f 09       		.uleb128 0x9
 1898 0990 04       		.byte	0x4
 1899 0991 D7070000 		.4byte	0x7d7
 1900 0995 1B       		.uleb128 0x1b
 1901 0996 69010000 		.4byte	.LASF78
 1902 099a 01       		.byte	0x1
 1903 099b 4A       		.byte	0x4a
 1904 099c 01       		.byte	0x1
 1905 099d B1000000 		.4byte	0xb1
 1906 09a1 00000000 		.4byte	.LFB119
 1907 09a5 0C000000 		.4byte	.LFE119
 1908 09a9 02       		.byte	0x2
 1909 09aa 7D       		.byte	0x7d
 1910 09ab 00       		.sleb128 0
 1911 09ac 01       		.byte	0x1
 1912 09ad C0090000 		.4byte	0x9c0
 1913 09b1 1C       		.uleb128 0x1c
 1914 09b2 697000   		.ascii	"ip\000"
 1915 09b5 01       		.byte	0x1
 1916 09b6 4A       		.byte	0x4a
 1917 09b7 8E020000 		.4byte	0x28e
 1918 09bb 00000000 		.4byte	.LLST0
ARM GAS  /tmp/ccZZC2fc.s 			page 35


 1919 09bf 00       		.byte	0
 1920 09c0 1B       		.uleb128 0x1b
 1921 09c1 71050000 		.4byte	.LASF79
 1922 09c5 01       		.byte	0x1
 1923 09c6 4F       		.byte	0x4f
 1924 09c7 01       		.byte	0x1
 1925 09c8 B1000000 		.4byte	0xb1
 1926 09cc 00000000 		.4byte	.LFB120
 1927 09d0 0C000000 		.4byte	.LFE120
 1928 09d4 02       		.byte	0x2
 1929 09d5 7D       		.byte	0x7d
 1930 09d6 00       		.sleb128 0
 1931 09d7 01       		.byte	0x1
 1932 09d8 EB090000 		.4byte	0x9eb
 1933 09dc 1C       		.uleb128 0x1c
 1934 09dd 697000   		.ascii	"ip\000"
 1935 09e0 01       		.byte	0x1
 1936 09e1 4F       		.byte	0x4f
 1937 09e2 8E020000 		.4byte	0x28e
 1938 09e6 21000000 		.4byte	.LLST1
 1939 09ea 00       		.byte	0
 1940 09eb 1B       		.uleb128 0x1b
 1941 09ec DA020000 		.4byte	.LASF82
 1942 09f0 01       		.byte	0x1
 1943 09f1 68       		.byte	0x68
 1944 09f2 01       		.byte	0x1
 1945 09f3 EE050000 		.4byte	0x5ee
 1946 09f7 00000000 		.4byte	.LFB125
 1947 09fb 14000000 		.4byte	.LFE125
 1948 09ff 02       		.byte	0x2
 1949 0a00 7D       		.byte	0x7d
 1950 0a01 00       		.sleb128 0
 1951 0a02 01       		.byte	0x1
 1952 0a03 570A0000 		.4byte	0xa57
 1953 0a07 1C       		.uleb128 0x1c
 1954 0a08 697000   		.ascii	"ip\000"
 1955 0a0b 01       		.byte	0x1
 1956 0a0c 68       		.byte	0x68
 1957 0a0d 8E020000 		.4byte	0x28e
 1958 0a11 42000000 		.4byte	.LLST2
 1959 0a15 1D       		.uleb128 0x1d
 1960 0a16 88010000 		.4byte	.LASF110
 1961 0a1a 01       		.byte	0x1
 1962 0a1b 69       		.byte	0x69
 1963 0a1c EE050000 		.4byte	0x5ee
 1964 0a20 01       		.byte	0x1
 1965 0a21 50       		.byte	0x50
 1966 0a22 1E       		.uleb128 0x1e
 1967 0a23 02000000 		.4byte	.LBB2
 1968 0a27 08000000 		.4byte	.LBE2
 1969 0a2b 3F0A0000 		.4byte	0xa3f
 1970 0a2f 1F       		.uleb128 0x1f
 1971 0a30 746D7000 		.ascii	"tmp\000"
 1972 0a34 01       		.byte	0x1
 1973 0a35 69       		.byte	0x69
 1974 0a36 86000000 		.4byte	0x86
 1975 0a3a 60000000 		.4byte	.LLST3
ARM GAS  /tmp/ccZZC2fc.s 			page 36


 1976 0a3e 00       		.byte	0
 1977 0a3f 20       		.uleb128 0x20
 1978 0a40 0E000000 		.4byte	.LBB3
 1979 0a44 12000000 		.4byte	.LBE3
 1980 0a48 21       		.uleb128 0x21
 1981 0a49 746D7000 		.ascii	"tmp\000"
 1982 0a4d 01       		.byte	0x1
 1983 0a4e 69       		.byte	0x69
 1984 0a4f 86000000 		.4byte	0x86
 1985 0a53 01       		.byte	0x1
 1986 0a54 53       		.byte	0x53
 1987 0a55 00       		.byte	0
 1988 0a56 00       		.byte	0
 1989 0a57 1B       		.uleb128 0x1b
 1990 0a58 B7000000 		.4byte	.LASF81
 1991 0a5c 01       		.byte	0x1
 1992 0a5d 63       		.byte	0x63
 1993 0a5e 01       		.byte	0x1
 1994 0a5f 30000000 		.4byte	0x30
 1995 0a63 00000000 		.4byte	.LFB124
 1996 0a67 06000000 		.4byte	.LFE124
 1997 0a6b 02       		.byte	0x2
 1998 0a6c 7D       		.byte	0x7d
 1999 0a6d 00       		.sleb128 0
 2000 0a6e 01       		.byte	0x1
 2001 0a6f D50A0000 		.4byte	0xad5
 2002 0a73 1C       		.uleb128 0x1c
 2003 0a74 697000   		.ascii	"ip\000"
 2004 0a77 01       		.byte	0x1
 2005 0a78 63       		.byte	0x63
 2006 0a79 8E020000 		.4byte	0x28e
 2007 0a7d 73000000 		.4byte	.LLST4
 2008 0a81 1C       		.uleb128 0x1c
 2009 0a82 627000   		.ascii	"bp\000"
 2010 0a85 01       		.byte	0x1
 2011 0a86 63       		.byte	0x63
 2012 0a87 EC040000 		.4byte	0x4ec
 2013 0a8b A1000000 		.4byte	.LLST5
 2014 0a8f 1C       		.uleb128 0x1c
 2015 0a90 6E00     		.ascii	"n\000"
 2016 0a92 01       		.byte	0x1
 2017 0a93 63       		.byte	0x63
 2018 0a94 30000000 		.4byte	0x30
 2019 0a98 C2000000 		.4byte	.LLST6
 2020 0a9c 22       		.uleb128 0x22
 2021 0a9d 02030000 		.4byte	.LASF111
 2022 0aa1 01       		.byte	0x1
 2023 0aa2 63       		.byte	0x63
 2024 0aa3 FE000000 		.4byte	0xfe
 2025 0aa7 E3000000 		.4byte	.LLST7
 2026 0aab 23       		.uleb128 0x23
 2027 0aac 06000000 		.4byte	.LVL12
 2028 0ab0 01       		.byte	0x1
 2029 0ab1 EE0F0000 		.4byte	0xfee
 2030 0ab5 24       		.uleb128 0x24
 2031 0ab6 01       		.byte	0x1
 2032 0ab7 53       		.byte	0x53
ARM GAS  /tmp/ccZZC2fc.s 			page 37


 2033 0ab8 03       		.byte	0x3
 2034 0ab9 F3       		.byte	0xf3
 2035 0aba 01       		.uleb128 0x1
 2036 0abb 53       		.byte	0x53
 2037 0abc 24       		.uleb128 0x24
 2038 0abd 01       		.byte	0x1
 2039 0abe 52       		.byte	0x52
 2040 0abf 03       		.byte	0x3
 2041 0ac0 F3       		.byte	0xf3
 2042 0ac1 01       		.uleb128 0x1
 2043 0ac2 52       		.byte	0x52
 2044 0ac3 24       		.uleb128 0x24
 2045 0ac4 01       		.byte	0x1
 2046 0ac5 51       		.byte	0x51
 2047 0ac6 03       		.byte	0x3
 2048 0ac7 F3       		.byte	0xf3
 2049 0ac8 01       		.uleb128 0x1
 2050 0ac9 51       		.byte	0x51
 2051 0aca 24       		.uleb128 0x24
 2052 0acb 01       		.byte	0x1
 2053 0acc 50       		.byte	0x50
 2054 0acd 05       		.byte	0x5
 2055 0ace F3       		.byte	0xf3
 2056 0acf 01       		.uleb128 0x1
 2057 0ad0 50       		.byte	0x50
 2058 0ad1 23       		.byte	0x23
 2059 0ad2 10       		.uleb128 0x10
 2060 0ad3 00       		.byte	0
 2061 0ad4 00       		.byte	0
 2062 0ad5 1B       		.uleb128 0x1b
 2063 0ad6 B1000000 		.4byte	.LASF112
 2064 0ada 01       		.byte	0x1
 2065 0adb 44       		.byte	0x44
 2066 0adc 01       		.byte	0x1
 2067 0add 30000000 		.4byte	0x30
 2068 0ae1 00000000 		.4byte	.LFB118
 2069 0ae5 0A000000 		.4byte	.LFE118
 2070 0ae9 02       		.byte	0x2
 2071 0aea 7D       		.byte	0x7d
 2072 0aeb 00       		.sleb128 0
 2073 0aec 01       		.byte	0x1
 2074 0aed 430B0000 		.4byte	0xb43
 2075 0af1 1C       		.uleb128 0x1c
 2076 0af2 697000   		.ascii	"ip\000"
 2077 0af5 01       		.byte	0x1
 2078 0af6 44       		.byte	0x44
 2079 0af7 8E020000 		.4byte	0x28e
 2080 0afb 04010000 		.4byte	.LLST8
 2081 0aff 1C       		.uleb128 0x1c
 2082 0b00 627000   		.ascii	"bp\000"
 2083 0b03 01       		.byte	0x1
 2084 0b04 44       		.byte	0x44
 2085 0b05 EC040000 		.4byte	0x4ec
 2086 0b09 32010000 		.4byte	.LLST9
 2087 0b0d 1C       		.uleb128 0x1c
 2088 0b0e 6E00     		.ascii	"n\000"
 2089 0b10 01       		.byte	0x1
ARM GAS  /tmp/ccZZC2fc.s 			page 38


 2090 0b11 44       		.byte	0x44
 2091 0b12 30000000 		.4byte	0x30
 2092 0b16 53010000 		.4byte	.LLST10
 2093 0b1a 23       		.uleb128 0x23
 2094 0b1b 0A000000 		.4byte	.LVL15
 2095 0b1f 01       		.byte	0x1
 2096 0b20 EE0F0000 		.4byte	0xfee
 2097 0b24 24       		.uleb128 0x24
 2098 0b25 01       		.byte	0x1
 2099 0b26 53       		.byte	0x53
 2100 0b27 02       		.byte	0x2
 2101 0b28 09       		.byte	0x9
 2102 0b29 FF       		.byte	0xff
 2103 0b2a 24       		.uleb128 0x24
 2104 0b2b 01       		.byte	0x1
 2105 0b2c 52       		.byte	0x52
 2106 0b2d 03       		.byte	0x3
 2107 0b2e F3       		.byte	0xf3
 2108 0b2f 01       		.uleb128 0x1
 2109 0b30 52       		.byte	0x52
 2110 0b31 24       		.uleb128 0x24
 2111 0b32 01       		.byte	0x1
 2112 0b33 51       		.byte	0x51
 2113 0b34 03       		.byte	0x3
 2114 0b35 F3       		.byte	0xf3
 2115 0b36 01       		.uleb128 0x1
 2116 0b37 51       		.byte	0x51
 2117 0b38 24       		.uleb128 0x24
 2118 0b39 01       		.byte	0x1
 2119 0b3a 50       		.byte	0x50
 2120 0b3b 05       		.byte	0x5
 2121 0b3c F3       		.byte	0xf3
 2122 0b3d 01       		.uleb128 0x1
 2123 0b3e 50       		.byte	0x50
 2124 0b3f 23       		.byte	0x23
 2125 0b40 10       		.uleb128 0x10
 2126 0b41 00       		.byte	0
 2127 0b42 00       		.byte	0
 2128 0b43 1B       		.uleb128 0x1b
 2129 0b44 4B020000 		.4byte	.LASF80
 2130 0b48 01       		.byte	0x1
 2131 0b49 5E       		.byte	0x5e
 2132 0b4a 01       		.byte	0x1
 2133 0b4b 30000000 		.4byte	0x30
 2134 0b4f 00000000 		.4byte	.LFB123
 2135 0b53 06000000 		.4byte	.LFE123
 2136 0b57 02       		.byte	0x2
 2137 0b58 7D       		.byte	0x7d
 2138 0b59 00       		.sleb128 0
 2139 0b5a 01       		.byte	0x1
 2140 0b5b C10B0000 		.4byte	0xbc1
 2141 0b5f 1C       		.uleb128 0x1c
 2142 0b60 697000   		.ascii	"ip\000"
 2143 0b63 01       		.byte	0x1
 2144 0b64 5E       		.byte	0x5e
 2145 0b65 8E020000 		.4byte	0x28e
 2146 0b69 74010000 		.4byte	.LLST11
ARM GAS  /tmp/ccZZC2fc.s 			page 39


 2147 0b6d 1C       		.uleb128 0x1c
 2148 0b6e 627000   		.ascii	"bp\000"
 2149 0b71 01       		.byte	0x1
 2150 0b72 5E       		.byte	0x5e
 2151 0b73 22050000 		.4byte	0x522
 2152 0b77 A2010000 		.4byte	.LLST12
 2153 0b7b 1C       		.uleb128 0x1c
 2154 0b7c 6E00     		.ascii	"n\000"
 2155 0b7e 01       		.byte	0x1
 2156 0b7f 5E       		.byte	0x5e
 2157 0b80 30000000 		.4byte	0x30
 2158 0b84 C3010000 		.4byte	.LLST13
 2159 0b88 22       		.uleb128 0x22
 2160 0b89 02030000 		.4byte	.LASF111
 2161 0b8d 01       		.byte	0x1
 2162 0b8e 5E       		.byte	0x5e
 2163 0b8f FE000000 		.4byte	0xfe
 2164 0b93 E4010000 		.4byte	.LLST14
 2165 0b97 23       		.uleb128 0x23
 2166 0b98 06000000 		.4byte	.LVL18
 2167 0b9c 01       		.byte	0x1
 2168 0b9d 1C100000 		.4byte	0x101c
 2169 0ba1 24       		.uleb128 0x24
 2170 0ba2 01       		.byte	0x1
 2171 0ba3 53       		.byte	0x53
 2172 0ba4 03       		.byte	0x3
 2173 0ba5 F3       		.byte	0xf3
 2174 0ba6 01       		.uleb128 0x1
 2175 0ba7 53       		.byte	0x53
 2176 0ba8 24       		.uleb128 0x24
 2177 0ba9 01       		.byte	0x1
 2178 0baa 52       		.byte	0x52
 2179 0bab 03       		.byte	0x3
 2180 0bac F3       		.byte	0xf3
 2181 0bad 01       		.uleb128 0x1
 2182 0bae 52       		.byte	0x52
 2183 0baf 24       		.uleb128 0x24
 2184 0bb0 01       		.byte	0x1
 2185 0bb1 51       		.byte	0x51
 2186 0bb2 03       		.byte	0x3
 2187 0bb3 F3       		.byte	0xf3
 2188 0bb4 01       		.uleb128 0x1
 2189 0bb5 51       		.byte	0x51
 2190 0bb6 24       		.uleb128 0x24
 2191 0bb7 01       		.byte	0x1
 2192 0bb8 50       		.byte	0x50
 2193 0bb9 05       		.byte	0x5
 2194 0bba F3       		.byte	0xf3
 2195 0bbb 01       		.uleb128 0x1
 2196 0bbc 50       		.byte	0x50
 2197 0bbd 23       		.byte	0x23
 2198 0bbe 30       		.uleb128 0x30
 2199 0bbf 00       		.byte	0
 2200 0bc0 00       		.byte	0
 2201 0bc1 1B       		.uleb128 0x1b
 2202 0bc2 44020000 		.4byte	.LASF113
 2203 0bc6 01       		.byte	0x1
ARM GAS  /tmp/ccZZC2fc.s 			page 40


 2204 0bc7 3E       		.byte	0x3e
 2205 0bc8 01       		.byte	0x1
 2206 0bc9 30000000 		.4byte	0x30
 2207 0bcd 00000000 		.4byte	.LFB117
 2208 0bd1 0A000000 		.4byte	.LFE117
 2209 0bd5 02       		.byte	0x2
 2210 0bd6 7D       		.byte	0x7d
 2211 0bd7 00       		.sleb128 0
 2212 0bd8 01       		.byte	0x1
 2213 0bd9 2F0C0000 		.4byte	0xc2f
 2214 0bdd 1C       		.uleb128 0x1c
 2215 0bde 697000   		.ascii	"ip\000"
 2216 0be1 01       		.byte	0x1
 2217 0be2 3E       		.byte	0x3e
 2218 0be3 8E020000 		.4byte	0x28e
 2219 0be7 05020000 		.4byte	.LLST15
 2220 0beb 1C       		.uleb128 0x1c
 2221 0bec 627000   		.ascii	"bp\000"
 2222 0bef 01       		.byte	0x1
 2223 0bf0 3E       		.byte	0x3e
 2224 0bf1 22050000 		.4byte	0x522
 2225 0bf5 33020000 		.4byte	.LLST16
 2226 0bf9 1C       		.uleb128 0x1c
 2227 0bfa 6E00     		.ascii	"n\000"
 2228 0bfc 01       		.byte	0x1
 2229 0bfd 3E       		.byte	0x3e
 2230 0bfe 30000000 		.4byte	0x30
 2231 0c02 54020000 		.4byte	.LLST17
 2232 0c06 23       		.uleb128 0x23
 2233 0c07 0A000000 		.4byte	.LVL21
 2234 0c0b 01       		.byte	0x1
 2235 0c0c 1C100000 		.4byte	0x101c
 2236 0c10 24       		.uleb128 0x24
 2237 0c11 01       		.byte	0x1
 2238 0c12 53       		.byte	0x53
 2239 0c13 02       		.byte	0x2
 2240 0c14 09       		.byte	0x9
 2241 0c15 FF       		.byte	0xff
 2242 0c16 24       		.uleb128 0x24
 2243 0c17 01       		.byte	0x1
 2244 0c18 52       		.byte	0x52
 2245 0c19 03       		.byte	0x3
 2246 0c1a F3       		.byte	0xf3
 2247 0c1b 01       		.uleb128 0x1
 2248 0c1c 52       		.byte	0x52
 2249 0c1d 24       		.uleb128 0x24
 2250 0c1e 01       		.byte	0x1
 2251 0c1f 51       		.byte	0x51
 2252 0c20 03       		.byte	0x3
 2253 0c21 F3       		.byte	0xf3
 2254 0c22 01       		.uleb128 0x1
 2255 0c23 51       		.byte	0x51
 2256 0c24 24       		.uleb128 0x24
 2257 0c25 01       		.byte	0x1
 2258 0c26 50       		.byte	0x50
 2259 0c27 05       		.byte	0x5
 2260 0c28 F3       		.byte	0xf3
ARM GAS  /tmp/ccZZC2fc.s 			page 41


 2261 0c29 01       		.uleb128 0x1
 2262 0c2a 50       		.byte	0x50
 2263 0c2b 23       		.byte	0x23
 2264 0c2c 30       		.uleb128 0x30
 2265 0c2d 00       		.byte	0
 2266 0c2e 00       		.byte	0
 2267 0c2f 1B       		.uleb128 0x1b
 2268 0c30 19020000 		.4byte	.LASF114
 2269 0c34 01       		.byte	0x1
 2270 0c35 59       		.byte	0x59
 2271 0c36 01       		.byte	0x1
 2272 0c37 E8000000 		.4byte	0xe8
 2273 0c3b 00000000 		.4byte	.LFB122
 2274 0c3f 06000000 		.4byte	.LFE122
 2275 0c43 02       		.byte	0x2
 2276 0c44 7D       		.byte	0x7d
 2277 0c45 00       		.sleb128 0
 2278 0c46 01       		.byte	0x1
 2279 0c47 840C0000 		.4byte	0xc84
 2280 0c4b 1C       		.uleb128 0x1c
 2281 0c4c 697000   		.ascii	"ip\000"
 2282 0c4f 01       		.byte	0x1
 2283 0c50 59       		.byte	0x59
 2284 0c51 8E020000 		.4byte	0x28e
 2285 0c55 75020000 		.4byte	.LLST18
 2286 0c59 22       		.uleb128 0x22
 2287 0c5a FA020000 		.4byte	.LASF115
 2288 0c5e 01       		.byte	0x1
 2289 0c5f 59       		.byte	0x59
 2290 0c60 FE000000 		.4byte	0xfe
 2291 0c64 A3020000 		.4byte	.LLST19
 2292 0c68 23       		.uleb128 0x23
 2293 0c69 06000000 		.4byte	.LVL24
 2294 0c6d 01       		.byte	0x1
 2295 0c6e 4A100000 		.4byte	0x104a
 2296 0c72 24       		.uleb128 0x24
 2297 0c73 01       		.byte	0x1
 2298 0c74 51       		.byte	0x51
 2299 0c75 03       		.byte	0x3
 2300 0c76 F3       		.byte	0xf3
 2301 0c77 01       		.uleb128 0x1
 2302 0c78 51       		.byte	0x51
 2303 0c79 24       		.uleb128 0x24
 2304 0c7a 01       		.byte	0x1
 2305 0c7b 50       		.byte	0x50
 2306 0c7c 05       		.byte	0x5
 2307 0c7d F3       		.byte	0xf3
 2308 0c7e 01       		.uleb128 0x1
 2309 0c7f 50       		.byte	0x50
 2310 0c80 23       		.byte	0x23
 2311 0c81 10       		.uleb128 0x10
 2312 0c82 00       		.byte	0
 2313 0c83 00       		.byte	0
 2314 0c84 1B       		.uleb128 0x1b
 2315 0c85 A5020000 		.4byte	.LASF116
 2316 0c89 01       		.byte	0x1
 2317 0c8a 54       		.byte	0x54
ARM GAS  /tmp/ccZZC2fc.s 			page 42


 2318 0c8b 01       		.byte	0x1
 2319 0c8c E8000000 		.4byte	0xe8
 2320 0c90 00000000 		.4byte	.LFB121
 2321 0c94 06000000 		.4byte	.LFE121
 2322 0c98 02       		.byte	0x2
 2323 0c99 7D       		.byte	0x7d
 2324 0c9a 00       		.sleb128 0
 2325 0c9b 01       		.byte	0x1
 2326 0c9c E60C0000 		.4byte	0xce6
 2327 0ca0 1C       		.uleb128 0x1c
 2328 0ca1 697000   		.ascii	"ip\000"
 2329 0ca4 01       		.byte	0x1
 2330 0ca5 54       		.byte	0x54
 2331 0ca6 8E020000 		.4byte	0x28e
 2332 0caa C4020000 		.4byte	.LLST20
 2333 0cae 1C       		.uleb128 0x1c
 2334 0caf 6200     		.ascii	"b\000"
 2335 0cb1 01       		.byte	0x1
 2336 0cb2 54       		.byte	0x54
 2337 0cb3 49000000 		.4byte	0x49
 2338 0cb7 F2020000 		.4byte	.LLST21
 2339 0cbb 22       		.uleb128 0x22
 2340 0cbc FA020000 		.4byte	.LASF115
 2341 0cc0 01       		.byte	0x1
 2342 0cc1 54       		.byte	0x54
 2343 0cc2 FE000000 		.4byte	0xfe
 2344 0cc6 13030000 		.4byte	.LLST22
 2345 0cca 23       		.uleb128 0x23
 2346 0ccb 06000000 		.4byte	.LVL27
 2347 0ccf 01       		.byte	0x1
 2348 0cd0 68100000 		.4byte	0x1068
 2349 0cd4 24       		.uleb128 0x24
 2350 0cd5 01       		.byte	0x1
 2351 0cd6 52       		.byte	0x52
 2352 0cd7 03       		.byte	0x3
 2353 0cd8 F3       		.byte	0xf3
 2354 0cd9 01       		.uleb128 0x1
 2355 0cda 52       		.byte	0x52
 2356 0cdb 24       		.uleb128 0x24
 2357 0cdc 01       		.byte	0x1
 2358 0cdd 50       		.byte	0x50
 2359 0cde 05       		.byte	0x5
 2360 0cdf F3       		.byte	0xf3
 2361 0ce0 01       		.uleb128 0x1
 2362 0ce1 50       		.byte	0x50
 2363 0ce2 23       		.byte	0x23
 2364 0ce3 30       		.uleb128 0x30
 2365 0ce4 00       		.byte	0
 2366 0ce5 00       		.byte	0
 2367 0ce6 25       		.uleb128 0x25
 2368 0ce7 01       		.byte	0x1
 2369 0ce8 94050000 		.4byte	.LASF117
 2370 0cec 01       		.byte	0x1
 2371 0ced 7D       		.byte	0x7d
 2372 0cee 01       		.byte	0x1
 2373 0cef 00000000 		.4byte	.LFB126
 2374 0cf3 04000000 		.4byte	.LFE126
ARM GAS  /tmp/ccZZC2fc.s 			page 43


 2375 0cf7 02       		.byte	0x2
 2376 0cf8 7D       		.byte	0x7d
 2377 0cf9 00       		.sleb128 0
 2378 0cfa 01       		.byte	0x1
 2379 0cfb 0A0D0000 		.4byte	0xd0a
 2380 0cff 26       		.uleb128 0x26
 2381 0d00 04000000 		.4byte	.LVL28
 2382 0d04 01       		.byte	0x1
 2383 0d05 8B100000 		.4byte	0x108b
 2384 0d09 00       		.byte	0
 2385 0d0a 27       		.uleb128 0x27
 2386 0d0b 01       		.byte	0x1
 2387 0d0c A4000000 		.4byte	.LASF118
 2388 0d10 01       		.byte	0x1
 2389 0d11 91       		.byte	0x91
 2390 0d12 01       		.byte	0x1
 2391 0d13 00000000 		.4byte	.LFB127
 2392 0d17 42000000 		.4byte	.LFE127
 2393 0d1b 34030000 		.4byte	.LLST23
 2394 0d1f 01       		.byte	0x1
 2395 0d20 9C0D0000 		.4byte	0xd9c
 2396 0d24 1C       		.uleb128 0x1c
 2397 0d25 73647000 		.ascii	"sdp\000"
 2398 0d29 01       		.byte	0x1
 2399 0d2a 91       		.byte	0x91
 2400 0d2b 9C0D0000 		.4byte	0xd9c
 2401 0d2f 54030000 		.4byte	.LLST24
 2402 0d33 22       		.uleb128 0x22
 2403 0d34 F3010000 		.4byte	.LASF119
 2404 0d38 01       		.byte	0x1
 2405 0d39 91       		.byte	0x91
 2406 0d3a C9040000 		.4byte	0x4c9
 2407 0d3e 72030000 		.4byte	.LLST25
 2408 0d42 22       		.uleb128 0x22
 2409 0d43 4B050000 		.4byte	.LASF120
 2410 0d47 01       		.byte	0x1
 2411 0d48 91       		.byte	0x91
 2412 0d49 C9040000 		.4byte	0x4c9
 2413 0d4d 9E030000 		.4byte	.LLST26
 2414 0d51 28       		.uleb128 0x28
 2415 0d52 2E000000 		.4byte	.LVL33
 2416 0d56 96100000 		.4byte	0x1096
 2417 0d5a 780D0000 		.4byte	0xd78
 2418 0d5e 24       		.uleb128 0x24
 2419 0d5f 01       		.byte	0x1
 2420 0d60 53       		.byte	0x53
 2421 0d61 03       		.byte	0x3
 2422 0d62 F3       		.byte	0xf3
 2423 0d63 01       		.uleb128 0x1
 2424 0d64 51       		.byte	0x51
 2425 0d65 24       		.uleb128 0x24
 2426 0d66 01       		.byte	0x1
 2427 0d67 52       		.byte	0x52
 2428 0d68 01       		.byte	0x1
 2429 0d69 40       		.byte	0x40
 2430 0d6a 24       		.uleb128 0x24
 2431 0d6b 01       		.byte	0x1
ARM GAS  /tmp/ccZZC2fc.s 			page 44


 2432 0d6c 51       		.byte	0x51
 2433 0d6d 03       		.byte	0x3
 2434 0d6e 74       		.byte	0x74
 2435 0d6f D000     		.sleb128 80
 2436 0d71 24       		.uleb128 0x24
 2437 0d72 01       		.byte	0x1
 2438 0d73 50       		.byte	0x50
 2439 0d74 02       		.byte	0x2
 2440 0d75 74       		.byte	0x74
 2441 0d76 10       		.sleb128 16
 2442 0d77 00       		.byte	0
 2443 0d78 23       		.uleb128 0x23
 2444 0d79 42000000 		.4byte	.LVL34
 2445 0d7d 01       		.byte	0x1
 2446 0d7e BA100000 		.4byte	0x10ba
 2447 0d82 24       		.uleb128 0x24
 2448 0d83 01       		.byte	0x1
 2449 0d84 53       		.byte	0x53
 2450 0d85 02       		.byte	0x2
 2451 0d86 76       		.byte	0x76
 2452 0d87 00       		.sleb128 0
 2453 0d88 24       		.uleb128 0x24
 2454 0d89 01       		.byte	0x1
 2455 0d8a 52       		.byte	0x52
 2456 0d8b 01       		.byte	0x1
 2457 0d8c 40       		.byte	0x40
 2458 0d8d 24       		.uleb128 0x24
 2459 0d8e 01       		.byte	0x1
 2460 0d8f 51       		.byte	0x51
 2461 0d90 03       		.byte	0x3
 2462 0d91 74       		.byte	0x74
 2463 0d92 E000     		.sleb128 96
 2464 0d94 24       		.uleb128 0x24
 2465 0d95 01       		.byte	0x1
 2466 0d96 50       		.byte	0x50
 2467 0d97 02       		.byte	0x2
 2468 0d98 74       		.byte	0x74
 2469 0d99 30       		.sleb128 48
 2470 0d9a 00       		.byte	0
 2471 0d9b 00       		.byte	0
 2472 0d9c 09       		.uleb128 0x9
 2473 0d9d 04       		.byte	0x4
 2474 0d9e 09080000 		.4byte	0x809
 2475 0da2 27       		.uleb128 0x27
 2476 0da3 01       		.byte	0x1
 2477 0da4 65040000 		.4byte	.LASF121
 2478 0da8 01       		.byte	0x1
 2479 0da9 A5       		.byte	0xa5
 2480 0daa 01       		.byte	0x1
 2481 0dab 00000000 		.4byte	.LFB128
 2482 0daf 1A000000 		.4byte	.LFE128
 2483 0db3 BC030000 		.4byte	.LLST27
 2484 0db7 01       		.byte	0x1
 2485 0db8 280E0000 		.4byte	0xe28
 2486 0dbc 1C       		.uleb128 0x1c
 2487 0dbd 73647000 		.ascii	"sdp\000"
 2488 0dc1 01       		.byte	0x1
ARM GAS  /tmp/ccZZC2fc.s 			page 45


 2489 0dc2 A5       		.byte	0xa5
 2490 0dc3 9C0D0000 		.4byte	0xd9c
 2491 0dc7 DC030000 		.4byte	.LLST28
 2492 0dcb 22       		.uleb128 0x22
 2493 0dcc 5E040000 		.4byte	.LASF122
 2494 0dd0 01       		.byte	0x1
 2495 0dd1 A5       		.byte	0xa5
 2496 0dd2 280E0000 		.4byte	0xe28
 2497 0dd6 FA030000 		.4byte	.LLST29
 2498 0dda 29       		.uleb128 0x29
 2499 0ddb 00000000 		.4byte	.Ldebug_ranges0+0
 2500 0ddf F30D0000 		.4byte	0xdf3
 2501 0de3 1F       		.uleb128 0x1f
 2502 0de4 746D7000 		.ascii	"tmp\000"
 2503 0de8 01       		.byte	0x1
 2504 0de9 A9       		.byte	0xa9
 2505 0dea 86000000 		.4byte	0x86
 2506 0dee 1B040000 		.4byte	.LLST30
 2507 0df2 00       		.byte	0
 2508 0df3 1E       		.uleb128 0x1e
 2509 0df4 12000000 		.4byte	.LBB6
 2510 0df8 1A000000 		.4byte	.LBE6
 2511 0dfc 100E0000 		.4byte	0xe10
 2512 0e00 1F       		.uleb128 0x1f
 2513 0e01 746D7000 		.ascii	"tmp\000"
 2514 0e05 01       		.byte	0x1
 2515 0e06 AF       		.byte	0xaf
 2516 0e07 86000000 		.4byte	0x86
 2517 0e0b 2E040000 		.4byte	.LLST31
 2518 0e0f 00       		.byte	0
 2519 0e10 2A       		.uleb128 0x2a
 2520 0e11 0E000000 		.4byte	.LVL38
 2521 0e15 DE100000 		.4byte	0x10de
 2522 0e19 24       		.uleb128 0x24
 2523 0e1a 01       		.byte	0x1
 2524 0e1b 51       		.byte	0x51
 2525 0e1c 03       		.byte	0x3
 2526 0e1d F3       		.byte	0xf3
 2527 0e1e 01       		.uleb128 0x1
 2528 0e1f 51       		.byte	0x51
 2529 0e20 24       		.uleb128 0x24
 2530 0e21 01       		.byte	0x1
 2531 0e22 50       		.byte	0x50
 2532 0e23 02       		.byte	0x2
 2533 0e24 74       		.byte	0x74
 2534 0e25 00       		.sleb128 0
 2535 0e26 00       		.byte	0
 2536 0e27 00       		.byte	0
 2537 0e28 09       		.uleb128 0x9
 2538 0e29 04       		.byte	0x4
 2539 0e2a 2E0E0000 		.4byte	0xe2e
 2540 0e2e 10       		.uleb128 0x10
 2541 0e2f DE080000 		.4byte	0x8de
 2542 0e33 27       		.uleb128 0x27
 2543 0e34 01       		.byte	0x1
 2544 0e35 9D000000 		.4byte	.LASF123
 2545 0e39 01       		.byte	0x1
ARM GAS  /tmp/ccZZC2fc.s 			page 46


 2546 0e3a BB       		.byte	0xbb
 2547 0e3b 01       		.byte	0x1
 2548 0e3c 00000000 		.4byte	.LFB129
 2549 0e40 2E000000 		.4byte	.LFE129
 2550 0e44 41040000 		.4byte	.LLST32
 2551 0e48 01       		.byte	0x1
 2552 0e49 D80E0000 		.4byte	0xed8
 2553 0e4d 1C       		.uleb128 0x1c
 2554 0e4e 73647000 		.ascii	"sdp\000"
 2555 0e52 01       		.byte	0x1
 2556 0e53 BB       		.byte	0xbb
 2557 0e54 9C0D0000 		.4byte	0xd9c
 2558 0e58 61040000 		.4byte	.LLST33
 2559 0e5c 29       		.uleb128 0x29
 2560 0e5d 18000000 		.4byte	.Ldebug_ranges0+0x18
 2561 0e61 750E0000 		.4byte	0xe75
 2562 0e65 1F       		.uleb128 0x1f
 2563 0e66 746D7000 		.ascii	"tmp\000"
 2564 0e6a 01       		.byte	0x1
 2565 0e6b BF       		.byte	0xbf
 2566 0e6c 86000000 		.4byte	0x86
 2567 0e70 7F040000 		.4byte	.LLST34
 2568 0e74 00       		.byte	0
 2569 0e75 1E       		.uleb128 0x1e
 2570 0e76 26000000 		.4byte	.LBB9
 2571 0e7a 2E000000 		.4byte	.LBE9
 2572 0e7e 920E0000 		.4byte	0xe92
 2573 0e82 1F       		.uleb128 0x1f
 2574 0e83 746D7000 		.ascii	"tmp\000"
 2575 0e87 01       		.byte	0x1
 2576 0e88 C8       		.byte	0xc8
 2577 0e89 86000000 		.4byte	0x86
 2578 0e8d 92040000 		.4byte	.LLST35
 2579 0e91 00       		.byte	0
 2580 0e92 28       		.uleb128 0x28
 2581 0e93 0E000000 		.4byte	.LVL44
 2582 0e97 F8100000 		.4byte	0x10f8
 2583 0e9b A60E0000 		.4byte	0xea6
 2584 0e9f 24       		.uleb128 0x24
 2585 0ea0 01       		.byte	0x1
 2586 0ea1 50       		.byte	0x50
 2587 0ea2 02       		.byte	0x2
 2588 0ea3 74       		.byte	0x74
 2589 0ea4 00       		.sleb128 0
 2590 0ea5 00       		.byte	0
 2591 0ea6 28       		.uleb128 0x28
 2592 0ea7 1A000000 		.4byte	.LVL45
 2593 0eab 0D110000 		.4byte	0x110d
 2594 0eaf BA0E0000 		.4byte	0xeba
 2595 0eb3 24       		.uleb128 0x24
 2596 0eb4 01       		.byte	0x1
 2597 0eb5 50       		.byte	0x50
 2598 0eb6 02       		.byte	0x2
 2599 0eb7 74       		.byte	0x74
 2600 0eb8 30       		.sleb128 48
 2601 0eb9 00       		.byte	0
 2602 0eba 28       		.uleb128 0x28
ARM GAS  /tmp/ccZZC2fc.s 			page 47


 2603 0ebb 22000000 		.4byte	.LVL46
 2604 0ebf 22110000 		.4byte	0x1122
 2605 0ec3 CE0E0000 		.4byte	0xece
 2606 0ec7 24       		.uleb128 0x24
 2607 0ec8 01       		.byte	0x1
 2608 0ec9 50       		.byte	0x50
 2609 0eca 02       		.byte	0x2
 2610 0ecb 74       		.byte	0x74
 2611 0ecc 10       		.sleb128 16
 2612 0ecd 00       		.byte	0
 2613 0ece 2B       		.uleb128 0x2b
 2614 0ecf 26000000 		.4byte	.LVL47
 2615 0ed3 37110000 		.4byte	0x1137
 2616 0ed7 00       		.byte	0
 2617 0ed8 27       		.uleb128 0x27
 2618 0ed9 01       		.byte	0x1
 2619 0eda 4E040000 		.4byte	.LASF124
 2620 0ede 01       		.byte	0x1
 2621 0edf DB       		.byte	0xdb
 2622 0ee0 01       		.byte	0x1
 2623 0ee1 00000000 		.4byte	.LFB130
 2624 0ee5 4A000000 		.4byte	.LFE130
 2625 0ee9 A5040000 		.4byte	.LLST36
 2626 0eed 01       		.byte	0x1
 2627 0eee 6D0F0000 		.4byte	0xf6d
 2628 0ef2 1C       		.uleb128 0x1c
 2629 0ef3 73647000 		.ascii	"sdp\000"
 2630 0ef7 01       		.byte	0x1
 2631 0ef8 DB       		.byte	0xdb
 2632 0ef9 9C0D0000 		.4byte	0xd9c
 2633 0efd C5040000 		.4byte	.LLST37
 2634 0f01 1C       		.uleb128 0x1c
 2635 0f02 6200     		.ascii	"b\000"
 2636 0f04 01       		.byte	0x1
 2637 0f05 DB       		.byte	0xdb
 2638 0f06 49000000 		.4byte	0x49
 2639 0f0a F9040000 		.4byte	.LLST38
 2640 0f0e 28       		.uleb128 0x28
 2641 0f0f 14000000 		.4byte	.LVL53
 2642 0f13 41110000 		.4byte	0x1141
 2643 0f17 280F0000 		.4byte	0xf28
 2644 0f1b 24       		.uleb128 0x24
 2645 0f1c 01       		.byte	0x1
 2646 0f1d 51       		.byte	0x51
 2647 0f1e 02       		.byte	0x2
 2648 0f1f 75       		.byte	0x75
 2649 0f20 00       		.sleb128 0
 2650 0f21 24       		.uleb128 0x24
 2651 0f22 01       		.byte	0x1
 2652 0f23 50       		.byte	0x50
 2653 0f24 02       		.byte	0x2
 2654 0f25 74       		.byte	0x74
 2655 0f26 10       		.sleb128 16
 2656 0f27 00       		.byte	0
 2657 0f28 28       		.uleb128 0x28
 2658 0f29 28000000 		.4byte	.LVL56
 2659 0f2d 5F110000 		.4byte	0x115f
ARM GAS  /tmp/ccZZC2fc.s 			page 48


 2660 0f31 3C0F0000 		.4byte	0xf3c
 2661 0f35 24       		.uleb128 0x24
 2662 0f36 01       		.byte	0x1
 2663 0f37 50       		.byte	0x50
 2664 0f38 02       		.byte	0x2
 2665 0f39 74       		.byte	0x74
 2666 0f3a 04       		.sleb128 4
 2667 0f3b 00       		.byte	0
 2668 0f3c 28       		.uleb128 0x28
 2669 0f3d 32000000 		.4byte	.LVL57
 2670 0f41 41110000 		.4byte	0x1141
 2671 0f45 560F0000 		.4byte	0xf56
 2672 0f49 24       		.uleb128 0x24
 2673 0f4a 01       		.byte	0x1
 2674 0f4b 51       		.byte	0x51
 2675 0f4c 02       		.byte	0x2
 2676 0f4d 75       		.byte	0x75
 2677 0f4e 00       		.sleb128 0
 2678 0f4f 24       		.uleb128 0x24
 2679 0f50 01       		.byte	0x1
 2680 0f51 50       		.byte	0x50
 2681 0f52 02       		.byte	0x2
 2682 0f53 74       		.byte	0x74
 2683 0f54 10       		.sleb128 16
 2684 0f55 00       		.byte	0
 2685 0f56 23       		.uleb128 0x23
 2686 0f57 4A000000 		.4byte	.LVL58
 2687 0f5b 01       		.byte	0x1
 2688 0f5c 5F110000 		.4byte	0x115f
 2689 0f60 24       		.uleb128 0x24
 2690 0f61 01       		.byte	0x1
 2691 0f62 51       		.byte	0x51
 2692 0f63 01       		.byte	0x1
 2693 0f64 30       		.byte	0x30
 2694 0f65 24       		.uleb128 0x24
 2695 0f66 01       		.byte	0x1
 2696 0f67 50       		.byte	0x50
 2697 0f68 02       		.byte	0x2
 2698 0f69 74       		.byte	0x74
 2699 0f6a 04       		.sleb128 4
 2700 0f6b 00       		.byte	0
 2701 0f6c 00       		.byte	0
 2702 0f6d 2C       		.uleb128 0x2c
 2703 0f6e 01       		.byte	0x1
 2704 0f6f 2E050000 		.4byte	.LASF143
 2705 0f73 01       		.byte	0x1
 2706 0f74 F5       		.byte	0xf5
 2707 0f75 01       		.byte	0x1
 2708 0f76 E8000000 		.4byte	0xe8
 2709 0f7a 00000000 		.4byte	.LFB131
 2710 0f7e 28000000 		.4byte	.LFE131
 2711 0f82 1A050000 		.4byte	.LLST39
 2712 0f86 01       		.byte	0x1
 2713 0f87 CF0F0000 		.4byte	0xfcf
 2714 0f8b 1C       		.uleb128 0x1c
 2715 0f8c 73647000 		.ascii	"sdp\000"
 2716 0f90 01       		.byte	0x1
ARM GAS  /tmp/ccZZC2fc.s 			page 49


 2717 0f91 F5       		.byte	0xf5
 2718 0f92 9C0D0000 		.4byte	0xd9c
 2719 0f96 3A050000 		.4byte	.LLST40
 2720 0f9a 21       		.uleb128 0x21
 2721 0f9b 6200     		.ascii	"b\000"
 2722 0f9d 01       		.byte	0x1
 2723 0f9e F6       		.byte	0xf6
 2724 0f9f E8000000 		.4byte	0xe8
 2725 0fa3 01       		.byte	0x1
 2726 0fa4 50       		.byte	0x50
 2727 0fa5 28       		.uleb128 0x28
 2728 0fa6 0C000000 		.4byte	.LVL61
 2729 0faa 7E110000 		.4byte	0x117e
 2730 0fae B90F0000 		.4byte	0xfb9
 2731 0fb2 24       		.uleb128 0x24
 2732 0fb3 01       		.byte	0x1
 2733 0fb4 50       		.byte	0x50
 2734 0fb5 02       		.byte	0x2
 2735 0fb6 74       		.byte	0x74
 2736 0fb7 30       		.sleb128 48
 2737 0fb8 00       		.byte	0
 2738 0fb9 2A       		.uleb128 0x2a
 2739 0fba 24000000 		.4byte	.LVL62
 2740 0fbe 5F110000 		.4byte	0x115f
 2741 0fc2 24       		.uleb128 0x24
 2742 0fc3 01       		.byte	0x1
 2743 0fc4 51       		.byte	0x51
 2744 0fc5 01       		.byte	0x1
 2745 0fc6 30       		.byte	0x30
 2746 0fc7 24       		.uleb128 0x24
 2747 0fc8 01       		.byte	0x1
 2748 0fc9 50       		.byte	0x50
 2749 0fca 02       		.byte	0x2
 2750 0fcb 74       		.byte	0x74
 2751 0fcc 04       		.sleb128 4
 2752 0fcd 00       		.byte	0
 2753 0fce 00       		.byte	0
 2754 0fcf 21       		.uleb128 0x21
 2755 0fd0 766D7400 		.ascii	"vmt\000"
 2756 0fd4 01       		.byte	0x1
 2757 0fd5 6C       		.byte	0x6c
 2758 0fd6 7A090000 		.4byte	0x97a
 2759 0fda 05       		.byte	0x5
 2760 0fdb 03       		.byte	0x3
 2761 0fdc 00000000 		.4byte	vmt
 2762 0fe0 2D       		.uleb128 0x2d
 2763 0fe1 90000000 		.4byte	.LASF144
 2764 0fe5 10       		.byte	0x10
 2765 0fe6 1A05     		.2byte	0x51a
 2766 0fe8 F8060000 		.4byte	0x6f8
 2767 0fec 01       		.byte	0x1
 2768 0fed 01       		.byte	0x1
 2769 0fee 2E       		.uleb128 0x2e
 2770 0fef 01       		.byte	0x1
 2771 0ff0 3E000000 		.4byte	.LASF125
 2772 0ff4 0A       		.byte	0xa
 2773 0ff5 5401     		.2byte	0x154
ARM GAS  /tmp/ccZZC2fc.s 			page 50


 2774 0ff7 01       		.byte	0x1
 2775 0ff8 30000000 		.4byte	0x30
 2776 0ffc 01       		.byte	0x1
 2777 0ffd 16100000 		.4byte	0x1016
 2778 1001 12       		.uleb128 0x12
 2779 1002 16100000 		.4byte	0x1016
 2780 1006 12       		.uleb128 0x12
 2781 1007 EC040000 		.4byte	0x4ec
 2782 100b 12       		.uleb128 0x12
 2783 100c 30000000 		.4byte	0x30
 2784 1010 12       		.uleb128 0x12
 2785 1011 FE000000 		.4byte	0xfe
 2786 1015 00       		.byte	0
 2787 1016 09       		.uleb128 0x9
 2788 1017 04       		.byte	0x4
 2789 1018 F2040000 		.4byte	0x4f2
 2790 101c 2E       		.uleb128 0x2e
 2791 101d 01       		.byte	0x1
 2792 101e 8E020000 		.4byte	.LASF126
 2793 1022 0A       		.byte	0xa
 2794 1023 5B01     		.2byte	0x15b
 2795 1025 01       		.byte	0x1
 2796 1026 30000000 		.4byte	0x30
 2797 102a 01       		.byte	0x1
 2798 102b 44100000 		.4byte	0x1044
 2799 102f 12       		.uleb128 0x12
 2800 1030 44100000 		.4byte	0x1044
 2801 1034 12       		.uleb128 0x12
 2802 1035 22050000 		.4byte	0x522
 2803 1039 12       		.uleb128 0x12
 2804 103a 30000000 		.4byte	0x30
 2805 103e 12       		.uleb128 0x12
 2806 103f FE000000 		.4byte	0xfe
 2807 1043 00       		.byte	0
 2808 1044 09       		.uleb128 0x9
 2809 1045 04       		.byte	0x4
 2810 1046 FD040000 		.4byte	0x4fd
 2811 104a 2E       		.uleb128 0x2e
 2812 104b 01       		.byte	0x1
 2813 104c BC050000 		.4byte	.LASF127
 2814 1050 0A       		.byte	0xa
 2815 1051 5301     		.2byte	0x153
 2816 1053 01       		.byte	0x1
 2817 1054 E8000000 		.4byte	0xe8
 2818 1058 01       		.byte	0x1
 2819 1059 68100000 		.4byte	0x1068
 2820 105d 12       		.uleb128 0x12
 2821 105e 16100000 		.4byte	0x1016
 2822 1062 12       		.uleb128 0x12
 2823 1063 FE000000 		.4byte	0xfe
 2824 1067 00       		.byte	0
 2825 1068 2E       		.uleb128 0x2e
 2826 1069 01       		.byte	0x1
 2827 106a 00000000 		.4byte	.LASF128
 2828 106e 0A       		.byte	0xa
 2829 106f 5901     		.2byte	0x159
 2830 1071 01       		.byte	0x1
ARM GAS  /tmp/ccZZC2fc.s 			page 51


 2831 1072 E8000000 		.4byte	0xe8
 2832 1076 01       		.byte	0x1
 2833 1077 8B100000 		.4byte	0x108b
 2834 107b 12       		.uleb128 0x12
 2835 107c 44100000 		.4byte	0x1044
 2836 1080 12       		.uleb128 0x12
 2837 1081 49000000 		.4byte	0x49
 2838 1085 12       		.uleb128 0x12
 2839 1086 FE000000 		.4byte	0xfe
 2840 108a 00       		.byte	0
 2841 108b 2F       		.uleb128 0x2f
 2842 108c 01       		.byte	0x1
 2843 108d 0D020000 		.4byte	.LASF135
 2844 1091 0E       		.byte	0xe
 2845 1092 1001     		.2byte	0x110
 2846 1094 01       		.byte	0x1
 2847 1095 01       		.byte	0x1
 2848 1096 30       		.uleb128 0x30
 2849 1097 01       		.byte	0x1
 2850 1098 9B050000 		.4byte	.LASF129
 2851 109c 0A       		.byte	0xa
 2852 109d 5001     		.2byte	0x150
 2853 109f 01       		.byte	0x1
 2854 10a0 01       		.byte	0x1
 2855 10a1 BA100000 		.4byte	0x10ba
 2856 10a5 12       		.uleb128 0x12
 2857 10a6 16100000 		.4byte	0x1016
 2858 10aa 12       		.uleb128 0x12
 2859 10ab EC040000 		.4byte	0x4ec
 2860 10af 12       		.uleb128 0x12
 2861 10b0 30000000 		.4byte	0x30
 2862 10b4 12       		.uleb128 0x12
 2863 10b5 C9040000 		.4byte	0x4c9
 2864 10b9 00       		.byte	0
 2865 10ba 30       		.uleb128 0x30
 2866 10bb 01       		.byte	0x1
 2867 10bc 7E000000 		.4byte	.LASF130
 2868 10c0 0A       		.byte	0xa
 2869 10c1 5701     		.2byte	0x157
 2870 10c3 01       		.byte	0x1
 2871 10c4 01       		.byte	0x1
 2872 10c5 DE100000 		.4byte	0x10de
 2873 10c9 12       		.uleb128 0x12
 2874 10ca 44100000 		.4byte	0x1044
 2875 10ce 12       		.uleb128 0x12
 2876 10cf EC040000 		.4byte	0x4ec
 2877 10d3 12       		.uleb128 0x12
 2878 10d4 30000000 		.4byte	0x30
 2879 10d8 12       		.uleb128 0x12
 2880 10d9 C9040000 		.4byte	0x4c9
 2881 10dd 00       		.byte	0
 2882 10de 30       		.uleb128 0x30
 2883 10df 01       		.byte	0x1
 2884 10e0 91030000 		.4byte	.LASF131
 2885 10e4 0E       		.byte	0xe
 2886 10e5 1101     		.2byte	0x111
 2887 10e7 01       		.byte	0x1
ARM GAS  /tmp/ccZZC2fc.s 			page 52


 2888 10e8 01       		.byte	0x1
 2889 10e9 F8100000 		.4byte	0x10f8
 2890 10ed 12       		.uleb128 0x12
 2891 10ee 9C0D0000 		.4byte	0xd9c
 2892 10f2 12       		.uleb128 0x12
 2893 10f3 280E0000 		.4byte	0xe28
 2894 10f7 00       		.byte	0
 2895 10f8 30       		.uleb128 0x30
 2896 10f9 01       		.byte	0x1
 2897 10fa 65050000 		.4byte	.LASF132
 2898 10fe 0E       		.byte	0xe
 2899 10ff 1201     		.2byte	0x112
 2900 1101 01       		.byte	0x1
 2901 1102 01       		.byte	0x1
 2902 1103 0D110000 		.4byte	0x110d
 2903 1107 12       		.uleb128 0x12
 2904 1108 9C0D0000 		.4byte	0xd9c
 2905 110c 00       		.byte	0
 2906 110d 30       		.uleb128 0x30
 2907 110e 01       		.byte	0x1
 2908 110f 53050000 		.4byte	.LASF133
 2909 1113 0A       		.byte	0xa
 2910 1114 5801     		.2byte	0x158
 2911 1116 01       		.byte	0x1
 2912 1117 01       		.byte	0x1
 2913 1118 22110000 		.4byte	0x1122
 2914 111c 12       		.uleb128 0x12
 2915 111d 44100000 		.4byte	0x1044
 2916 1121 00       		.byte	0
 2917 1122 30       		.uleb128 0x30
 2918 1123 01       		.byte	0x1
 2919 1124 73000000 		.4byte	.LASF134
 2920 1128 0A       		.byte	0xa
 2921 1129 5101     		.2byte	0x151
 2922 112b 01       		.byte	0x1
 2923 112c 01       		.byte	0x1
 2924 112d 37110000 		.4byte	0x1137
 2925 1131 12       		.uleb128 0x12
 2926 1132 16100000 		.4byte	0x1016
 2927 1136 00       		.byte	0
 2928 1137 31       		.uleb128 0x31
 2929 1138 01       		.byte	0x1
 2930 1139 77010000 		.4byte	.LASF136
 2931 113d 0F       		.byte	0xf
 2932 113e 9F       		.byte	0x9f
 2933 113f 01       		.byte	0x1
 2934 1140 01       		.byte	0x1
 2935 1141 2E       		.uleb128 0x2e
 2936 1142 01       		.byte	0x1
 2937 1143 96010000 		.4byte	.LASF137
 2938 1147 0A       		.byte	0xa
 2939 1148 5201     		.2byte	0x152
 2940 114a 01       		.byte	0x1
 2941 114b E8000000 		.4byte	0xe8
 2942 114f 01       		.byte	0x1
 2943 1150 5F110000 		.4byte	0x115f
 2944 1154 12       		.uleb128 0x12
ARM GAS  /tmp/ccZZC2fc.s 			page 53


 2945 1155 16100000 		.4byte	0x1016
 2946 1159 12       		.uleb128 0x12
 2947 115a 49000000 		.4byte	0x49
 2948 115e 00       		.byte	0
 2949 115f 32       		.uleb128 0x32
 2950 1160 01       		.byte	0x1
 2951 1161 4C010000 		.4byte	.LASF138
 2952 1165 09       		.byte	0x9
 2953 1166 B3       		.byte	0xb3
 2954 1167 01       		.byte	0x1
 2955 1168 01       		.byte	0x1
 2956 1169 78110000 		.4byte	0x1178
 2957 116d 12       		.uleb128 0x12
 2958 116e 78110000 		.4byte	0x1178
 2959 1172 12       		.uleb128 0x12
 2960 1173 F3000000 		.4byte	0xf3
 2961 1177 00       		.byte	0
 2962 1178 09       		.uleb128 0x9
 2963 1179 04       		.byte	0x4
 2964 117a F7030000 		.4byte	0x3f7
 2965 117e 33       		.uleb128 0x33
 2966 117f 01       		.byte	0x1
 2967 1180 15010000 		.4byte	.LASF139
 2968 1184 0A       		.byte	0xa
 2969 1185 5A01     		.2byte	0x15a
 2970 1187 01       		.byte	0x1
 2971 1188 E8000000 		.4byte	0xe8
 2972 118c 01       		.byte	0x1
 2973 118d 12       		.uleb128 0x12
 2974 118e 44100000 		.4byte	0x1044
 2975 1192 00       		.byte	0
 2976 1193 00       		.byte	0
 2977              		.section	.debug_abbrev,"",%progbits
 2978              	.Ldebug_abbrev0:
 2979 0000 01       		.uleb128 0x1
 2980 0001 11       		.uleb128 0x11
 2981 0002 01       		.byte	0x1
 2982 0003 25       		.uleb128 0x25
 2983 0004 0E       		.uleb128 0xe
 2984 0005 13       		.uleb128 0x13
 2985 0006 0B       		.uleb128 0xb
 2986 0007 03       		.uleb128 0x3
 2987 0008 0E       		.uleb128 0xe
 2988 0009 1B       		.uleb128 0x1b
 2989 000a 0E       		.uleb128 0xe
 2990 000b 55       		.uleb128 0x55
 2991 000c 06       		.uleb128 0x6
 2992 000d 11       		.uleb128 0x11
 2993 000e 01       		.uleb128 0x1
 2994 000f 52       		.uleb128 0x52
 2995 0010 01       		.uleb128 0x1
 2996 0011 10       		.uleb128 0x10
 2997 0012 06       		.uleb128 0x6
 2998 0013 00       		.byte	0
 2999 0014 00       		.byte	0
 3000 0015 02       		.uleb128 0x2
 3001 0016 24       		.uleb128 0x24
ARM GAS  /tmp/ccZZC2fc.s 			page 54


 3002 0017 00       		.byte	0
 3003 0018 0B       		.uleb128 0xb
 3004 0019 0B       		.uleb128 0xb
 3005 001a 3E       		.uleb128 0x3e
 3006 001b 0B       		.uleb128 0xb
 3007 001c 03       		.uleb128 0x3
 3008 001d 08       		.uleb128 0x8
 3009 001e 00       		.byte	0
 3010 001f 00       		.byte	0
 3011 0020 03       		.uleb128 0x3
 3012 0021 16       		.uleb128 0x16
 3013 0022 00       		.byte	0
 3014 0023 03       		.uleb128 0x3
 3015 0024 0E       		.uleb128 0xe
 3016 0025 3A       		.uleb128 0x3a
 3017 0026 0B       		.uleb128 0xb
 3018 0027 3B       		.uleb128 0x3b
 3019 0028 0B       		.uleb128 0xb
 3020 0029 49       		.uleb128 0x49
 3021 002a 13       		.uleb128 0x13
 3022 002b 00       		.byte	0
 3023 002c 00       		.byte	0
 3024 002d 04       		.uleb128 0x4
 3025 002e 24       		.uleb128 0x24
 3026 002f 00       		.byte	0
 3027 0030 0B       		.uleb128 0xb
 3028 0031 0B       		.uleb128 0xb
 3029 0032 3E       		.uleb128 0x3e
 3030 0033 0B       		.uleb128 0xb
 3031 0034 03       		.uleb128 0x3
 3032 0035 0E       		.uleb128 0xe
 3033 0036 00       		.byte	0
 3034 0037 00       		.byte	0
 3035 0038 05       		.uleb128 0x5
 3036 0039 13       		.uleb128 0x13
 3037 003a 01       		.byte	0x1
 3038 003b 03       		.uleb128 0x3
 3039 003c 0E       		.uleb128 0xe
 3040 003d 0B       		.uleb128 0xb
 3041 003e 0B       		.uleb128 0xb
 3042 003f 3A       		.uleb128 0x3a
 3043 0040 0B       		.uleb128 0xb
 3044 0041 3B       		.uleb128 0x3b
 3045 0042 0B       		.uleb128 0xb
 3046 0043 01       		.uleb128 0x1
 3047 0044 13       		.uleb128 0x13
 3048 0045 00       		.byte	0
 3049 0046 00       		.byte	0
 3050 0047 06       		.uleb128 0x6
 3051 0048 0D       		.uleb128 0xd
 3052 0049 00       		.byte	0
 3053 004a 03       		.uleb128 0x3
 3054 004b 0E       		.uleb128 0xe
 3055 004c 3A       		.uleb128 0x3a
 3056 004d 0B       		.uleb128 0xb
 3057 004e 3B       		.uleb128 0x3b
 3058 004f 0B       		.uleb128 0xb
ARM GAS  /tmp/ccZZC2fc.s 			page 55


 3059 0050 49       		.uleb128 0x49
 3060 0051 13       		.uleb128 0x13
 3061 0052 38       		.uleb128 0x38
 3062 0053 0A       		.uleb128 0xa
 3063 0054 00       		.byte	0
 3064 0055 00       		.byte	0
 3065 0056 07       		.uleb128 0x7
 3066 0057 0D       		.uleb128 0xd
 3067 0058 00       		.byte	0
 3068 0059 03       		.uleb128 0x3
 3069 005a 08       		.uleb128 0x8
 3070 005b 3A       		.uleb128 0x3a
 3071 005c 0B       		.uleb128 0xb
 3072 005d 3B       		.uleb128 0x3b
 3073 005e 0B       		.uleb128 0xb
 3074 005f 49       		.uleb128 0x49
 3075 0060 13       		.uleb128 0x13
 3076 0061 38       		.uleb128 0x38
 3077 0062 0A       		.uleb128 0xa
 3078 0063 00       		.byte	0
 3079 0064 00       		.byte	0
 3080 0065 08       		.uleb128 0x8
 3081 0066 13       		.uleb128 0x13
 3082 0067 01       		.byte	0x1
 3083 0068 0B       		.uleb128 0xb
 3084 0069 0B       		.uleb128 0xb
 3085 006a 3A       		.uleb128 0x3a
 3086 006b 0B       		.uleb128 0xb
 3087 006c 3B       		.uleb128 0x3b
 3088 006d 0B       		.uleb128 0xb
 3089 006e 01       		.uleb128 0x1
 3090 006f 13       		.uleb128 0x13
 3091 0070 00       		.byte	0
 3092 0071 00       		.byte	0
 3093 0072 09       		.uleb128 0x9
 3094 0073 0F       		.uleb128 0xf
 3095 0074 00       		.byte	0
 3096 0075 0B       		.uleb128 0xb
 3097 0076 0B       		.uleb128 0xb
 3098 0077 49       		.uleb128 0x49
 3099 0078 13       		.uleb128 0x13
 3100 0079 00       		.byte	0
 3101 007a 00       		.byte	0
 3102 007b 0A       		.uleb128 0xa
 3103 007c 0F       		.uleb128 0xf
 3104 007d 00       		.byte	0
 3105 007e 0B       		.uleb128 0xb
 3106 007f 0B       		.uleb128 0xb
 3107 0080 00       		.byte	0
 3108 0081 00       		.byte	0
 3109 0082 0B       		.uleb128 0xb
 3110 0083 0D       		.uleb128 0xd
 3111 0084 00       		.byte	0
 3112 0085 03       		.uleb128 0x3
 3113 0086 08       		.uleb128 0x8
 3114 0087 3A       		.uleb128 0x3a
 3115 0088 0B       		.uleb128 0xb
ARM GAS  /tmp/ccZZC2fc.s 			page 56


 3116 0089 3B       		.uleb128 0x3b
 3117 008a 05       		.uleb128 0x5
 3118 008b 49       		.uleb128 0x49
 3119 008c 13       		.uleb128 0x13
 3120 008d 38       		.uleb128 0x38
 3121 008e 0A       		.uleb128 0xa
 3122 008f 00       		.byte	0
 3123 0090 00       		.byte	0
 3124 0091 0C       		.uleb128 0xc
 3125 0092 13       		.uleb128 0x13
 3126 0093 01       		.byte	0x1
 3127 0094 03       		.uleb128 0x3
 3128 0095 0E       		.uleb128 0xe
 3129 0096 0B       		.uleb128 0xb
 3130 0097 0B       		.uleb128 0xb
 3131 0098 3A       		.uleb128 0x3a
 3132 0099 0B       		.uleb128 0xb
 3133 009a 3B       		.uleb128 0x3b
 3134 009b 05       		.uleb128 0x5
 3135 009c 01       		.uleb128 0x1
 3136 009d 13       		.uleb128 0x13
 3137 009e 00       		.byte	0
 3138 009f 00       		.byte	0
 3139 00a0 0D       		.uleb128 0xd
 3140 00a1 35       		.uleb128 0x35
 3141 00a2 00       		.byte	0
 3142 00a3 49       		.uleb128 0x49
 3143 00a4 13       		.uleb128 0x13
 3144 00a5 00       		.byte	0
 3145 00a6 00       		.byte	0
 3146 00a7 0E       		.uleb128 0xe
 3147 00a8 17       		.uleb128 0x17
 3148 00a9 01       		.byte	0x1
 3149 00aa 0B       		.uleb128 0xb
 3150 00ab 0B       		.uleb128 0xb
 3151 00ac 3A       		.uleb128 0x3a
 3152 00ad 0B       		.uleb128 0xb
 3153 00ae 3B       		.uleb128 0x3b
 3154 00af 0B       		.uleb128 0xb
 3155 00b0 01       		.uleb128 0x1
 3156 00b1 13       		.uleb128 0x13
 3157 00b2 00       		.byte	0
 3158 00b3 00       		.byte	0
 3159 00b4 0F       		.uleb128 0xf
 3160 00b5 0D       		.uleb128 0xd
 3161 00b6 00       		.byte	0
 3162 00b7 03       		.uleb128 0x3
 3163 00b8 0E       		.uleb128 0xe
 3164 00b9 3A       		.uleb128 0x3a
 3165 00ba 0B       		.uleb128 0xb
 3166 00bb 3B       		.uleb128 0x3b
 3167 00bc 0B       		.uleb128 0xb
 3168 00bd 49       		.uleb128 0x49
 3169 00be 13       		.uleb128 0x13
 3170 00bf 00       		.byte	0
 3171 00c0 00       		.byte	0
 3172 00c1 10       		.uleb128 0x10
ARM GAS  /tmp/ccZZC2fc.s 			page 57


 3173 00c2 26       		.uleb128 0x26
 3174 00c3 00       		.byte	0
 3175 00c4 49       		.uleb128 0x49
 3176 00c5 13       		.uleb128 0x13
 3177 00c6 00       		.byte	0
 3178 00c7 00       		.byte	0
 3179 00c8 11       		.uleb128 0x11
 3180 00c9 15       		.uleb128 0x15
 3181 00ca 01       		.byte	0x1
 3182 00cb 27       		.uleb128 0x27
 3183 00cc 0C       		.uleb128 0xc
 3184 00cd 01       		.uleb128 0x1
 3185 00ce 13       		.uleb128 0x13
 3186 00cf 00       		.byte	0
 3187 00d0 00       		.byte	0
 3188 00d1 12       		.uleb128 0x12
 3189 00d2 05       		.uleb128 0x5
 3190 00d3 00       		.byte	0
 3191 00d4 49       		.uleb128 0x49
 3192 00d5 13       		.uleb128 0x13
 3193 00d6 00       		.byte	0
 3194 00d7 00       		.byte	0
 3195 00d8 13       		.uleb128 0x13
 3196 00d9 15       		.uleb128 0x15
 3197 00da 01       		.byte	0x1
 3198 00db 27       		.uleb128 0x27
 3199 00dc 0C       		.uleb128 0xc
 3200 00dd 49       		.uleb128 0x49
 3201 00de 13       		.uleb128 0x13
 3202 00df 01       		.uleb128 0x1
 3203 00e0 13       		.uleb128 0x13
 3204 00e1 00       		.byte	0
 3205 00e2 00       		.byte	0
 3206 00e3 14       		.uleb128 0x14
 3207 00e4 16       		.uleb128 0x16
 3208 00e5 00       		.byte	0
 3209 00e6 03       		.uleb128 0x3
 3210 00e7 0E       		.uleb128 0xe
 3211 00e8 3A       		.uleb128 0x3a
 3212 00e9 0B       		.uleb128 0xb
 3213 00ea 3B       		.uleb128 0x3b
 3214 00eb 05       		.uleb128 0x5
 3215 00ec 49       		.uleb128 0x49
 3216 00ed 13       		.uleb128 0x13
 3217 00ee 00       		.byte	0
 3218 00ef 00       		.byte	0
 3219 00f0 15       		.uleb128 0x15
 3220 00f1 0D       		.uleb128 0xd
 3221 00f2 00       		.byte	0
 3222 00f3 03       		.uleb128 0x3
 3223 00f4 0E       		.uleb128 0xe
 3224 00f5 3A       		.uleb128 0x3a
 3225 00f6 0B       		.uleb128 0xb
 3226 00f7 3B       		.uleb128 0x3b
 3227 00f8 05       		.uleb128 0x5
 3228 00f9 49       		.uleb128 0x49
 3229 00fa 13       		.uleb128 0x13
ARM GAS  /tmp/ccZZC2fc.s 			page 58


 3230 00fb 38       		.uleb128 0x38
 3231 00fc 0A       		.uleb128 0xa
 3232 00fd 00       		.byte	0
 3233 00fe 00       		.byte	0
 3234 00ff 16       		.uleb128 0x16
 3235 0100 13       		.uleb128 0x13
 3236 0101 01       		.byte	0x1
 3237 0102 0B       		.uleb128 0xb
 3238 0103 0B       		.uleb128 0xb
 3239 0104 3A       		.uleb128 0x3a
 3240 0105 0B       		.uleb128 0xb
 3241 0106 3B       		.uleb128 0x3b
 3242 0107 05       		.uleb128 0x5
 3243 0108 01       		.uleb128 0x1
 3244 0109 13       		.uleb128 0x13
 3245 010a 00       		.byte	0
 3246 010b 00       		.byte	0
 3247 010c 17       		.uleb128 0x17
 3248 010d 04       		.uleb128 0x4
 3249 010e 01       		.byte	0x1
 3250 010f 0B       		.uleb128 0xb
 3251 0110 0B       		.uleb128 0xb
 3252 0111 3A       		.uleb128 0x3a
 3253 0112 0B       		.uleb128 0xb
 3254 0113 3B       		.uleb128 0x3b
 3255 0114 0B       		.uleb128 0xb
 3256 0115 01       		.uleb128 0x1
 3257 0116 13       		.uleb128 0x13
 3258 0117 00       		.byte	0
 3259 0118 00       		.byte	0
 3260 0119 18       		.uleb128 0x18
 3261 011a 28       		.uleb128 0x28
 3262 011b 00       		.byte	0
 3263 011c 03       		.uleb128 0x3
 3264 011d 0E       		.uleb128 0xe
 3265 011e 1C       		.uleb128 0x1c
 3266 011f 0D       		.uleb128 0xd
 3267 0120 00       		.byte	0
 3268 0121 00       		.byte	0
 3269 0122 19       		.uleb128 0x19
 3270 0123 01       		.uleb128 0x1
 3271 0124 01       		.byte	0x1
 3272 0125 49       		.uleb128 0x49
 3273 0126 13       		.uleb128 0x13
 3274 0127 01       		.uleb128 0x1
 3275 0128 13       		.uleb128 0x13
 3276 0129 00       		.byte	0
 3277 012a 00       		.byte	0
 3278 012b 1A       		.uleb128 0x1a
 3279 012c 21       		.uleb128 0x21
 3280 012d 00       		.byte	0
 3281 012e 49       		.uleb128 0x49
 3282 012f 13       		.uleb128 0x13
 3283 0130 2F       		.uleb128 0x2f
 3284 0131 0B       		.uleb128 0xb
 3285 0132 00       		.byte	0
 3286 0133 00       		.byte	0
ARM GAS  /tmp/ccZZC2fc.s 			page 59


 3287 0134 1B       		.uleb128 0x1b
 3288 0135 2E       		.uleb128 0x2e
 3289 0136 01       		.byte	0x1
 3290 0137 03       		.uleb128 0x3
 3291 0138 0E       		.uleb128 0xe
 3292 0139 3A       		.uleb128 0x3a
 3293 013a 0B       		.uleb128 0xb
 3294 013b 3B       		.uleb128 0x3b
 3295 013c 0B       		.uleb128 0xb
 3296 013d 27       		.uleb128 0x27
 3297 013e 0C       		.uleb128 0xc
 3298 013f 49       		.uleb128 0x49
 3299 0140 13       		.uleb128 0x13
 3300 0141 11       		.uleb128 0x11
 3301 0142 01       		.uleb128 0x1
 3302 0143 12       		.uleb128 0x12
 3303 0144 01       		.uleb128 0x1
 3304 0145 40       		.uleb128 0x40
 3305 0146 0A       		.uleb128 0xa
 3306 0147 9742     		.uleb128 0x2117
 3307 0149 0C       		.uleb128 0xc
 3308 014a 01       		.uleb128 0x1
 3309 014b 13       		.uleb128 0x13
 3310 014c 00       		.byte	0
 3311 014d 00       		.byte	0
 3312 014e 1C       		.uleb128 0x1c
 3313 014f 05       		.uleb128 0x5
 3314 0150 00       		.byte	0
 3315 0151 03       		.uleb128 0x3
 3316 0152 08       		.uleb128 0x8
 3317 0153 3A       		.uleb128 0x3a
 3318 0154 0B       		.uleb128 0xb
 3319 0155 3B       		.uleb128 0x3b
 3320 0156 0B       		.uleb128 0xb
 3321 0157 49       		.uleb128 0x49
 3322 0158 13       		.uleb128 0x13
 3323 0159 02       		.uleb128 0x2
 3324 015a 06       		.uleb128 0x6
 3325 015b 00       		.byte	0
 3326 015c 00       		.byte	0
 3327 015d 1D       		.uleb128 0x1d
 3328 015e 34       		.uleb128 0x34
 3329 015f 00       		.byte	0
 3330 0160 03       		.uleb128 0x3
 3331 0161 0E       		.uleb128 0xe
 3332 0162 3A       		.uleb128 0x3a
 3333 0163 0B       		.uleb128 0xb
 3334 0164 3B       		.uleb128 0x3b
 3335 0165 0B       		.uleb128 0xb
 3336 0166 49       		.uleb128 0x49
 3337 0167 13       		.uleb128 0x13
 3338 0168 02       		.uleb128 0x2
 3339 0169 0A       		.uleb128 0xa
 3340 016a 00       		.byte	0
 3341 016b 00       		.byte	0
 3342 016c 1E       		.uleb128 0x1e
 3343 016d 0B       		.uleb128 0xb
ARM GAS  /tmp/ccZZC2fc.s 			page 60


 3344 016e 01       		.byte	0x1
 3345 016f 11       		.uleb128 0x11
 3346 0170 01       		.uleb128 0x1
 3347 0171 12       		.uleb128 0x12
 3348 0172 01       		.uleb128 0x1
 3349 0173 01       		.uleb128 0x1
 3350 0174 13       		.uleb128 0x13
 3351 0175 00       		.byte	0
 3352 0176 00       		.byte	0
 3353 0177 1F       		.uleb128 0x1f
 3354 0178 34       		.uleb128 0x34
 3355 0179 00       		.byte	0
 3356 017a 03       		.uleb128 0x3
 3357 017b 08       		.uleb128 0x8
 3358 017c 3A       		.uleb128 0x3a
 3359 017d 0B       		.uleb128 0xb
 3360 017e 3B       		.uleb128 0x3b
 3361 017f 0B       		.uleb128 0xb
 3362 0180 49       		.uleb128 0x49
 3363 0181 13       		.uleb128 0x13
 3364 0182 02       		.uleb128 0x2
 3365 0183 06       		.uleb128 0x6
 3366 0184 00       		.byte	0
 3367 0185 00       		.byte	0
 3368 0186 20       		.uleb128 0x20
 3369 0187 0B       		.uleb128 0xb
 3370 0188 01       		.byte	0x1
 3371 0189 11       		.uleb128 0x11
 3372 018a 01       		.uleb128 0x1
 3373 018b 12       		.uleb128 0x12
 3374 018c 01       		.uleb128 0x1
 3375 018d 00       		.byte	0
 3376 018e 00       		.byte	0
 3377 018f 21       		.uleb128 0x21
 3378 0190 34       		.uleb128 0x34
 3379 0191 00       		.byte	0
 3380 0192 03       		.uleb128 0x3
 3381 0193 08       		.uleb128 0x8
 3382 0194 3A       		.uleb128 0x3a
 3383 0195 0B       		.uleb128 0xb
 3384 0196 3B       		.uleb128 0x3b
 3385 0197 0B       		.uleb128 0xb
 3386 0198 49       		.uleb128 0x49
 3387 0199 13       		.uleb128 0x13
 3388 019a 02       		.uleb128 0x2
 3389 019b 0A       		.uleb128 0xa
 3390 019c 00       		.byte	0
 3391 019d 00       		.byte	0
 3392 019e 22       		.uleb128 0x22
 3393 019f 05       		.uleb128 0x5
 3394 01a0 00       		.byte	0
 3395 01a1 03       		.uleb128 0x3
 3396 01a2 0E       		.uleb128 0xe
 3397 01a3 3A       		.uleb128 0x3a
 3398 01a4 0B       		.uleb128 0xb
 3399 01a5 3B       		.uleb128 0x3b
 3400 01a6 0B       		.uleb128 0xb
ARM GAS  /tmp/ccZZC2fc.s 			page 61


 3401 01a7 49       		.uleb128 0x49
 3402 01a8 13       		.uleb128 0x13
 3403 01a9 02       		.uleb128 0x2
 3404 01aa 06       		.uleb128 0x6
 3405 01ab 00       		.byte	0
 3406 01ac 00       		.byte	0
 3407 01ad 23       		.uleb128 0x23
 3408 01ae 898201   		.uleb128 0x4109
 3409 01b1 01       		.byte	0x1
 3410 01b2 11       		.uleb128 0x11
 3411 01b3 01       		.uleb128 0x1
 3412 01b4 9542     		.uleb128 0x2115
 3413 01b6 0C       		.uleb128 0xc
 3414 01b7 31       		.uleb128 0x31
 3415 01b8 13       		.uleb128 0x13
 3416 01b9 00       		.byte	0
 3417 01ba 00       		.byte	0
 3418 01bb 24       		.uleb128 0x24
 3419 01bc 8A8201   		.uleb128 0x410a
 3420 01bf 00       		.byte	0
 3421 01c0 02       		.uleb128 0x2
 3422 01c1 0A       		.uleb128 0xa
 3423 01c2 9142     		.uleb128 0x2111
 3424 01c4 0A       		.uleb128 0xa
 3425 01c5 00       		.byte	0
 3426 01c6 00       		.byte	0
 3427 01c7 25       		.uleb128 0x25
 3428 01c8 2E       		.uleb128 0x2e
 3429 01c9 01       		.byte	0x1
 3430 01ca 3F       		.uleb128 0x3f
 3431 01cb 0C       		.uleb128 0xc
 3432 01cc 03       		.uleb128 0x3
 3433 01cd 0E       		.uleb128 0xe
 3434 01ce 3A       		.uleb128 0x3a
 3435 01cf 0B       		.uleb128 0xb
 3436 01d0 3B       		.uleb128 0x3b
 3437 01d1 0B       		.uleb128 0xb
 3438 01d2 27       		.uleb128 0x27
 3439 01d3 0C       		.uleb128 0xc
 3440 01d4 11       		.uleb128 0x11
 3441 01d5 01       		.uleb128 0x1
 3442 01d6 12       		.uleb128 0x12
 3443 01d7 01       		.uleb128 0x1
 3444 01d8 40       		.uleb128 0x40
 3445 01d9 0A       		.uleb128 0xa
 3446 01da 9742     		.uleb128 0x2117
 3447 01dc 0C       		.uleb128 0xc
 3448 01dd 01       		.uleb128 0x1
 3449 01de 13       		.uleb128 0x13
 3450 01df 00       		.byte	0
 3451 01e0 00       		.byte	0
 3452 01e1 26       		.uleb128 0x26
 3453 01e2 898201   		.uleb128 0x4109
 3454 01e5 00       		.byte	0
 3455 01e6 11       		.uleb128 0x11
 3456 01e7 01       		.uleb128 0x1
 3457 01e8 9542     		.uleb128 0x2115
ARM GAS  /tmp/ccZZC2fc.s 			page 62


 3458 01ea 0C       		.uleb128 0xc
 3459 01eb 31       		.uleb128 0x31
 3460 01ec 13       		.uleb128 0x13
 3461 01ed 00       		.byte	0
 3462 01ee 00       		.byte	0
 3463 01ef 27       		.uleb128 0x27
 3464 01f0 2E       		.uleb128 0x2e
 3465 01f1 01       		.byte	0x1
 3466 01f2 3F       		.uleb128 0x3f
 3467 01f3 0C       		.uleb128 0xc
 3468 01f4 03       		.uleb128 0x3
 3469 01f5 0E       		.uleb128 0xe
 3470 01f6 3A       		.uleb128 0x3a
 3471 01f7 0B       		.uleb128 0xb
 3472 01f8 3B       		.uleb128 0x3b
 3473 01f9 0B       		.uleb128 0xb
 3474 01fa 27       		.uleb128 0x27
 3475 01fb 0C       		.uleb128 0xc
 3476 01fc 11       		.uleb128 0x11
 3477 01fd 01       		.uleb128 0x1
 3478 01fe 12       		.uleb128 0x12
 3479 01ff 01       		.uleb128 0x1
 3480 0200 40       		.uleb128 0x40
 3481 0201 06       		.uleb128 0x6
 3482 0202 9742     		.uleb128 0x2117
 3483 0204 0C       		.uleb128 0xc
 3484 0205 01       		.uleb128 0x1
 3485 0206 13       		.uleb128 0x13
 3486 0207 00       		.byte	0
 3487 0208 00       		.byte	0
 3488 0209 28       		.uleb128 0x28
 3489 020a 898201   		.uleb128 0x4109
 3490 020d 01       		.byte	0x1
 3491 020e 11       		.uleb128 0x11
 3492 020f 01       		.uleb128 0x1
 3493 0210 31       		.uleb128 0x31
 3494 0211 13       		.uleb128 0x13
 3495 0212 01       		.uleb128 0x1
 3496 0213 13       		.uleb128 0x13
 3497 0214 00       		.byte	0
 3498 0215 00       		.byte	0
 3499 0216 29       		.uleb128 0x29
 3500 0217 0B       		.uleb128 0xb
 3501 0218 01       		.byte	0x1
 3502 0219 55       		.uleb128 0x55
 3503 021a 06       		.uleb128 0x6
 3504 021b 01       		.uleb128 0x1
 3505 021c 13       		.uleb128 0x13
 3506 021d 00       		.byte	0
 3507 021e 00       		.byte	0
 3508 021f 2A       		.uleb128 0x2a
 3509 0220 898201   		.uleb128 0x4109
 3510 0223 01       		.byte	0x1
 3511 0224 11       		.uleb128 0x11
 3512 0225 01       		.uleb128 0x1
 3513 0226 31       		.uleb128 0x31
 3514 0227 13       		.uleb128 0x13
ARM GAS  /tmp/ccZZC2fc.s 			page 63


 3515 0228 00       		.byte	0
 3516 0229 00       		.byte	0
 3517 022a 2B       		.uleb128 0x2b
 3518 022b 898201   		.uleb128 0x4109
 3519 022e 00       		.byte	0
 3520 022f 11       		.uleb128 0x11
 3521 0230 01       		.uleb128 0x1
 3522 0231 31       		.uleb128 0x31
 3523 0232 13       		.uleb128 0x13
 3524 0233 00       		.byte	0
 3525 0234 00       		.byte	0
 3526 0235 2C       		.uleb128 0x2c
 3527 0236 2E       		.uleb128 0x2e
 3528 0237 01       		.byte	0x1
 3529 0238 3F       		.uleb128 0x3f
 3530 0239 0C       		.uleb128 0xc
 3531 023a 03       		.uleb128 0x3
 3532 023b 0E       		.uleb128 0xe
 3533 023c 3A       		.uleb128 0x3a
 3534 023d 0B       		.uleb128 0xb
 3535 023e 3B       		.uleb128 0x3b
 3536 023f 0B       		.uleb128 0xb
 3537 0240 27       		.uleb128 0x27
 3538 0241 0C       		.uleb128 0xc
 3539 0242 49       		.uleb128 0x49
 3540 0243 13       		.uleb128 0x13
 3541 0244 11       		.uleb128 0x11
 3542 0245 01       		.uleb128 0x1
 3543 0246 12       		.uleb128 0x12
 3544 0247 01       		.uleb128 0x1
 3545 0248 40       		.uleb128 0x40
 3546 0249 06       		.uleb128 0x6
 3547 024a 9742     		.uleb128 0x2117
 3548 024c 0C       		.uleb128 0xc
 3549 024d 01       		.uleb128 0x1
 3550 024e 13       		.uleb128 0x13
 3551 024f 00       		.byte	0
 3552 0250 00       		.byte	0
 3553 0251 2D       		.uleb128 0x2d
 3554 0252 34       		.uleb128 0x34
 3555 0253 00       		.byte	0
 3556 0254 03       		.uleb128 0x3
 3557 0255 0E       		.uleb128 0xe
 3558 0256 3A       		.uleb128 0x3a
 3559 0257 0B       		.uleb128 0xb
 3560 0258 3B       		.uleb128 0x3b
 3561 0259 05       		.uleb128 0x5
 3562 025a 49       		.uleb128 0x49
 3563 025b 13       		.uleb128 0x13
 3564 025c 3F       		.uleb128 0x3f
 3565 025d 0C       		.uleb128 0xc
 3566 025e 3C       		.uleb128 0x3c
 3567 025f 0C       		.uleb128 0xc
 3568 0260 00       		.byte	0
 3569 0261 00       		.byte	0
 3570 0262 2E       		.uleb128 0x2e
 3571 0263 2E       		.uleb128 0x2e
ARM GAS  /tmp/ccZZC2fc.s 			page 64


 3572 0264 01       		.byte	0x1
 3573 0265 3F       		.uleb128 0x3f
 3574 0266 0C       		.uleb128 0xc
 3575 0267 03       		.uleb128 0x3
 3576 0268 0E       		.uleb128 0xe
 3577 0269 3A       		.uleb128 0x3a
 3578 026a 0B       		.uleb128 0xb
 3579 026b 3B       		.uleb128 0x3b
 3580 026c 05       		.uleb128 0x5
 3581 026d 27       		.uleb128 0x27
 3582 026e 0C       		.uleb128 0xc
 3583 026f 49       		.uleb128 0x49
 3584 0270 13       		.uleb128 0x13
 3585 0271 3C       		.uleb128 0x3c
 3586 0272 0C       		.uleb128 0xc
 3587 0273 01       		.uleb128 0x1
 3588 0274 13       		.uleb128 0x13
 3589 0275 00       		.byte	0
 3590 0276 00       		.byte	0
 3591 0277 2F       		.uleb128 0x2f
 3592 0278 2E       		.uleb128 0x2e
 3593 0279 00       		.byte	0
 3594 027a 3F       		.uleb128 0x3f
 3595 027b 0C       		.uleb128 0xc
 3596 027c 03       		.uleb128 0x3
 3597 027d 0E       		.uleb128 0xe
 3598 027e 3A       		.uleb128 0x3a
 3599 027f 0B       		.uleb128 0xb
 3600 0280 3B       		.uleb128 0x3b
 3601 0281 05       		.uleb128 0x5
 3602 0282 27       		.uleb128 0x27
 3603 0283 0C       		.uleb128 0xc
 3604 0284 3C       		.uleb128 0x3c
 3605 0285 0C       		.uleb128 0xc
 3606 0286 00       		.byte	0
 3607 0287 00       		.byte	0
 3608 0288 30       		.uleb128 0x30
 3609 0289 2E       		.uleb128 0x2e
 3610 028a 01       		.byte	0x1
 3611 028b 3F       		.uleb128 0x3f
 3612 028c 0C       		.uleb128 0xc
 3613 028d 03       		.uleb128 0x3
 3614 028e 0E       		.uleb128 0xe
 3615 028f 3A       		.uleb128 0x3a
 3616 0290 0B       		.uleb128 0xb
 3617 0291 3B       		.uleb128 0x3b
 3618 0292 05       		.uleb128 0x5
 3619 0293 27       		.uleb128 0x27
 3620 0294 0C       		.uleb128 0xc
 3621 0295 3C       		.uleb128 0x3c
 3622 0296 0C       		.uleb128 0xc
 3623 0297 01       		.uleb128 0x1
 3624 0298 13       		.uleb128 0x13
 3625 0299 00       		.byte	0
 3626 029a 00       		.byte	0
 3627 029b 31       		.uleb128 0x31
 3628 029c 2E       		.uleb128 0x2e
ARM GAS  /tmp/ccZZC2fc.s 			page 65


 3629 029d 00       		.byte	0
 3630 029e 3F       		.uleb128 0x3f
 3631 029f 0C       		.uleb128 0xc
 3632 02a0 03       		.uleb128 0x3
 3633 02a1 0E       		.uleb128 0xe
 3634 02a2 3A       		.uleb128 0x3a
 3635 02a3 0B       		.uleb128 0xb
 3636 02a4 3B       		.uleb128 0x3b
 3637 02a5 0B       		.uleb128 0xb
 3638 02a6 27       		.uleb128 0x27
 3639 02a7 0C       		.uleb128 0xc
 3640 02a8 3C       		.uleb128 0x3c
 3641 02a9 0C       		.uleb128 0xc
 3642 02aa 00       		.byte	0
 3643 02ab 00       		.byte	0
 3644 02ac 32       		.uleb128 0x32
 3645 02ad 2E       		.uleb128 0x2e
 3646 02ae 01       		.byte	0x1
 3647 02af 3F       		.uleb128 0x3f
 3648 02b0 0C       		.uleb128 0xc
 3649 02b1 03       		.uleb128 0x3
 3650 02b2 0E       		.uleb128 0xe
 3651 02b3 3A       		.uleb128 0x3a
 3652 02b4 0B       		.uleb128 0xb
 3653 02b5 3B       		.uleb128 0x3b
 3654 02b6 0B       		.uleb128 0xb
 3655 02b7 27       		.uleb128 0x27
 3656 02b8 0C       		.uleb128 0xc
 3657 02b9 3C       		.uleb128 0x3c
 3658 02ba 0C       		.uleb128 0xc
 3659 02bb 01       		.uleb128 0x1
 3660 02bc 13       		.uleb128 0x13
 3661 02bd 00       		.byte	0
 3662 02be 00       		.byte	0
 3663 02bf 33       		.uleb128 0x33
 3664 02c0 2E       		.uleb128 0x2e
 3665 02c1 01       		.byte	0x1
 3666 02c2 3F       		.uleb128 0x3f
 3667 02c3 0C       		.uleb128 0xc
 3668 02c4 03       		.uleb128 0x3
 3669 02c5 0E       		.uleb128 0xe
 3670 02c6 3A       		.uleb128 0x3a
 3671 02c7 0B       		.uleb128 0xb
 3672 02c8 3B       		.uleb128 0x3b
 3673 02c9 05       		.uleb128 0x5
 3674 02ca 27       		.uleb128 0x27
 3675 02cb 0C       		.uleb128 0xc
 3676 02cc 49       		.uleb128 0x49
 3677 02cd 13       		.uleb128 0x13
 3678 02ce 3C       		.uleb128 0x3c
 3679 02cf 0C       		.uleb128 0xc
 3680 02d0 00       		.byte	0
 3681 02d1 00       		.byte	0
 3682 02d2 00       		.byte	0
 3683              		.section	.debug_loc,"",%progbits
 3684              	.Ldebug_loc0:
 3685              	.LLST0:
ARM GAS  /tmp/ccZZC2fc.s 			page 66


 3686 0000 00000000 		.4byte	.LVL0
 3687 0004 02000000 		.4byte	.LVL1
 3688 0008 0100     		.2byte	0x1
 3689 000a 50       		.byte	0x50
 3690 000b 02000000 		.4byte	.LVL1
 3691 000f 0C000000 		.4byte	.LFE119
 3692 0013 0400     		.2byte	0x4
 3693 0015 F3       		.byte	0xf3
 3694 0016 01       		.uleb128 0x1
 3695 0017 50       		.byte	0x50
 3696 0018 9F       		.byte	0x9f
 3697 0019 00000000 		.4byte	0
 3698 001d 00000000 		.4byte	0
 3699              	.LLST1:
 3700 0021 00000000 		.4byte	.LVL2
 3701 0025 02000000 		.4byte	.LVL3
 3702 0029 0100     		.2byte	0x1
 3703 002b 50       		.byte	0x50
 3704 002c 02000000 		.4byte	.LVL3
 3705 0030 0C000000 		.4byte	.LFE120
 3706 0034 0400     		.2byte	0x4
 3707 0036 F3       		.byte	0xf3
 3708 0037 01       		.uleb128 0x1
 3709 0038 50       		.byte	0x50
 3710 0039 9F       		.byte	0x9f
 3711 003a 00000000 		.4byte	0
 3712 003e 00000000 		.4byte	0
 3713              	.LLST2:
 3714 0042 00000000 		.4byte	.LVL4
 3715 0046 0C000000 		.4byte	.LVL8
 3716 004a 0100     		.2byte	0x1
 3717 004c 50       		.byte	0x50
 3718 004d 0C000000 		.4byte	.LVL8
 3719 0051 14000000 		.4byte	.LFE125
 3720 0055 0100     		.2byte	0x1
 3721 0057 52       		.byte	0x52
 3722 0058 00000000 		.4byte	0
 3723 005c 00000000 		.4byte	0
 3724              	.LLST3:
 3725 0060 08000000 		.4byte	.LVL6
 3726 0064 0A000000 		.4byte	.LVL7
 3727 0068 0100     		.2byte	0x1
 3728 006a 53       		.byte	0x53
 3729 006b 00000000 		.4byte	0
 3730 006f 00000000 		.4byte	0
 3731              	.LLST4:
 3732 0073 00000000 		.4byte	.LVL10
 3733 0077 02000000 		.4byte	.LVL11
 3734 007b 0100     		.2byte	0x1
 3735 007d 50       		.byte	0x50
 3736 007e 02000000 		.4byte	.LVL11
 3737 0082 05000000 		.4byte	.LVL12-1
 3738 0086 0300     		.2byte	0x3
 3739 0088 70       		.byte	0x70
 3740 0089 70       		.sleb128 -16
 3741 008a 9F       		.byte	0x9f
 3742 008b 05000000 		.4byte	.LVL12-1
ARM GAS  /tmp/ccZZC2fc.s 			page 67


 3743 008f 06000000 		.4byte	.LFE124
 3744 0093 0400     		.2byte	0x4
 3745 0095 F3       		.byte	0xf3
 3746 0096 01       		.uleb128 0x1
 3747 0097 50       		.byte	0x50
 3748 0098 9F       		.byte	0x9f
 3749 0099 00000000 		.4byte	0
 3750 009d 00000000 		.4byte	0
 3751              	.LLST5:
 3752 00a1 00000000 		.4byte	.LVL10
 3753 00a5 05000000 		.4byte	.LVL12-1
 3754 00a9 0100     		.2byte	0x1
 3755 00ab 51       		.byte	0x51
 3756 00ac 05000000 		.4byte	.LVL12-1
 3757 00b0 06000000 		.4byte	.LFE124
 3758 00b4 0400     		.2byte	0x4
 3759 00b6 F3       		.byte	0xf3
 3760 00b7 01       		.uleb128 0x1
 3761 00b8 51       		.byte	0x51
 3762 00b9 9F       		.byte	0x9f
 3763 00ba 00000000 		.4byte	0
 3764 00be 00000000 		.4byte	0
 3765              	.LLST6:
 3766 00c2 00000000 		.4byte	.LVL10
 3767 00c6 05000000 		.4byte	.LVL12-1
 3768 00ca 0100     		.2byte	0x1
 3769 00cc 52       		.byte	0x52
 3770 00cd 05000000 		.4byte	.LVL12-1
 3771 00d1 06000000 		.4byte	.LFE124
 3772 00d5 0400     		.2byte	0x4
 3773 00d7 F3       		.byte	0xf3
 3774 00d8 01       		.uleb128 0x1
 3775 00d9 52       		.byte	0x52
 3776 00da 9F       		.byte	0x9f
 3777 00db 00000000 		.4byte	0
 3778 00df 00000000 		.4byte	0
 3779              	.LLST7:
 3780 00e3 00000000 		.4byte	.LVL10
 3781 00e7 05000000 		.4byte	.LVL12-1
 3782 00eb 0100     		.2byte	0x1
 3783 00ed 53       		.byte	0x53
 3784 00ee 05000000 		.4byte	.LVL12-1
 3785 00f2 06000000 		.4byte	.LFE124
 3786 00f6 0400     		.2byte	0x4
 3787 00f8 F3       		.byte	0xf3
 3788 00f9 01       		.uleb128 0x1
 3789 00fa 53       		.byte	0x53
 3790 00fb 9F       		.byte	0x9f
 3791 00fc 00000000 		.4byte	0
 3792 0100 00000000 		.4byte	0
 3793              	.LLST8:
 3794 0104 00000000 		.4byte	.LVL13
 3795 0108 02000000 		.4byte	.LVL14
 3796 010c 0100     		.2byte	0x1
 3797 010e 50       		.byte	0x50
 3798 010f 02000000 		.4byte	.LVL14
 3799 0113 09000000 		.4byte	.LVL15-1
ARM GAS  /tmp/ccZZC2fc.s 			page 68


 3800 0117 0300     		.2byte	0x3
 3801 0119 70       		.byte	0x70
 3802 011a 70       		.sleb128 -16
 3803 011b 9F       		.byte	0x9f
 3804 011c 09000000 		.4byte	.LVL15-1
 3805 0120 0A000000 		.4byte	.LFE118
 3806 0124 0400     		.2byte	0x4
 3807 0126 F3       		.byte	0xf3
 3808 0127 01       		.uleb128 0x1
 3809 0128 50       		.byte	0x50
 3810 0129 9F       		.byte	0x9f
 3811 012a 00000000 		.4byte	0
 3812 012e 00000000 		.4byte	0
 3813              	.LLST9:
 3814 0132 00000000 		.4byte	.LVL13
 3815 0136 09000000 		.4byte	.LVL15-1
 3816 013a 0100     		.2byte	0x1
 3817 013c 51       		.byte	0x51
 3818 013d 09000000 		.4byte	.LVL15-1
 3819 0141 0A000000 		.4byte	.LFE118
 3820 0145 0400     		.2byte	0x4
 3821 0147 F3       		.byte	0xf3
 3822 0148 01       		.uleb128 0x1
 3823 0149 51       		.byte	0x51
 3824 014a 9F       		.byte	0x9f
 3825 014b 00000000 		.4byte	0
 3826 014f 00000000 		.4byte	0
 3827              	.LLST10:
 3828 0153 00000000 		.4byte	.LVL13
 3829 0157 09000000 		.4byte	.LVL15-1
 3830 015b 0100     		.2byte	0x1
 3831 015d 52       		.byte	0x52
 3832 015e 09000000 		.4byte	.LVL15-1
 3833 0162 0A000000 		.4byte	.LFE118
 3834 0166 0400     		.2byte	0x4
 3835 0168 F3       		.byte	0xf3
 3836 0169 01       		.uleb128 0x1
 3837 016a 52       		.byte	0x52
 3838 016b 9F       		.byte	0x9f
 3839 016c 00000000 		.4byte	0
 3840 0170 00000000 		.4byte	0
 3841              	.LLST11:
 3842 0174 00000000 		.4byte	.LVL16
 3843 0178 02000000 		.4byte	.LVL17
 3844 017c 0100     		.2byte	0x1
 3845 017e 50       		.byte	0x50
 3846 017f 02000000 		.4byte	.LVL17
 3847 0183 05000000 		.4byte	.LVL18-1
 3848 0187 0300     		.2byte	0x3
 3849 0189 70       		.byte	0x70
 3850 018a 50       		.sleb128 -48
 3851 018b 9F       		.byte	0x9f
 3852 018c 05000000 		.4byte	.LVL18-1
 3853 0190 06000000 		.4byte	.LFE123
 3854 0194 0400     		.2byte	0x4
 3855 0196 F3       		.byte	0xf3
 3856 0197 01       		.uleb128 0x1
ARM GAS  /tmp/ccZZC2fc.s 			page 69


 3857 0198 50       		.byte	0x50
 3858 0199 9F       		.byte	0x9f
 3859 019a 00000000 		.4byte	0
 3860 019e 00000000 		.4byte	0
 3861              	.LLST12:
 3862 01a2 00000000 		.4byte	.LVL16
 3863 01a6 05000000 		.4byte	.LVL18-1
 3864 01aa 0100     		.2byte	0x1
 3865 01ac 51       		.byte	0x51
 3866 01ad 05000000 		.4byte	.LVL18-1
 3867 01b1 06000000 		.4byte	.LFE123
 3868 01b5 0400     		.2byte	0x4
 3869 01b7 F3       		.byte	0xf3
 3870 01b8 01       		.uleb128 0x1
 3871 01b9 51       		.byte	0x51
 3872 01ba 9F       		.byte	0x9f
 3873 01bb 00000000 		.4byte	0
 3874 01bf 00000000 		.4byte	0
 3875              	.LLST13:
 3876 01c3 00000000 		.4byte	.LVL16
 3877 01c7 05000000 		.4byte	.LVL18-1
 3878 01cb 0100     		.2byte	0x1
 3879 01cd 52       		.byte	0x52
 3880 01ce 05000000 		.4byte	.LVL18-1
 3881 01d2 06000000 		.4byte	.LFE123
 3882 01d6 0400     		.2byte	0x4
 3883 01d8 F3       		.byte	0xf3
 3884 01d9 01       		.uleb128 0x1
 3885 01da 52       		.byte	0x52
 3886 01db 9F       		.byte	0x9f
 3887 01dc 00000000 		.4byte	0
 3888 01e0 00000000 		.4byte	0
 3889              	.LLST14:
 3890 01e4 00000000 		.4byte	.LVL16
 3891 01e8 05000000 		.4byte	.LVL18-1
 3892 01ec 0100     		.2byte	0x1
 3893 01ee 53       		.byte	0x53
 3894 01ef 05000000 		.4byte	.LVL18-1
 3895 01f3 06000000 		.4byte	.LFE123
 3896 01f7 0400     		.2byte	0x4
 3897 01f9 F3       		.byte	0xf3
 3898 01fa 01       		.uleb128 0x1
 3899 01fb 53       		.byte	0x53
 3900 01fc 9F       		.byte	0x9f
 3901 01fd 00000000 		.4byte	0
 3902 0201 00000000 		.4byte	0
 3903              	.LLST15:
 3904 0205 00000000 		.4byte	.LVL19
 3905 0209 02000000 		.4byte	.LVL20
 3906 020d 0100     		.2byte	0x1
 3907 020f 50       		.byte	0x50
 3908 0210 02000000 		.4byte	.LVL20
 3909 0214 09000000 		.4byte	.LVL21-1
 3910 0218 0300     		.2byte	0x3
 3911 021a 70       		.byte	0x70
 3912 021b 50       		.sleb128 -48
 3913 021c 9F       		.byte	0x9f
ARM GAS  /tmp/ccZZC2fc.s 			page 70


 3914 021d 09000000 		.4byte	.LVL21-1
 3915 0221 0A000000 		.4byte	.LFE117
 3916 0225 0400     		.2byte	0x4
 3917 0227 F3       		.byte	0xf3
 3918 0228 01       		.uleb128 0x1
 3919 0229 50       		.byte	0x50
 3920 022a 9F       		.byte	0x9f
 3921 022b 00000000 		.4byte	0
 3922 022f 00000000 		.4byte	0
 3923              	.LLST16:
 3924 0233 00000000 		.4byte	.LVL19
 3925 0237 09000000 		.4byte	.LVL21-1
 3926 023b 0100     		.2byte	0x1
 3927 023d 51       		.byte	0x51
 3928 023e 09000000 		.4byte	.LVL21-1
 3929 0242 0A000000 		.4byte	.LFE117
 3930 0246 0400     		.2byte	0x4
 3931 0248 F3       		.byte	0xf3
 3932 0249 01       		.uleb128 0x1
 3933 024a 51       		.byte	0x51
 3934 024b 9F       		.byte	0x9f
 3935 024c 00000000 		.4byte	0
 3936 0250 00000000 		.4byte	0
 3937              	.LLST17:
 3938 0254 00000000 		.4byte	.LVL19
 3939 0258 09000000 		.4byte	.LVL21-1
 3940 025c 0100     		.2byte	0x1
 3941 025e 52       		.byte	0x52
 3942 025f 09000000 		.4byte	.LVL21-1
 3943 0263 0A000000 		.4byte	.LFE117
 3944 0267 0400     		.2byte	0x4
 3945 0269 F3       		.byte	0xf3
 3946 026a 01       		.uleb128 0x1
 3947 026b 52       		.byte	0x52
 3948 026c 9F       		.byte	0x9f
 3949 026d 00000000 		.4byte	0
 3950 0271 00000000 		.4byte	0
 3951              	.LLST18:
 3952 0275 00000000 		.4byte	.LVL22
 3953 0279 02000000 		.4byte	.LVL23
 3954 027d 0100     		.2byte	0x1
 3955 027f 50       		.byte	0x50
 3956 0280 02000000 		.4byte	.LVL23
 3957 0284 05000000 		.4byte	.LVL24-1
 3958 0288 0300     		.2byte	0x3
 3959 028a 70       		.byte	0x70
 3960 028b 70       		.sleb128 -16
 3961 028c 9F       		.byte	0x9f
 3962 028d 05000000 		.4byte	.LVL24-1
 3963 0291 06000000 		.4byte	.LFE122
 3964 0295 0400     		.2byte	0x4
 3965 0297 F3       		.byte	0xf3
 3966 0298 01       		.uleb128 0x1
 3967 0299 50       		.byte	0x50
 3968 029a 9F       		.byte	0x9f
 3969 029b 00000000 		.4byte	0
 3970 029f 00000000 		.4byte	0
ARM GAS  /tmp/ccZZC2fc.s 			page 71


 3971              	.LLST19:
 3972 02a3 00000000 		.4byte	.LVL22
 3973 02a7 05000000 		.4byte	.LVL24-1
 3974 02ab 0100     		.2byte	0x1
 3975 02ad 51       		.byte	0x51
 3976 02ae 05000000 		.4byte	.LVL24-1
 3977 02b2 06000000 		.4byte	.LFE122
 3978 02b6 0400     		.2byte	0x4
 3979 02b8 F3       		.byte	0xf3
 3980 02b9 01       		.uleb128 0x1
 3981 02ba 51       		.byte	0x51
 3982 02bb 9F       		.byte	0x9f
 3983 02bc 00000000 		.4byte	0
 3984 02c0 00000000 		.4byte	0
 3985              	.LLST20:
 3986 02c4 00000000 		.4byte	.LVL25
 3987 02c8 02000000 		.4byte	.LVL26
 3988 02cc 0100     		.2byte	0x1
 3989 02ce 50       		.byte	0x50
 3990 02cf 02000000 		.4byte	.LVL26
 3991 02d3 05000000 		.4byte	.LVL27-1
 3992 02d7 0300     		.2byte	0x3
 3993 02d9 70       		.byte	0x70
 3994 02da 50       		.sleb128 -48
 3995 02db 9F       		.byte	0x9f
 3996 02dc 05000000 		.4byte	.LVL27-1
 3997 02e0 06000000 		.4byte	.LFE121
 3998 02e4 0400     		.2byte	0x4
 3999 02e6 F3       		.byte	0xf3
 4000 02e7 01       		.uleb128 0x1
 4001 02e8 50       		.byte	0x50
 4002 02e9 9F       		.byte	0x9f
 4003 02ea 00000000 		.4byte	0
 4004 02ee 00000000 		.4byte	0
 4005              	.LLST21:
 4006 02f2 00000000 		.4byte	.LVL25
 4007 02f6 05000000 		.4byte	.LVL27-1
 4008 02fa 0100     		.2byte	0x1
 4009 02fc 51       		.byte	0x51
 4010 02fd 05000000 		.4byte	.LVL27-1
 4011 0301 06000000 		.4byte	.LFE121
 4012 0305 0400     		.2byte	0x4
 4013 0307 F3       		.byte	0xf3
 4014 0308 01       		.uleb128 0x1
 4015 0309 51       		.byte	0x51
 4016 030a 9F       		.byte	0x9f
 4017 030b 00000000 		.4byte	0
 4018 030f 00000000 		.4byte	0
 4019              	.LLST22:
 4020 0313 00000000 		.4byte	.LVL25
 4021 0317 05000000 		.4byte	.LVL27-1
 4022 031b 0100     		.2byte	0x1
 4023 031d 52       		.byte	0x52
 4024 031e 05000000 		.4byte	.LVL27-1
 4025 0322 06000000 		.4byte	.LFE121
 4026 0326 0400     		.2byte	0x4
 4027 0328 F3       		.byte	0xf3
ARM GAS  /tmp/ccZZC2fc.s 			page 72


 4028 0329 01       		.uleb128 0x1
 4029 032a 52       		.byte	0x52
 4030 032b 9F       		.byte	0x9f
 4031 032c 00000000 		.4byte	0
 4032 0330 00000000 		.4byte	0
 4033              	.LLST23:
 4034 0334 00000000 		.4byte	.LFB127
 4035 0338 02000000 		.4byte	.LCFI0
 4036 033c 0200     		.2byte	0x2
 4037 033e 7D       		.byte	0x7d
 4038 033f 00       		.sleb128 0
 4039 0340 02000000 		.4byte	.LCFI0
 4040 0344 42000000 		.4byte	.LFE127
 4041 0348 0200     		.2byte	0x2
 4042 034a 7D       		.byte	0x7d
 4043 034b 10       		.sleb128 16
 4044 034c 00000000 		.4byte	0
 4045 0350 00000000 		.4byte	0
 4046              	.LLST24:
 4047 0354 00000000 		.4byte	.LVL29
 4048 0358 28000000 		.4byte	.LVL32
 4049 035c 0100     		.2byte	0x1
 4050 035e 50       		.byte	0x50
 4051 035f 28000000 		.4byte	.LVL32
 4052 0363 42000000 		.4byte	.LFE127
 4053 0367 0100     		.2byte	0x1
 4054 0369 54       		.byte	0x54
 4055 036a 00000000 		.4byte	0
 4056 036e 00000000 		.4byte	0
 4057              	.LLST25:
 4058 0372 00000000 		.4byte	.LVL29
 4059 0376 22000000 		.4byte	.LVL30
 4060 037a 0100     		.2byte	0x1
 4061 037c 51       		.byte	0x51
 4062 037d 22000000 		.4byte	.LVL30
 4063 0381 2D000000 		.4byte	.LVL33-1
 4064 0385 0100     		.2byte	0x1
 4065 0387 53       		.byte	0x53
 4066 0388 2D000000 		.4byte	.LVL33-1
 4067 038c 42000000 		.4byte	.LFE127
 4068 0390 0400     		.2byte	0x4
 4069 0392 F3       		.byte	0xf3
 4070 0393 01       		.uleb128 0x1
 4071 0394 51       		.byte	0x51
 4072 0395 9F       		.byte	0x9f
 4073 0396 00000000 		.4byte	0
 4074 039a 00000000 		.4byte	0
 4075              	.LLST26:
 4076 039e 00000000 		.4byte	.LVL29
 4077 03a2 24000000 		.4byte	.LVL31
 4078 03a6 0100     		.2byte	0x1
 4079 03a8 52       		.byte	0x52
 4080 03a9 24000000 		.4byte	.LVL31
 4081 03ad 42000000 		.4byte	.LFE127
 4082 03b1 0100     		.2byte	0x1
 4083 03b3 56       		.byte	0x56
 4084 03b4 00000000 		.4byte	0
ARM GAS  /tmp/ccZZC2fc.s 			page 73


 4085 03b8 00000000 		.4byte	0
 4086              	.LLST27:
 4087 03bc 00000000 		.4byte	.LFB128
 4088 03c0 02000000 		.4byte	.LCFI1
 4089 03c4 0200     		.2byte	0x2
 4090 03c6 7D       		.byte	0x7d
 4091 03c7 00       		.sleb128 0
 4092 03c8 02000000 		.4byte	.LCFI1
 4093 03cc 1A000000 		.4byte	.LFE128
 4094 03d0 0200     		.2byte	0x2
 4095 03d2 7D       		.byte	0x7d
 4096 03d3 08       		.sleb128 8
 4097 03d4 00000000 		.4byte	0
 4098 03d8 00000000 		.4byte	0
 4099              	.LLST28:
 4100 03dc 00000000 		.4byte	.LVL35
 4101 03e0 0D000000 		.4byte	.LVL38-1
 4102 03e4 0100     		.2byte	0x1
 4103 03e6 50       		.byte	0x50
 4104 03e7 0D000000 		.4byte	.LVL38-1
 4105 03eb 1A000000 		.4byte	.LFE128
 4106 03ef 0100     		.2byte	0x1
 4107 03f1 54       		.byte	0x54
 4108 03f2 00000000 		.4byte	0
 4109 03f6 00000000 		.4byte	0
 4110              	.LLST29:
 4111 03fa 00000000 		.4byte	.LVL35
 4112 03fe 0D000000 		.4byte	.LVL38-1
 4113 0402 0100     		.2byte	0x1
 4114 0404 51       		.byte	0x51
 4115 0405 0D000000 		.4byte	.LVL38-1
 4116 0409 1A000000 		.4byte	.LFE128
 4117 040d 0400     		.2byte	0x4
 4118 040f F3       		.byte	0xf3
 4119 0410 01       		.uleb128 0x1
 4120 0411 51       		.byte	0x51
 4121 0412 9F       		.byte	0x9f
 4122 0413 00000000 		.4byte	0
 4123 0417 00000000 		.4byte	0
 4124              	.LLST30:
 4125 041b 0A000000 		.4byte	.LVL37
 4126 041f 0D000000 		.4byte	.LVL38-1
 4127 0423 0100     		.2byte	0x1
 4128 0425 53       		.byte	0x53
 4129 0426 00000000 		.4byte	0
 4130 042a 00000000 		.4byte	0
 4131              	.LLST31:
 4132 042e 18000000 		.4byte	.LVL40
 4133 0432 1A000000 		.4byte	.LFE128
 4134 0436 0100     		.2byte	0x1
 4135 0438 53       		.byte	0x53
 4136 0439 00000000 		.4byte	0
 4137 043d 00000000 		.4byte	0
 4138              	.LLST32:
 4139 0441 00000000 		.4byte	.LFB129
 4140 0445 02000000 		.4byte	.LCFI2
 4141 0449 0200     		.2byte	0x2
ARM GAS  /tmp/ccZZC2fc.s 			page 74


 4142 044b 7D       		.byte	0x7d
 4143 044c 00       		.sleb128 0
 4144 044d 02000000 		.4byte	.LCFI2
 4145 0451 2E000000 		.4byte	.LFE129
 4146 0455 0200     		.2byte	0x2
 4147 0457 7D       		.byte	0x7d
 4148 0458 08       		.sleb128 8
 4149 0459 00000000 		.4byte	0
 4150 045d 00000000 		.4byte	0
 4151              	.LLST33:
 4152 0461 00000000 		.4byte	.LVL41
 4153 0465 0D000000 		.4byte	.LVL44-1
 4154 0469 0100     		.2byte	0x1
 4155 046b 50       		.byte	0x50
 4156 046c 0D000000 		.4byte	.LVL44-1
 4157 0470 2E000000 		.4byte	.LFE129
 4158 0474 0100     		.2byte	0x1
 4159 0476 54       		.byte	0x54
 4160 0477 00000000 		.4byte	0
 4161 047b 00000000 		.4byte	0
 4162              	.LLST34:
 4163 047f 0A000000 		.4byte	.LVL43
 4164 0483 0D000000 		.4byte	.LVL44-1
 4165 0487 0100     		.2byte	0x1
 4166 0489 53       		.byte	0x53
 4167 048a 00000000 		.4byte	0
 4168 048e 00000000 		.4byte	0
 4169              	.LLST35:
 4170 0492 2C000000 		.4byte	.LVL49
 4171 0496 2E000000 		.4byte	.LFE129
 4172 049a 0100     		.2byte	0x1
 4173 049c 53       		.byte	0x53
 4174 049d 00000000 		.4byte	0
 4175 04a1 00000000 		.4byte	0
 4176              	.LLST36:
 4177 04a5 00000000 		.4byte	.LFB130
 4178 04a9 02000000 		.4byte	.LCFI3
 4179 04ad 0200     		.2byte	0x2
 4180 04af 7D       		.byte	0x7d
 4181 04b0 00       		.sleb128 0
 4182 04b1 02000000 		.4byte	.LCFI3
 4183 04b5 4A000000 		.4byte	.LFE130
 4184 04b9 0200     		.2byte	0x2
 4185 04bb 7D       		.byte	0x7d
 4186 04bc 10       		.sleb128 16
 4187 04bd 00000000 		.4byte	0
 4188 04c1 00000000 		.4byte	0
 4189              	.LLST37:
 4190 04c5 00000000 		.4byte	.LVL50
 4191 04c9 0E000000 		.4byte	.LVL52
 4192 04cd 0100     		.2byte	0x1
 4193 04cf 50       		.byte	0x50
 4194 04d0 0E000000 		.4byte	.LVL52
 4195 04d4 1A000000 		.4byte	.LVL54
 4196 04d8 0100     		.2byte	0x1
 4197 04da 54       		.byte	0x54
 4198 04db 1A000000 		.4byte	.LVL54
ARM GAS  /tmp/ccZZC2fc.s 			page 75


 4199 04df 24000000 		.4byte	.LVL55
 4200 04e3 0100     		.2byte	0x1
 4201 04e5 50       		.byte	0x50
 4202 04e6 24000000 		.4byte	.LVL55
 4203 04ea 4A000000 		.4byte	.LFE130
 4204 04ee 0100     		.2byte	0x1
 4205 04f0 54       		.byte	0x54
 4206 04f1 00000000 		.4byte	0
 4207 04f5 00000000 		.4byte	0
 4208              	.LLST38:
 4209 04f9 00000000 		.4byte	.LVL50
 4210 04fd 06000000 		.4byte	.LVL51
 4211 0501 0100     		.2byte	0x1
 4212 0503 51       		.byte	0x51
 4213 0504 06000000 		.4byte	.LVL51
 4214 0508 4A000000 		.4byte	.LFE130
 4215 050c 0400     		.2byte	0x4
 4216 050e F3       		.byte	0xf3
 4217 050f 01       		.uleb128 0x1
 4218 0510 51       		.byte	0x51
 4219 0511 9F       		.byte	0x9f
 4220 0512 00000000 		.4byte	0
 4221 0516 00000000 		.4byte	0
 4222              	.LLST39:
 4223 051a 00000000 		.4byte	.LFB131
 4224 051e 02000000 		.4byte	.LCFI4
 4225 0522 0200     		.2byte	0x2
 4226 0524 7D       		.byte	0x7d
 4227 0525 00       		.sleb128 0
 4228 0526 02000000 		.4byte	.LCFI4
 4229 052a 28000000 		.4byte	.LFE131
 4230 052e 0200     		.2byte	0x2
 4231 0530 7D       		.byte	0x7d
 4232 0531 10       		.sleb128 16
 4233 0532 00000000 		.4byte	0
 4234 0536 00000000 		.4byte	0
 4235              	.LLST40:
 4236 053a 00000000 		.4byte	.LVL59
 4237 053e 08000000 		.4byte	.LVL60
 4238 0542 0100     		.2byte	0x1
 4239 0544 50       		.byte	0x50
 4240 0545 08000000 		.4byte	.LVL60
 4241 0549 28000000 		.4byte	.LFE131
 4242 054d 0100     		.2byte	0x1
 4243 054f 54       		.byte	0x54
 4244 0550 00000000 		.4byte	0
 4245 0554 00000000 		.4byte	0
 4246              		.section	.debug_aranges,"",%progbits
 4247 0000 8C000000 		.4byte	0x8c
 4248 0004 0200     		.2byte	0x2
 4249 0006 00000000 		.4byte	.Ldebug_info0
 4250 000a 04       		.byte	0x4
 4251 000b 00       		.byte	0
 4252 000c 0000     		.2byte	0
 4253 000e 0000     		.2byte	0
 4254 0010 00000000 		.4byte	.LFB119
 4255 0014 0C000000 		.4byte	.LFE119-.LFB119
ARM GAS  /tmp/ccZZC2fc.s 			page 76


 4256 0018 00000000 		.4byte	.LFB120
 4257 001c 0C000000 		.4byte	.LFE120-.LFB120
 4258 0020 00000000 		.4byte	.LFB125
 4259 0024 14000000 		.4byte	.LFE125-.LFB125
 4260 0028 00000000 		.4byte	.LFB124
 4261 002c 06000000 		.4byte	.LFE124-.LFB124
 4262 0030 00000000 		.4byte	.LFB118
 4263 0034 0A000000 		.4byte	.LFE118-.LFB118
 4264 0038 00000000 		.4byte	.LFB123
 4265 003c 06000000 		.4byte	.LFE123-.LFB123
 4266 0040 00000000 		.4byte	.LFB117
 4267 0044 0A000000 		.4byte	.LFE117-.LFB117
 4268 0048 00000000 		.4byte	.LFB122
 4269 004c 06000000 		.4byte	.LFE122-.LFB122
 4270 0050 00000000 		.4byte	.LFB121
 4271 0054 06000000 		.4byte	.LFE121-.LFB121
 4272 0058 00000000 		.4byte	.LFB126
 4273 005c 04000000 		.4byte	.LFE126-.LFB126
 4274 0060 00000000 		.4byte	.LFB127
 4275 0064 42000000 		.4byte	.LFE127-.LFB127
 4276 0068 00000000 		.4byte	.LFB128
 4277 006c 1A000000 		.4byte	.LFE128-.LFB128
 4278 0070 00000000 		.4byte	.LFB129
 4279 0074 2E000000 		.4byte	.LFE129-.LFB129
 4280 0078 00000000 		.4byte	.LFB130
 4281 007c 4A000000 		.4byte	.LFE130-.LFB130
 4282 0080 00000000 		.4byte	.LFB131
 4283 0084 28000000 		.4byte	.LFE131-.LFB131
 4284 0088 00000000 		.4byte	0
 4285 008c 00000000 		.4byte	0
 4286              		.section	.debug_ranges,"",%progbits
 4287              	.Ldebug_ranges0:
 4288 0000 02000000 		.4byte	.LBB4
 4289 0004 04000000 		.4byte	.LBE4
 4290 0008 06000000 		.4byte	.LBB5
 4291 000c 0A000000 		.4byte	.LBE5
 4292 0010 00000000 		.4byte	0
 4293 0014 00000000 		.4byte	0
 4294 0018 02000000 		.4byte	.LBB7
 4295 001c 04000000 		.4byte	.LBE7
 4296 0020 06000000 		.4byte	.LBB8
 4297 0024 0A000000 		.4byte	.LBE8
 4298 0028 00000000 		.4byte	0
 4299 002c 00000000 		.4byte	0
 4300 0030 00000000 		.4byte	.LFB119
 4301 0034 0C000000 		.4byte	.LFE119
 4302 0038 00000000 		.4byte	.LFB120
 4303 003c 0C000000 		.4byte	.LFE120
 4304 0040 00000000 		.4byte	.LFB125
 4305 0044 14000000 		.4byte	.LFE125
 4306 0048 00000000 		.4byte	.LFB124
 4307 004c 06000000 		.4byte	.LFE124
 4308 0050 00000000 		.4byte	.LFB118
 4309 0054 0A000000 		.4byte	.LFE118
 4310 0058 00000000 		.4byte	.LFB123
 4311 005c 06000000 		.4byte	.LFE123
 4312 0060 00000000 		.4byte	.LFB117
ARM GAS  /tmp/ccZZC2fc.s 			page 77


 4313 0064 0A000000 		.4byte	.LFE117
 4314 0068 00000000 		.4byte	.LFB122
 4315 006c 06000000 		.4byte	.LFE122
 4316 0070 00000000 		.4byte	.LFB121
 4317 0074 06000000 		.4byte	.LFE121
 4318 0078 00000000 		.4byte	.LFB126
 4319 007c 04000000 		.4byte	.LFE126
 4320 0080 00000000 		.4byte	.LFB127
 4321 0084 42000000 		.4byte	.LFE127
 4322 0088 00000000 		.4byte	.LFB128
 4323 008c 1A000000 		.4byte	.LFE128
 4324 0090 00000000 		.4byte	.LFB129
 4325 0094 2E000000 		.4byte	.LFE129
 4326 0098 00000000 		.4byte	.LFB130
 4327 009c 4A000000 		.4byte	.LFE130
 4328 00a0 00000000 		.4byte	.LFB131
 4329 00a4 28000000 		.4byte	.LFE131
 4330 00a8 00000000 		.4byte	0
 4331 00ac 00000000 		.4byte	0
 4332              		.section	.debug_line,"",%progbits
 4333              	.Ldebug_line0:
 4334 0000 B5030000 		.section	.debug_str,"MS",%progbits,1
 4334      02007902 
 4334      00000201 
 4334      FB0E0D00 
 4334      01010101 
 4335              	.LASF128:
 4336 0000 63684F51 		.ascii	"chOQPutTimeout\000"
 4336      50757454 
 4336      696D656F 
 4336      757400
 4337              	.LASF104:
 4338 000f 73635F73 		.ascii	"sc_speed\000"
 4338      70656564 
 4338      00
 4339              	.LASF2:
 4340 0018 73697A65 		.ascii	"size_t\000"
 4340      5F7400
 4341              	.LASF58:
 4342 001f 7264796D 		.ascii	"rdymsg\000"
 4342      736700
 4343              	.LASF73:
 4344 0026 4F757470 		.ascii	"OutputQueue\000"
 4344      75745175 
 4344      65756500 
 4345              	.LASF21:
 4346 0032 6576656E 		.ascii	"eventmask_t\000"
 4346      746D6173 
 4346      6B5F7400 
 4347              	.LASF125:
 4348 003e 63684951 		.ascii	"chIQReadTimeout\000"
 4348      52656164 
 4348      54696D65 
 4348      6F757400 
 4349              	.LASF14:
 4350 004e 75696E74 		.ascii	"uint_fast16_t\000"
 4350      5F666173 
ARM GAS  /tmp/ccZZC2fc.s 			page 78


 4350      7431365F 
 4350      7400
 4351              	.LASF13:
 4352 005c 6C6F6E67 		.ascii	"long long unsigned int\000"
 4352      206C6F6E 
 4352      6720756E 
 4352      7369676E 
 4352      65642069 
 4353              	.LASF134:
 4354 0073 63684951 		.ascii	"chIQResetI\000"
 4354      52657365 
 4354      744900
 4355              	.LASF130:
 4356 007e 63684F51 		.ascii	"chOQInit\000"
 4356      496E6974 
 4356      00
 4357              	.LASF59:
 4358 0087 65786974 		.ascii	"exitcode\000"
 4358      636F6465 
 4358      00
 4359              	.LASF144:
 4360 0090 49544D5F 		.ascii	"ITM_RxBuffer\000"
 4360      52784275 
 4360      66666572 
 4360      00
 4361              	.LASF123:
 4362 009d 73645374 		.ascii	"sdStop\000"
 4362      6F7000
 4363              	.LASF118:
 4364 00a4 73644F62 		.ascii	"sdObjectInit\000"
 4364      6A656374 
 4364      496E6974 
 4364      00
 4365              	.LASF112:
 4366 00b1 72656164 		.ascii	"reads\000"
 4366      7300
 4367              	.LASF81:
 4368 00b7 72656164 		.ascii	"readt\000"
 4368      7400
 4369              	.LASF64:
 4370 00bd 715F7761 		.ascii	"q_waiting\000"
 4370      6974696E 
 4370      6700
 4371              	.LASF12:
 4372 00c7 6C6F6E67 		.ascii	"long long int\000"
 4372      206C6F6E 
 4372      6720696E 
 4372      7400
 4373              	.LASF1:
 4374 00d5 7369676E 		.ascii	"signed char\000"
 4374      65642063 
 4374      68617200 
 4375              	.LASF92:
 4376 00e1 47545052 		.ascii	"GTPR\000"
 4376      00
 4377              	.LASF41:
 4378 00e6 705F6D70 		.ascii	"p_mpool\000"
ARM GAS  /tmp/ccZZC2fc.s 			page 79


 4378      6F6F6C00 
 4379              	.LASF15:
 4380 00ee 626F6F6C 		.ascii	"bool_t\000"
 4380      5F7400
 4381              	.LASF49:
 4382 00f5 6D5F7175 		.ascii	"m_queue\000"
 4382      65756500 
 4383              	.LASF100:
 4384 00fd 73746174 		.ascii	"state\000"
 4384      6500
 4385              	.LASF9:
 4386 0103 6C6F6E67 		.ascii	"long int\000"
 4386      20696E74 
 4386      00
 4387              	.LASF17:
 4388 010c 74737461 		.ascii	"tstate_t\000"
 4388      74655F74 
 4388      00
 4389              	.LASF139:
 4390 0115 63684F51 		.ascii	"chOQGetI\000"
 4390      47657449 
 4390      00
 4391              	.LASF141:
 4392 011e 2E2F6F73 		.ascii	"./os/hal/src/serial.c\000"
 4392      2F68616C 
 4392      2F737263 
 4392      2F736572 
 4392      69616C2E 
 4393              	.LASF33:
 4394 0134 705F7265 		.ascii	"p_refs\000"
 4394      667300
 4395              	.LASF66:
 4396 013b 715F6275 		.ascii	"q_buffer\000"
 4396      66666572 
 4396      00
 4397              	.LASF68:
 4398 0144 715F7772 		.ascii	"q_wrptr\000"
 4398      70747200 
 4399              	.LASF138:
 4400 014c 63684576 		.ascii	"chEvtBroadcastFlagsI\000"
 4400      7442726F 
 4400      61646361 
 4400      7374466C 
 4400      61677349 
 4401              	.LASF28:
 4402 0161 705F6E65 		.ascii	"p_newer\000"
 4402      77657200 
 4403              	.LASF78:
 4404 0169 70757477 		.ascii	"putwouldblock\000"
 4404      6F756C64 
 4404      626C6F63 
 4404      6B00
 4405              	.LASF136:
 4406 0177 63685363 		.ascii	"chSchRescheduleS\000"
 4406      68526573 
 4406      63686564 
 4406      756C6553 
ARM GAS  /tmp/ccZZC2fc.s 			page 80


 4406      00
 4407              	.LASF110:
 4408 0188 6D61736B 		.ascii	"mask\000"
 4408      00
 4409              	.LASF44:
 4410 018d 72656761 		.ascii	"regarm_t\000"
 4410      726D5F74 
 4410      00
 4411              	.LASF137:
 4412 0196 63684951 		.ascii	"chIQPutI\000"
 4412      50757449 
 4412      00
 4413              	.LASF56:
 4414 019f 4576656E 		.ascii	"EventSource\000"
 4414      74536F75 
 4414      72636500 
 4415              	.LASF75:
 4416 01ab 42617365 		.ascii	"BaseAsynchronousChannelVMT\000"
 4416      4173796E 
 4416      6368726F 
 4416      6E6F7573 
 4416      4368616E 
 4417              	.LASF0:
 4418 01c6 756E7369 		.ascii	"unsigned int\000"
 4418      676E6564 
 4418      20696E74 
 4418      00
 4419              	.LASF6:
 4420 01d3 75696E74 		.ascii	"uint16_t\000"
 4420      31365F74 
 4420      00
 4421              	.LASF109:
 4422 01dc 53657269 		.ascii	"SerialDriverVMT\000"
 4422      616C4472 
 4422      69766572 
 4422      564D5400 
 4423              	.LASF34:
 4424 01ec 705F7469 		.ascii	"p_time\000"
 4424      6D6500
 4425              	.LASF119:
 4426 01f3 696E6F74 		.ascii	"inotify\000"
 4426      69667900 
 4427              	.LASF101:
 4428 01fb 69717565 		.ascii	"iqueue\000"
 4428      756500
 4429              	.LASF36:
 4430 0202 705F6D73 		.ascii	"p_msgqueue\000"
 4430      67717565 
 4430      756500
 4431              	.LASF135:
 4432 020d 73645F6C 		.ascii	"sd_lld_init\000"
 4432      6C645F69 
 4432      6E697400 
 4433              	.LASF114:
 4434 0219 67657474 		.ascii	"gett\000"
 4434      00
 4435              	.LASF83:
ARM GAS  /tmp/ccZZC2fc.s 			page 81


 4436 021e 6576656E 		.ascii	"event\000"
 4436      7400
 4437              	.LASF7:
 4438 0224 73686F72 		.ascii	"short unsigned int\000"
 4438      7420756E 
 4438      7369676E 
 4438      65642069 
 4438      6E7400
 4439              	.LASF20:
 4440 0237 6D73675F 		.ascii	"msg_t\000"
 4440      7400
 4441              	.LASF102:
 4442 023d 6F717565 		.ascii	"oqueue\000"
 4442      756500
 4443              	.LASF113:
 4444 0244 77726974 		.ascii	"writes\000"
 4444      657300
 4445              	.LASF80:
 4446 024b 77726974 		.ascii	"writet\000"
 4446      657400
 4447              	.LASF16:
 4448 0252 746D6F64 		.ascii	"tmode_t\000"
 4448      655F7400 
 4449              	.LASF43:
 4450 025a 54687265 		.ascii	"ThreadsList\000"
 4450      6164734C 
 4450      69737400 
 4451              	.LASF103:
 4452 0266 75736172 		.ascii	"usart\000"
 4452      7400
 4453              	.LASF72:
 4454 026c 496E7075 		.ascii	"InputQueue\000"
 4454      74517565 
 4454      756500
 4455              	.LASF71:
 4456 0277 716E6F74 		.ascii	"qnotify_t\000"
 4456      6966795F 
 4456      7400
 4457              	.LASF63:
 4458 0281 47656E65 		.ascii	"GenericQueue\000"
 4458      72696351 
 4458      75657565 
 4458      00
 4459              	.LASF126:
 4460 028e 63684F51 		.ascii	"chOQWriteTimeout\000"
 4460      57726974 
 4460      6554696D 
 4460      656F7574 
 4460      00
 4461              	.LASF76:
 4462 029f 77726974 		.ascii	"write\000"
 4462      6500
 4463              	.LASF116:
 4464 02a5 70757474 		.ascii	"putt\000"
 4464      00
 4465              	.LASF47:
 4466 02aa 73697A65 		.ascii	"sizetype\000"
ARM GAS  /tmp/ccZZC2fc.s 			page 82


 4466      74797065 
 4466      00
 4467              	.LASF65:
 4468 02b3 715F636F 		.ascii	"q_counter\000"
 4468      756E7465 
 4468      7200
 4469              	.LASF48:
 4470 02bd 4D757465 		.ascii	"Mutex\000"
 4470      7800
 4471              	.LASF26:
 4472 02c3 705F7072 		.ascii	"p_prio\000"
 4472      696F00
 4473              	.LASF55:
 4474 02ca 656C5F6D 		.ascii	"el_mask\000"
 4474      61736B00 
 4475              	.LASF29:
 4476 02d2 705F6F6C 		.ascii	"p_older\000"
 4476      64657200 
 4477              	.LASF82:
 4478 02da 67657466 		.ascii	"getflags\000"
 4478      6C616773 
 4478      00
 4479              	.LASF74:
 4480 02e3 696F666C 		.ascii	"ioflags_t\000"
 4480      6167735F 
 4480      7400
 4481              	.LASF42:
 4482 02ed 54687265 		.ascii	"ThreadsQueue\000"
 4482      61647351 
 4482      75657565 
 4482      00
 4483              	.LASF115:
 4484 02fa 74696D65 		.ascii	"timeout\000"
 4484      6F757400 
 4485              	.LASF111:
 4486 0302 74696D65 		.ascii	"time\000"
 4486      00
 4487              	.LASF140:
 4488 0307 474E5520 		.ascii	"GNU C 4.7.2\000"
 4488      4320342E 
 4488      372E3200 
 4489              	.LASF108:
 4490 0313 53657269 		.ascii	"SerialConfig\000"
 4490      616C436F 
 4490      6E666967 
 4490      00
 4491              	.LASF18:
 4492 0320 74726566 		.ascii	"trefs_t\000"
 4492      735F7400 
 4493              	.LASF86:
 4494 0328 52455345 		.ascii	"RESERVED0\000"
 4494      52564544 
 4494      3000
 4495              	.LASF87:
 4496 0332 52455345 		.ascii	"RESERVED1\000"
 4496      52564544 
 4496      3100
ARM GAS  /tmp/ccZZC2fc.s 			page 83


 4497              	.LASF88:
 4498 033c 52455345 		.ascii	"RESERVED2\000"
 4498      52564544 
 4498      3200
 4499              	.LASF89:
 4500 0346 52455345 		.ascii	"RESERVED3\000"
 4500      52564544 
 4500      3300
 4501              	.LASF90:
 4502 0350 52455345 		.ascii	"RESERVED4\000"
 4502      52564544 
 4502      3400
 4503              	.LASF25:
 4504 035a 705F7072 		.ascii	"p_prev\000"
 4504      657600
 4505              	.LASF93:
 4506 0361 52455345 		.ascii	"RESERVED6\000"
 4506      52564544 
 4506      3600
 4507              	.LASF19:
 4508 036b 74707269 		.ascii	"tprio_t\000"
 4508      6F5F7400 
 4509              	.LASF69:
 4510 0373 715F7264 		.ascii	"q_rdptr\000"
 4510      70747200 
 4511              	.LASF8:
 4512 037b 696E7433 		.ascii	"int32_t\000"
 4512      325F7400 
 4513              	.LASF4:
 4514 0383 756E7369 		.ascii	"unsigned char\000"
 4514      676E6564 
 4514      20636861 
 4514      7200
 4515              	.LASF131:
 4516 0391 73645F6C 		.ascii	"sd_lld_start\000"
 4516      6C645F73 
 4516      74617274 
 4516      00
 4517              	.LASF54:
 4518 039e 656C5F6C 		.ascii	"el_listener\000"
 4518      69737465 
 4518      6E657200 
 4519              	.LASF31:
 4520 03aa 705F7374 		.ascii	"p_state\000"
 4520      61746500 
 4521              	.LASF39:
 4522 03b2 705F6D74 		.ascii	"p_mtxlist\000"
 4522      786C6973 
 4522      7400
 4523              	.LASF5:
 4524 03bc 73686F72 		.ascii	"short int\000"
 4524      7420696E 
 4524      7400
 4525              	.LASF61:
 4526 03c6 65776D61 		.ascii	"ewmask\000"
 4526      736B00
 4527              	.LASF24:
ARM GAS  /tmp/ccZZC2fc.s 			page 84


 4528 03cd 705F6E65 		.ascii	"p_next\000"
 4528      787400
 4529              	.LASF32:
 4530 03d4 705F666C 		.ascii	"p_flags\000"
 4530      61677300 
 4531              	.LASF53:
 4532 03dc 656C5F6E 		.ascii	"el_next\000"
 4532      65787400 
 4533              	.LASF96:
 4534 03e4 53445F53 		.ascii	"SD_STOP\000"
 4534      544F5000 
 4535              	.LASF23:
 4536 03ec 54687265 		.ascii	"Thread\000"
 4536      616400
 4537              	.LASF38:
 4538 03f3 705F6570 		.ascii	"p_epending\000"
 4538      656E6469 
 4538      6E6700
 4539              	.LASF95:
 4540 03fe 53445F55 		.ascii	"SD_UNINIT\000"
 4540      4E494E49 
 4540      5400
 4541              	.LASF91:
 4542 0408 52455345 		.ascii	"RESERVED5\000"
 4542      52564544 
 4542      3500
 4543              	.LASF10:
 4544 0412 75696E74 		.ascii	"uint32_t\000"
 4544      33325F74 
 4544      00
 4545              	.LASF98:
 4546 041b 73647374 		.ascii	"sdstate_t\000"
 4546      6174655F 
 4546      7400
 4547              	.LASF99:
 4548 0425 53657269 		.ascii	"SerialDriver\000"
 4548      616C4472 
 4548      69766572 
 4548      00
 4549              	.LASF11:
 4550 0432 6C6F6E67 		.ascii	"long unsigned int\000"
 4550      20756E73 
 4550      69676E65 
 4550      6420696E 
 4550      7400
 4551              	.LASF77:
 4552 0444 72656164 		.ascii	"read\000"
 4552      00
 4553              	.LASF62:
 4554 0449 63686172 		.ascii	"char\000"
 4554      00
 4555              	.LASF124:
 4556 044e 7364496E 		.ascii	"sdIncomingDataI\000"
 4556      636F6D69 
 4556      6E674461 
 4556      74614900 
 4557              	.LASF122:
ARM GAS  /tmp/ccZZC2fc.s 			page 85


 4558 045e 636F6E66 		.ascii	"config\000"
 4558      696700
 4559              	.LASF121:
 4560 0465 73645374 		.ascii	"sdStart\000"
 4560      61727400 
 4561              	.LASF51:
 4562 046d 6D5F6E65 		.ascii	"m_next\000"
 4562      787400
 4563              	.LASF22:
 4564 0474 73797374 		.ascii	"systime_t\000"
 4564      696D655F 
 4564      7400
 4565              	.LASF40:
 4566 047e 705F7265 		.ascii	"p_realprio\000"
 4566      616C7072 
 4566      696F00
 4567              	.LASF85:
 4568 0489 42617365 		.ascii	"BaseAsynchronousChannel\000"
 4568      4173796E 
 4568      6368726F 
 4568      6E6F7573 
 4568      4368616E 
 4569              	.LASF46:
 4570 04a1 636F6E74 		.ascii	"context\000"
 4570      65787400 
 4571              	.LASF142:
 4572 04a9 2F686F6D 		.ascii	"/home/mitchd/Documents/FOX-1/amsat-fox/stm32f4-deve"
 4572      652F6D69 
 4572      74636864 
 4572      2F446F63 
 4572      756D656E 
 4573 04dc 6C00     		.ascii	"l\000"
 4574              	.LASF52:
 4575 04de 4576656E 		.ascii	"EventListener\000"
 4575      744C6973 
 4575      74656E65 
 4575      7200
 4576              	.LASF45:
 4577 04ec 696E7463 		.ascii	"intctx\000"
 4577      747800
 4578              	.LASF97:
 4579 04f3 53445F52 		.ascii	"SD_READY\000"
 4579      45414459 
 4579      00
 4580              	.LASF67:
 4581 04fc 715F746F 		.ascii	"q_top\000"
 4581      7000
 4582              	.LASF30:
 4583 0502 705F6E61 		.ascii	"p_name\000"
 4583      6D6500
 4584              	.LASF57:
 4585 0509 65735F6E 		.ascii	"es_next\000"
 4585      65787400 
 4586              	.LASF94:
 4587 0511 55534152 		.ascii	"USART_TypeDef\000"
 4587      545F5479 
 4587      70654465 
ARM GAS  /tmp/ccZZC2fc.s 			page 86


 4587      6600
 4588              	.LASF70:
 4589 051f 715F6E6F 		.ascii	"q_notify\000"
 4589      74696679 
 4589      00
 4590              	.LASF37:
 4591 0528 705F6D73 		.ascii	"p_msg\000"
 4591      6700
 4592              	.LASF143:
 4593 052e 73645265 		.ascii	"sdRequestDataI\000"
 4593      71756573 
 4593      74446174 
 4593      614900
 4594              	.LASF3:
 4595 053d 75696E74 		.ascii	"uint8_t\000"
 4595      385F7400 
 4596              	.LASF84:
 4597 0545 666C6167 		.ascii	"flags\000"
 4597      7300
 4598              	.LASF120:
 4599 054b 6F6E6F74 		.ascii	"onotify\000"
 4599      69667900 
 4600              	.LASF133:
 4601 0553 63684F51 		.ascii	"chOQResetI\000"
 4601      52657365 
 4601      744900
 4602              	.LASF60:
 4603 055e 77746F62 		.ascii	"wtobjp\000"
 4603      6A7000
 4604              	.LASF132:
 4605 0565 73645F6C 		.ascii	"sd_lld_stop\000"
 4605      6C645F73 
 4605      746F7000 
 4606              	.LASF79:
 4607 0571 67657477 		.ascii	"getwouldblock\000"
 4607      6F756C64 
 4607      626C6F63 
 4607      6B00
 4608              	.LASF105:
 4609 057f 73635F63 		.ascii	"sc_cr1\000"
 4609      723100
 4610              	.LASF106:
 4611 0586 73635F63 		.ascii	"sc_cr2\000"
 4611      723200
 4612              	.LASF107:
 4613 058d 73635F63 		.ascii	"sc_cr3\000"
 4613      723300
 4614              	.LASF117:
 4615 0594 7364496E 		.ascii	"sdInit\000"
 4615      697400
 4616              	.LASF129:
 4617 059b 63684951 		.ascii	"chIQInit\000"
 4617      496E6974 
 4617      00
 4618              	.LASF50:
 4619 05a4 6D5F6F77 		.ascii	"m_owner\000"
 4619      6E657200 
ARM GAS  /tmp/ccZZC2fc.s 			page 87


 4620              	.LASF27:
 4621 05ac 705F6374 		.ascii	"p_ctx\000"
 4621      7800
 4622              	.LASF35:
 4623 05b2 705F7761 		.ascii	"p_waiting\000"
 4623      6974696E 
 4623      6700
 4624              	.LASF127:
 4625 05bc 63684951 		.ascii	"chIQGetTimeout\000"
 4625      47657454 
 4625      696D656F 
 4625      757400
 4626              		.ident	"GCC: (GNU) 4.7.2"
ARM GAS  /tmp/ccZZC2fc.s 			page 88


DEFINED SYMBOLS
                            *ABS*:0000000000000000 serial.c
     /tmp/ccZZC2fc.s:19     .text.putwouldblock:0000000000000000 $t
     /tmp/ccZZC2fc.s:24     .text.putwouldblock:0000000000000000 putwouldblock
     /tmp/ccZZC2fc.s:45     .text.getwouldblock:0000000000000000 $t
     /tmp/ccZZC2fc.s:50     .text.getwouldblock:0000000000000000 getwouldblock
     /tmp/ccZZC2fc.s:70     .text.getflags:0000000000000000 $t
     /tmp/ccZZC2fc.s:75     .text.getflags:0000000000000000 getflags
     /tmp/ccZZC2fc.s:113    .text.readt:0000000000000000 $t
     /tmp/ccZZC2fc.s:118    .text.readt:0000000000000000 readt
     /tmp/ccZZC2fc.s:137    .text.reads:0000000000000000 $t
     /tmp/ccZZC2fc.s:142    .text.reads:0000000000000000 reads
     /tmp/ccZZC2fc.s:162    .text.writet:0000000000000000 $t
     /tmp/ccZZC2fc.s:167    .text.writet:0000000000000000 writet
     /tmp/ccZZC2fc.s:186    .text.writes:0000000000000000 $t
     /tmp/ccZZC2fc.s:191    .text.writes:0000000000000000 writes
     /tmp/ccZZC2fc.s:211    .text.gett:0000000000000000 $t
     /tmp/ccZZC2fc.s:216    .text.gett:0000000000000000 gett
     /tmp/ccZZC2fc.s:235    .text.putt:0000000000000000 $t
     /tmp/ccZZC2fc.s:240    .text.putt:0000000000000000 putt
     /tmp/ccZZC2fc.s:259    .text.sdInit:0000000000000000 $t
     /tmp/ccZZC2fc.s:265    .text.sdInit:0000000000000000 sdInit
     /tmp/ccZZC2fc.s:280    .text.sdObjectInit:0000000000000000 $t
     /tmp/ccZZC2fc.s:286    .text.sdObjectInit:0000000000000000 sdObjectInit
     /tmp/ccZZC2fc.s:585    .rodata.vmt:0000000000000000 .LANCHOR0
     /tmp/ccZZC2fc.s:344    .text.sdStart:0000000000000000 $t
     /tmp/ccZZC2fc.s:350    .text.sdStart:0000000000000000 sdStart
     /tmp/ccZZC2fc.s:398    .text.sdStop:0000000000000000 $t
     /tmp/ccZZC2fc.s:404    .text.sdStop:0000000000000000 sdStop
     /tmp/ccZZC2fc.s:463    .text.sdIncomingDataI:0000000000000000 $t
     /tmp/ccZZC2fc.s:469    .text.sdIncomingDataI:0000000000000000 sdIncomingDataI
     /tmp/ccZZC2fc.s:535    .text.sdRequestDataI:0000000000000000 $t
     /tmp/ccZZC2fc.s:541    .text.sdRequestDataI:0000000000000000 sdRequestDataI
     /tmp/ccZZC2fc.s:584    .rodata.vmt:0000000000000000 $d
     /tmp/ccZZC2fc.s:588    .rodata.vmt:0000000000000000 vmt
                     .debug_frame:0000000000000010 $d

UNDEFINED SYMBOLS
chIQReadTimeout
chOQWriteTimeout
chIQGetTimeout
chOQPutTimeout
sd_lld_init
chIQInit
chOQInit
sd_lld_start
sd_lld_stop
chOQResetI
chIQResetI
chSchRescheduleS
chIQPutI
chEvtBroadcastFlagsI
chOQGetI
