ARM GAS  /tmp/ccaK2hqG.s 			page 1


   1              		.syntax unified
   2              		.cpu cortex-m4
   3              		.fpu softvfp
   4              		.eabi_attribute 20, 1
   5              		.eabi_attribute 21, 1
   6              		.eabi_attribute 23, 3
   7              		.eabi_attribute 24, 1
   8              		.eabi_attribute 25, 1
   9              		.eabi_attribute 26, 1
  10              		.eabi_attribute 30, 2
  11              		.eabi_attribute 34, 1
  12              		.eabi_attribute 18, 4
  13              		.thumb
  14              		.file	"serial_lld.c"
  15              		.text
  16              	.Ltext0:
  17              		.cfi_sections	.debug_frame
  18              		.section	.text.notify3,"ax",%progbits
  19              		.align	2
  20              		.p2align 4,,15
  21              		.thumb
  22              		.thumb_func
  23              		.type	notify3, %function
  24              	notify3:
  25              	.LFB121:
  26              		.file 1 "./os/hal/platforms/STM32/serial_lld.c"
  27              		.loc 1 233 0
  28              		.cfi_startproc
  29              		@ args = 0, pretend = 0, frame = 0
  30              		@ frame_needed = 0, uses_anonymous_args = 0
  31              		@ link register save eliminated.
  32              	.LVL0:
  33              		.loc 1 236 0
  34 0000 4FF49043 		mov	r3, #18432
  35 0004 C4F20003 		movt	r3, 16384
  36 0008 9989     		ldrh	r1, [r3, #12]
  37 000a 88B2     		uxth	r0, r1
  38              	.LVL1:
  39 000c 40F08002 		orr	r2, r0, #128
  40 0010 9A81     		strh	r2, [r3, #12]	@ movhi
  41              		.loc 1 237 0
  42 0012 7047     		bx	lr
  43              		.cfi_endproc
  44              	.LFE121:
  45              		.size	notify3, .-notify3
  46 0014 AFF30080 		.section	.text.VectorDC,"ax",%progbits
  46      AFF30080 
  46      AFF30080 
  47              		.align	2
  48              		.p2align 4,,15
  49              		.global	VectorDC
  50              		.thumb
  51              		.thumb_func
  52              		.type	VectorDC, %function
  53              	VectorDC:
  54              	.LFB122:
  55              		.loc 1 306 0
ARM GAS  /tmp/ccaK2hqG.s 			page 2


  56              		.cfi_startproc
  57              		@ args = 0, pretend = 0, frame = 0
  58              		@ frame_needed = 0, uses_anonymous_args = 0
  59              	.LVL2:
  60 0000 2DE9F041 		push	{r4, r5, r6, r7, r8, lr}
  61              	.LCFI0:
  62              		.cfi_def_cfa_offset 24
  63              		.cfi_offset 14, -4
  64              		.cfi_offset 8, -8
  65              		.cfi_offset 7, -12
  66              		.cfi_offset 6, -16
  67              		.cfi_offset 5, -20
  68              		.cfi_offset 4, -24
  69              	.LBB47:
  70              	.LBB48:
  71              		.loc 1 171 0
  72 0004 4B4E     		ldr	r6, .L20
  73 0006 D6F8D050 		ldr	r5, [r6, #208]
  74              	.LVL3:
  75              		.loc 1 172 0
  76 000a AF89     		ldrh	r7, [r5, #12]
  77              		.loc 1 173 0
  78 000c 2C88     		ldrh	r4, [r5, #0]
  79              		.loc 1 174 0
  80 000e A888     		ldrh	r0, [r5, #4]
  81              		.loc 1 173 0
  82 0010 A4B2     		uxth	r4, r4
  83              		.loc 1 177 0
  84 0012 2207     		lsls	r2, r4, #28
  85              		.loc 1 172 0
  86 0014 BFB2     		uxth	r7, r7
  87              	.LVL4:
  88              		.loc 1 174 0
  89 0016 1FFA80F8 		uxth	r8, r0
  90              	.LVL5:
  91              		.loc 1 177 0
  92 001a 1ED0     		beq	.L3
  93              	.LVL6:
  94              	.LBB49:
  95              	.LBB50:
  96              		.loc 1 153 0
  97 001c 14F0080C 		ands	ip, r4, #8
  98 0020 18BF     		it	ne
  99 0022 4FF0800C 		movne	ip, #128
 100              	.LVL7:
 101              		.loc 1 154 0
 102 0026 E307     		lsls	r3, r4, #31
 103              		.loc 1 155 0
 104 0028 48BF     		it	mi
 105 002a 4CF0200C 		orrmi	ip, ip, #32
 106              	.LVL8:
 107              		.loc 1 156 0
 108 002e A007     		lsls	r0, r4, #30
 109              		.loc 1 157 0
 110 0030 48BF     		it	mi
 111 0032 4CF0400C 		orrmi	ip, ip, #64
 112              	.LVL9:
ARM GAS  /tmp/ccaK2hqG.s 			page 3


 113              		.loc 1 158 0
 114 0036 6107     		lsls	r1, r4, #29
 115              		.loc 1 159 0
 116 0038 48BF     		it	mi
 117 003a 4CF4807C 		orrmi	ip, ip, #256
 118              	.LVL10:
 119              	.LBB51:
 120              		.loc 1 160 0
 121 003e 2023     		movs	r3, #32
 122              	.LVL11:
 123              	@ 160 "./os/hal/platforms/STM32/serial_lld.c" 1
 124 0040 83F31188 		msr     BASEPRI, r3
 125              	@ 0 "" 2
 126              	.LVL12:
 127              		.thumb
 128              	.LBE51:
 129              		.loc 1 161 0
 130 0044 B368     		ldr	r3, [r6, #8]
 131              	.LVL13:
 132 0046 3C48     		ldr	r0, .L20+4
 133 0048 4CEA0302 		orr	r2, ip, r3
 134 004c 0021     		movs	r1, #0
 135 004e B260     		str	r2, [r6, #8]
 136 0050 FFF7FEFF 		bl	chEvtBroadcastFlagsI
 137              	.LVL14:
 138              	.LBB52:
 139              		.loc 1 162 0
 140 0054 0023     		movs	r3, #0
 141              	.LVL15:
 142              	@ 162 "./os/hal/platforms/STM32/serial_lld.c" 1
 143 0056 83F31188 		msr     BASEPRI, r3
 144              	@ 0 "" 2
 145              	.LVL16:
 146              		.thumb
 147              	.L3:
 148              	.LBE52:
 149              	.LBE50:
 150              	.LBE49:
 151              		.loc 1 180 0
 152 005a E305     		lsls	r3, r4, #23
 153              	.LVL17:
 154 005c 30D4     		bmi	.L16
 155              	.LVL18:
 156              	.L8:
 157              		.loc 1 187 0
 158 005e A006     		lsls	r0, r4, #26
 159 0060 22D4     		bmi	.L17
 160              	.LVL19:
 161              	.L9:
 162              		.loc 1 193 0
 163 0062 3906     		lsls	r1, r7, #24
 164 0064 01D5     		bpl	.L10
 165 0066 2206     		lsls	r2, r4, #24
 166 0068 40D4     		bmi	.L18
 167              	.LVL20:
 168              	.L10:
 169              		.loc 1 206 0
ARM GAS  /tmp/ccaK2hqG.s 			page 4


 170 006a 6306     		lsls	r3, r4, #25
 171              	.LVL21:
 172 006c 18D5     		bpl	.L13
 173              	.LBB53:
 174              		.loc 1 207 0
 175 006e 2023     		movs	r3, #32
 176              	.LVL22:
 177              	@ 207 "./os/hal/platforms/STM32/serial_lld.c" 1
 178 0070 83F31188 		msr     BASEPRI, r3
 179              	@ 0 "" 2
 180              	.LVL23:
 181              		.thumb
 182              	.LBE53:
 183              		.loc 1 208 0
 184 0074 B168     		ldr	r1, [r6, #8]
 185 0076 3048     		ldr	r0, .L20+4
 186 0078 41F01003 		orr	r3, r1, #16
 187              	.LVL24:
 188 007c 0021     		movs	r1, #0
 189 007e B360     		str	r3, [r6, #8]
 190 0080 FFF7FEFF 		bl	chEvtBroadcastFlagsI
 191              	.LBB54:
 192              		.loc 1 209 0
 193 0084 0023     		movs	r3, #0
 194              	.LVL25:
 195              	@ 209 "./os/hal/platforms/STM32/serial_lld.c" 1
 196 0086 83F31188 		msr     BASEPRI, r3
 197              	@ 0 "" 2
 198              	.LVL26:
 199              		.thumb
 200              	.LBE54:
 201              		.loc 1 210 0
 202 008a 4FF6BF72 		movw	r2, #65471
 203 008e 07EA0200 		and	r0, r7, r2
 204 0092 A881     		strh	r0, [r5, #12]	@ movhi
 205              		.loc 1 211 0
 206 0094 2988     		ldrh	r1, [r5, #0]
 207 0096 21F04003 		bic	r3, r1, #64
 208              	.LVL27:
 209 009a 1A04     		lsls	r2, r3, #16
 210 009c 100C     		lsrs	r0, r2, #16
 211 009e 2880     		strh	r0, [r5, #0]	@ movhi
 212              	.L13:
 213              	.LBE48:
 214              	.LBE47:
 215              		.loc 1 313 0
 216 00a0 BDE8F041 		pop	{r4, r5, r6, r7, r8, lr}
 217              		.loc 1 312 0
 218 00a4 FFF7FEBF 		b	_port_irq_epilogue
 219              	.LVL28:
 220              	.L17:
 221              	.LBB63:
 222              	.LBB62:
 223              	.LBB55:
 224              		.loc 1 188 0
 225 00a8 2023     		movs	r3, #32
 226              	.LVL29:
ARM GAS  /tmp/ccaK2hqG.s 			page 5


 227              	@ 188 "./os/hal/platforms/STM32/serial_lld.c" 1
 228 00aa 83F31188 		msr     BASEPRI, r3
 229              	@ 0 "" 2
 230              	.LVL30:
 231              		.thumb
 232              	.LBE55:
 233              		.loc 1 189 0
 234 00ae 2148     		ldr	r0, .L20
 235 00b0 5FFA88F1 		uxtb	r1, r8
 236 00b4 FFF7FEFF 		bl	sdIncomingDataI
 237              	.LVL31:
 238              	.LBB56:
 239              		.loc 1 190 0
 240 00b8 0023     		movs	r3, #0
 241              	@ 190 "./os/hal/platforms/STM32/serial_lld.c" 1
 242 00ba 83F31188 		msr     BASEPRI, r3
 243              	@ 0 "" 2
 244              	.LVL32:
 245              		.thumb
 246 00be D0E7     		b	.L9
 247              	.LVL33:
 248              	.L16:
 249              	.LBE56:
 250              	.LBB57:
 251              		.loc 1 181 0
 252 00c0 2023     		movs	r3, #32
 253              	.LVL34:
 254              	@ 181 "./os/hal/platforms/STM32/serial_lld.c" 1
 255 00c2 83F31188 		msr     BASEPRI, r3
 256              	@ 0 "" 2
 257              	.LVL35:
 258              		.thumb
 259              	.LBE57:
 260              		.loc 1 182 0
 261 00c6 B168     		ldr	r1, [r6, #8]
 262 00c8 1B48     		ldr	r0, .L20+4
 263 00ca 41F40073 		orr	r3, r1, #512
 264              	.LVL36:
 265 00ce 0021     		movs	r1, #0
 266 00d0 B360     		str	r3, [r6, #8]
 267 00d2 FFF7FEFF 		bl	chEvtBroadcastFlagsI
 268              	.LBB58:
 269              		.loc 1 183 0
 270 00d6 0023     		movs	r3, #0
 271              	@ 183 "./os/hal/platforms/STM32/serial_lld.c" 1
 272 00d8 83F31188 		msr     BASEPRI, r3
 273              	@ 0 "" 2
 274              	.LVL37:
 275              		.thumb
 276              	.LBE58:
 277              		.loc 1 184 0
 278 00dc B5F800C0 		ldrh	ip, [r5, #0]
 279 00e0 2CF48072 		bic	r2, ip, #256
 280 00e4 1004     		lsls	r0, r2, #16
 281 00e6 010C     		lsrs	r1, r0, #16
 282 00e8 2980     		strh	r1, [r5, #0]	@ movhi
 283 00ea B8E7     		b	.L8
ARM GAS  /tmp/ccaK2hqG.s 			page 6


 284              	.LVL38:
 285              	.L18:
 286              	.LBB59:
 287              	.LBB60:
 288              		.loc 1 195 0
 289 00ec 2023     		movs	r3, #32
 290              	.LVL39:
 291              	@ 195 "./os/hal/platforms/STM32/serial_lld.c" 1
 292 00ee 83F31188 		msr     BASEPRI, r3
 293              	@ 0 "" 2
 294              	.LVL40:
 295              		.thumb
 296              	.LBE60:
 297              		.loc 1 196 0
 298 00f2 DFF84080 		ldr	r8, .L20
 299              	.LVL41:
 300 00f6 08F13000 		add	r0, r8, #48
 301 00fa FFF7FEFF 		bl	chOQGetI
 302              	.LVL42:
 303              		.loc 1 197 0
 304 00fe 0028     		cmp	r0, #0
 305 0100 07DB     		blt	.L19
 306              		.loc 1 202 0
 307 0102 1FFA80FE 		uxth	lr, r0
 308 0106 A5F804E0 		strh	lr, [r5, #4]	@ movhi
 309              	.LVL43:
 310              	.L12:
 311              	.LBB61:
 312              		.loc 1 203 0
 313 010a 0023     		movs	r3, #0
 314              	@ 203 "./os/hal/platforms/STM32/serial_lld.c" 1
 315 010c 83F31188 		msr     BASEPRI, r3
 316              	@ 0 "" 2
 317              	.LVL44:
 318              		.thumb
 319 0110 ABE7     		b	.L10
 320              	.LVL45:
 321              	.L19:
 322              	.LBE61:
 323              		.loc 1 198 0
 324 0112 D8F80810 		ldr	r1, [r8, #8]
 325 0116 41F00803 		orr	r3, r1, #8
 326 011a 08F10400 		add	r0, r8, #4
 327              	.LVL46:
 328 011e 0021     		movs	r1, #0
 329 0120 C8F80830 		str	r3, [r8, #8]
 330 0124 FFF7FEFF 		bl	chEvtBroadcastFlagsI
 331              		.loc 1 199 0
 332 0128 27F0C002 		bic	r2, r7, #192
 333 012c 42F04000 		orr	r0, r2, #64
 334 0130 A881     		strh	r0, [r5, #12]	@ movhi
 335 0132 EAE7     		b	.L12
 336              	.L21:
 337              		.align	2
 338              	.L20:
 339 0134 00000000 		.word	.LANCHOR0
 340 0138 04000000 		.word	.LANCHOR0+4
ARM GAS  /tmp/ccaK2hqG.s 			page 7


 341              	.LBE59:
 342              	.LBE62:
 343              	.LBE63:
 344              		.cfi_endproc
 345              	.LFE122:
 346              		.size	VectorDC, .-VectorDC
 347 013c AFF30080 		.section	.text.sd_lld_init,"ax",%progbits
 348              		.align	2
 349              		.p2align 4,,15
 350              		.global	sd_lld_init
 351              		.thumb
 352              		.thumb_func
 353              		.type	sd_lld_init, %function
 354              	sd_lld_init:
 355              	.LFB123:
 356              		.loc 1 373 0
 357              		.cfi_startproc
 358              		@ args = 0, pretend = 0, frame = 0
 359              		@ frame_needed = 0, uses_anonymous_args = 0
 360 0000 10B5     		push	{r4, lr}
 361              	.LCFI1:
 362              		.cfi_def_cfa_offset 8
 363              		.cfi_offset 14, -4
 364              		.cfi_offset 4, -8
 365              		.loc 1 386 0
 366 0002 40F20004 		movw	r4, #:lower16:.LANCHOR0
 367 0006 C0F20004 		movt	r4, #:upper16:.LANCHOR0
 368 000a 40F20002 		movw	r2, #:lower16:notify3
 369 000e C0F20002 		movt	r2, #:upper16:notify3
 370 0012 2046     		mov	r0, r4
 371 0014 0021     		movs	r1, #0
 372 0016 FFF7FEFF 		bl	sdObjectInit
 373              		.loc 1 387 0
 374 001a 4FF49043 		mov	r3, #18432
 375 001e C4F20003 		movt	r3, 16384
 376 0022 C4F8D030 		str	r3, [r4, #208]
 377              		.loc 1 404 0
 378 0026 10BD     		pop	{r4, pc}
 379              		.cfi_endproc
 380              	.LFE123:
 381              		.size	sd_lld_init, .-sd_lld_init
 382 0028 AFF30080 		.section	.text.sd_lld_start,"ax",%progbits
 382      AFF30080 
 383              		.align	2
 384              		.p2align 4,,15
 385              		.global	sd_lld_start
 386              		.thumb
 387              		.thumb_func
 388              		.type	sd_lld_start, %function
 389              	sd_lld_start:
 390              	.LFB124:
 391              		.loc 1 416 0
 392              		.cfi_startproc
 393              		@ args = 0, pretend = 0, frame = 0
 394              		@ frame_needed = 0, uses_anonymous_args = 0
 395              	.LVL47:
 396 0000 38B5     		push	{r3, r4, r5, lr}
ARM GAS  /tmp/ccaK2hqG.s 			page 8


 397              	.LCFI2:
 398              		.cfi_def_cfa_offset 16
 399              		.cfi_offset 14, -4
 400              		.cfi_offset 5, -8
 401              		.cfi_offset 4, -12
 402              		.cfi_offset 3, -16
 403              		.loc 1 421 0
 404 0002 037B     		ldrb	r3, [r0, #12]	@ zero_extendqisi2
 405              		.loc 1 419 0
 406 0004 294C     		ldr	r4, .L31
 407 0006 0029     		cmp	r1, #0
 408 0008 18BF     		it	ne
 409 000a 0C46     		movne	r4, r1
 410              		.loc 1 421 0
 411 000c 012B     		cmp	r3, #1
 412              		.loc 1 416 0
 413 000e 0546     		mov	r5, r0
 414              		.loc 1 421 0
 415 0010 32D0     		beq	.L30
 416              	.LVL48:
 417              	.L25:
 418              	.LBB64:
 419              	.LBB65:
 420              		.loc 1 106 0
 421 0012 4FF48050 		mov	r0, #4096
 422              		.loc 1 100 0
 423 0016 D5F8D030 		ldr	r3, [r5, #208]
 424              	.LVL49:
 425              		.loc 1 110 0
 426 001a 2168     		ldr	r1, [r4, #0]
 427              		.loc 1 106 0
 428 001c C4F20100 		movt	r0, 16385
 429 0020 8342     		cmp	r3, r0
 430 0022 39D0     		beq	.L26
 431 0024 4FF4A05C 		mov	ip, #5120
 432 0028 C4F2010C 		movt	ip, 16385
 433 002c 6345     		cmp	r3, ip
 434 002e 33D0     		beq	.L26
 435              		.loc 1 112 0
 436 0030 4DF68060 		movw	r0, #56960
 437 0034 C0F28020 		movt	r0, 640
 438 0038 B0FBF1F2 		udiv	r2, r0, r1
 439 003c 1FFA82FC 		uxth	ip, r2
 440 0040 A3F808C0 		strh	ip, [r3, #8]	@ movhi
 441              	.L28:
 442              		.loc 1 119 0
 443 0044 A088     		ldrh	r0, [r4, #4]
 444              		.loc 1 117 0
 445 0046 B4F806C0 		ldrh	ip, [r4, #6]
 446              		.loc 1 118 0
 447 004a 2189     		ldrh	r1, [r4, #8]
 448              		.loc 1 119 0
 449 004c 40F40452 		orr	r2, r0, #8448
 450              		.loc 1 117 0
 451 0050 4CF04000 		orr	r0, ip, #64
 452              		.loc 1 118 0
 453 0054 41F0010C 		orr	ip, r1, #1
ARM GAS  /tmp/ccaK2hqG.s 			page 9


 454 0058 1FFA8CF1 		uxth	r1, ip
 455              		.loc 1 119 0
 456 005c 42F02C02 		orr	r2, r2, #44
 457              		.loc 1 117 0
 458 0060 80B2     		uxth	r0, r0
 459 0062 1882     		strh	r0, [r3, #16]	@ movhi
 460              		.loc 1 119 0
 461 0064 1FFA82FC 		uxth	ip, r2
 462              		.loc 1 118 0
 463 0068 9982     		strh	r1, [r3, #20]	@ movhi
 464              		.loc 1 122 0
 465 006a 0021     		movs	r1, #0
 466              		.loc 1 119 0
 467 006c A3F80CC0 		strh	ip, [r3, #12]	@ movhi
 468              		.loc 1 122 0
 469 0070 1980     		strh	r1, [r3, #0]	@ movhi
 470              		.loc 1 123 0
 471 0072 1A88     		ldrh	r2, [r3, #0]
 472              		.loc 1 124 0
 473 0074 9B88     		ldrh	r3, [r3, #4]
 474              	.LBE65:
 475              	.LBE64:
 476              		.loc 1 466 0
 477 0076 38BD     		pop	{r3, r4, r5, pc}
 478              	.LVL50:
 479              	.L30:
 480              		.loc 1 437 0
 481 0078 0D48     		ldr	r0, .L31+4
 482 007a 8542     		cmp	r5, r0
 483 007c C9D1     		bne	.L25
 484              		.loc 1 438 0
 485 007e 4FF46051 		mov	r1, #14336
 486              	.LVL51:
 487 0082 C4F20201 		movt	r1, 16386
 488              		.loc 1 439 0
 489 0086 2720     		movs	r0, #39
 490              		.loc 1 438 0
 491 0088 0B6C     		ldr	r3, [r1, #64]
 492 008a 43F48022 		orr	r2, r3, #262144
 493 008e 0A64     		str	r2, [r1, #64]
 494              		.loc 1 439 0
 495 0090 C021     		movs	r1, #192
 496 0092 FFF7FEFF 		bl	nvicEnableVector
 497 0096 BCE7     		b	.L25
 498              	.LVL52:
 499              	.L26:
 500              	.LBB67:
 501              	.LBB66:
 502              		.loc 1 110 0
 503 0098 4FF43D40 		mov	r0, #48384
 504 009c C0F20150 		movt	r0, 1281
 505 00a0 B0FBF1F1 		udiv	r1, r0, r1
 506 00a4 8AB2     		uxth	r2, r1
 507 00a6 1A81     		strh	r2, [r3, #8]	@ movhi
 508 00a8 CCE7     		b	.L28
 509              	.L32:
 510 00aa 00BF     		.align	2
ARM GAS  /tmp/ccaK2hqG.s 			page 10


 511              	.L31:
 512 00ac 00000000 		.word	.LANCHOR1
 513 00b0 00000000 		.word	.LANCHOR0
 514              	.LBE66:
 515              	.LBE67:
 516              		.cfi_endproc
 517              	.LFE124:
 518              		.size	sd_lld_start, .-sd_lld_start
 519 00b4 AFF30080 		.section	.text.sd_lld_stop,"ax",%progbits
 519      AFF30080 
 519      AFF30080 
 520              		.align	2
 521              		.p2align 4,,15
 522              		.global	sd_lld_stop
 523              		.thumb
 524              		.thumb_func
 525              		.type	sd_lld_stop, %function
 526              	sd_lld_stop:
 527              	.LFB125:
 528              		.loc 1 477 0
 529              		.cfi_startproc
 530              		@ args = 0, pretend = 0, frame = 0
 531              		@ frame_needed = 0, uses_anonymous_args = 0
 532              		@ link register save eliminated.
 533              	.LVL53:
 534              		.loc 1 479 0
 535 0000 037B     		ldrb	r3, [r0, #12]	@ zero_extendqisi2
 536 0002 022B     		cmp	r3, #2
 537 0004 00D0     		beq	.L35
 538              	.L33:
 539 0006 7047     		bx	lr
 540              	.LVL54:
 541              	.L35:
 542              		.loc 1 496 0
 543 0008 0A49     		ldr	r1, .L36
 544              	.LVL55:
 545              		.loc 1 480 0
 546 000a D0F8D030 		ldr	r3, [r0, #208]
 547              	.LVL56:
 548              	.LBB68:
 549              	.LBB69:
 550              		.loc 1 135 0
 551 000e 0022     		movs	r2, #0
 552              	.LBE69:
 553              	.LBE68:
 554              		.loc 1 496 0
 555 0010 8842     		cmp	r0, r1
 556              	.LBB71:
 557              	.LBB70:
 558              		.loc 1 135 0
 559 0012 9A81     		strh	r2, [r3, #12]	@ movhi
 560              		.loc 1 136 0
 561 0014 1A82     		strh	r2, [r3, #16]	@ movhi
 562              		.loc 1 137 0
 563 0016 9A82     		strh	r2, [r3, #20]	@ movhi
 564              	.LBE70:
 565              	.LBE71:
ARM GAS  /tmp/ccaK2hqG.s 			page 11


 566              		.loc 1 496 0
 567 0018 F5D1     		bne	.L33
 568              		.loc 1 497 0
 569 001a 4FF4605C 		mov	ip, #14336
 570 001e C4F2020C 		movt	ip, 16386
 571 0022 DCF84010 		ldr	r1, [ip, #64]
 572 0026 21F48020 		bic	r0, r1, #262144
 573              	.LVL57:
 574 002a CCF84000 		str	r0, [ip, #64]
 575              		.loc 1 498 0
 576 002e 2720     		movs	r0, #39
 577              		.loc 1 524 0
 578              		.loc 1 498 0
 579 0030 FFF7FEBF 		b	nvicDisableVector
 580              	.LVL58:
 581              	.L37:
 582              		.align	2
 583              	.L36:
 584 0034 00000000 		.word	.LANCHOR0
 585              		.cfi_endproc
 586              	.LFE125:
 587              		.size	sd_lld_stop, .-sd_lld_stop
 588              		.global	SD3
 589 0038 AFF30080 		.section	.rodata.default_config,"a",%progbits
 589      AFF30080 
 590              		.align	2
 591              		.set	.LANCHOR1,. + 0
 592              		.type	default_config, %object
 593              		.size	default_config, 12
 594              	default_config:
 595 0000 004B0000 		.word	19200
 596 0004 0000     		.short	0
 597 0006 0040     		.short	16384
 598 0008 0000     		.short	0
 599 000a 0000     		.space	2
 600              		.section	.bss.SD3,"aw",%nobits
 601              		.align	2
 602              		.set	.LANCHOR0,. + 0
 603              		.type	SD3, %object
 604              		.size	SD3, 212
 605              	SD3:
 606 0000 00000000 		.space	212
 606      00000000 
 606      00000000 
 606      00000000 
 606      00000000 
 607              		.text
 608              	.Letext0:
 609              		.file 2 "/usr/bin/../lib/gcc/arm-none-eabi/4.6.2/include/stddef.h"
 610              		.file 3 "/usr/bin/../lib/gcc/arm-none-eabi/4.6.2/../../../../arm-none-eabi/include/stdint.h"
 611              		.file 4 "./os/ports/GCC/ARMCMx/chtypes.h"
 612              		.file 5 "./os/kernel/include/chlists.h"
 613              		.file 6 "./os/kernel/include/chthreads.h"
 614              		.file 7 "./os/ports/GCC/ARMCMx/chcore_v7m.h"
 615              		.file 8 "./os/kernel/include/chmtx.h"
 616              		.file 9 "./os/kernel/include/chevents.h"
 617              		.file 10 "./os/kernel/include/chqueues.h"
ARM GAS  /tmp/ccaK2hqG.s 			page 12


 618              		.file 11 "./os/kernel/include/chioch.h"
 619              		.file 12 "./os/hal/platforms/STM32F4xx/stm32f4xx.h"
 620              		.file 13 "./os/hal/include/serial.h"
 621              		.file 14 "./os/hal/platforms/STM32/serial_lld.h"
 622              		.file 15 "./os/ports/common/ARMCMx/CMSIS/include/core_cm4.h"
 623              		.section	.debug_info,"",%progbits
 624              	.Ldebug_info0:
 625 0000 02110000 		.4byte	0x1102
 626 0004 0200     		.2byte	0x2
 627 0006 00000000 		.4byte	.Ldebug_abbrev0
 628 000a 04       		.byte	0x4
 629 000b 01       		.uleb128 0x1
 630 000c 69000000 		.4byte	.LASF227
 631 0010 01       		.byte	0x1
 632 0011 9F080000 		.4byte	.LASF228
 633 0015 31010000 		.4byte	.LASF229
 634 0019 00000000 		.4byte	0
 635 001d 00000000 		.4byte	0
 636 0021 78000000 		.4byte	.Ldebug_ranges0+0x78
 637 0025 00000000 		.4byte	.Ldebug_line0
 638 0029 02       		.uleb128 0x2
 639 002a 04       		.byte	0x4
 640 002b 05       		.byte	0x5
 641 002c 696E7400 		.ascii	"int\000"
 642 0030 03       		.uleb128 0x3
 643 0031 00000000 		.4byte	.LASF2
 644 0035 02       		.byte	0x2
 645 0036 D4       		.byte	0xd4
 646 0037 3B000000 		.4byte	0x3b
 647 003b 04       		.uleb128 0x4
 648 003c 04       		.byte	0x4
 649 003d 07       		.byte	0x7
 650 003e 78060000 		.4byte	.LASF0
 651 0042 04       		.uleb128 0x4
 652 0043 01       		.byte	0x1
 653 0044 06       		.byte	0x6
 654 0045 9E020000 		.4byte	.LASF1
 655 0049 03       		.uleb128 0x3
 656 004a B1020000 		.4byte	.LASF3
 657 004e 03       		.byte	0x3
 658 004f 2A       		.byte	0x2a
 659 0050 54000000 		.4byte	0x54
 660 0054 04       		.uleb128 0x4
 661 0055 01       		.byte	0x1
 662 0056 08       		.byte	0x8
 663 0057 F3020000 		.4byte	.LASF4
 664 005b 04       		.uleb128 0x4
 665 005c 02       		.byte	0x2
 666 005d 05       		.byte	0x5
 667 005e 01090000 		.4byte	.LASF5
 668 0062 03       		.uleb128 0x3
 669 0063 E6070000 		.4byte	.LASF6
 670 0067 03       		.byte	0x3
 671 0068 36       		.byte	0x36
 672 0069 6D000000 		.4byte	0x6d
 673 006d 04       		.uleb128 0x4
 674 006e 02       		.byte	0x2
ARM GAS  /tmp/ccaK2hqG.s 			page 13


 675 006f 07       		.byte	0x7
 676 0070 F6090000 		.4byte	.LASF7
 677 0074 03       		.uleb128 0x3
 678 0075 48000000 		.4byte	.LASF8
 679 0079 03       		.byte	0x3
 680 007a 4F       		.byte	0x4f
 681 007b 7F000000 		.4byte	0x7f
 682 007f 04       		.uleb128 0x4
 683 0080 04       		.byte	0x4
 684 0081 05       		.byte	0x5
 685 0082 E5010000 		.4byte	.LASF9
 686 0086 03       		.uleb128 0x3
 687 0087 9C090000 		.4byte	.LASF10
 688 008b 03       		.byte	0x3
 689 008c 50       		.byte	0x50
 690 008d 91000000 		.4byte	0x91
 691 0091 04       		.uleb128 0x4
 692 0092 04       		.byte	0x4
 693 0093 07       		.byte	0x7
 694 0094 D6040000 		.4byte	.LASF11
 695 0098 04       		.uleb128 0x4
 696 0099 08       		.byte	0x8
 697 009a 05       		.byte	0x5
 698 009b BB050000 		.4byte	.LASF12
 699 009f 04       		.uleb128 0x4
 700 00a0 08       		.byte	0x8
 701 00a1 07       		.byte	0x7
 702 00a2 C7070000 		.4byte	.LASF13
 703 00a6 03       		.uleb128 0x3
 704 00a7 C0090000 		.4byte	.LASF14
 705 00ab 03       		.byte	0x3
 706 00ac A6       		.byte	0xa6
 707 00ad 3B000000 		.4byte	0x3b
 708 00b1 03       		.uleb128 0x3
 709 00b2 2D090000 		.4byte	.LASF15
 710 00b6 04       		.byte	0x4
 711 00b7 2E       		.byte	0x2e
 712 00b8 74000000 		.4byte	0x74
 713 00bc 03       		.uleb128 0x3
 714 00bd 61080000 		.4byte	.LASF16
 715 00c1 04       		.byte	0x4
 716 00c2 2F       		.byte	0x2f
 717 00c3 49000000 		.4byte	0x49
 718 00c7 03       		.uleb128 0x3
 719 00c8 25020000 		.4byte	.LASF17
 720 00cc 04       		.byte	0x4
 721 00cd 30       		.byte	0x30
 722 00ce 49000000 		.4byte	0x49
 723 00d2 03       		.uleb128 0x3
 724 00d3 64090000 		.4byte	.LASF18
 725 00d7 04       		.byte	0x4
 726 00d8 31       		.byte	0x31
 727 00d9 49000000 		.4byte	0x49
 728 00dd 03       		.uleb128 0x3
 729 00de 35000000 		.4byte	.LASF19
 730 00e2 04       		.byte	0x4
 731 00e3 32       		.byte	0x32
ARM GAS  /tmp/ccaK2hqG.s 			page 14


 732 00e4 86000000 		.4byte	0x86
 733 00e8 03       		.uleb128 0x3
 734 00e9 EF070000 		.4byte	.LASF20
 735 00ed 04       		.byte	0x4
 736 00ee 33       		.byte	0x33
 737 00ef 74000000 		.4byte	0x74
 738 00f3 03       		.uleb128 0x3
 739 00f4 B9020000 		.4byte	.LASF21
 740 00f8 04       		.byte	0x4
 741 00f9 35       		.byte	0x35
 742 00fa 86000000 		.4byte	0x86
 743 00fe 03       		.uleb128 0x3
 744 00ff 1A000000 		.4byte	.LASF22
 745 0103 04       		.byte	0x4
 746 0104 36       		.byte	0x36
 747 0105 86000000 		.4byte	0x86
 748 0109 03       		.uleb128 0x3
 749 010a 34090000 		.4byte	.LASF23
 750 010e 05       		.byte	0x5
 751 010f 2A       		.byte	0x2a
 752 0110 14010000 		.4byte	0x114
 753 0114 05       		.uleb128 0x5
 754 0115 34090000 		.4byte	.LASF23
 755 0119 48       		.byte	0x48
 756 011a 06       		.byte	0x6
 757 011b 5E       		.byte	0x5e
 758 011c 2B020000 		.4byte	0x22b
 759 0120 06       		.uleb128 0x6
 760 0121 EE010000 		.4byte	.LASF24
 761 0125 06       		.byte	0x6
 762 0126 5F       		.byte	0x5f
 763 0127 50020000 		.4byte	0x250
 764 012b 02       		.byte	0x2
 765 012c 23       		.byte	0x23
 766 012d 00       		.uleb128 0
 767 012e 06       		.uleb128 0x6
 768 012f FD010000 		.4byte	.LASF25
 769 0133 06       		.byte	0x6
 770 0134 61       		.byte	0x61
 771 0135 50020000 		.4byte	0x250
 772 0139 02       		.byte	0x2
 773 013a 23       		.byte	0x23
 774 013b 04       		.uleb128 0x4
 775 013c 06       		.uleb128 0x6
 776 013d 89030000 		.4byte	.LASF26
 777 0141 06       		.byte	0x6
 778 0142 63       		.byte	0x63
 779 0143 DD000000 		.4byte	0xdd
 780 0147 02       		.byte	0x2
 781 0148 23       		.byte	0x23
 782 0149 08       		.uleb128 0x8
 783 014a 06       		.uleb128 0x6
 784 014b 2F000000 		.4byte	.LASF27
 785 014f 06       		.byte	0x6
 786 0150 64       		.byte	0x64
 787 0151 1D030000 		.4byte	0x31d
 788 0155 02       		.byte	0x2
ARM GAS  /tmp/ccaK2hqG.s 			page 15


 789 0156 23       		.byte	0x23
 790 0157 0C       		.uleb128 0xc
 791 0158 06       		.uleb128 0x6
 792 0159 DD010000 		.4byte	.LASF28
 793 015d 06       		.byte	0x6
 794 015e 66       		.byte	0x66
 795 015f 50020000 		.4byte	0x250
 796 0163 02       		.byte	0x2
 797 0164 23       		.byte	0x23
 798 0165 10       		.uleb128 0x10
 799 0166 06       		.uleb128 0x6
 800 0167 DE070000 		.4byte	.LASF29
 801 016b 06       		.byte	0x6
 802 016c 67       		.byte	0x67
 803 016d 50020000 		.4byte	0x250
 804 0171 02       		.byte	0x2
 805 0172 23       		.byte	0x23
 806 0173 14       		.uleb128 0x14
 807 0174 06       		.uleb128 0x6
 808 0175 8C0A0000 		.4byte	.LASF30
 809 0179 06       		.byte	0x6
 810 017a 6E       		.byte	0x6e
 811 017b 35040000 		.4byte	0x435
 812 017f 02       		.byte	0x2
 813 0180 23       		.byte	0x23
 814 0181 18       		.uleb128 0x18
 815 0182 06       		.uleb128 0x6
 816 0183 C60A0000 		.4byte	.LASF31
 817 0187 06       		.byte	0x6
 818 0188 79       		.byte	0x79
 819 0189 C7000000 		.4byte	0xc7
 820 018d 02       		.byte	0x2
 821 018e 23       		.byte	0x23
 822 018f 1C       		.uleb128 0x1c
 823 0190 06       		.uleb128 0x6
 824 0191 6B060000 		.4byte	.LASF32
 825 0195 06       		.byte	0x6
 826 0196 7D       		.byte	0x7d
 827 0197 BC000000 		.4byte	0xbc
 828 019b 02       		.byte	0x2
 829 019c 23       		.byte	0x23
 830 019d 1D       		.uleb128 0x1d
 831 019e 06       		.uleb128 0x6
 832 019f A8060000 		.4byte	.LASF33
 833 01a3 06       		.byte	0x6
 834 01a4 82       		.byte	0x82
 835 01a5 D2000000 		.4byte	0xd2
 836 01a9 02       		.byte	0x2
 837 01aa 23       		.byte	0x23
 838 01ab 1E       		.uleb128 0x1e
 839 01ac 06       		.uleb128 0x6
 840 01ad 09070000 		.4byte	.LASF34
 841 01b1 06       		.byte	0x6
 842 01b2 89       		.byte	0x89
 843 01b3 45030000 		.4byte	0x345
 844 01b7 02       		.byte	0x2
 845 01b8 23       		.byte	0x23
ARM GAS  /tmp/ccaK2hqG.s 			page 16


 846 01b9 20       		.uleb128 0x20
 847 01ba 07       		.uleb128 0x7
 848 01bb 705F7500 		.ascii	"p_u\000"
 849 01bf 06       		.byte	0x6
 850 01c0 AE       		.byte	0xae
 851 01c1 00040000 		.4byte	0x400
 852 01c5 02       		.byte	0x2
 853 01c6 23       		.byte	0x23
 854 01c7 24       		.uleb128 0x24
 855 01c8 06       		.uleb128 0x6
 856 01c9 38060000 		.4byte	.LASF35
 857 01cd 06       		.byte	0x6
 858 01ce B3       		.byte	0xb3
 859 01cf 78020000 		.4byte	0x278
 860 01d3 02       		.byte	0x2
 861 01d4 23       		.byte	0x23
 862 01d5 28       		.uleb128 0x28
 863 01d6 06       		.uleb128 0x6
 864 01d7 3D000000 		.4byte	.LASF36
 865 01db 06       		.byte	0x6
 866 01dc B9       		.byte	0xb9
 867 01dd 56020000 		.4byte	0x256
 868 01e1 02       		.byte	0x2
 869 01e2 23       		.byte	0x23
 870 01e3 2C       		.uleb128 0x2c
 871 01e4 06       		.uleb128 0x6
 872 01e5 B40A0000 		.4byte	.LASF37
 873 01e9 06       		.byte	0x6
 874 01ea BD       		.byte	0xbd
 875 01eb E8000000 		.4byte	0xe8
 876 01ef 02       		.byte	0x2
 877 01f0 23       		.byte	0x23
 878 01f1 34       		.uleb128 0x34
 879 01f2 06       		.uleb128 0x6
 880 01f3 17040000 		.4byte	.LASF38
 881 01f7 06       		.byte	0x6
 882 01f8 C3       		.byte	0xc3
 883 01f9 F3000000 		.4byte	0xf3
 884 01fd 02       		.byte	0x2
 885 01fe 23       		.byte	0x23
 886 01ff 38       		.uleb128 0x38
 887 0200 06       		.uleb128 0x6
 888 0201 2E020000 		.4byte	.LASF39
 889 0205 06       		.byte	0x6
 890 0206 CA       		.byte	0xca
 891 0207 47040000 		.4byte	0x447
 892 020b 02       		.byte	0x2
 893 020c 23       		.byte	0x23
 894 020d 3C       		.uleb128 0x3c
 895 020e 06       		.uleb128 0x6
 896 020f 39070000 		.4byte	.LASF40
 897 0213 06       		.byte	0x6
 898 0214 CE       		.byte	0xce
 899 0215 DD000000 		.4byte	0xdd
 900 0219 02       		.byte	0x2
 901 021a 23       		.byte	0x23
 902 021b 40       		.uleb128 0x40
ARM GAS  /tmp/ccaK2hqG.s 			page 17


 903 021c 06       		.uleb128 0x6
 904 021d 93060000 		.4byte	.LASF41
 905 0221 06       		.byte	0x6
 906 0222 D4       		.byte	0xd4
 907 0223 8E020000 		.4byte	0x28e
 908 0227 02       		.byte	0x2
 909 0228 23       		.byte	0x23
 910 0229 44       		.uleb128 0x44
 911 022a 00       		.byte	0
 912 022b 08       		.uleb128 0x8
 913 022c 08       		.byte	0x8
 914 022d 05       		.byte	0x5
 915 022e 61       		.byte	0x61
 916 022f 50020000 		.4byte	0x250
 917 0233 06       		.uleb128 0x6
 918 0234 EE010000 		.4byte	.LASF24
 919 0238 05       		.byte	0x5
 920 0239 62       		.byte	0x62
 921 023a 50020000 		.4byte	0x250
 922 023e 02       		.byte	0x2
 923 023f 23       		.byte	0x23
 924 0240 00       		.uleb128 0
 925 0241 06       		.uleb128 0x6
 926 0242 FD010000 		.4byte	.LASF25
 927 0246 05       		.byte	0x5
 928 0247 64       		.byte	0x64
 929 0248 50020000 		.4byte	0x250
 930 024c 02       		.byte	0x2
 931 024d 23       		.byte	0x23
 932 024e 04       		.uleb128 0x4
 933 024f 00       		.byte	0
 934 0250 09       		.uleb128 0x9
 935 0251 04       		.byte	0x4
 936 0252 09010000 		.4byte	0x109
 937 0256 03       		.uleb128 0x3
 938 0257 B3090000 		.4byte	.LASF42
 939 025b 05       		.byte	0x5
 940 025c 66       		.byte	0x66
 941 025d 2B020000 		.4byte	0x22b
 942 0261 08       		.uleb128 0x8
 943 0262 04       		.byte	0x4
 944 0263 05       		.byte	0x5
 945 0264 6B       		.byte	0x6b
 946 0265 78020000 		.4byte	0x278
 947 0269 06       		.uleb128 0x6
 948 026a EE010000 		.4byte	.LASF24
 949 026e 05       		.byte	0x5
 950 026f 6D       		.byte	0x6d
 951 0270 50020000 		.4byte	0x250
 952 0274 02       		.byte	0x2
 953 0275 23       		.byte	0x23
 954 0276 00       		.uleb128 0
 955 0277 00       		.byte	0
 956 0278 03       		.uleb128 0x3
 957 0279 B8060000 		.4byte	.LASF43
 958 027d 05       		.byte	0x5
 959 027e 70       		.byte	0x70
ARM GAS  /tmp/ccaK2hqG.s 			page 18


 960 027f 61020000 		.4byte	0x261
 961 0283 03       		.uleb128 0x3
 962 0284 64020000 		.4byte	.LASF44
 963 0288 07       		.byte	0x7
 964 0289 D7       		.byte	0xd7
 965 028a 8E020000 		.4byte	0x28e
 966 028e 0A       		.uleb128 0xa
 967 028f 04       		.byte	0x4
 968 0290 05       		.uleb128 0x5
 969 0291 10040000 		.4byte	.LASF45
 970 0295 24       		.byte	0x24
 971 0296 07       		.byte	0x7
 972 0297 FE       		.byte	0xfe
 973 0298 1D030000 		.4byte	0x31d
 974 029c 0B       		.uleb128 0xb
 975 029d 723400   		.ascii	"r4\000"
 976 02a0 07       		.byte	0x7
 977 02a1 1101     		.2byte	0x111
 978 02a3 83020000 		.4byte	0x283
 979 02a7 02       		.byte	0x2
 980 02a8 23       		.byte	0x23
 981 02a9 00       		.uleb128 0
 982 02aa 0B       		.uleb128 0xb
 983 02ab 723500   		.ascii	"r5\000"
 984 02ae 07       		.byte	0x7
 985 02af 1201     		.2byte	0x112
 986 02b1 83020000 		.4byte	0x283
 987 02b5 02       		.byte	0x2
 988 02b6 23       		.byte	0x23
 989 02b7 04       		.uleb128 0x4
 990 02b8 0B       		.uleb128 0xb
 991 02b9 723600   		.ascii	"r6\000"
 992 02bc 07       		.byte	0x7
 993 02bd 1301     		.2byte	0x113
 994 02bf 83020000 		.4byte	0x283
 995 02c3 02       		.byte	0x2
 996 02c4 23       		.byte	0x23
 997 02c5 08       		.uleb128 0x8
 998 02c6 0B       		.uleb128 0xb
 999 02c7 723700   		.ascii	"r7\000"
 1000 02ca 07       		.byte	0x7
 1001 02cb 1401     		.2byte	0x114
 1002 02cd 83020000 		.4byte	0x283
 1003 02d1 02       		.byte	0x2
 1004 02d2 23       		.byte	0x23
 1005 02d3 0C       		.uleb128 0xc
 1006 02d4 0B       		.uleb128 0xb
 1007 02d5 723800   		.ascii	"r8\000"
 1008 02d8 07       		.byte	0x7
 1009 02d9 1501     		.2byte	0x115
 1010 02db 83020000 		.4byte	0x283
 1011 02df 02       		.byte	0x2
 1012 02e0 23       		.byte	0x23
 1013 02e1 10       		.uleb128 0x10
 1014 02e2 0B       		.uleb128 0xb
 1015 02e3 723900   		.ascii	"r9\000"
 1016 02e6 07       		.byte	0x7
ARM GAS  /tmp/ccaK2hqG.s 			page 19


 1017 02e7 1601     		.2byte	0x116
 1018 02e9 83020000 		.4byte	0x283
 1019 02ed 02       		.byte	0x2
 1020 02ee 23       		.byte	0x23
 1021 02ef 14       		.uleb128 0x14
 1022 02f0 0B       		.uleb128 0xb
 1023 02f1 72313000 		.ascii	"r10\000"
 1024 02f5 07       		.byte	0x7
 1025 02f6 1701     		.2byte	0x117
 1026 02f8 83020000 		.4byte	0x283
 1027 02fc 02       		.byte	0x2
 1028 02fd 23       		.byte	0x23
 1029 02fe 18       		.uleb128 0x18
 1030 02ff 0B       		.uleb128 0xb
 1031 0300 72313100 		.ascii	"r11\000"
 1032 0304 07       		.byte	0x7
 1033 0305 1801     		.2byte	0x118
 1034 0307 83020000 		.4byte	0x283
 1035 030b 02       		.byte	0x2
 1036 030c 23       		.byte	0x23
 1037 030d 1C       		.uleb128 0x1c
 1038 030e 0B       		.uleb128 0xb
 1039 030f 6C7200   		.ascii	"lr\000"
 1040 0312 07       		.byte	0x7
 1041 0313 1901     		.2byte	0x119
 1042 0315 83020000 		.4byte	0x283
 1043 0319 02       		.byte	0x2
 1044 031a 23       		.byte	0x23
 1045 031b 20       		.uleb128 0x20
 1046 031c 00       		.byte	0
 1047 031d 0C       		.uleb128 0xc
 1048 031e C5020000 		.4byte	.LASF46
 1049 0322 04       		.byte	0x4
 1050 0323 07       		.byte	0x7
 1051 0324 2301     		.2byte	0x123
 1052 0326 3A030000 		.4byte	0x33a
 1053 032a 0B       		.uleb128 0xb
 1054 032b 72313300 		.ascii	"r13\000"
 1055 032f 07       		.byte	0x7
 1056 0330 2401     		.2byte	0x124
 1057 0332 3A030000 		.4byte	0x33a
 1058 0336 02       		.byte	0x2
 1059 0337 23       		.byte	0x23
 1060 0338 00       		.uleb128 0
 1061 0339 00       		.byte	0
 1062 033a 09       		.uleb128 0x9
 1063 033b 04       		.byte	0x4
 1064 033c 90020000 		.4byte	0x290
 1065 0340 0D       		.uleb128 0xd
 1066 0341 86000000 		.4byte	0x86
 1067 0345 0D       		.uleb128 0xd
 1068 0346 FE000000 		.4byte	0xfe
 1069 034a 05       		.uleb128 0x5
 1070 034b AB050000 		.4byte	.LASF47
 1071 034f 10       		.byte	0x10
 1072 0350 08       		.byte	0x8
 1073 0351 2C       		.byte	0x2c
ARM GAS  /tmp/ccaK2hqG.s 			page 20


 1074 0352 81030000 		.4byte	0x381
 1075 0356 06       		.uleb128 0x6
 1076 0357 E3050000 		.4byte	.LASF48
 1077 035b 08       		.byte	0x8
 1078 035c 2D       		.byte	0x2d
 1079 035d 56020000 		.4byte	0x256
 1080 0361 02       		.byte	0x2
 1081 0362 23       		.byte	0x23
 1082 0363 00       		.uleb128 0
 1083 0364 06       		.uleb128 0x6
 1084 0365 68010000 		.4byte	.LASF49
 1085 0369 08       		.byte	0x8
 1086 036a 2F       		.byte	0x2f
 1087 036b 50020000 		.4byte	0x250
 1088 036f 02       		.byte	0x2
 1089 0370 23       		.byte	0x23
 1090 0371 08       		.uleb128 0x8
 1091 0372 06       		.uleb128 0x6
 1092 0373 930A0000 		.4byte	.LASF50
 1093 0377 08       		.byte	0x8
 1094 0378 31       		.byte	0x31
 1095 0379 81030000 		.4byte	0x381
 1096 037d 02       		.byte	0x2
 1097 037e 23       		.byte	0x23
 1098 037f 0C       		.uleb128 0xc
 1099 0380 00       		.byte	0
 1100 0381 09       		.uleb128 0x9
 1101 0382 04       		.byte	0x4
 1102 0383 4A030000 		.4byte	0x34a
 1103 0387 03       		.uleb128 0x3
 1104 0388 AB050000 		.4byte	.LASF47
 1105 038c 08       		.byte	0x8
 1106 038d 33       		.byte	0x33
 1107 038e 4A030000 		.4byte	0x34a
 1108 0392 03       		.uleb128 0x3
 1109 0393 8E090000 		.4byte	.LASF51
 1110 0397 09       		.byte	0x9
 1111 0398 29       		.byte	0x29
 1112 0399 9D030000 		.4byte	0x39d
 1113 039d 05       		.uleb128 0x5
 1114 039e 8E090000 		.4byte	.LASF51
 1115 03a2 0C       		.byte	0xc
 1116 03a3 09       		.byte	0x9
 1117 03a4 2E       		.byte	0x2e
 1118 03a5 D4030000 		.4byte	0x3d4
 1119 03a9 06       		.uleb128 0x6
 1120 03aa 1C050000 		.4byte	.LASF52
 1121 03ae 09       		.byte	0x9
 1122 03af 2F       		.byte	0x2f
 1123 03b0 D4030000 		.4byte	0x3d4
 1124 03b4 02       		.byte	0x2
 1125 03b5 23       		.byte	0x23
 1126 03b6 00       		.uleb128 0
 1127 03b7 06       		.uleb128 0x6
 1128 03b8 BA0A0000 		.4byte	.LASF53
 1129 03bc 09       		.byte	0x9
 1130 03bd 32       		.byte	0x32
ARM GAS  /tmp/ccaK2hqG.s 			page 21


 1131 03be 50020000 		.4byte	0x250
 1132 03c2 02       		.byte	0x2
 1133 03c3 23       		.byte	0x23
 1134 03c4 04       		.uleb128 0x4
 1135 03c5 06       		.uleb128 0x6
 1136 03c6 840A0000 		.4byte	.LASF54
 1137 03ca 09       		.byte	0x9
 1138 03cb 34       		.byte	0x34
 1139 03cc F3000000 		.4byte	0xf3
 1140 03d0 02       		.byte	0x2
 1141 03d1 23       		.byte	0x23
 1142 03d2 08       		.uleb128 0x8
 1143 03d3 00       		.byte	0
 1144 03d4 09       		.uleb128 0x9
 1145 03d5 04       		.byte	0x4
 1146 03d6 92030000 		.4byte	0x392
 1147 03da 05       		.uleb128 0x5
 1148 03db C0040000 		.4byte	.LASF55
 1149 03df 04       		.byte	0x4
 1150 03e0 09       		.byte	0x9
 1151 03e1 3C       		.byte	0x3c
 1152 03e2 F5030000 		.4byte	0x3f5
 1153 03e6 06       		.uleb128 0x6
 1154 03e7 84040000 		.4byte	.LASF56
 1155 03eb 09       		.byte	0x9
 1156 03ec 3D       		.byte	0x3d
 1157 03ed D4030000 		.4byte	0x3d4
 1158 03f1 02       		.byte	0x2
 1159 03f2 23       		.byte	0x23
 1160 03f3 00       		.uleb128 0
 1161 03f4 00       		.byte	0
 1162 03f5 03       		.uleb128 0x3
 1163 03f6 C0040000 		.4byte	.LASF55
 1164 03fa 09       		.byte	0x9
 1165 03fb 40       		.byte	0x40
 1166 03fc DA030000 		.4byte	0x3da
 1167 0400 0E       		.uleb128 0xe
 1168 0401 04       		.byte	0x4
 1169 0402 06       		.byte	0x6
 1170 0403 90       		.byte	0x90
 1171 0404 35040000 		.4byte	0x435
 1172 0408 0F       		.uleb128 0xf
 1173 0409 E4090000 		.4byte	.LASF57
 1174 040d 06       		.byte	0x6
 1175 040e 97       		.byte	0x97
 1176 040f E8000000 		.4byte	0xe8
 1177 0413 0F       		.uleb128 0xf
 1178 0414 70010000 		.4byte	.LASF58
 1179 0418 06       		.byte	0x6
 1180 0419 9E       		.byte	0x9e
 1181 041a E8000000 		.4byte	0xe8
 1182 041e 0F       		.uleb128 0xf
 1183 041f A5030000 		.4byte	.LASF59
 1184 0423 06       		.byte	0x6
 1185 0424 A5       		.byte	0xa5
 1186 0425 8E020000 		.4byte	0x28e
 1187 0429 0F       		.uleb128 0xf
ARM GAS  /tmp/ccaK2hqG.s 			page 22


 1188 042a AA020000 		.4byte	.LASF60
 1189 042e 06       		.byte	0x6
 1190 042f AC       		.byte	0xac
 1191 0430 F3000000 		.4byte	0xf3
 1192 0434 00       		.byte	0
 1193 0435 09       		.uleb128 0x9
 1194 0436 04       		.byte	0x4
 1195 0437 3B040000 		.4byte	0x43b
 1196 043b 10       		.uleb128 0x10
 1197 043c 40040000 		.4byte	0x440
 1198 0440 04       		.uleb128 0x4
 1199 0441 01       		.byte	0x1
 1200 0442 08       		.byte	0x8
 1201 0443 84030000 		.4byte	.LASF61
 1202 0447 09       		.uleb128 0x9
 1203 0448 04       		.byte	0x4
 1204 0449 87030000 		.4byte	0x387
 1205 044d 03       		.uleb128 0x3
 1206 044e 98030000 		.4byte	.LASF62
 1207 0452 0A       		.byte	0xa
 1208 0453 37       		.byte	0x37
 1209 0454 58040000 		.4byte	0x458
 1210 0458 05       		.uleb128 0x5
 1211 0459 98030000 		.4byte	.LASF62
 1212 045d 20       		.byte	0x20
 1213 045e 0A       		.byte	0xa
 1214 045f 45       		.byte	0x45
 1215 0460 C7040000 		.4byte	0x4c7
 1216 0464 06       		.uleb128 0x6
 1217 0465 4C080000 		.4byte	.LASF63
 1218 0469 0A       		.byte	0xa
 1219 046a 46       		.byte	0x46
 1220 046b 56020000 		.4byte	0x256
 1221 046f 02       		.byte	0x2
 1222 0470 23       		.byte	0x23
 1223 0471 00       		.uleb128 0
 1224 0472 06       		.uleb128 0x6
 1225 0473 8C040000 		.4byte	.LASF64
 1226 0477 0A       		.byte	0xa
 1227 0478 47       		.byte	0x47
 1228 0479 30000000 		.4byte	0x30
 1229 047d 02       		.byte	0x2
 1230 047e 23       		.byte	0x23
 1231 047f 08       		.uleb128 0x8
 1232 0480 06       		.uleb128 0x6
 1233 0481 CB010000 		.4byte	.LASF65
 1234 0485 0A       		.byte	0xa
 1235 0486 48       		.byte	0x48
 1236 0487 EA040000 		.4byte	0x4ea
 1237 048b 02       		.byte	0x2
 1238 048c 23       		.byte	0x23
 1239 048d 0C       		.uleb128 0xc
 1240 048e 06       		.uleb128 0x6
 1241 048f 8A010000 		.4byte	.LASF66
 1242 0493 0A       		.byte	0xa
 1243 0494 49       		.byte	0x49
 1244 0495 EA040000 		.4byte	0x4ea
ARM GAS  /tmp/ccaK2hqG.s 			page 23


 1245 0499 02       		.byte	0x2
 1246 049a 23       		.byte	0x23
 1247 049b 10       		.uleb128 0x10
 1248 049c 06       		.uleb128 0x6
 1249 049d 24050000 		.4byte	.LASF67
 1250 04a1 0A       		.byte	0xa
 1251 04a2 4B       		.byte	0x4b
 1252 04a3 EA040000 		.4byte	0x4ea
 1253 04a7 02       		.byte	0x2
 1254 04a8 23       		.byte	0x23
 1255 04a9 14       		.uleb128 0x14
 1256 04aa 06       		.uleb128 0x6
 1257 04ab F5010000 		.4byte	.LASF68
 1258 04af 0A       		.byte	0xa
 1259 04b0 4C       		.byte	0x4c
 1260 04b1 EA040000 		.4byte	0x4ea
 1261 04b5 02       		.byte	0x2
 1262 04b6 23       		.byte	0x23
 1263 04b7 18       		.uleb128 0x18
 1264 04b8 06       		.uleb128 0x6
 1265 04b9 D4010000 		.4byte	.LASF69
 1266 04bd 0A       		.byte	0xa
 1267 04be 4D       		.byte	0x4d
 1268 04bf C7040000 		.4byte	0x4c7
 1269 04c3 02       		.byte	0x2
 1270 04c4 23       		.byte	0x23
 1271 04c5 1C       		.uleb128 0x1c
 1272 04c6 00       		.byte	0
 1273 04c7 03       		.uleb128 0x3
 1274 04c8 2E060000 		.4byte	.LASF70
 1275 04cc 0A       		.byte	0xa
 1276 04cd 3A       		.byte	0x3a
 1277 04ce D2040000 		.4byte	0x4d2
 1278 04d2 09       		.uleb128 0x9
 1279 04d3 04       		.byte	0x4
 1280 04d4 D8040000 		.4byte	0x4d8
 1281 04d8 11       		.uleb128 0x11
 1282 04d9 01       		.byte	0x1
 1283 04da E4040000 		.4byte	0x4e4
 1284 04de 12       		.uleb128 0x12
 1285 04df E4040000 		.4byte	0x4e4
 1286 04e3 00       		.byte	0
 1287 04e4 09       		.uleb128 0x9
 1288 04e5 04       		.byte	0x4
 1289 04e6 4D040000 		.4byte	0x44d
 1290 04ea 09       		.uleb128 0x9
 1291 04eb 04       		.byte	0x4
 1292 04ec 49000000 		.4byte	0x49
 1293 04f0 03       		.uleb128 0x3
 1294 04f1 2C0A0000 		.4byte	.LASF71
 1295 04f5 0A       		.byte	0xa
 1296 04f6 76       		.byte	0x76
 1297 04f7 4D040000 		.4byte	0x44d
 1298 04fb 03       		.uleb128 0x3
 1299 04fc CE030000 		.4byte	.LASF72
 1300 0500 0A       		.byte	0xa
 1301 0501 E6       		.byte	0xe6
ARM GAS  /tmp/ccaK2hqG.s 			page 24


 1302 0502 4D040000 		.4byte	0x44d
 1303 0506 13       		.uleb128 0x13
 1304 0507 01       		.byte	0x1
 1305 0508 30000000 		.4byte	0x30
 1306 050c 20050000 		.4byte	0x520
 1307 0510 12       		.uleb128 0x12
 1308 0511 8E020000 		.4byte	0x28e
 1309 0515 12       		.uleb128 0x12
 1310 0516 20050000 		.4byte	0x520
 1311 051a 12       		.uleb128 0x12
 1312 051b 30000000 		.4byte	0x30
 1313 051f 00       		.byte	0
 1314 0520 09       		.uleb128 0x9
 1315 0521 04       		.byte	0x4
 1316 0522 26050000 		.4byte	0x526
 1317 0526 10       		.uleb128 0x10
 1318 0527 49000000 		.4byte	0x49
 1319 052b 09       		.uleb128 0x9
 1320 052c 04       		.byte	0x4
 1321 052d 06050000 		.4byte	0x506
 1322 0531 13       		.uleb128 0x13
 1323 0532 01       		.byte	0x1
 1324 0533 30000000 		.4byte	0x30
 1325 0537 4B050000 		.4byte	0x54b
 1326 053b 12       		.uleb128 0x12
 1327 053c 8E020000 		.4byte	0x28e
 1328 0540 12       		.uleb128 0x12
 1329 0541 EA040000 		.4byte	0x4ea
 1330 0545 12       		.uleb128 0x12
 1331 0546 30000000 		.4byte	0x30
 1332 054a 00       		.byte	0
 1333 054b 09       		.uleb128 0x9
 1334 054c 04       		.byte	0x4
 1335 054d 31050000 		.4byte	0x531
 1336 0551 13       		.uleb128 0x13
 1337 0552 01       		.byte	0x1
 1338 0553 B1000000 		.4byte	0xb1
 1339 0557 61050000 		.4byte	0x561
 1340 055b 12       		.uleb128 0x12
 1341 055c 8E020000 		.4byte	0x28e
 1342 0560 00       		.byte	0
 1343 0561 09       		.uleb128 0x9
 1344 0562 04       		.byte	0x4
 1345 0563 51050000 		.4byte	0x551
 1346 0567 13       		.uleb128 0x13
 1347 0568 01       		.byte	0x1
 1348 0569 E8000000 		.4byte	0xe8
 1349 056d 81050000 		.4byte	0x581
 1350 0571 12       		.uleb128 0x12
 1351 0572 8E020000 		.4byte	0x28e
 1352 0576 12       		.uleb128 0x12
 1353 0577 49000000 		.4byte	0x49
 1354 057b 12       		.uleb128 0x12
 1355 057c FE000000 		.4byte	0xfe
 1356 0580 00       		.byte	0
 1357 0581 09       		.uleb128 0x9
 1358 0582 04       		.byte	0x4
ARM GAS  /tmp/ccaK2hqG.s 			page 25


 1359 0583 67050000 		.4byte	0x567
 1360 0587 13       		.uleb128 0x13
 1361 0588 01       		.byte	0x1
 1362 0589 E8000000 		.4byte	0xe8
 1363 058d 9C050000 		.4byte	0x59c
 1364 0591 12       		.uleb128 0x12
 1365 0592 8E020000 		.4byte	0x28e
 1366 0596 12       		.uleb128 0x12
 1367 0597 FE000000 		.4byte	0xfe
 1368 059b 00       		.byte	0
 1369 059c 09       		.uleb128 0x9
 1370 059d 04       		.byte	0x4
 1371 059e 87050000 		.4byte	0x587
 1372 05a2 13       		.uleb128 0x13
 1373 05a3 01       		.byte	0x1
 1374 05a4 30000000 		.4byte	0x30
 1375 05a8 C1050000 		.4byte	0x5c1
 1376 05ac 12       		.uleb128 0x12
 1377 05ad 8E020000 		.4byte	0x28e
 1378 05b1 12       		.uleb128 0x12
 1379 05b2 20050000 		.4byte	0x520
 1380 05b6 12       		.uleb128 0x12
 1381 05b7 30000000 		.4byte	0x30
 1382 05bb 12       		.uleb128 0x12
 1383 05bc FE000000 		.4byte	0xfe
 1384 05c0 00       		.byte	0
 1385 05c1 09       		.uleb128 0x9
 1386 05c2 04       		.byte	0x4
 1387 05c3 A2050000 		.4byte	0x5a2
 1388 05c7 13       		.uleb128 0x13
 1389 05c8 01       		.byte	0x1
 1390 05c9 30000000 		.4byte	0x30
 1391 05cd E6050000 		.4byte	0x5e6
 1392 05d1 12       		.uleb128 0x12
 1393 05d2 8E020000 		.4byte	0x28e
 1394 05d6 12       		.uleb128 0x12
 1395 05d7 EA040000 		.4byte	0x4ea
 1396 05db 12       		.uleb128 0x12
 1397 05dc 30000000 		.4byte	0x30
 1398 05e0 12       		.uleb128 0x12
 1399 05e1 FE000000 		.4byte	0xfe
 1400 05e5 00       		.byte	0
 1401 05e6 09       		.uleb128 0x9
 1402 05e7 04       		.byte	0x4
 1403 05e8 C7050000 		.4byte	0x5c7
 1404 05ec 14       		.uleb128 0x14
 1405 05ed C4060000 		.4byte	.LASF73
 1406 05f1 0B       		.byte	0xb
 1407 05f2 0B01     		.2byte	0x10b
 1408 05f4 A6000000 		.4byte	0xa6
 1409 05f8 13       		.uleb128 0x13
 1410 05f9 01       		.byte	0x1
 1411 05fa EC050000 		.4byte	0x5ec
 1412 05fe 08060000 		.4byte	0x608
 1413 0602 12       		.uleb128 0x12
 1414 0603 8E020000 		.4byte	0x28e
 1415 0607 00       		.byte	0
ARM GAS  /tmp/ccaK2hqG.s 			page 26


 1416 0608 09       		.uleb128 0x9
 1417 0609 04       		.byte	0x4
 1418 060a F8050000 		.4byte	0x5f8
 1419 060e 15       		.uleb128 0x15
 1420 060f 10070000 		.4byte	.LASF230
 1421 0613 01       		.byte	0x1
 1422 0614 0C       		.byte	0xc
 1423 0615 8C       		.byte	0x8c
 1424 0616 49080000 		.4byte	0x849
 1425 061a 16       		.uleb128 0x16
 1426 061b A2040000 		.4byte	.LASF74
 1427 061f 72       		.sleb128 -14
 1428 0620 16       		.uleb128 0x16
 1429 0621 E8040000 		.4byte	.LASF75
 1430 0625 74       		.sleb128 -12
 1431 0626 16       		.uleb128 0x16
 1432 0627 56050000 		.4byte	.LASF76
 1433 062b 75       		.sleb128 -11
 1434 062c 16       		.uleb128 0x16
 1435 062d 74030000 		.4byte	.LASF77
 1436 0631 76       		.sleb128 -10
 1437 0632 16       		.uleb128 0x16
 1438 0633 FB050000 		.4byte	.LASF78
 1439 0637 7B       		.sleb128 -5
 1440 0638 16       		.uleb128 0x16
 1441 0639 27070000 		.4byte	.LASF79
 1442 063d 7C       		.sleb128 -4
 1443 063e 16       		.uleb128 0x16
 1444 063f 420A0000 		.4byte	.LASF80
 1445 0643 7E       		.sleb128 -2
 1446 0644 16       		.uleb128 0x16
 1447 0645 7F020000 		.4byte	.LASF81
 1448 0649 7F       		.sleb128 -1
 1449 064a 16       		.uleb128 0x16
 1450 064b CC040000 		.4byte	.LASF82
 1451 064f 00       		.sleb128 0
 1452 0650 16       		.uleb128 0x16
 1453 0651 37080000 		.4byte	.LASF83
 1454 0655 01       		.sleb128 1
 1455 0656 16       		.uleb128 0x16
 1456 0657 FE040000 		.4byte	.LASF84
 1457 065b 02       		.sleb128 2
 1458 065c 16       		.uleb128 0x16
 1459 065d 80090000 		.4byte	.LASF85
 1460 0661 03       		.sleb128 3
 1461 0662 16       		.uleb128 0x16
 1462 0663 D4000000 		.4byte	.LASF86
 1463 0667 04       		.sleb128 4
 1464 0668 16       		.uleb128 0x16
 1465 0669 0B090000 		.4byte	.LASF87
 1466 066d 05       		.sleb128 5
 1467 066e 16       		.uleb128 0x16
 1468 066f 56080000 		.4byte	.LASF88
 1469 0673 06       		.sleb128 6
 1470 0674 16       		.uleb128 0x16
 1471 0675 42040000 		.4byte	.LASF89
 1472 0679 07       		.sleb128 7
ARM GAS  /tmp/ccaK2hqG.s 			page 27


 1473 067a 16       		.uleb128 0x16
 1474 067b 0B080000 		.4byte	.LASF90
 1475 067f 08       		.sleb128 8
 1476 0680 16       		.uleb128 0x16
 1477 0681 370A0000 		.4byte	.LASF91
 1478 0685 09       		.sleb128 9
 1479 0686 16       		.uleb128 0x16
 1480 0687 EB090000 		.4byte	.LASF92
 1481 068b 0A       		.sleb128 10
 1482 068c 16       		.uleb128 0x16
 1483 068d 64070000 		.4byte	.LASF93
 1484 0691 0B       		.sleb128 11
 1485 0692 16       		.uleb128 0x16
 1486 0693 D8060000 		.4byte	.LASF94
 1487 0697 0C       		.sleb128 12
 1488 0698 16       		.uleb128 0x16
 1489 0699 CD020000 		.4byte	.LASF95
 1490 069d 0D       		.sleb128 13
 1491 069e 16       		.uleb128 0x16
 1492 069f 1B090000 		.4byte	.LASF96
 1493 06a3 0E       		.sleb128 14
 1494 06a4 16       		.uleb128 0x16
 1495 06a5 69080000 		.4byte	.LASF97
 1496 06a9 0F       		.sleb128 15
 1497 06aa 16       		.uleb128 0x16
 1498 06ab 5A040000 		.4byte	.LASF98
 1499 06af 10       		.sleb128 16
 1500 06b0 16       		.uleb128 0x16
 1501 06b1 15070000 		.4byte	.LASF99
 1502 06b5 11       		.sleb128 17
 1503 06b6 16       		.uleb128 0x16
 1504 06b7 24080000 		.4byte	.LASF100
 1505 06bb 12       		.sleb128 18
 1506 06bc 16       		.uleb128 0x16
 1507 06bd 4D040000 		.4byte	.LASF101
 1508 06c1 13       		.sleb128 19
 1509 06c2 16       		.uleb128 0x16
 1510 06c3 AC030000 		.4byte	.LASF102
 1511 06c7 14       		.sleb128 20
 1512 06c8 16       		.uleb128 0x16
 1513 06c9 A5090000 		.4byte	.LASF103
 1514 06cd 15       		.sleb128 21
 1515 06ce 16       		.uleb128 0x16
 1516 06cf 0E050000 		.4byte	.LASF104
 1517 06d3 16       		.sleb128 22
 1518 06d4 16       		.uleb128 0x16
 1519 06d5 D7090000 		.4byte	.LASF105
 1520 06d9 17       		.sleb128 23
 1521 06da 16       		.uleb128 0x16
 1522 06db 83050000 		.4byte	.LASF106
 1523 06df 18       		.sleb128 24
 1524 06e0 16       		.uleb128 0x16
 1525 06e1 3B090000 		.4byte	.LASF107
 1526 06e5 19       		.sleb128 25
 1527 06e6 16       		.uleb128 0x16
 1528 06e7 38020000 		.4byte	.LASF108
 1529 06eb 1A       		.sleb128 26
ARM GAS  /tmp/ccaK2hqG.s 			page 28


 1530 06ec 16       		.uleb128 0x16
 1531 06ed 27040000 		.4byte	.LASF109
 1532 06f1 1B       		.sleb128 27
 1533 06f2 16       		.uleb128 0x16
 1534 06f3 FF000000 		.4byte	.LASF110
 1535 06f7 1C       		.sleb128 28
 1536 06f8 16       		.uleb128 0x16
 1537 06f9 F5070000 		.4byte	.LASF111
 1538 06fd 1D       		.sleb128 29
 1539 06fe 16       		.uleb128 0x16
 1540 06ff DA030000 		.4byte	.LASF112
 1541 0703 1E       		.sleb128 30
 1542 0704 16       		.uleb128 0x16
 1543 0705 03040000 		.4byte	.LASF113
 1544 0709 1F       		.sleb128 31
 1545 070a 16       		.uleb128 0x16
 1546 070b 31030000 		.4byte	.LASF114
 1547 070f 20       		.sleb128 32
 1548 0710 16       		.uleb128 0x16
 1549 0711 9B060000 		.4byte	.LASF115
 1550 0715 21       		.sleb128 33
 1551 0716 16       		.uleb128 0x16
 1552 0717 49050000 		.4byte	.LASF116
 1553 071b 22       		.sleb128 34
 1554 071c 16       		.uleb128 0x16
 1555 071d F1050000 		.4byte	.LASF117
 1556 0721 23       		.sleb128 35
 1557 0722 16       		.uleb128 0x16
 1558 0723 90010000 		.4byte	.LASF118
 1559 0727 24       		.sleb128 36
 1560 0728 16       		.uleb128 0x16
 1561 0729 FF070000 		.4byte	.LASF119
 1562 072d 25       		.sleb128 37
 1563 072e 16       		.uleb128 0x16
 1564 072f E4030000 		.4byte	.LASF120
 1565 0733 26       		.sleb128 38
 1566 0734 16       		.uleb128 0x16
 1567 0735 8C020000 		.4byte	.LASF121
 1568 0739 27       		.sleb128 39
 1569 073a 16       		.uleb128 0x16
 1570 073b B8070000 		.4byte	.LASF122
 1571 073f 28       		.sleb128 40
 1572 0740 16       		.uleb128 0x16
 1573 0741 8A070000 		.4byte	.LASF123
 1574 0745 29       		.sleb128 41
 1575 0746 16       		.uleb128 0x16
 1576 0747 5A060000 		.4byte	.LASF124
 1577 074b 2A       		.sleb128 42
 1578 074c 16       		.uleb128 0x16
 1579 074d 9A010000 		.4byte	.LASF125
 1580 0751 2B       		.sleb128 43
 1581 0752 16       		.uleb128 0x16
 1582 0753 07000000 		.4byte	.LASF126
 1583 0757 2C       		.sleb128 44
 1584 0758 16       		.uleb128 0x16
 1585 0759 6C040000 		.4byte	.LASF127
 1586 075d 2D       		.sleb128 45
ARM GAS  /tmp/ccaK2hqG.s 			page 29


 1587 075e 16       		.uleb128 0x16
 1588 075f 150A0000 		.4byte	.LASF128
 1589 0763 2E       		.sleb128 46
 1590 0764 16       		.uleb128 0x16
 1591 0765 610A0000 		.4byte	.LASF129
 1592 0769 2F       		.sleb128 47
 1593 076a 16       		.uleb128 0x16
 1594 076b B6040000 		.4byte	.LASF130
 1595 076f 30       		.sleb128 48
 1596 0770 16       		.uleb128 0x16
 1597 0771 220A0000 		.4byte	.LASF131
 1598 0775 31       		.sleb128 49
 1599 0776 16       		.uleb128 0x16
 1600 0777 6A030000 		.4byte	.LASF132
 1601 077b 32       		.sleb128 50
 1602 077c 16       		.uleb128 0x16
 1603 077d CA000000 		.4byte	.LASF133
 1604 0781 33       		.sleb128 51
 1605 0782 16       		.uleb128 0x16
 1606 0783 19060000 		.4byte	.LASF134
 1607 0787 34       		.sleb128 52
 1608 0788 16       		.uleb128 0x16
 1609 0789 78050000 		.4byte	.LASF135
 1610 078d 35       		.sleb128 53
 1611 078e 16       		.uleb128 0x16
 1612 078f 85060000 		.4byte	.LASF136
 1613 0793 36       		.sleb128 54
 1614 0794 16       		.uleb128 0x16
 1615 0795 B1050000 		.4byte	.LASF137
 1616 0799 37       		.sleb128 55
 1617 079a 16       		.uleb128 0x16
 1618 079b 42060000 		.4byte	.LASF138
 1619 079f 38       		.sleb128 56
 1620 07a0 16       		.uleb128 0x16
 1621 07a1 B8000000 		.4byte	.LASF139
 1622 07a5 39       		.sleb128 57
 1623 07a6 16       		.uleb128 0x16
 1624 07a7 A20A0000 		.4byte	.LASF140
 1625 07ab 3A       		.sleb128 58
 1626 07ac 16       		.uleb128 0x16
 1627 07ad EA060000 		.4byte	.LASF141
 1628 07b1 3B       		.sleb128 59
 1629 07b2 16       		.uleb128 0x16
 1630 07b3 01030000 		.4byte	.LASF142
 1631 07b7 3C       		.sleb128 60
 1632 07b8 16       		.uleb128 0x16
 1633 07b9 E4080000 		.4byte	.LASF143
 1634 07bd 3D       		.sleb128 61
 1635 07be 16       		.uleb128 0x16
 1636 07bf C9050000 		.4byte	.LASF144
 1637 07c3 3E       		.sleb128 62
 1638 07c4 16       		.uleb128 0x16
 1639 07c5 FC060000 		.4byte	.LASF145
 1640 07c9 3F       		.sleb128 63
 1641 07ca 16       		.uleb128 0x16
 1642 07cb 23010000 		.4byte	.LASF146
 1643 07cf C000     		.sleb128 64
ARM GAS  /tmp/ccaK2hqG.s 			page 30


 1644 07d1 16       		.uleb128 0x16
 1645 07d2 16080000 		.4byte	.LASF147
 1646 07d6 C100     		.sleb128 65
 1647 07d8 16       		.uleb128 0x16
 1648 07d9 3E030000 		.4byte	.LASF148
 1649 07dd C200     		.sleb128 66
 1650 07df 16       		.uleb128 0x16
 1651 07e0 96040000 		.4byte	.LASF149
 1652 07e4 C300     		.sleb128 67
 1653 07e6 16       		.uleb128 0x16
 1654 07e7 13020000 		.4byte	.LASF150
 1655 07eb C400     		.sleb128 68
 1656 07ed 16       		.uleb128 0x16
 1657 07ee 85080000 		.4byte	.LASF151
 1658 07f2 C500     		.sleb128 69
 1659 07f4 16       		.uleb128 0x16
 1660 07f5 52070000 		.4byte	.LASF152
 1661 07f9 C600     		.sleb128 70
 1662 07fb 16       		.uleb128 0x16
 1663 07fc 40080000 		.4byte	.LASF153
 1664 0800 C700     		.sleb128 71
 1665 0802 16       		.uleb128 0x16
 1666 0803 CE080000 		.4byte	.LASF154
 1667 0807 C800     		.sleb128 72
 1668 0809 16       		.uleb128 0x16
 1669 080a A1070000 		.4byte	.LASF155
 1670 080e C900     		.sleb128 73
 1671 0810 16       		.uleb128 0x16
 1672 0811 6C090000 		.4byte	.LASF156
 1673 0815 CA00     		.sleb128 74
 1674 0817 16       		.uleb128 0x16
 1675 0818 4E0A0000 		.4byte	.LASF157
 1676 081c CB00     		.sleb128 75
 1677 081e 16       		.uleb128 0x16
 1678 081f 79010000 		.4byte	.LASF158
 1679 0823 CC00     		.sleb128 76
 1680 0825 16       		.uleb128 0x16
 1681 0826 D7050000 		.4byte	.LASF159
 1682 082a CD00     		.sleb128 77
 1683 082c 16       		.uleb128 0x16
 1684 082d E8000000 		.4byte	.LASF160
 1685 0831 CE00     		.sleb128 78
 1686 0833 16       		.uleb128 0x16
 1687 0834 AE070000 		.4byte	.LASF161
 1688 0838 CF00     		.sleb128 79
 1689 083a 16       		.uleb128 0x16
 1690 083b 34040000 		.4byte	.LASF162
 1691 083f D000     		.sleb128 80
 1692 0841 16       		.uleb128 0x16
 1693 0842 10060000 		.4byte	.LASF163
 1694 0846 D100     		.sleb128 81
 1695 0848 00       		.byte	0
 1696 0849 17       		.uleb128 0x17
 1697 084a 86000000 		.4byte	0x86
 1698 084e 59080000 		.4byte	0x859
 1699 0852 18       		.uleb128 0x18
 1700 0853 3B000000 		.4byte	0x3b
ARM GAS  /tmp/ccaK2hqG.s 			page 31


 1701 0857 01       		.byte	0x1
 1702 0858 00       		.byte	0
 1703 0859 0D       		.uleb128 0xd
 1704 085a 62000000 		.4byte	0x62
 1705 085e 0D       		.uleb128 0xd
 1706 085f 74000000 		.4byte	0x74
 1707 0863 19       		.uleb128 0x19
 1708 0864 88       		.byte	0x88
 1709 0865 0C       		.byte	0xc
 1710 0866 DB02     		.2byte	0x2db
 1711 0868 300A0000 		.4byte	0xa30
 1712 086c 0B       		.uleb128 0xb
 1713 086d 435200   		.ascii	"CR\000"
 1714 0870 0C       		.byte	0xc
 1715 0871 DD02     		.2byte	0x2dd
 1716 0873 40030000 		.4byte	0x340
 1717 0877 02       		.byte	0x2
 1718 0878 23       		.byte	0x23
 1719 0879 00       		.uleb128 0
 1720 087a 1A       		.uleb128 0x1a
 1721 087b 70050000 		.4byte	.LASF164
 1722 087f 0C       		.byte	0xc
 1723 0880 DE02     		.2byte	0x2de
 1724 0882 40030000 		.4byte	0x340
 1725 0886 02       		.byte	0x2
 1726 0887 23       		.byte	0x23
 1727 0888 04       		.uleb128 0x4
 1728 0889 1A       		.uleb128 0x1a
 1729 088a 22040000 		.4byte	.LASF165
 1730 088e 0C       		.byte	0xc
 1731 088f DF02     		.2byte	0x2df
 1732 0891 40030000 		.4byte	0x340
 1733 0895 02       		.byte	0x2
 1734 0896 23       		.byte	0x23
 1735 0897 08       		.uleb128 0x8
 1736 0898 0B       		.uleb128 0xb
 1737 0899 43495200 		.ascii	"CIR\000"
 1738 089d 0C       		.byte	0xc
 1739 089e E002     		.2byte	0x2e0
 1740 08a0 40030000 		.4byte	0x340
 1741 08a4 02       		.byte	0x2
 1742 08a5 23       		.byte	0x23
 1743 08a6 0C       		.uleb128 0xc
 1744 08a7 1A       		.uleb128 0x1a
 1745 08a8 730A0000 		.4byte	.LASF166
 1746 08ac 0C       		.byte	0xc
 1747 08ad E102     		.2byte	0x2e1
 1748 08af 40030000 		.4byte	0x340
 1749 08b3 02       		.byte	0x2
 1750 08b4 23       		.byte	0x23
 1751 08b5 10       		.uleb128 0x10
 1752 08b6 1A       		.uleb128 0x1a
 1753 08b7 DB080000 		.4byte	.LASF167
 1754 08bb 0C       		.byte	0xc
 1755 08bc E202     		.2byte	0x2e2
 1756 08be 40030000 		.4byte	0x340
 1757 08c2 02       		.byte	0x2
ARM GAS  /tmp/ccaK2hqG.s 			page 32


 1758 08c3 23       		.byte	0x23
 1759 08c4 14       		.uleb128 0x14
 1760 08c5 1A       		.uleb128 0x1a
 1761 08c6 DF000000 		.4byte	.LASF168
 1762 08ca 0C       		.byte	0xc
 1763 08cb E302     		.2byte	0x2e3
 1764 08cd 40030000 		.4byte	0x340
 1765 08d1 02       		.byte	0x2
 1766 08d2 23       		.byte	0x23
 1767 08d3 18       		.uleb128 0x18
 1768 08d4 1A       		.uleb128 0x1a
 1769 08d5 DF020000 		.4byte	.LASF169
 1770 08d9 0C       		.byte	0xc
 1771 08da E402     		.2byte	0x2e4
 1772 08dc 86000000 		.4byte	0x86
 1773 08e0 02       		.byte	0x2
 1774 08e1 23       		.byte	0x23
 1775 08e2 1C       		.uleb128 0x1c
 1776 08e3 1A       		.uleb128 0x1a
 1777 08e4 76070000 		.4byte	.LASF170
 1778 08e8 0C       		.byte	0xc
 1779 08e9 E502     		.2byte	0x2e5
 1780 08eb 40030000 		.4byte	0x340
 1781 08ef 02       		.byte	0x2
 1782 08f0 23       		.byte	0x23
 1783 08f1 20       		.uleb128 0x20
 1784 08f2 1A       		.uleb128 0x1a
 1785 08f3 07060000 		.4byte	.LASF171
 1786 08f7 0C       		.byte	0xc
 1787 08f8 E602     		.2byte	0x2e6
 1788 08fa 40030000 		.4byte	0x340
 1789 08fe 02       		.byte	0x2
 1790 08ff 23       		.byte	0x23
 1791 0900 24       		.uleb128 0x24
 1792 0901 1A       		.uleb128 0x1a
 1793 0902 E9020000 		.4byte	.LASF172
 1794 0906 0C       		.byte	0xc
 1795 0907 E702     		.2byte	0x2e7
 1796 0909 49080000 		.4byte	0x849
 1797 090d 02       		.byte	0x2
 1798 090e 23       		.byte	0x23
 1799 090f 28       		.uleb128 0x28
 1800 0910 1A       		.uleb128 0x1a
 1801 0911 97080000 		.4byte	.LASF173
 1802 0915 0C       		.byte	0xc
 1803 0916 E802     		.2byte	0x2e8
 1804 0918 40030000 		.4byte	0x340
 1805 091c 02       		.byte	0x2
 1806 091d 23       		.byte	0x23
 1807 091e 30       		.uleb128 0x30
 1808 091f 1A       		.uleb128 0x1a
 1809 0920 90030000 		.4byte	.LASF174
 1810 0924 0C       		.byte	0xc
 1811 0925 E902     		.2byte	0x2e9
 1812 0927 40030000 		.4byte	0x340
 1813 092b 02       		.byte	0x2
 1814 092c 23       		.byte	0x23
ARM GAS  /tmp/ccaK2hqG.s 			page 33


 1815 092d 34       		.uleb128 0x34
 1816 092e 1A       		.uleb128 0x1a
 1817 092f 9A0A0000 		.4byte	.LASF175
 1818 0933 0C       		.byte	0xc
 1819 0934 EA02     		.2byte	0x2ea
 1820 0936 40030000 		.4byte	0x340
 1821 093a 02       		.byte	0x2
 1822 093b 23       		.byte	0x23
 1823 093c 38       		.uleb128 0x38
 1824 093d 1A       		.uleb128 0x1a
 1825 093e 56030000 		.4byte	.LASF176
 1826 0942 0C       		.byte	0xc
 1827 0943 EB02     		.2byte	0x2eb
 1828 0945 86000000 		.4byte	0x86
 1829 0949 02       		.byte	0x2
 1830 094a 23       		.byte	0x23
 1831 094b 3C       		.uleb128 0x3c
 1832 094c 1A       		.uleb128 0x1a
 1833 094d 99070000 		.4byte	.LASF177
 1834 0951 0C       		.byte	0xc
 1835 0952 EC02     		.2byte	0x2ec
 1836 0954 40030000 		.4byte	0x340
 1837 0958 02       		.byte	0x2
 1838 0959 23       		.byte	0x23
 1839 095a 40       		.uleb128 0x40
 1840 095b 1A       		.uleb128 0x1a
 1841 095c 6D020000 		.4byte	.LASF178
 1842 0960 0C       		.byte	0xc
 1843 0961 ED02     		.2byte	0x2ed
 1844 0963 40030000 		.4byte	0x340
 1845 0967 02       		.byte	0x2
 1846 0968 23       		.byte	0x23
 1847 0969 44       		.uleb128 0x44
 1848 096a 1A       		.uleb128 0x1a
 1849 096b 60030000 		.4byte	.LASF179
 1850 096f 0C       		.byte	0xc
 1851 0970 EE02     		.2byte	0x2ee
 1852 0972 49080000 		.4byte	0x849
 1853 0976 02       		.byte	0x2
 1854 0977 23       		.byte	0x23
 1855 0978 48       		.uleb128 0x48
 1856 0979 1A       		.uleb128 0x1a
 1857 097a 75020000 		.4byte	.LASF180
 1858 097e 0C       		.byte	0xc
 1859 097f EF02     		.2byte	0x2ef
 1860 0981 40030000 		.4byte	0x340
 1861 0985 02       		.byte	0x2
 1862 0986 23       		.byte	0x23
 1863 0987 50       		.uleb128 0x50
 1864 0988 1A       		.uleb128 0x1a
 1865 0989 AE010000 		.4byte	.LASF181
 1866 098d 0C       		.byte	0xc
 1867 098e F002     		.2byte	0x2f0
 1868 0990 40030000 		.4byte	0x340
 1869 0994 02       		.byte	0x2
 1870 0995 23       		.byte	0x23
 1871 0996 54       		.uleb128 0x54
ARM GAS  /tmp/ccaK2hqG.s 			page 34


 1872 0997 1A       		.uleb128 0x1a
 1873 0998 2D080000 		.4byte	.LASF182
 1874 099c 0C       		.byte	0xc
 1875 099d F102     		.2byte	0x2f1
 1876 099f 40030000 		.4byte	0x340
 1877 09a3 02       		.byte	0x2
 1878 09a4 23       		.byte	0x23
 1879 09a5 58       		.uleb128 0x58
 1880 09a6 1A       		.uleb128 0x1a
 1881 09a7 13030000 		.4byte	.LASF183
 1882 09ab 0C       		.byte	0xc
 1883 09ac F202     		.2byte	0x2f2
 1884 09ae 86000000 		.4byte	0x86
 1885 09b2 02       		.byte	0x2
 1886 09b3 23       		.byte	0x23
 1887 09b4 5C       		.uleb128 0x5c
 1888 09b5 1A       		.uleb128 0x1a
 1889 09b6 CE060000 		.4byte	.LASF184
 1890 09ba 0C       		.byte	0xc
 1891 09bb F302     		.2byte	0x2f3
 1892 09bd 40030000 		.4byte	0x340
 1893 09c1 02       		.byte	0x2
 1894 09c2 23       		.byte	0x23
 1895 09c3 60       		.uleb128 0x60
 1896 09c4 1A       		.uleb128 0x1a
 1897 09c5 24060000 		.4byte	.LASF185
 1898 09c9 0C       		.byte	0xc
 1899 09ca F402     		.2byte	0x2f4
 1900 09cc 40030000 		.4byte	0x340
 1901 09d0 02       		.byte	0x2
 1902 09d1 23       		.byte	0x23
 1903 09d2 64       		.uleb128 0x64
 1904 09d3 1A       		.uleb128 0x1a
 1905 09d4 1D030000 		.4byte	.LASF186
 1906 09d8 0C       		.byte	0xc
 1907 09d9 F502     		.2byte	0x2f5
 1908 09db 49080000 		.4byte	0x849
 1909 09df 02       		.byte	0x2
 1910 09e0 23       		.byte	0x23
 1911 09e1 68       		.uleb128 0x68
 1912 09e2 1A       		.uleb128 0x1a
 1913 09e3 FE030000 		.4byte	.LASF187
 1914 09e7 0C       		.byte	0xc
 1915 09e8 F602     		.2byte	0x2f6
 1916 09ea 40030000 		.4byte	0x340
 1917 09ee 02       		.byte	0x2
 1918 09ef 23       		.byte	0x23
 1919 09f0 70       		.uleb128 0x70
 1920 09f1 0B       		.uleb128 0xb
 1921 09f2 43535200 		.ascii	"CSR\000"
 1922 09f6 0C       		.byte	0xc
 1923 09f7 F702     		.2byte	0x2f7
 1924 09f9 40030000 		.4byte	0x340
 1925 09fd 02       		.byte	0x2
 1926 09fe 23       		.byte	0x23
 1927 09ff 74       		.uleb128 0x74
 1928 0a00 1A       		.uleb128 0x1a
ARM GAS  /tmp/ccaK2hqG.s 			page 35


 1929 0a01 27030000 		.4byte	.LASF188
 1930 0a05 0C       		.byte	0xc
 1931 0a06 F802     		.2byte	0x2f8
 1932 0a08 49080000 		.4byte	0x849
 1933 0a0c 02       		.byte	0x2
 1934 0a0d 23       		.byte	0x23
 1935 0a0e 78       		.uleb128 0x78
 1936 0a0f 1A       		.uleb128 0x1a
 1937 0a10 EB050000 		.4byte	.LASF189
 1938 0a14 0C       		.byte	0xc
 1939 0a15 F902     		.2byte	0x2f9
 1940 0a17 40030000 		.4byte	0x340
 1941 0a1b 03       		.byte	0x3
 1942 0a1c 23       		.byte	0x23
 1943 0a1d 8001     		.uleb128 0x80
 1944 0a1f 1A       		.uleb128 0x1a
 1945 0a20 24000000 		.4byte	.LASF190
 1946 0a24 0C       		.byte	0xc
 1947 0a25 FA02     		.2byte	0x2fa
 1948 0a27 40030000 		.4byte	0x340
 1949 0a2b 03       		.byte	0x3
 1950 0a2c 23       		.byte	0x23
 1951 0a2d 8401     		.uleb128 0x84
 1952 0a2f 00       		.byte	0
 1953 0a30 14       		.uleb128 0x14
 1954 0a31 F5080000 		.4byte	.LASF191
 1955 0a35 0C       		.byte	0xc
 1956 0a36 FB02     		.2byte	0x2fb
 1957 0a38 63080000 		.4byte	0x863
 1958 0a3c 19       		.uleb128 0x19
 1959 0a3d 1C       		.byte	0x1c
 1960 0a3e 0C       		.byte	0xc
 1961 0a3f 9303     		.2byte	0x393
 1962 0a41 160B0000 		.4byte	0xb16
 1963 0a45 0B       		.uleb128 0xb
 1964 0a46 535200   		.ascii	"SR\000"
 1965 0a49 0C       		.byte	0xc
 1966 0a4a 9503     		.2byte	0x395
 1967 0a4c 59080000 		.4byte	0x859
 1968 0a50 02       		.byte	0x2
 1969 0a51 23       		.byte	0x23
 1970 0a52 00       		.uleb128 0
 1971 0a53 1A       		.uleb128 0x1a
 1972 0a54 DF020000 		.4byte	.LASF169
 1973 0a58 0C       		.byte	0xc
 1974 0a59 9603     		.2byte	0x396
 1975 0a5b 62000000 		.4byte	0x62
 1976 0a5f 02       		.byte	0x2
 1977 0a60 23       		.byte	0x23
 1978 0a61 02       		.uleb128 0x2
 1979 0a62 0B       		.uleb128 0xb
 1980 0a63 445200   		.ascii	"DR\000"
 1981 0a66 0C       		.byte	0xc
 1982 0a67 9703     		.2byte	0x397
 1983 0a69 59080000 		.4byte	0x859
 1984 0a6d 02       		.byte	0x2
 1985 0a6e 23       		.byte	0x23
ARM GAS  /tmp/ccaK2hqG.s 			page 36


 1986 0a6f 04       		.uleb128 0x4
 1987 0a70 1A       		.uleb128 0x1a
 1988 0a71 E9020000 		.4byte	.LASF172
 1989 0a75 0C       		.byte	0xc
 1990 0a76 9803     		.2byte	0x398
 1991 0a78 62000000 		.4byte	0x62
 1992 0a7c 02       		.byte	0x2
 1993 0a7d 23       		.byte	0x23
 1994 0a7e 06       		.uleb128 0x6
 1995 0a7f 0B       		.uleb128 0xb
 1996 0a80 42525200 		.ascii	"BRR\000"
 1997 0a84 0C       		.byte	0xc
 1998 0a85 9903     		.2byte	0x399
 1999 0a87 59080000 		.4byte	0x859
 2000 0a8b 02       		.byte	0x2
 2001 0a8c 23       		.byte	0x23
 2002 0a8d 08       		.uleb128 0x8
 2003 0a8e 1A       		.uleb128 0x1a
 2004 0a8f 56030000 		.4byte	.LASF176
 2005 0a93 0C       		.byte	0xc
 2006 0a94 9A03     		.2byte	0x39a
 2007 0a96 62000000 		.4byte	0x62
 2008 0a9a 02       		.byte	0x2
 2009 0a9b 23       		.byte	0x23
 2010 0a9c 0A       		.uleb128 0xa
 2011 0a9d 0B       		.uleb128 0xb
 2012 0a9e 43523100 		.ascii	"CR1\000"
 2013 0aa2 0C       		.byte	0xc
 2014 0aa3 9B03     		.2byte	0x39b
 2015 0aa5 59080000 		.4byte	0x859
 2016 0aa9 02       		.byte	0x2
 2017 0aaa 23       		.byte	0x23
 2018 0aab 0C       		.uleb128 0xc
 2019 0aac 1A       		.uleb128 0x1a
 2020 0aad 60030000 		.4byte	.LASF179
 2021 0ab1 0C       		.byte	0xc
 2022 0ab2 9C03     		.2byte	0x39c
 2023 0ab4 62000000 		.4byte	0x62
 2024 0ab8 02       		.byte	0x2
 2025 0ab9 23       		.byte	0x23
 2026 0aba 0E       		.uleb128 0xe
 2027 0abb 0B       		.uleb128 0xb
 2028 0abc 43523200 		.ascii	"CR2\000"
 2029 0ac0 0C       		.byte	0xc
 2030 0ac1 9D03     		.2byte	0x39d
 2031 0ac3 59080000 		.4byte	0x859
 2032 0ac7 02       		.byte	0x2
 2033 0ac8 23       		.byte	0x23
 2034 0ac9 10       		.uleb128 0x10
 2035 0aca 1A       		.uleb128 0x1a
 2036 0acb 13030000 		.4byte	.LASF183
 2037 0acf 0C       		.byte	0xc
 2038 0ad0 9E03     		.2byte	0x39e
 2039 0ad2 62000000 		.4byte	0x62
 2040 0ad6 02       		.byte	0x2
 2041 0ad7 23       		.byte	0x23
 2042 0ad8 12       		.uleb128 0x12
ARM GAS  /tmp/ccaK2hqG.s 			page 37


 2043 0ad9 0B       		.uleb128 0xb
 2044 0ada 43523300 		.ascii	"CR3\000"
 2045 0ade 0C       		.byte	0xc
 2046 0adf 9F03     		.2byte	0x39f
 2047 0ae1 59080000 		.4byte	0x859
 2048 0ae5 02       		.byte	0x2
 2049 0ae6 23       		.byte	0x23
 2050 0ae7 14       		.uleb128 0x14
 2051 0ae8 1A       		.uleb128 0x1a
 2052 0ae9 1D030000 		.4byte	.LASF186
 2053 0aed 0C       		.byte	0xc
 2054 0aee A003     		.2byte	0x3a0
 2055 0af0 62000000 		.4byte	0x62
 2056 0af4 02       		.byte	0x2
 2057 0af5 23       		.byte	0x23
 2058 0af6 16       		.uleb128 0x16
 2059 0af7 1A       		.uleb128 0x1a
 2060 0af8 64000000 		.4byte	.LASF192
 2061 0afc 0C       		.byte	0xc
 2062 0afd A103     		.2byte	0x3a1
 2063 0aff 59080000 		.4byte	0x859
 2064 0b03 02       		.byte	0x2
 2065 0b04 23       		.byte	0x23
 2066 0b05 18       		.uleb128 0x18
 2067 0b06 1A       		.uleb128 0x1a
 2068 0b07 27030000 		.4byte	.LASF188
 2069 0b0b 0C       		.byte	0xc
 2070 0b0c A203     		.2byte	0x3a2
 2071 0b0e 62000000 		.4byte	0x62
 2072 0b12 02       		.byte	0x2
 2073 0b13 23       		.byte	0x23
 2074 0b14 1A       		.uleb128 0x1a
 2075 0b15 00       		.byte	0
 2076 0b16 14       		.uleb128 0x14
 2077 0b17 C0030000 		.4byte	.LASF193
 2078 0b1b 0C       		.byte	0xc
 2079 0b1c A303     		.2byte	0x3a3
 2080 0b1e 3C0A0000 		.4byte	0xa3c
 2081 0b22 1B       		.uleb128 0x1b
 2082 0b23 01       		.byte	0x1
 2083 0b24 0D       		.byte	0xd
 2084 0b25 64       		.byte	0x64
 2085 0b26 3D0B0000 		.4byte	0xb3d
 2086 0b2a 16       		.uleb128 0x16
 2087 0b2b 4C030000 		.4byte	.LASF194
 2088 0b2f 00       		.sleb128 0
 2089 0b30 16       		.uleb128 0x16
 2090 0b31 7C0A0000 		.4byte	.LASF195
 2091 0b35 01       		.sleb128 1
 2092 0b36 16       		.uleb128 0x16
 2093 0b37 C5080000 		.4byte	.LASF196
 2094 0b3b 02       		.sleb128 2
 2095 0b3c 00       		.byte	0
 2096 0b3d 03       		.uleb128 0x3
 2097 0b3e 7B080000 		.4byte	.LASF197
 2098 0b42 0D       		.byte	0xd
 2099 0b43 68       		.byte	0x68
ARM GAS  /tmp/ccaK2hqG.s 			page 38


 2100 0b44 220B0000 		.4byte	0xb22
 2101 0b48 03       		.uleb128 0x3
 2102 0b49 50020000 		.4byte	.LASF198
 2103 0b4d 0D       		.byte	0xd
 2104 0b4e 6D       		.byte	0x6d
 2105 0b4f 530B0000 		.4byte	0xb53
 2106 0b53 05       		.uleb128 0x5
 2107 0b54 50020000 		.4byte	.LASF198
 2108 0b58 D4       		.byte	0xd4
 2109 0b59 0D       		.byte	0xd
 2110 0b5a 87       		.byte	0x87
 2111 0b5b DE0B0000 		.4byte	0xbde
 2112 0b5f 07       		.uleb128 0x7
 2113 0b60 766D7400 		.ascii	"vmt\000"
 2114 0b64 0D       		.byte	0xd
 2115 0b65 89       		.byte	0x89
 2116 0b66 B50C0000 		.4byte	0xcb5
 2117 0b6a 02       		.byte	0x2
 2118 0b6b 23       		.byte	0x23
 2119 0b6c 00       		.uleb128 0
 2120 0b6d 06       		.uleb128 0x6
 2121 0b6e 54060000 		.4byte	.LASF199
 2122 0b72 0D       		.byte	0xd
 2123 0b73 8A       		.byte	0x8a
 2124 0b74 F5030000 		.4byte	0x3f5
 2125 0b78 02       		.byte	0x2
 2126 0b79 23       		.byte	0x23
 2127 0b7a 04       		.uleb128 0x4
 2128 0b7b 06       		.uleb128 0x6
 2129 0b7c BA030000 		.4byte	.LASF200
 2130 0b80 0D       		.byte	0xd
 2131 0b81 8A       		.byte	0x8a
 2132 0b82 EC050000 		.4byte	0x5ec
 2133 0b86 02       		.byte	0x2
 2134 0b87 23       		.byte	0x23
 2135 0b88 08       		.uleb128 0x8
 2136 0b89 06       		.uleb128 0x6
 2137 0b8a F9000000 		.4byte	.LASF201
 2138 0b8e 0D       		.byte	0xd
 2139 0b8f 8A       		.byte	0x8a
 2140 0b90 3D0B0000 		.4byte	0xb3d
 2141 0b94 02       		.byte	0x2
 2142 0b95 23       		.byte	0x23
 2143 0b96 0C       		.uleb128 0xc
 2144 0b97 06       		.uleb128 0x6
 2145 0b98 14090000 		.4byte	.LASF202
 2146 0b9c 0D       		.byte	0xd
 2147 0b9d 8A       		.byte	0x8a
 2148 0b9e F0040000 		.4byte	0x4f0
 2149 0ba2 02       		.byte	0x2
 2150 0ba3 23       		.byte	0x23
 2151 0ba4 10       		.uleb128 0x10
 2152 0ba5 06       		.uleb128 0x6
 2153 0ba6 5D020000 		.4byte	.LASF203
 2154 0baa 0D       		.byte	0xd
 2155 0bab 8A       		.byte	0x8a
 2156 0bac FB040000 		.4byte	0x4fb
ARM GAS  /tmp/ccaK2hqG.s 			page 39


 2157 0bb0 02       		.byte	0x2
 2158 0bb1 23       		.byte	0x23
 2159 0bb2 30       		.uleb128 0x30
 2160 0bb3 07       		.uleb128 0x7
 2161 0bb4 696200   		.ascii	"ib\000"
 2162 0bb7 0D       		.byte	0xd
 2163 0bb8 8A       		.byte	0x8a
 2164 0bb9 C00C0000 		.4byte	0xcc0
 2165 0bbd 02       		.byte	0x2
 2166 0bbe 23       		.byte	0x23
 2167 0bbf 50       		.uleb128 0x50
 2168 0bc0 07       		.uleb128 0x7
 2169 0bc1 6F6200   		.ascii	"ob\000"
 2170 0bc4 0D       		.byte	0xd
 2171 0bc5 8A       		.byte	0x8a
 2172 0bc6 C00C0000 		.4byte	0xcc0
 2173 0bca 03       		.byte	0x3
 2174 0bcb 23       		.byte	0x23
 2175 0bcc 9001     		.uleb128 0x90
 2176 0bce 06       		.uleb128 0x6
 2177 0bcf 98020000 		.4byte	.LASF204
 2178 0bd3 0D       		.byte	0xd
 2179 0bd4 8A       		.byte	0x8a
 2180 0bd5 D00C0000 		.4byte	0xcd0
 2181 0bd9 03       		.byte	0x3
 2182 0bda 23       		.byte	0x23
 2183 0bdb D001     		.uleb128 0xd0
 2184 0bdd 00       		.byte	0
 2185 0bde 08       		.uleb128 0x8
 2186 0bdf 0C       		.byte	0xc
 2187 0be0 0E       		.byte	0xe
 2188 0be1 C4       		.byte	0xc4
 2189 0be2 1F0C0000 		.4byte	0xc1f
 2190 0be6 06       		.uleb128 0x6
 2191 0be7 AF060000 		.4byte	.LASF205
 2192 0beb 0E       		.byte	0xe
 2193 0bec C8       		.byte	0xc8
 2194 0bed 86000000 		.4byte	0x86
 2195 0bf1 02       		.byte	0x2
 2196 0bf2 23       		.byte	0x23
 2197 0bf3 00       		.uleb128 0
 2198 0bf4 06       		.uleb128 0x6
 2199 0bf5 96050000 		.4byte	.LASF206
 2200 0bf9 0E       		.byte	0xe
 2201 0bfa CC       		.byte	0xcc
 2202 0bfb 62000000 		.4byte	0x62
 2203 0bff 02       		.byte	0x2
 2204 0c00 23       		.byte	0x23
 2205 0c01 04       		.uleb128 0x4
 2206 0c02 06       		.uleb128 0x6
 2207 0c03 9D050000 		.4byte	.LASF207
 2208 0c07 0E       		.byte	0xe
 2209 0c08 D0       		.byte	0xd0
 2210 0c09 62000000 		.4byte	0x62
 2211 0c0d 02       		.byte	0x2
 2212 0c0e 23       		.byte	0x23
 2213 0c0f 06       		.uleb128 0x6
ARM GAS  /tmp/ccaK2hqG.s 			page 40


 2214 0c10 06       		.uleb128 0x6
 2215 0c11 A4050000 		.4byte	.LASF208
 2216 0c15 0E       		.byte	0xe
 2217 0c16 D4       		.byte	0xd4
 2218 0c17 62000000 		.4byte	0x62
 2219 0c1b 02       		.byte	0x2
 2220 0c1c 23       		.byte	0x23
 2221 0c1d 08       		.uleb128 0x8
 2222 0c1e 00       		.byte	0
 2223 0c1f 03       		.uleb128 0x3
 2224 0c20 50000000 		.4byte	.LASF209
 2225 0c24 0E       		.byte	0xe
 2226 0c25 D5       		.byte	0xd5
 2227 0c26 DE0B0000 		.4byte	0xbde
 2228 0c2a 05       		.uleb128 0x5
 2229 0c2b 2C050000 		.4byte	.LASF210
 2230 0c2f 24       		.byte	0x24
 2231 0c30 0D       		.byte	0xd
 2232 0c31 7C       		.byte	0x7c
 2233 0c32 B50C0000 		.4byte	0xcb5
 2234 0c36 06       		.uleb128 0x6
 2235 0c37 B2000000 		.4byte	.LASF211
 2236 0c3b 0D       		.byte	0xd
 2237 0c3c 7D       		.byte	0x7d
 2238 0c3d 2B050000 		.4byte	0x52b
 2239 0c41 02       		.byte	0x2
 2240 0c42 23       		.byte	0x23
 2241 0c43 00       		.uleb128 0
 2242 0c44 06       		.uleb128 0x6
 2243 0c45 73060000 		.4byte	.LASF212
 2244 0c49 0D       		.byte	0xd
 2245 0c4a 7D       		.byte	0x7d
 2246 0c4b 4B050000 		.4byte	0x54b
 2247 0c4f 02       		.byte	0x2
 2248 0c50 23       		.byte	0x23
 2249 0c51 04       		.uleb128 0x4
 2250 0c52 06       		.uleb128 0x6
 2251 0c53 F0030000 		.4byte	.LASF213
 2252 0c57 0D       		.byte	0xd
 2253 0c58 7D       		.byte	0x7d
 2254 0c59 61050000 		.4byte	0x561
 2255 0c5d 02       		.byte	0x2
 2256 0c5e 23       		.byte	0x23
 2257 0c5f 08       		.uleb128 0x8
 2258 0c60 06       		.uleb128 0x6
 2259 0c61 44070000 		.4byte	.LASF214
 2260 0c65 0D       		.byte	0xd
 2261 0c66 7D       		.byte	0x7d
 2262 0c67 61050000 		.4byte	0x561
 2263 0c6b 02       		.byte	0x2
 2264 0c6c 23       		.byte	0x23
 2265 0c6d 0C       		.uleb128 0xc
 2266 0c6e 07       		.uleb128 0x7
 2267 0c6f 70757400 		.ascii	"put\000"
 2268 0c73 0D       		.byte	0xd
 2269 0c74 7D       		.byte	0x7d
 2270 0c75 81050000 		.4byte	0x581
ARM GAS  /tmp/ccaK2hqG.s 			page 41


 2271 0c79 02       		.byte	0x2
 2272 0c7a 23       		.byte	0x23
 2273 0c7b 10       		.uleb128 0x10
 2274 0c7c 07       		.uleb128 0x7
 2275 0c7d 67657400 		.ascii	"get\000"
 2276 0c81 0D       		.byte	0xd
 2277 0c82 7D       		.byte	0x7d
 2278 0c83 9C050000 		.4byte	0x59c
 2279 0c87 02       		.byte	0x2
 2280 0c88 23       		.byte	0x23
 2281 0c89 14       		.uleb128 0x14
 2282 0c8a 06       		.uleb128 0x6
 2283 0c8b 5D000000 		.4byte	.LASF215
 2284 0c8f 0D       		.byte	0xd
 2285 0c90 7D       		.byte	0x7d
 2286 0c91 C1050000 		.4byte	0x5c1
 2287 0c95 02       		.byte	0x2
 2288 0c96 23       		.byte	0x23
 2289 0c97 18       		.uleb128 0x18
 2290 0c98 06       		.uleb128 0x6
 2291 0c99 B8010000 		.4byte	.LASF216
 2292 0c9d 0D       		.byte	0xd
 2293 0c9e 7D       		.byte	0x7d
 2294 0c9f E6050000 		.4byte	0x5e6
 2295 0ca3 02       		.byte	0x2
 2296 0ca4 23       		.byte	0x23
 2297 0ca5 1C       		.uleb128 0x1c
 2298 0ca6 06       		.uleb128 0x6
 2299 0ca7 5B090000 		.4byte	.LASF217
 2300 0cab 0D       		.byte	0xd
 2301 0cac 7D       		.byte	0x7d
 2302 0cad 08060000 		.4byte	0x608
 2303 0cb1 02       		.byte	0x2
 2304 0cb2 23       		.byte	0x23
 2305 0cb3 20       		.uleb128 0x20
 2306 0cb4 00       		.byte	0
 2307 0cb5 09       		.uleb128 0x9
 2308 0cb6 04       		.byte	0x4
 2309 0cb7 BB0C0000 		.4byte	0xcbb
 2310 0cbb 10       		.uleb128 0x10
 2311 0cbc 2A0C0000 		.4byte	0xc2a
 2312 0cc0 17       		.uleb128 0x17
 2313 0cc1 49000000 		.4byte	0x49
 2314 0cc5 D00C0000 		.4byte	0xcd0
 2315 0cc9 18       		.uleb128 0x18
 2316 0cca 3B000000 		.4byte	0x3b
 2317 0cce 3F       		.byte	0x3f
 2318 0ccf 00       		.byte	0
 2319 0cd0 09       		.uleb128 0x9
 2320 0cd1 04       		.byte	0x4
 2321 0cd2 160B0000 		.4byte	0xb16
 2322 0cd6 1C       		.uleb128 0x1c
 2323 0cd7 19010000 		.4byte	.LASF218
 2324 0cdb 01       		.byte	0x1
 2325 0cdc 95       		.byte	0x95
 2326 0cdd 01       		.byte	0x1
 2327 0cde 01       		.byte	0x1
ARM GAS  /tmp/ccaK2hqG.s 			page 42


 2328 0cdf 220D0000 		.4byte	0xd22
 2329 0ce3 1D       		.uleb128 0x1d
 2330 0ce4 73647000 		.ascii	"sdp\000"
 2331 0ce8 01       		.byte	0x1
 2332 0ce9 95       		.byte	0x95
 2333 0cea 220D0000 		.4byte	0xd22
 2334 0cee 1D       		.uleb128 0x1d
 2335 0cef 737200   		.ascii	"sr\000"
 2336 0cf2 01       		.byte	0x1
 2337 0cf3 95       		.byte	0x95
 2338 0cf4 62000000 		.4byte	0x62
 2339 0cf8 1E       		.uleb128 0x1e
 2340 0cf9 73747300 		.ascii	"sts\000"
 2341 0cfd 01       		.byte	0x1
 2342 0cfe 96       		.byte	0x96
 2343 0cff EC050000 		.4byte	0x5ec
 2344 0d03 1F       		.uleb128 0x1f
 2345 0d04 140D0000 		.4byte	0xd14
 2346 0d08 1E       		.uleb128 0x1e
 2347 0d09 746D7000 		.ascii	"tmp\000"
 2348 0d0d 01       		.byte	0x1
 2349 0d0e A0       		.byte	0xa0
 2350 0d0f 86000000 		.4byte	0x86
 2351 0d13 00       		.byte	0
 2352 0d14 20       		.uleb128 0x20
 2353 0d15 1E       		.uleb128 0x1e
 2354 0d16 746D7000 		.ascii	"tmp\000"
 2355 0d1a 01       		.byte	0x1
 2356 0d1b A2       		.byte	0xa2
 2357 0d1c 86000000 		.4byte	0x86
 2358 0d20 00       		.byte	0
 2359 0d21 00       		.byte	0
 2360 0d22 09       		.uleb128 0x9
 2361 0d23 04       		.byte	0x4
 2362 0d24 480B0000 		.4byte	0xb48
 2363 0d28 1C       		.uleb128 0x1c
 2364 0d29 7F070000 		.4byte	.LASF219
 2365 0d2d 01       		.byte	0x1
 2366 0d2e 63       		.byte	0x63
 2367 0d2f 01       		.byte	0x1
 2368 0d30 01       		.byte	0x1
 2369 0d31 550D0000 		.4byte	0xd55
 2370 0d35 1D       		.uleb128 0x1d
 2371 0d36 73647000 		.ascii	"sdp\000"
 2372 0d3a 01       		.byte	0x1
 2373 0d3b 63       		.byte	0x63
 2374 0d3c 220D0000 		.4byte	0xd22
 2375 0d40 21       		.uleb128 0x21
 2376 0d41 F2000000 		.4byte	.LASF220
 2377 0d45 01       		.byte	0x1
 2378 0d46 63       		.byte	0x63
 2379 0d47 550D0000 		.4byte	0xd55
 2380 0d4b 1E       		.uleb128 0x1e
 2381 0d4c 7500     		.ascii	"u\000"
 2382 0d4e 01       		.byte	0x1
 2383 0d4f 64       		.byte	0x64
 2384 0d50 D00C0000 		.4byte	0xcd0
ARM GAS  /tmp/ccaK2hqG.s 			page 43


 2385 0d54 00       		.byte	0
 2386 0d55 09       		.uleb128 0x9
 2387 0d56 04       		.byte	0x4
 2388 0d57 5B0D0000 		.4byte	0xd5b
 2389 0d5b 10       		.uleb128 0x10
 2390 0d5c 1F0C0000 		.4byte	0xc1f
 2391 0d60 1C       		.uleb128 0x1c
 2392 0d61 3C050000 		.4byte	.LASF221
 2393 0d65 01       		.byte	0x1
 2394 0d66 85       		.byte	0x85
 2395 0d67 01       		.byte	0x1
 2396 0d68 01       		.byte	0x1
 2397 0d69 770D0000 		.4byte	0xd77
 2398 0d6d 1D       		.uleb128 0x1d
 2399 0d6e 7500     		.ascii	"u\000"
 2400 0d70 01       		.byte	0x1
 2401 0d71 85       		.byte	0x85
 2402 0d72 D00C0000 		.4byte	0xcd0
 2403 0d76 00       		.byte	0
 2404 0d77 1C       		.uleb128 0x1c
 2405 0d78 09010000 		.4byte	.LASF222
 2406 0d7c 01       		.byte	0x1
 2407 0d7d AA       		.byte	0xaa
 2408 0d7e 01       		.byte	0x1
 2409 0d7f 01       		.byte	0x1
 2410 0d80 470E0000 		.4byte	0xe47
 2411 0d84 1D       		.uleb128 0x1d
 2412 0d85 73647000 		.ascii	"sdp\000"
 2413 0d89 01       		.byte	0x1
 2414 0d8a AA       		.byte	0xaa
 2415 0d8b 220D0000 		.4byte	0xd22
 2416 0d8f 1E       		.uleb128 0x1e
 2417 0d90 7500     		.ascii	"u\000"
 2418 0d92 01       		.byte	0x1
 2419 0d93 AB       		.byte	0xab
 2420 0d94 D00C0000 		.4byte	0xcd0
 2421 0d98 1E       		.uleb128 0x1e
 2422 0d99 63723100 		.ascii	"cr1\000"
 2423 0d9d 01       		.byte	0x1
 2424 0d9e AC       		.byte	0xac
 2425 0d9f 62000000 		.4byte	0x62
 2426 0da3 1E       		.uleb128 0x1e
 2427 0da4 737200   		.ascii	"sr\000"
 2428 0da7 01       		.byte	0x1
 2429 0da8 AD       		.byte	0xad
 2430 0da9 62000000 		.4byte	0x62
 2431 0dad 1E       		.uleb128 0x1e
 2432 0dae 647200   		.ascii	"dr\000"
 2433 0db1 01       		.byte	0x1
 2434 0db2 AE       		.byte	0xae
 2435 0db3 62000000 		.4byte	0x62
 2436 0db7 1F       		.uleb128 0x1f
 2437 0db8 C80D0000 		.4byte	0xdc8
 2438 0dbc 1E       		.uleb128 0x1e
 2439 0dbd 746D7000 		.ascii	"tmp\000"
 2440 0dc1 01       		.byte	0x1
 2441 0dc2 B5       		.byte	0xb5
ARM GAS  /tmp/ccaK2hqG.s 			page 44


 2442 0dc3 86000000 		.4byte	0x86
 2443 0dc7 00       		.byte	0
 2444 0dc8 1F       		.uleb128 0x1f
 2445 0dc9 D90D0000 		.4byte	0xdd9
 2446 0dcd 1E       		.uleb128 0x1e
 2447 0dce 746D7000 		.ascii	"tmp\000"
 2448 0dd2 01       		.byte	0x1
 2449 0dd3 B7       		.byte	0xb7
 2450 0dd4 86000000 		.4byte	0x86
 2451 0dd8 00       		.byte	0
 2452 0dd9 1F       		.uleb128 0x1f
 2453 0dda EA0D0000 		.4byte	0xdea
 2454 0dde 1E       		.uleb128 0x1e
 2455 0ddf 746D7000 		.ascii	"tmp\000"
 2456 0de3 01       		.byte	0x1
 2457 0de4 BC       		.byte	0xbc
 2458 0de5 86000000 		.4byte	0x86
 2459 0de9 00       		.byte	0
 2460 0dea 1F       		.uleb128 0x1f
 2461 0deb FB0D0000 		.4byte	0xdfb
 2462 0def 1E       		.uleb128 0x1e
 2463 0df0 746D7000 		.ascii	"tmp\000"
 2464 0df4 01       		.byte	0x1
 2465 0df5 BE       		.byte	0xbe
 2466 0df6 86000000 		.4byte	0x86
 2467 0dfa 00       		.byte	0
 2468 0dfb 1F       		.uleb128 0x1f
 2469 0dfc 280E0000 		.4byte	0xe28
 2470 0e00 1E       		.uleb128 0x1e
 2471 0e01 6200     		.ascii	"b\000"
 2472 0e03 01       		.byte	0x1
 2473 0e04 C2       		.byte	0xc2
 2474 0e05 E8000000 		.4byte	0xe8
 2475 0e09 1F       		.uleb128 0x1f
 2476 0e0a 1A0E0000 		.4byte	0xe1a
 2477 0e0e 1E       		.uleb128 0x1e
 2478 0e0f 746D7000 		.ascii	"tmp\000"
 2479 0e13 01       		.byte	0x1
 2480 0e14 C3       		.byte	0xc3
 2481 0e15 86000000 		.4byte	0x86
 2482 0e19 00       		.byte	0
 2483 0e1a 20       		.uleb128 0x20
 2484 0e1b 1E       		.uleb128 0x1e
 2485 0e1c 746D7000 		.ascii	"tmp\000"
 2486 0e20 01       		.byte	0x1
 2487 0e21 CB       		.byte	0xcb
 2488 0e22 86000000 		.4byte	0x86
 2489 0e26 00       		.byte	0
 2490 0e27 00       		.byte	0
 2491 0e28 1F       		.uleb128 0x1f
 2492 0e29 390E0000 		.4byte	0xe39
 2493 0e2d 1E       		.uleb128 0x1e
 2494 0e2e 746D7000 		.ascii	"tmp\000"
 2495 0e32 01       		.byte	0x1
 2496 0e33 CF       		.byte	0xcf
 2497 0e34 86000000 		.4byte	0x86
 2498 0e38 00       		.byte	0
ARM GAS  /tmp/ccaK2hqG.s 			page 45


 2499 0e39 20       		.uleb128 0x20
 2500 0e3a 1E       		.uleb128 0x1e
 2501 0e3b 746D7000 		.ascii	"tmp\000"
 2502 0e3f 01       		.byte	0x1
 2503 0e40 D1       		.byte	0xd1
 2504 0e41 86000000 		.4byte	0x86
 2505 0e45 00       		.byte	0
 2506 0e46 00       		.byte	0
 2507 0e47 22       		.uleb128 0x22
 2508 0e48 ED080000 		.4byte	.LASF231
 2509 0e4c 01       		.byte	0x1
 2510 0e4d E9       		.byte	0xe9
 2511 0e4e 01       		.byte	0x1
 2512 0e4f 00000000 		.4byte	.LFB121
 2513 0e53 14000000 		.4byte	.LFE121
 2514 0e57 02       		.byte	0x2
 2515 0e58 7D       		.byte	0x7d
 2516 0e59 00       		.sleb128 0
 2517 0e5a 6D0E0000 		.4byte	0xe6d
 2518 0e5e 23       		.uleb128 0x23
 2519 0e5f 717000   		.ascii	"qp\000"
 2520 0e62 01       		.byte	0x1
 2521 0e63 E9       		.byte	0xe9
 2522 0e64 E4040000 		.4byte	0x4e4
 2523 0e68 00000000 		.4byte	.LLST0
 2524 0e6c 00       		.byte	0
 2525 0e6d 24       		.uleb128 0x24
 2526 0e6e 01       		.byte	0x1
 2527 0e6f CE090000 		.4byte	.LASF223
 2528 0e73 01       		.byte	0x1
 2529 0e74 3201     		.2byte	0x132
 2530 0e76 01       		.byte	0x1
 2531 0e77 00000000 		.4byte	.LFB122
 2532 0e7b 3C010000 		.4byte	.LFE122
 2533 0e7f 13000000 		.4byte	.LLST1
 2534 0e83 F50F0000 		.4byte	0xff5
 2535 0e87 25       		.uleb128 0x25
 2536 0e88 770D0000 		.4byte	0xd77
 2537 0e8c 04000000 		.4byte	.LBB47
 2538 0e90 00000000 		.4byte	.Ldebug_ranges0+0
 2539 0e94 01       		.byte	0x1
 2540 0e95 3601     		.2byte	0x136
 2541 0e97 26       		.uleb128 0x26
 2542 0e98 18000000 		.4byte	.Ldebug_ranges0+0x18
 2543 0e9c 27       		.uleb128 0x27
 2544 0e9d 8F0D0000 		.4byte	0xd8f
 2545 0ea1 33000000 		.4byte	.LLST2
 2546 0ea5 28       		.uleb128 0x28
 2547 0ea6 980D0000 		.4byte	0xd98
 2548 0eaa 01       		.byte	0x1
 2549 0eab 57       		.byte	0x57
 2550 0eac 28       		.uleb128 0x28
 2551 0ead A30D0000 		.4byte	0xda3
 2552 0eb1 01       		.byte	0x1
 2553 0eb2 54       		.byte	0x54
 2554 0eb3 27       		.uleb128 0x27
 2555 0eb4 AD0D0000 		.4byte	0xdad
ARM GAS  /tmp/ccaK2hqG.s 			page 46


 2556 0eb8 55000000 		.4byte	.LLST3
 2557 0ebc 29       		.uleb128 0x29
 2558 0ebd 840D0000 		.4byte	0xd84
 2559 0ec1 06       		.byte	0x6
 2560 0ec2 03       		.byte	0x3
 2561 0ec3 00000000 		.4byte	SD3
 2562 0ec7 9F       		.byte	0x9f
 2563 0ec8 2A       		.uleb128 0x2a
 2564 0ec9 D60C0000 		.4byte	0xcd6
 2565 0ecd 1C000000 		.4byte	.LBB49
 2566 0ed1 5A000000 		.4byte	.LBE49
 2567 0ed5 01       		.byte	0x1
 2568 0ed6 B2       		.byte	0xb2
 2569 0ed7 2B0F0000 		.4byte	0xf2b
 2570 0edb 2B       		.uleb128 0x2b
 2571 0edc EE0C0000 		.4byte	0xcee
 2572 0ee0 73000000 		.4byte	.LLST4
 2573 0ee4 2B       		.uleb128 0x2b
 2574 0ee5 E30C0000 		.4byte	0xce3
 2575 0ee9 86000000 		.4byte	.LLST5
 2576 0eed 2C       		.uleb128 0x2c
 2577 0eee 1C000000 		.4byte	.LBB50
 2578 0ef2 5A000000 		.4byte	.LBE50
 2579 0ef6 27       		.uleb128 0x27
 2580 0ef7 F80C0000 		.4byte	0xcf8
 2581 0efb 9E000000 		.4byte	.LLST6
 2582 0eff 2D       		.uleb128 0x2d
 2583 0f00 3E000000 		.4byte	.LBB51
 2584 0f04 44000000 		.4byte	.LBE51
 2585 0f08 160F0000 		.4byte	0xf16
 2586 0f0c 27       		.uleb128 0x27
 2587 0f0d 080D0000 		.4byte	0xd08
 2588 0f11 BD000000 		.4byte	.LLST7
 2589 0f15 00       		.byte	0
 2590 0f16 2C       		.uleb128 0x2c
 2591 0f17 54000000 		.4byte	.LBB52
 2592 0f1b 5A000000 		.4byte	.LBE52
 2593 0f1f 27       		.uleb128 0x27
 2594 0f20 150D0000 		.4byte	0xd15
 2595 0f24 D0000000 		.4byte	.LLST8
 2596 0f28 00       		.byte	0
 2597 0f29 00       		.byte	0
 2598 0f2a 00       		.byte	0
 2599 0f2b 2D       		.uleb128 0x2d
 2600 0f2c 6E000000 		.4byte	.LBB53
 2601 0f30 74000000 		.4byte	.LBE53
 2602 0f34 420F0000 		.4byte	0xf42
 2603 0f38 27       		.uleb128 0x27
 2604 0f39 2D0E0000 		.4byte	0xe2d
 2605 0f3d E3000000 		.4byte	.LLST9
 2606 0f41 00       		.byte	0
 2607 0f42 2D       		.uleb128 0x2d
 2608 0f43 84000000 		.4byte	.LBB54
 2609 0f47 8A000000 		.4byte	.LBE54
 2610 0f4b 590F0000 		.4byte	0xf59
 2611 0f4f 27       		.uleb128 0x27
 2612 0f50 3A0E0000 		.4byte	0xe3a
ARM GAS  /tmp/ccaK2hqG.s 			page 47


 2613 0f54 F6000000 		.4byte	.LLST10
 2614 0f58 00       		.byte	0
 2615 0f59 2D       		.uleb128 0x2d
 2616 0f5a A8000000 		.4byte	.LBB55
 2617 0f5e AE000000 		.4byte	.LBE55
 2618 0f62 700F0000 		.4byte	0xf70
 2619 0f66 27       		.uleb128 0x27
 2620 0f67 DE0D0000 		.4byte	0xdde
 2621 0f6b 09010000 		.4byte	.LLST11
 2622 0f6f 00       		.byte	0
 2623 0f70 2D       		.uleb128 0x2d
 2624 0f71 B8000000 		.4byte	.LBB56
 2625 0f75 C0000000 		.4byte	.LBE56
 2626 0f79 870F0000 		.4byte	0xf87
 2627 0f7d 27       		.uleb128 0x27
 2628 0f7e EF0D0000 		.4byte	0xdef
 2629 0f82 1C010000 		.4byte	.LLST12
 2630 0f86 00       		.byte	0
 2631 0f87 2D       		.uleb128 0x2d
 2632 0f88 C0000000 		.4byte	.LBB57
 2633 0f8c C6000000 		.4byte	.LBE57
 2634 0f90 9E0F0000 		.4byte	0xf9e
 2635 0f94 27       		.uleb128 0x27
 2636 0f95 BC0D0000 		.4byte	0xdbc
 2637 0f99 45010000 		.4byte	.LLST13
 2638 0f9d 00       		.byte	0
 2639 0f9e 2D       		.uleb128 0x2d
 2640 0f9f D6000000 		.4byte	.LBB58
 2641 0fa3 DC000000 		.4byte	.LBE58
 2642 0fa7 B50F0000 		.4byte	0xfb5
 2643 0fab 27       		.uleb128 0x27
 2644 0fac CD0D0000 		.4byte	0xdcd
 2645 0fb0 58010000 		.4byte	.LLST14
 2646 0fb4 00       		.byte	0
 2647 0fb5 2C       		.uleb128 0x2c
 2648 0fb6 EC000000 		.4byte	.LBB59
 2649 0fba 3C010000 		.4byte	.LBE59
 2650 0fbe 27       		.uleb128 0x27
 2651 0fbf 000E0000 		.4byte	0xe00
 2652 0fc3 81010000 		.4byte	.LLST15
 2653 0fc7 2D       		.uleb128 0x2d
 2654 0fc8 EC000000 		.4byte	.LBB60
 2655 0fcc F2000000 		.4byte	.LBE60
 2656 0fd0 DE0F0000 		.4byte	0xfde
 2657 0fd4 27       		.uleb128 0x27
 2658 0fd5 0E0E0000 		.4byte	0xe0e
 2659 0fd9 9F010000 		.4byte	.LLST16
 2660 0fdd 00       		.byte	0
 2661 0fde 2C       		.uleb128 0x2c
 2662 0fdf 0A010000 		.4byte	.LBB61
 2663 0fe3 12010000 		.4byte	.LBE61
 2664 0fe7 27       		.uleb128 0x27
 2665 0fe8 1B0E0000 		.4byte	0xe1b
 2666 0fec B2010000 		.4byte	.LLST17
 2667 0ff0 00       		.byte	0
 2668 0ff1 00       		.byte	0
 2669 0ff2 00       		.byte	0
ARM GAS  /tmp/ccaK2hqG.s 			page 48


 2670 0ff3 00       		.byte	0
 2671 0ff4 00       		.byte	0
 2672 0ff5 2E       		.uleb128 0x2e
 2673 0ff6 01       		.byte	0x1
 2674 0ff7 64050000 		.4byte	.LASF232
 2675 0ffb 01       		.byte	0x1
 2676 0ffc 7501     		.2byte	0x175
 2677 0ffe 01       		.byte	0x1
 2678 0fff 00000000 		.4byte	.LFB123
 2679 1003 28000000 		.4byte	.LFE123
 2680 1007 D0010000 		.4byte	.LLST18
 2681 100b 24       		.uleb128 0x24
 2682 100c 01       		.byte	0x1
 2683 100d BE010000 		.4byte	.LASF224
 2684 1011 01       		.byte	0x1
 2685 1012 A001     		.2byte	0x1a0
 2686 1014 01       		.byte	0x1
 2687 1015 00000000 		.4byte	.LFB124
 2688 1019 B4000000 		.4byte	.LFE124
 2689 101d F0010000 		.4byte	.LLST19
 2690 1021 74100000 		.4byte	0x1074
 2691 1025 2F       		.uleb128 0x2f
 2692 1026 73647000 		.ascii	"sdp\000"
 2693 102a 01       		.byte	0x1
 2694 102b A001     		.2byte	0x1a0
 2695 102d 220D0000 		.4byte	0xd22
 2696 1031 10020000 		.4byte	.LLST20
 2697 1035 30       		.uleb128 0x30
 2698 1036 F2000000 		.4byte	.LASF220
 2699 103a 01       		.byte	0x1
 2700 103b A001     		.2byte	0x1a0
 2701 103d 550D0000 		.4byte	0xd55
 2702 1041 2E020000 		.4byte	.LLST21
 2703 1045 25       		.uleb128 0x25
 2704 1046 280D0000 		.4byte	0xd28
 2705 104a 12000000 		.4byte	.LBB64
 2706 104e 30000000 		.4byte	.Ldebug_ranges0+0x30
 2707 1052 01       		.byte	0x1
 2708 1053 D101     		.2byte	0x1d1
 2709 1055 31       		.uleb128 0x31
 2710 1056 400D0000 		.4byte	0xd40
 2711 105a 2B       		.uleb128 0x2b
 2712 105b 350D0000 		.4byte	0xd35
 2713 105f 4C020000 		.4byte	.LLST22
 2714 1063 26       		.uleb128 0x26
 2715 1064 48000000 		.4byte	.Ldebug_ranges0+0x48
 2716 1068 27       		.uleb128 0x27
 2717 1069 4B0D0000 		.4byte	0xd4b
 2718 106d 6A020000 		.4byte	.LLST23
 2719 1071 00       		.byte	0
 2720 1072 00       		.byte	0
 2721 1073 00       		.byte	0
 2722 1074 32       		.uleb128 0x32
 2723 1075 01       		.byte	0x1
 2724 1076 090A0000 		.4byte	.LASF225
 2725 107a 01       		.byte	0x1
 2726 107b DD01     		.2byte	0x1dd
ARM GAS  /tmp/ccaK2hqG.s 			page 49


 2727 107d 01       		.byte	0x1
 2728 107e 00000000 		.4byte	.LFB125
 2729 1082 38000000 		.4byte	.LFE125
 2730 1086 02       		.byte	0x2
 2731 1087 7D       		.byte	0x7d
 2732 1088 00       		.sleb128 0
 2733 1089 B8100000 		.4byte	0x10b8
 2734 108d 2F       		.uleb128 0x2f
 2735 108e 73647000 		.ascii	"sdp\000"
 2736 1092 01       		.byte	0x1
 2737 1093 DD01     		.2byte	0x1dd
 2738 1095 220D0000 		.4byte	0xd22
 2739 1099 8A020000 		.4byte	.LLST24
 2740 109d 25       		.uleb128 0x25
 2741 109e 600D0000 		.4byte	0xd60
 2742 10a2 0E000000 		.4byte	.LBB68
 2743 10a6 60000000 		.4byte	.Ldebug_ranges0+0x60
 2744 10aa 01       		.byte	0x1
 2745 10ab E001     		.2byte	0x1e0
 2746 10ad 2B       		.uleb128 0x2b
 2747 10ae 6D0D0000 		.4byte	0xd6d
 2748 10b2 A8020000 		.4byte	.LLST25
 2749 10b6 00       		.byte	0
 2750 10b7 00       		.byte	0
 2751 10b8 33       		.uleb128 0x33
 2752 10b9 4E090000 		.4byte	.LASF226
 2753 10bd 0F       		.byte	0xf
 2754 10be 1A05     		.2byte	0x51a
 2755 10c0 5E080000 		.4byte	0x85e
 2756 10c4 01       		.byte	0x1
 2757 10c5 01       		.byte	0x1
 2758 10c6 34       		.uleb128 0x34
 2759 10c7 53443300 		.ascii	"SD3\000"
 2760 10cb 0E       		.byte	0xe
 2761 10cc 0101     		.2byte	0x101
 2762 10ce 480B0000 		.4byte	0xb48
 2763 10d2 01       		.byte	0x1
 2764 10d3 01       		.byte	0x1
 2765 10d4 35       		.uleb128 0x35
 2766 10d5 04020000 		.4byte	.LASF233
 2767 10d9 01       		.byte	0x1
 2768 10da 50       		.byte	0x50
 2769 10db 5B0D0000 		.4byte	0xd5b
 2770 10df 05       		.byte	0x5
 2771 10e0 03       		.byte	0x3
 2772 10e1 00000000 		.4byte	default_config
 2773 10e5 33       		.uleb128 0x33
 2774 10e6 4E090000 		.4byte	.LASF226
 2775 10ea 0F       		.byte	0xf
 2776 10eb 1A05     		.2byte	0x51a
 2777 10ed 5E080000 		.4byte	0x85e
 2778 10f1 01       		.byte	0x1
 2779 10f2 01       		.byte	0x1
 2780 10f3 36       		.uleb128 0x36
 2781 10f4 53443300 		.ascii	"SD3\000"
 2782 10f8 01       		.byte	0x1
 2783 10f9 39       		.byte	0x39
ARM GAS  /tmp/ccaK2hqG.s 			page 50


 2784 10fa 480B0000 		.4byte	0xb48
 2785 10fe 01       		.byte	0x1
 2786 10ff 05       		.byte	0x5
 2787 1100 03       		.byte	0x3
 2788 1101 00000000 		.4byte	SD3
 2789 1105 00       		.byte	0
 2790              		.section	.debug_abbrev,"",%progbits
 2791              	.Ldebug_abbrev0:
 2792 0000 01       		.uleb128 0x1
 2793 0001 11       		.uleb128 0x11
 2794 0002 01       		.byte	0x1
 2795 0003 25       		.uleb128 0x25
 2796 0004 0E       		.uleb128 0xe
 2797 0005 13       		.uleb128 0x13
 2798 0006 0B       		.uleb128 0xb
 2799 0007 03       		.uleb128 0x3
 2800 0008 0E       		.uleb128 0xe
 2801 0009 1B       		.uleb128 0x1b
 2802 000a 0E       		.uleb128 0xe
 2803 000b 11       		.uleb128 0x11
 2804 000c 01       		.uleb128 0x1
 2805 000d 52       		.uleb128 0x52
 2806 000e 01       		.uleb128 0x1
 2807 000f 55       		.uleb128 0x55
 2808 0010 06       		.uleb128 0x6
 2809 0011 10       		.uleb128 0x10
 2810 0012 06       		.uleb128 0x6
 2811 0013 00       		.byte	0
 2812 0014 00       		.byte	0
 2813 0015 02       		.uleb128 0x2
 2814 0016 24       		.uleb128 0x24
 2815 0017 00       		.byte	0
 2816 0018 0B       		.uleb128 0xb
 2817 0019 0B       		.uleb128 0xb
 2818 001a 3E       		.uleb128 0x3e
 2819 001b 0B       		.uleb128 0xb
 2820 001c 03       		.uleb128 0x3
 2821 001d 08       		.uleb128 0x8
 2822 001e 00       		.byte	0
 2823 001f 00       		.byte	0
 2824 0020 03       		.uleb128 0x3
 2825 0021 16       		.uleb128 0x16
 2826 0022 00       		.byte	0
 2827 0023 03       		.uleb128 0x3
 2828 0024 0E       		.uleb128 0xe
 2829 0025 3A       		.uleb128 0x3a
 2830 0026 0B       		.uleb128 0xb
 2831 0027 3B       		.uleb128 0x3b
 2832 0028 0B       		.uleb128 0xb
 2833 0029 49       		.uleb128 0x49
 2834 002a 13       		.uleb128 0x13
 2835 002b 00       		.byte	0
 2836 002c 00       		.byte	0
 2837 002d 04       		.uleb128 0x4
 2838 002e 24       		.uleb128 0x24
 2839 002f 00       		.byte	0
 2840 0030 0B       		.uleb128 0xb
ARM GAS  /tmp/ccaK2hqG.s 			page 51


 2841 0031 0B       		.uleb128 0xb
 2842 0032 3E       		.uleb128 0x3e
 2843 0033 0B       		.uleb128 0xb
 2844 0034 03       		.uleb128 0x3
 2845 0035 0E       		.uleb128 0xe
 2846 0036 00       		.byte	0
 2847 0037 00       		.byte	0
 2848 0038 05       		.uleb128 0x5
 2849 0039 13       		.uleb128 0x13
 2850 003a 01       		.byte	0x1
 2851 003b 03       		.uleb128 0x3
 2852 003c 0E       		.uleb128 0xe
 2853 003d 0B       		.uleb128 0xb
 2854 003e 0B       		.uleb128 0xb
 2855 003f 3A       		.uleb128 0x3a
 2856 0040 0B       		.uleb128 0xb
 2857 0041 3B       		.uleb128 0x3b
 2858 0042 0B       		.uleb128 0xb
 2859 0043 01       		.uleb128 0x1
 2860 0044 13       		.uleb128 0x13
 2861 0045 00       		.byte	0
 2862 0046 00       		.byte	0
 2863 0047 06       		.uleb128 0x6
 2864 0048 0D       		.uleb128 0xd
 2865 0049 00       		.byte	0
 2866 004a 03       		.uleb128 0x3
 2867 004b 0E       		.uleb128 0xe
 2868 004c 3A       		.uleb128 0x3a
 2869 004d 0B       		.uleb128 0xb
 2870 004e 3B       		.uleb128 0x3b
 2871 004f 0B       		.uleb128 0xb
 2872 0050 49       		.uleb128 0x49
 2873 0051 13       		.uleb128 0x13
 2874 0052 38       		.uleb128 0x38
 2875 0053 0A       		.uleb128 0xa
 2876 0054 00       		.byte	0
 2877 0055 00       		.byte	0
 2878 0056 07       		.uleb128 0x7
 2879 0057 0D       		.uleb128 0xd
 2880 0058 00       		.byte	0
 2881 0059 03       		.uleb128 0x3
 2882 005a 08       		.uleb128 0x8
 2883 005b 3A       		.uleb128 0x3a
 2884 005c 0B       		.uleb128 0xb
 2885 005d 3B       		.uleb128 0x3b
 2886 005e 0B       		.uleb128 0xb
 2887 005f 49       		.uleb128 0x49
 2888 0060 13       		.uleb128 0x13
 2889 0061 38       		.uleb128 0x38
 2890 0062 0A       		.uleb128 0xa
 2891 0063 00       		.byte	0
 2892 0064 00       		.byte	0
 2893 0065 08       		.uleb128 0x8
 2894 0066 13       		.uleb128 0x13
 2895 0067 01       		.byte	0x1
 2896 0068 0B       		.uleb128 0xb
 2897 0069 0B       		.uleb128 0xb
ARM GAS  /tmp/ccaK2hqG.s 			page 52


 2898 006a 3A       		.uleb128 0x3a
 2899 006b 0B       		.uleb128 0xb
 2900 006c 3B       		.uleb128 0x3b
 2901 006d 0B       		.uleb128 0xb
 2902 006e 01       		.uleb128 0x1
 2903 006f 13       		.uleb128 0x13
 2904 0070 00       		.byte	0
 2905 0071 00       		.byte	0
 2906 0072 09       		.uleb128 0x9
 2907 0073 0F       		.uleb128 0xf
 2908 0074 00       		.byte	0
 2909 0075 0B       		.uleb128 0xb
 2910 0076 0B       		.uleb128 0xb
 2911 0077 49       		.uleb128 0x49
 2912 0078 13       		.uleb128 0x13
 2913 0079 00       		.byte	0
 2914 007a 00       		.byte	0
 2915 007b 0A       		.uleb128 0xa
 2916 007c 0F       		.uleb128 0xf
 2917 007d 00       		.byte	0
 2918 007e 0B       		.uleb128 0xb
 2919 007f 0B       		.uleb128 0xb
 2920 0080 00       		.byte	0
 2921 0081 00       		.byte	0
 2922 0082 0B       		.uleb128 0xb
 2923 0083 0D       		.uleb128 0xd
 2924 0084 00       		.byte	0
 2925 0085 03       		.uleb128 0x3
 2926 0086 08       		.uleb128 0x8
 2927 0087 3A       		.uleb128 0x3a
 2928 0088 0B       		.uleb128 0xb
 2929 0089 3B       		.uleb128 0x3b
 2930 008a 05       		.uleb128 0x5
 2931 008b 49       		.uleb128 0x49
 2932 008c 13       		.uleb128 0x13
 2933 008d 38       		.uleb128 0x38
 2934 008e 0A       		.uleb128 0xa
 2935 008f 00       		.byte	0
 2936 0090 00       		.byte	0
 2937 0091 0C       		.uleb128 0xc
 2938 0092 13       		.uleb128 0x13
 2939 0093 01       		.byte	0x1
 2940 0094 03       		.uleb128 0x3
 2941 0095 0E       		.uleb128 0xe
 2942 0096 0B       		.uleb128 0xb
 2943 0097 0B       		.uleb128 0xb
 2944 0098 3A       		.uleb128 0x3a
 2945 0099 0B       		.uleb128 0xb
 2946 009a 3B       		.uleb128 0x3b
 2947 009b 05       		.uleb128 0x5
 2948 009c 01       		.uleb128 0x1
 2949 009d 13       		.uleb128 0x13
 2950 009e 00       		.byte	0
 2951 009f 00       		.byte	0
 2952 00a0 0D       		.uleb128 0xd
 2953 00a1 35       		.uleb128 0x35
 2954 00a2 00       		.byte	0
ARM GAS  /tmp/ccaK2hqG.s 			page 53


 2955 00a3 49       		.uleb128 0x49
 2956 00a4 13       		.uleb128 0x13
 2957 00a5 00       		.byte	0
 2958 00a6 00       		.byte	0
 2959 00a7 0E       		.uleb128 0xe
 2960 00a8 17       		.uleb128 0x17
 2961 00a9 01       		.byte	0x1
 2962 00aa 0B       		.uleb128 0xb
 2963 00ab 0B       		.uleb128 0xb
 2964 00ac 3A       		.uleb128 0x3a
 2965 00ad 0B       		.uleb128 0xb
 2966 00ae 3B       		.uleb128 0x3b
 2967 00af 0B       		.uleb128 0xb
 2968 00b0 01       		.uleb128 0x1
 2969 00b1 13       		.uleb128 0x13
 2970 00b2 00       		.byte	0
 2971 00b3 00       		.byte	0
 2972 00b4 0F       		.uleb128 0xf
 2973 00b5 0D       		.uleb128 0xd
 2974 00b6 00       		.byte	0
 2975 00b7 03       		.uleb128 0x3
 2976 00b8 0E       		.uleb128 0xe
 2977 00b9 3A       		.uleb128 0x3a
 2978 00ba 0B       		.uleb128 0xb
 2979 00bb 3B       		.uleb128 0x3b
 2980 00bc 0B       		.uleb128 0xb
 2981 00bd 49       		.uleb128 0x49
 2982 00be 13       		.uleb128 0x13
 2983 00bf 00       		.byte	0
 2984 00c0 00       		.byte	0
 2985 00c1 10       		.uleb128 0x10
 2986 00c2 26       		.uleb128 0x26
 2987 00c3 00       		.byte	0
 2988 00c4 49       		.uleb128 0x49
 2989 00c5 13       		.uleb128 0x13
 2990 00c6 00       		.byte	0
 2991 00c7 00       		.byte	0
 2992 00c8 11       		.uleb128 0x11
 2993 00c9 15       		.uleb128 0x15
 2994 00ca 01       		.byte	0x1
 2995 00cb 27       		.uleb128 0x27
 2996 00cc 0C       		.uleb128 0xc
 2997 00cd 01       		.uleb128 0x1
 2998 00ce 13       		.uleb128 0x13
 2999 00cf 00       		.byte	0
 3000 00d0 00       		.byte	0
 3001 00d1 12       		.uleb128 0x12
 3002 00d2 05       		.uleb128 0x5
 3003 00d3 00       		.byte	0
 3004 00d4 49       		.uleb128 0x49
 3005 00d5 13       		.uleb128 0x13
 3006 00d6 00       		.byte	0
 3007 00d7 00       		.byte	0
 3008 00d8 13       		.uleb128 0x13
 3009 00d9 15       		.uleb128 0x15
 3010 00da 01       		.byte	0x1
 3011 00db 27       		.uleb128 0x27
ARM GAS  /tmp/ccaK2hqG.s 			page 54


 3012 00dc 0C       		.uleb128 0xc
 3013 00dd 49       		.uleb128 0x49
 3014 00de 13       		.uleb128 0x13
 3015 00df 01       		.uleb128 0x1
 3016 00e0 13       		.uleb128 0x13
 3017 00e1 00       		.byte	0
 3018 00e2 00       		.byte	0
 3019 00e3 14       		.uleb128 0x14
 3020 00e4 16       		.uleb128 0x16
 3021 00e5 00       		.byte	0
 3022 00e6 03       		.uleb128 0x3
 3023 00e7 0E       		.uleb128 0xe
 3024 00e8 3A       		.uleb128 0x3a
 3025 00e9 0B       		.uleb128 0xb
 3026 00ea 3B       		.uleb128 0x3b
 3027 00eb 05       		.uleb128 0x5
 3028 00ec 49       		.uleb128 0x49
 3029 00ed 13       		.uleb128 0x13
 3030 00ee 00       		.byte	0
 3031 00ef 00       		.byte	0
 3032 00f0 15       		.uleb128 0x15
 3033 00f1 04       		.uleb128 0x4
 3034 00f2 01       		.byte	0x1
 3035 00f3 03       		.uleb128 0x3
 3036 00f4 0E       		.uleb128 0xe
 3037 00f5 0B       		.uleb128 0xb
 3038 00f6 0B       		.uleb128 0xb
 3039 00f7 3A       		.uleb128 0x3a
 3040 00f8 0B       		.uleb128 0xb
 3041 00f9 3B       		.uleb128 0x3b
 3042 00fa 0B       		.uleb128 0xb
 3043 00fb 01       		.uleb128 0x1
 3044 00fc 13       		.uleb128 0x13
 3045 00fd 00       		.byte	0
 3046 00fe 00       		.byte	0
 3047 00ff 16       		.uleb128 0x16
 3048 0100 28       		.uleb128 0x28
 3049 0101 00       		.byte	0
 3050 0102 03       		.uleb128 0x3
 3051 0103 0E       		.uleb128 0xe
 3052 0104 1C       		.uleb128 0x1c
 3053 0105 0D       		.uleb128 0xd
 3054 0106 00       		.byte	0
 3055 0107 00       		.byte	0
 3056 0108 17       		.uleb128 0x17
 3057 0109 01       		.uleb128 0x1
 3058 010a 01       		.byte	0x1
 3059 010b 49       		.uleb128 0x49
 3060 010c 13       		.uleb128 0x13
 3061 010d 01       		.uleb128 0x1
 3062 010e 13       		.uleb128 0x13
 3063 010f 00       		.byte	0
 3064 0110 00       		.byte	0
 3065 0111 18       		.uleb128 0x18
 3066 0112 21       		.uleb128 0x21
 3067 0113 00       		.byte	0
 3068 0114 49       		.uleb128 0x49
ARM GAS  /tmp/ccaK2hqG.s 			page 55


 3069 0115 13       		.uleb128 0x13
 3070 0116 2F       		.uleb128 0x2f
 3071 0117 0B       		.uleb128 0xb
 3072 0118 00       		.byte	0
 3073 0119 00       		.byte	0
 3074 011a 19       		.uleb128 0x19
 3075 011b 13       		.uleb128 0x13
 3076 011c 01       		.byte	0x1
 3077 011d 0B       		.uleb128 0xb
 3078 011e 0B       		.uleb128 0xb
 3079 011f 3A       		.uleb128 0x3a
 3080 0120 0B       		.uleb128 0xb
 3081 0121 3B       		.uleb128 0x3b
 3082 0122 05       		.uleb128 0x5
 3083 0123 01       		.uleb128 0x1
 3084 0124 13       		.uleb128 0x13
 3085 0125 00       		.byte	0
 3086 0126 00       		.byte	0
 3087 0127 1A       		.uleb128 0x1a
 3088 0128 0D       		.uleb128 0xd
 3089 0129 00       		.byte	0
 3090 012a 03       		.uleb128 0x3
 3091 012b 0E       		.uleb128 0xe
 3092 012c 3A       		.uleb128 0x3a
 3093 012d 0B       		.uleb128 0xb
 3094 012e 3B       		.uleb128 0x3b
 3095 012f 05       		.uleb128 0x5
 3096 0130 49       		.uleb128 0x49
 3097 0131 13       		.uleb128 0x13
 3098 0132 38       		.uleb128 0x38
 3099 0133 0A       		.uleb128 0xa
 3100 0134 00       		.byte	0
 3101 0135 00       		.byte	0
 3102 0136 1B       		.uleb128 0x1b
 3103 0137 04       		.uleb128 0x4
 3104 0138 01       		.byte	0x1
 3105 0139 0B       		.uleb128 0xb
 3106 013a 0B       		.uleb128 0xb
 3107 013b 3A       		.uleb128 0x3a
 3108 013c 0B       		.uleb128 0xb
 3109 013d 3B       		.uleb128 0x3b
 3110 013e 0B       		.uleb128 0xb
 3111 013f 01       		.uleb128 0x1
 3112 0140 13       		.uleb128 0x13
 3113 0141 00       		.byte	0
 3114 0142 00       		.byte	0
 3115 0143 1C       		.uleb128 0x1c
 3116 0144 2E       		.uleb128 0x2e
 3117 0145 01       		.byte	0x1
 3118 0146 03       		.uleb128 0x3
 3119 0147 0E       		.uleb128 0xe
 3120 0148 3A       		.uleb128 0x3a
 3121 0149 0B       		.uleb128 0xb
 3122 014a 3B       		.uleb128 0x3b
 3123 014b 0B       		.uleb128 0xb
 3124 014c 27       		.uleb128 0x27
 3125 014d 0C       		.uleb128 0xc
ARM GAS  /tmp/ccaK2hqG.s 			page 56


 3126 014e 20       		.uleb128 0x20
 3127 014f 0B       		.uleb128 0xb
 3128 0150 01       		.uleb128 0x1
 3129 0151 13       		.uleb128 0x13
 3130 0152 00       		.byte	0
 3131 0153 00       		.byte	0
 3132 0154 1D       		.uleb128 0x1d
 3133 0155 05       		.uleb128 0x5
 3134 0156 00       		.byte	0
 3135 0157 03       		.uleb128 0x3
 3136 0158 08       		.uleb128 0x8
 3137 0159 3A       		.uleb128 0x3a
 3138 015a 0B       		.uleb128 0xb
 3139 015b 3B       		.uleb128 0x3b
 3140 015c 0B       		.uleb128 0xb
 3141 015d 49       		.uleb128 0x49
 3142 015e 13       		.uleb128 0x13
 3143 015f 00       		.byte	0
 3144 0160 00       		.byte	0
 3145 0161 1E       		.uleb128 0x1e
 3146 0162 34       		.uleb128 0x34
 3147 0163 00       		.byte	0
 3148 0164 03       		.uleb128 0x3
 3149 0165 08       		.uleb128 0x8
 3150 0166 3A       		.uleb128 0x3a
 3151 0167 0B       		.uleb128 0xb
 3152 0168 3B       		.uleb128 0x3b
 3153 0169 0B       		.uleb128 0xb
 3154 016a 49       		.uleb128 0x49
 3155 016b 13       		.uleb128 0x13
 3156 016c 00       		.byte	0
 3157 016d 00       		.byte	0
 3158 016e 1F       		.uleb128 0x1f
 3159 016f 0B       		.uleb128 0xb
 3160 0170 01       		.byte	0x1
 3161 0171 01       		.uleb128 0x1
 3162 0172 13       		.uleb128 0x13
 3163 0173 00       		.byte	0
 3164 0174 00       		.byte	0
 3165 0175 20       		.uleb128 0x20
 3166 0176 0B       		.uleb128 0xb
 3167 0177 01       		.byte	0x1
 3168 0178 00       		.byte	0
 3169 0179 00       		.byte	0
 3170 017a 21       		.uleb128 0x21
 3171 017b 05       		.uleb128 0x5
 3172 017c 00       		.byte	0
 3173 017d 03       		.uleb128 0x3
 3174 017e 0E       		.uleb128 0xe
 3175 017f 3A       		.uleb128 0x3a
 3176 0180 0B       		.uleb128 0xb
 3177 0181 3B       		.uleb128 0x3b
 3178 0182 0B       		.uleb128 0xb
 3179 0183 49       		.uleb128 0x49
 3180 0184 13       		.uleb128 0x13
 3181 0185 00       		.byte	0
 3182 0186 00       		.byte	0
ARM GAS  /tmp/ccaK2hqG.s 			page 57


 3183 0187 22       		.uleb128 0x22
 3184 0188 2E       		.uleb128 0x2e
 3185 0189 01       		.byte	0x1
 3186 018a 03       		.uleb128 0x3
 3187 018b 0E       		.uleb128 0xe
 3188 018c 3A       		.uleb128 0x3a
 3189 018d 0B       		.uleb128 0xb
 3190 018e 3B       		.uleb128 0x3b
 3191 018f 0B       		.uleb128 0xb
 3192 0190 27       		.uleb128 0x27
 3193 0191 0C       		.uleb128 0xc
 3194 0192 11       		.uleb128 0x11
 3195 0193 01       		.uleb128 0x1
 3196 0194 12       		.uleb128 0x12
 3197 0195 01       		.uleb128 0x1
 3198 0196 40       		.uleb128 0x40
 3199 0197 0A       		.uleb128 0xa
 3200 0198 01       		.uleb128 0x1
 3201 0199 13       		.uleb128 0x13
 3202 019a 00       		.byte	0
 3203 019b 00       		.byte	0
 3204 019c 23       		.uleb128 0x23
 3205 019d 05       		.uleb128 0x5
 3206 019e 00       		.byte	0
 3207 019f 03       		.uleb128 0x3
 3208 01a0 08       		.uleb128 0x8
 3209 01a1 3A       		.uleb128 0x3a
 3210 01a2 0B       		.uleb128 0xb
 3211 01a3 3B       		.uleb128 0x3b
 3212 01a4 0B       		.uleb128 0xb
 3213 01a5 49       		.uleb128 0x49
 3214 01a6 13       		.uleb128 0x13
 3215 01a7 02       		.uleb128 0x2
 3216 01a8 06       		.uleb128 0x6
 3217 01a9 00       		.byte	0
 3218 01aa 00       		.byte	0
 3219 01ab 24       		.uleb128 0x24
 3220 01ac 2E       		.uleb128 0x2e
 3221 01ad 01       		.byte	0x1
 3222 01ae 3F       		.uleb128 0x3f
 3223 01af 0C       		.uleb128 0xc
 3224 01b0 03       		.uleb128 0x3
 3225 01b1 0E       		.uleb128 0xe
 3226 01b2 3A       		.uleb128 0x3a
 3227 01b3 0B       		.uleb128 0xb
 3228 01b4 3B       		.uleb128 0x3b
 3229 01b5 05       		.uleb128 0x5
 3230 01b6 27       		.uleb128 0x27
 3231 01b7 0C       		.uleb128 0xc
 3232 01b8 11       		.uleb128 0x11
 3233 01b9 01       		.uleb128 0x1
 3234 01ba 12       		.uleb128 0x12
 3235 01bb 01       		.uleb128 0x1
 3236 01bc 40       		.uleb128 0x40
 3237 01bd 06       		.uleb128 0x6
 3238 01be 01       		.uleb128 0x1
 3239 01bf 13       		.uleb128 0x13
ARM GAS  /tmp/ccaK2hqG.s 			page 58


 3240 01c0 00       		.byte	0
 3241 01c1 00       		.byte	0
 3242 01c2 25       		.uleb128 0x25
 3243 01c3 1D       		.uleb128 0x1d
 3244 01c4 01       		.byte	0x1
 3245 01c5 31       		.uleb128 0x31
 3246 01c6 13       		.uleb128 0x13
 3247 01c7 52       		.uleb128 0x52
 3248 01c8 01       		.uleb128 0x1
 3249 01c9 55       		.uleb128 0x55
 3250 01ca 06       		.uleb128 0x6
 3251 01cb 58       		.uleb128 0x58
 3252 01cc 0B       		.uleb128 0xb
 3253 01cd 59       		.uleb128 0x59
 3254 01ce 05       		.uleb128 0x5
 3255 01cf 00       		.byte	0
 3256 01d0 00       		.byte	0
 3257 01d1 26       		.uleb128 0x26
 3258 01d2 0B       		.uleb128 0xb
 3259 01d3 01       		.byte	0x1
 3260 01d4 55       		.uleb128 0x55
 3261 01d5 06       		.uleb128 0x6
 3262 01d6 00       		.byte	0
 3263 01d7 00       		.byte	0
 3264 01d8 27       		.uleb128 0x27
 3265 01d9 34       		.uleb128 0x34
 3266 01da 00       		.byte	0
 3267 01db 31       		.uleb128 0x31
 3268 01dc 13       		.uleb128 0x13
 3269 01dd 02       		.uleb128 0x2
 3270 01de 06       		.uleb128 0x6
 3271 01df 00       		.byte	0
 3272 01e0 00       		.byte	0
 3273 01e1 28       		.uleb128 0x28
 3274 01e2 34       		.uleb128 0x34
 3275 01e3 00       		.byte	0
 3276 01e4 31       		.uleb128 0x31
 3277 01e5 13       		.uleb128 0x13
 3278 01e6 02       		.uleb128 0x2
 3279 01e7 0A       		.uleb128 0xa
 3280 01e8 00       		.byte	0
 3281 01e9 00       		.byte	0
 3282 01ea 29       		.uleb128 0x29
 3283 01eb 05       		.uleb128 0x5
 3284 01ec 00       		.byte	0
 3285 01ed 31       		.uleb128 0x31
 3286 01ee 13       		.uleb128 0x13
 3287 01ef 02       		.uleb128 0x2
 3288 01f0 0A       		.uleb128 0xa
 3289 01f1 00       		.byte	0
 3290 01f2 00       		.byte	0
 3291 01f3 2A       		.uleb128 0x2a
 3292 01f4 1D       		.uleb128 0x1d
 3293 01f5 01       		.byte	0x1
 3294 01f6 31       		.uleb128 0x31
 3295 01f7 13       		.uleb128 0x13
 3296 01f8 11       		.uleb128 0x11
ARM GAS  /tmp/ccaK2hqG.s 			page 59


 3297 01f9 01       		.uleb128 0x1
 3298 01fa 12       		.uleb128 0x12
 3299 01fb 01       		.uleb128 0x1
 3300 01fc 58       		.uleb128 0x58
 3301 01fd 0B       		.uleb128 0xb
 3302 01fe 59       		.uleb128 0x59
 3303 01ff 0B       		.uleb128 0xb
 3304 0200 01       		.uleb128 0x1
 3305 0201 13       		.uleb128 0x13
 3306 0202 00       		.byte	0
 3307 0203 00       		.byte	0
 3308 0204 2B       		.uleb128 0x2b
 3309 0205 05       		.uleb128 0x5
 3310 0206 00       		.byte	0
 3311 0207 31       		.uleb128 0x31
 3312 0208 13       		.uleb128 0x13
 3313 0209 02       		.uleb128 0x2
 3314 020a 06       		.uleb128 0x6
 3315 020b 00       		.byte	0
 3316 020c 00       		.byte	0
 3317 020d 2C       		.uleb128 0x2c
 3318 020e 0B       		.uleb128 0xb
 3319 020f 01       		.byte	0x1
 3320 0210 11       		.uleb128 0x11
 3321 0211 01       		.uleb128 0x1
 3322 0212 12       		.uleb128 0x12
 3323 0213 01       		.uleb128 0x1
 3324 0214 00       		.byte	0
 3325 0215 00       		.byte	0
 3326 0216 2D       		.uleb128 0x2d
 3327 0217 0B       		.uleb128 0xb
 3328 0218 01       		.byte	0x1
 3329 0219 11       		.uleb128 0x11
 3330 021a 01       		.uleb128 0x1
 3331 021b 12       		.uleb128 0x12
 3332 021c 01       		.uleb128 0x1
 3333 021d 01       		.uleb128 0x1
 3334 021e 13       		.uleb128 0x13
 3335 021f 00       		.byte	0
 3336 0220 00       		.byte	0
 3337 0221 2E       		.uleb128 0x2e
 3338 0222 2E       		.uleb128 0x2e
 3339 0223 00       		.byte	0
 3340 0224 3F       		.uleb128 0x3f
 3341 0225 0C       		.uleb128 0xc
 3342 0226 03       		.uleb128 0x3
 3343 0227 0E       		.uleb128 0xe
 3344 0228 3A       		.uleb128 0x3a
 3345 0229 0B       		.uleb128 0xb
 3346 022a 3B       		.uleb128 0x3b
 3347 022b 05       		.uleb128 0x5
 3348 022c 27       		.uleb128 0x27
 3349 022d 0C       		.uleb128 0xc
 3350 022e 11       		.uleb128 0x11
 3351 022f 01       		.uleb128 0x1
 3352 0230 12       		.uleb128 0x12
 3353 0231 01       		.uleb128 0x1
ARM GAS  /tmp/ccaK2hqG.s 			page 60


 3354 0232 40       		.uleb128 0x40
 3355 0233 06       		.uleb128 0x6
 3356 0234 00       		.byte	0
 3357 0235 00       		.byte	0
 3358 0236 2F       		.uleb128 0x2f
 3359 0237 05       		.uleb128 0x5
 3360 0238 00       		.byte	0
 3361 0239 03       		.uleb128 0x3
 3362 023a 08       		.uleb128 0x8
 3363 023b 3A       		.uleb128 0x3a
 3364 023c 0B       		.uleb128 0xb
 3365 023d 3B       		.uleb128 0x3b
 3366 023e 05       		.uleb128 0x5
 3367 023f 49       		.uleb128 0x49
 3368 0240 13       		.uleb128 0x13
 3369 0241 02       		.uleb128 0x2
 3370 0242 06       		.uleb128 0x6
 3371 0243 00       		.byte	0
 3372 0244 00       		.byte	0
 3373 0245 30       		.uleb128 0x30
 3374 0246 05       		.uleb128 0x5
 3375 0247 00       		.byte	0
 3376 0248 03       		.uleb128 0x3
 3377 0249 0E       		.uleb128 0xe
 3378 024a 3A       		.uleb128 0x3a
 3379 024b 0B       		.uleb128 0xb
 3380 024c 3B       		.uleb128 0x3b
 3381 024d 05       		.uleb128 0x5
 3382 024e 49       		.uleb128 0x49
 3383 024f 13       		.uleb128 0x13
 3384 0250 02       		.uleb128 0x2
 3385 0251 06       		.uleb128 0x6
 3386 0252 00       		.byte	0
 3387 0253 00       		.byte	0
 3388 0254 31       		.uleb128 0x31
 3389 0255 05       		.uleb128 0x5
 3390 0256 00       		.byte	0
 3391 0257 31       		.uleb128 0x31
 3392 0258 13       		.uleb128 0x13
 3393 0259 00       		.byte	0
 3394 025a 00       		.byte	0
 3395 025b 32       		.uleb128 0x32
 3396 025c 2E       		.uleb128 0x2e
 3397 025d 01       		.byte	0x1
 3398 025e 3F       		.uleb128 0x3f
 3399 025f 0C       		.uleb128 0xc
 3400 0260 03       		.uleb128 0x3
 3401 0261 0E       		.uleb128 0xe
 3402 0262 3A       		.uleb128 0x3a
 3403 0263 0B       		.uleb128 0xb
 3404 0264 3B       		.uleb128 0x3b
 3405 0265 05       		.uleb128 0x5
 3406 0266 27       		.uleb128 0x27
 3407 0267 0C       		.uleb128 0xc
 3408 0268 11       		.uleb128 0x11
 3409 0269 01       		.uleb128 0x1
 3410 026a 12       		.uleb128 0x12
ARM GAS  /tmp/ccaK2hqG.s 			page 61


 3411 026b 01       		.uleb128 0x1
 3412 026c 40       		.uleb128 0x40
 3413 026d 0A       		.uleb128 0xa
 3414 026e 01       		.uleb128 0x1
 3415 026f 13       		.uleb128 0x13
 3416 0270 00       		.byte	0
 3417 0271 00       		.byte	0
 3418 0272 33       		.uleb128 0x33
 3419 0273 34       		.uleb128 0x34
 3420 0274 00       		.byte	0
 3421 0275 03       		.uleb128 0x3
 3422 0276 0E       		.uleb128 0xe
 3423 0277 3A       		.uleb128 0x3a
 3424 0278 0B       		.uleb128 0xb
 3425 0279 3B       		.uleb128 0x3b
 3426 027a 05       		.uleb128 0x5
 3427 027b 49       		.uleb128 0x49
 3428 027c 13       		.uleb128 0x13
 3429 027d 3F       		.uleb128 0x3f
 3430 027e 0C       		.uleb128 0xc
 3431 027f 3C       		.uleb128 0x3c
 3432 0280 0C       		.uleb128 0xc
 3433 0281 00       		.byte	0
 3434 0282 00       		.byte	0
 3435 0283 34       		.uleb128 0x34
 3436 0284 34       		.uleb128 0x34
 3437 0285 00       		.byte	0
 3438 0286 03       		.uleb128 0x3
 3439 0287 08       		.uleb128 0x8
 3440 0288 3A       		.uleb128 0x3a
 3441 0289 0B       		.uleb128 0xb
 3442 028a 3B       		.uleb128 0x3b
 3443 028b 05       		.uleb128 0x5
 3444 028c 49       		.uleb128 0x49
 3445 028d 13       		.uleb128 0x13
 3446 028e 3F       		.uleb128 0x3f
 3447 028f 0C       		.uleb128 0xc
 3448 0290 3C       		.uleb128 0x3c
 3449 0291 0C       		.uleb128 0xc
 3450 0292 00       		.byte	0
 3451 0293 00       		.byte	0
 3452 0294 35       		.uleb128 0x35
 3453 0295 34       		.uleb128 0x34
 3454 0296 00       		.byte	0
 3455 0297 03       		.uleb128 0x3
 3456 0298 0E       		.uleb128 0xe
 3457 0299 3A       		.uleb128 0x3a
 3458 029a 0B       		.uleb128 0xb
 3459 029b 3B       		.uleb128 0x3b
 3460 029c 0B       		.uleb128 0xb
 3461 029d 49       		.uleb128 0x49
 3462 029e 13       		.uleb128 0x13
 3463 029f 02       		.uleb128 0x2
 3464 02a0 0A       		.uleb128 0xa
 3465 02a1 00       		.byte	0
 3466 02a2 00       		.byte	0
 3467 02a3 36       		.uleb128 0x36
ARM GAS  /tmp/ccaK2hqG.s 			page 62


 3468 02a4 34       		.uleb128 0x34
 3469 02a5 00       		.byte	0
 3470 02a6 03       		.uleb128 0x3
 3471 02a7 08       		.uleb128 0x8
 3472 02a8 3A       		.uleb128 0x3a
 3473 02a9 0B       		.uleb128 0xb
 3474 02aa 3B       		.uleb128 0x3b
 3475 02ab 0B       		.uleb128 0xb
 3476 02ac 49       		.uleb128 0x49
 3477 02ad 13       		.uleb128 0x13
 3478 02ae 3F       		.uleb128 0x3f
 3479 02af 0C       		.uleb128 0xc
 3480 02b0 02       		.uleb128 0x2
 3481 02b1 0A       		.uleb128 0xa
 3482 02b2 00       		.byte	0
 3483 02b3 00       		.byte	0
 3484 02b4 00       		.byte	0
 3485              		.section	.debug_loc,"",%progbits
 3486              	.Ldebug_loc0:
 3487              	.LLST0:
 3488 0000 00000000 		.4byte	.LVL0
 3489 0004 0C000000 		.4byte	.LVL1
 3490 0008 0100     		.2byte	0x1
 3491 000a 50       		.byte	0x50
 3492 000b 00000000 		.4byte	0
 3493 000f 00000000 		.4byte	0
 3494              	.LLST1:
 3495 0013 00000000 		.4byte	.LFB122
 3496 0017 04000000 		.4byte	.LCFI0
 3497 001b 0200     		.2byte	0x2
 3498 001d 7D       		.byte	0x7d
 3499 001e 00       		.sleb128 0
 3500 001f 04000000 		.4byte	.LCFI0
 3501 0023 3C010000 		.4byte	.LFE122
 3502 0027 0200     		.2byte	0x2
 3503 0029 7D       		.byte	0x7d
 3504 002a 18       		.sleb128 24
 3505 002b 00000000 		.4byte	0
 3506 002f 00000000 		.4byte	0
 3507              	.LLST2:
 3508 0033 0A000000 		.4byte	.LVL3
 3509 0037 53000000 		.4byte	.LVL14-1
 3510 003b 0500     		.2byte	0x5
 3511 003d 03       		.byte	0x3
 3512 003e D0000000 		.4byte	SD3+208
 3513 0042 53000000 		.4byte	.LVL14-1
 3514 0046 3C010000 		.4byte	.LFE122
 3515 004a 0100     		.2byte	0x1
 3516 004c 55       		.byte	0x55
 3517 004d 00000000 		.4byte	0
 3518 0051 00000000 		.4byte	0
 3519              	.LLST3:
 3520 0055 1A000000 		.4byte	.LVL5
 3521 0059 6A000000 		.4byte	.LVL20
 3522 005d 0100     		.2byte	0x1
 3523 005f 58       		.byte	0x58
 3524 0060 A8000000 		.4byte	.LVL28
ARM GAS  /tmp/ccaK2hqG.s 			page 63


 3525 0064 F6000000 		.4byte	.LVL41
 3526 0068 0100     		.2byte	0x1
 3527 006a 58       		.byte	0x58
 3528 006b 00000000 		.4byte	0
 3529 006f 00000000 		.4byte	0
 3530              	.LLST4:
 3531 0073 1C000000 		.4byte	.LVL6
 3532 0077 5A000000 		.4byte	.LVL16
 3533 007b 0100     		.2byte	0x1
 3534 007d 54       		.byte	0x54
 3535 007e 00000000 		.4byte	0
 3536 0082 00000000 		.4byte	0
 3537              	.LLST5:
 3538 0086 1C000000 		.4byte	.LVL6
 3539 008a 5A000000 		.4byte	.LVL16
 3540 008e 0600     		.2byte	0x6
 3541 0090 03       		.byte	0x3
 3542 0091 00000000 		.4byte	SD3
 3543 0095 9F       		.byte	0x9f
 3544 0096 00000000 		.4byte	0
 3545 009a 00000000 		.4byte	0
 3546              	.LLST6:
 3547 009e 1C000000 		.4byte	.LVL6
 3548 00a2 26000000 		.4byte	.LVL7
 3549 00a6 0200     		.2byte	0x2
 3550 00a8 30       		.byte	0x30
 3551 00a9 9F       		.byte	0x9f
 3552 00aa 26000000 		.4byte	.LVL7
 3553 00ae 53000000 		.4byte	.LVL14-1
 3554 00b2 0100     		.2byte	0x1
 3555 00b4 5C       		.byte	0x5c
 3556 00b5 00000000 		.4byte	0
 3557 00b9 00000000 		.4byte	0
 3558              	.LLST7:
 3559 00bd 44000000 		.4byte	.LVL12
 3560 00c1 46000000 		.4byte	.LVL13
 3561 00c5 0100     		.2byte	0x1
 3562 00c7 53       		.byte	0x53
 3563 00c8 00000000 		.4byte	0
 3564 00cc 00000000 		.4byte	0
 3565              	.LLST8:
 3566 00d0 5A000000 		.4byte	.LVL16
 3567 00d4 5C000000 		.4byte	.LVL17
 3568 00d8 0100     		.2byte	0x1
 3569 00da 53       		.byte	0x53
 3570 00db 00000000 		.4byte	0
 3571 00df 00000000 		.4byte	0
 3572              	.LLST9:
 3573 00e3 74000000 		.4byte	.LVL23
 3574 00e7 7C000000 		.4byte	.LVL24
 3575 00eb 0100     		.2byte	0x1
 3576 00ed 53       		.byte	0x53
 3577 00ee 00000000 		.4byte	0
 3578 00f2 00000000 		.4byte	0
 3579              	.LLST10:
 3580 00f6 8A000000 		.4byte	.LVL26
 3581 00fa 9A000000 		.4byte	.LVL27
ARM GAS  /tmp/ccaK2hqG.s 			page 64


 3582 00fe 0100     		.2byte	0x1
 3583 0100 53       		.byte	0x53
 3584 0101 00000000 		.4byte	0
 3585 0105 00000000 		.4byte	0
 3586              	.LLST11:
 3587 0109 AE000000 		.4byte	.LVL30
 3588 010d B7000000 		.4byte	.LVL31-1
 3589 0111 0100     		.2byte	0x1
 3590 0113 53       		.byte	0x53
 3591 0114 00000000 		.4byte	0
 3592 0118 00000000 		.4byte	0
 3593              	.LLST12:
 3594 011c 62000000 		.4byte	.LVL19
 3595 0120 6C000000 		.4byte	.LVL21
 3596 0124 0100     		.2byte	0x1
 3597 0126 53       		.byte	0x53
 3598 0127 BE000000 		.4byte	.LVL32
 3599 012b C0000000 		.4byte	.LVL33
 3600 012f 0100     		.2byte	0x1
 3601 0131 53       		.byte	0x53
 3602 0132 EC000000 		.4byte	.LVL38
 3603 0136 EE000000 		.4byte	.LVL39
 3604 013a 0100     		.2byte	0x1
 3605 013c 53       		.byte	0x53
 3606 013d 00000000 		.4byte	0
 3607 0141 00000000 		.4byte	0
 3608              	.LLST13:
 3609 0145 C6000000 		.4byte	.LVL35
 3610 0149 CE000000 		.4byte	.LVL36
 3611 014d 0100     		.2byte	0x1
 3612 014f 53       		.byte	0x53
 3613 0150 00000000 		.4byte	0
 3614 0154 00000000 		.4byte	0
 3615              	.LLST14:
 3616 0158 5E000000 		.4byte	.LVL18
 3617 015c 6C000000 		.4byte	.LVL21
 3618 0160 0100     		.2byte	0x1
 3619 0162 53       		.byte	0x53
 3620 0163 A8000000 		.4byte	.LVL28
 3621 0167 AA000000 		.4byte	.LVL29
 3622 016b 0100     		.2byte	0x1
 3623 016d 53       		.byte	0x53
 3624 016e DC000000 		.4byte	.LVL37
 3625 0172 EE000000 		.4byte	.LVL39
 3626 0176 0100     		.2byte	0x1
 3627 0178 53       		.byte	0x53
 3628 0179 00000000 		.4byte	0
 3629 017d 00000000 		.4byte	0
 3630              	.LLST15:
 3631 0181 FE000000 		.4byte	.LVL42
 3632 0185 0A010000 		.4byte	.LVL43
 3633 0189 0100     		.2byte	0x1
 3634 018b 50       		.byte	0x50
 3635 018c 12010000 		.4byte	.LVL45
 3636 0190 1E010000 		.4byte	.LVL46
 3637 0194 0100     		.2byte	0x1
 3638 0196 50       		.byte	0x50
ARM GAS  /tmp/ccaK2hqG.s 			page 65


 3639 0197 00000000 		.4byte	0
 3640 019b 00000000 		.4byte	0
 3641              	.LLST16:
 3642 019f F2000000 		.4byte	.LVL40
 3643 01a3 FD000000 		.4byte	.LVL42-1
 3644 01a7 0100     		.2byte	0x1
 3645 01a9 53       		.byte	0x53
 3646 01aa 00000000 		.4byte	0
 3647 01ae 00000000 		.4byte	0
 3648              	.LLST17:
 3649 01b2 6A000000 		.4byte	.LVL20
 3650 01b6 6C000000 		.4byte	.LVL21
 3651 01ba 0100     		.2byte	0x1
 3652 01bc 53       		.byte	0x53
 3653 01bd 10010000 		.4byte	.LVL44
 3654 01c1 12010000 		.4byte	.LVL45
 3655 01c5 0100     		.2byte	0x1
 3656 01c7 53       		.byte	0x53
 3657 01c8 00000000 		.4byte	0
 3658 01cc 00000000 		.4byte	0
 3659              	.LLST18:
 3660 01d0 00000000 		.4byte	.LFB123
 3661 01d4 02000000 		.4byte	.LCFI1
 3662 01d8 0200     		.2byte	0x2
 3663 01da 7D       		.byte	0x7d
 3664 01db 00       		.sleb128 0
 3665 01dc 02000000 		.4byte	.LCFI1
 3666 01e0 28000000 		.4byte	.LFE123
 3667 01e4 0200     		.2byte	0x2
 3668 01e6 7D       		.byte	0x7d
 3669 01e7 08       		.sleb128 8
 3670 01e8 00000000 		.4byte	0
 3671 01ec 00000000 		.4byte	0
 3672              	.LLST19:
 3673 01f0 00000000 		.4byte	.LFB124
 3674 01f4 02000000 		.4byte	.LCFI2
 3675 01f8 0200     		.2byte	0x2
 3676 01fa 7D       		.byte	0x7d
 3677 01fb 00       		.sleb128 0
 3678 01fc 02000000 		.4byte	.LCFI2
 3679 0200 B4000000 		.4byte	.LFE124
 3680 0204 0200     		.2byte	0x2
 3681 0206 7D       		.byte	0x7d
 3682 0207 10       		.sleb128 16
 3683 0208 00000000 		.4byte	0
 3684 020c 00000000 		.4byte	0
 3685              	.LLST20:
 3686 0210 00000000 		.4byte	.LVL47
 3687 0214 12000000 		.4byte	.LVL48
 3688 0218 0100     		.2byte	0x1
 3689 021a 50       		.byte	0x50
 3690 021b 12000000 		.4byte	.LVL48
 3691 021f B4000000 		.4byte	.LFE124
 3692 0223 0100     		.2byte	0x1
 3693 0225 55       		.byte	0x55
 3694 0226 00000000 		.4byte	0
 3695 022a 00000000 		.4byte	0
ARM GAS  /tmp/ccaK2hqG.s 			page 66


 3696              	.LLST21:
 3697 022e 00000000 		.4byte	.LVL47
 3698 0232 12000000 		.4byte	.LVL48
 3699 0236 0100     		.2byte	0x1
 3700 0238 51       		.byte	0x51
 3701 0239 78000000 		.4byte	.LVL50
 3702 023d 82000000 		.4byte	.LVL51
 3703 0241 0100     		.2byte	0x1
 3704 0243 51       		.byte	0x51
 3705 0244 00000000 		.4byte	0
 3706 0248 00000000 		.4byte	0
 3707              	.LLST22:
 3708 024c 12000000 		.4byte	.LVL48
 3709 0250 78000000 		.4byte	.LVL50
 3710 0254 0100     		.2byte	0x1
 3711 0256 55       		.byte	0x55
 3712 0257 98000000 		.4byte	.LVL52
 3713 025b B4000000 		.4byte	.LFE124
 3714 025f 0100     		.2byte	0x1
 3715 0261 55       		.byte	0x55
 3716 0262 00000000 		.4byte	0
 3717 0266 00000000 		.4byte	0
 3718              	.LLST23:
 3719 026a 1A000000 		.4byte	.LVL49
 3720 026e 78000000 		.4byte	.LVL50
 3721 0272 0300     		.2byte	0x3
 3722 0274 75       		.byte	0x75
 3723 0275 D001     		.sleb128 208
 3724 0277 98000000 		.4byte	.LVL52
 3725 027b B4000000 		.4byte	.LFE124
 3726 027f 0100     		.2byte	0x1
 3727 0281 53       		.byte	0x53
 3728 0282 00000000 		.4byte	0
 3729 0286 00000000 		.4byte	0
 3730              	.LLST24:
 3731 028a 00000000 		.4byte	.LVL53
 3732 028e 08000000 		.4byte	.LVL54
 3733 0292 0100     		.2byte	0x1
 3734 0294 50       		.byte	0x50
 3735 0295 0A000000 		.4byte	.LVL55
 3736 0299 2A000000 		.4byte	.LVL57
 3737 029d 0100     		.2byte	0x1
 3738 029f 50       		.byte	0x50
 3739 02a0 00000000 		.4byte	0
 3740 02a4 00000000 		.4byte	0
 3741              	.LLST25:
 3742 02a8 0E000000 		.4byte	.LVL56
 3743 02ac 2A000000 		.4byte	.LVL57
 3744 02b0 0300     		.2byte	0x3
 3745 02b2 70       		.byte	0x70
 3746 02b3 D001     		.sleb128 208
 3747 02b5 2A000000 		.4byte	.LVL57
 3748 02b9 33000000 		.4byte	.LVL58-1
 3749 02bd 0100     		.2byte	0x1
 3750 02bf 53       		.byte	0x53
 3751 02c0 00000000 		.4byte	0
 3752 02c4 00000000 		.4byte	0
ARM GAS  /tmp/ccaK2hqG.s 			page 67


 3753              		.section	.debug_aranges,"",%progbits
 3754 0000 3C000000 		.4byte	0x3c
 3755 0004 0200     		.2byte	0x2
 3756 0006 00000000 		.4byte	.Ldebug_info0
 3757 000a 04       		.byte	0x4
 3758 000b 00       		.byte	0
 3759 000c 0000     		.2byte	0
 3760 000e 0000     		.2byte	0
 3761 0010 00000000 		.4byte	.LFB121
 3762 0014 14000000 		.4byte	.LFE121-.LFB121
 3763 0018 00000000 		.4byte	.LFB122
 3764 001c 3C010000 		.4byte	.LFE122-.LFB122
 3765 0020 00000000 		.4byte	.LFB123
 3766 0024 28000000 		.4byte	.LFE123-.LFB123
 3767 0028 00000000 		.4byte	.LFB124
 3768 002c B4000000 		.4byte	.LFE124-.LFB124
 3769 0030 00000000 		.4byte	.LFB125
 3770 0034 38000000 		.4byte	.LFE125-.LFB125
 3771 0038 00000000 		.4byte	0
 3772 003c 00000000 		.4byte	0
 3773              		.section	.debug_ranges,"",%progbits
 3774              	.Ldebug_ranges0:
 3775 0000 04000000 		.4byte	.LBB47
 3776 0004 A0000000 		.4byte	.LBE47
 3777 0008 A8000000 		.4byte	.LBB63
 3778 000c 3C010000 		.4byte	.LBE63
 3779 0010 00000000 		.4byte	0
 3780 0014 00000000 		.4byte	0
 3781 0018 04000000 		.4byte	.LBB48
 3782 001c A0000000 		.4byte	.LBE48
 3783 0020 A8000000 		.4byte	.LBB62
 3784 0024 3C010000 		.4byte	.LBE62
 3785 0028 00000000 		.4byte	0
 3786 002c 00000000 		.4byte	0
 3787 0030 12000000 		.4byte	.LBB64
 3788 0034 76000000 		.4byte	.LBE64
 3789 0038 98000000 		.4byte	.LBB67
 3790 003c B4000000 		.4byte	.LBE67
 3791 0040 00000000 		.4byte	0
 3792 0044 00000000 		.4byte	0
 3793 0048 12000000 		.4byte	.LBB65
 3794 004c 76000000 		.4byte	.LBE65
 3795 0050 98000000 		.4byte	.LBB66
 3796 0054 B4000000 		.4byte	.LBE66
 3797 0058 00000000 		.4byte	0
 3798 005c 00000000 		.4byte	0
 3799 0060 0E000000 		.4byte	.LBB68
 3800 0064 10000000 		.4byte	.LBE68
 3801 0068 12000000 		.4byte	.LBB71
 3802 006c 18000000 		.4byte	.LBE71
 3803 0070 00000000 		.4byte	0
 3804 0074 00000000 		.4byte	0
 3805 0078 00000000 		.4byte	.LFB121
 3806 007c 14000000 		.4byte	.LFE121
 3807 0080 00000000 		.4byte	.LFB122
 3808 0084 3C010000 		.4byte	.LFE122
 3809 0088 00000000 		.4byte	.LFB123
ARM GAS  /tmp/ccaK2hqG.s 			page 68


 3810 008c 28000000 		.4byte	.LFE123
 3811 0090 00000000 		.4byte	.LFB124
 3812 0094 B4000000 		.4byte	.LFE124
 3813 0098 00000000 		.4byte	.LFB125
 3814 009c 38000000 		.4byte	.LFE125
 3815 00a0 00000000 		.4byte	0
 3816 00a4 00000000 		.4byte	0
 3817              		.section	.debug_line,"",%progbits
 3818              	.Ldebug_line0:
 3819 0000 E0020000 		.section	.debug_str,"MS",%progbits,1
 3819      0200F201 
 3819      00000201 
 3819      FB0E0D00 
 3819      01010101 
 3820              	.LASF2:
 3821 0000 73697A65 		.ascii	"size_t\000"
 3821      5F7400
 3822              	.LASF126:
 3823 0007 54494D38 		.ascii	"TIM8_UP_TIM13_IRQn\000"
 3823      5F55505F 
 3823      54494D31 
 3823      335F4952 
 3823      516E00
 3824              	.LASF22:
 3825 001a 73797374 		.ascii	"systime_t\000"
 3825      696D655F 
 3825      7400
 3826              	.LASF190:
 3827 0024 504C4C49 		.ascii	"PLLI2SCFGR\000"
 3827      32534346 
 3827      475200
 3828              	.LASF27:
 3829 002f 705F6374 		.ascii	"p_ctx\000"
 3829      7800
 3830              	.LASF19:
 3831 0035 74707269 		.ascii	"tprio_t\000"
 3831      6F5F7400 
 3832              	.LASF36:
 3833 003d 705F6D73 		.ascii	"p_msgqueue\000"
 3833      67717565 
 3833      756500
 3834              	.LASF8:
 3835 0048 696E7433 		.ascii	"int32_t\000"
 3835      325F7400 
 3836              	.LASF209:
 3837 0050 53657269 		.ascii	"SerialConfig\000"
 3837      616C436F 
 3837      6E666967 
 3837      00
 3838              	.LASF215:
 3839 005d 77726974 		.ascii	"writet\000"
 3839      657400
 3840              	.LASF192:
 3841 0064 47545052 		.ascii	"GTPR\000"
 3841      00
 3842              	.LASF227:
 3843 0069 474E5520 		.ascii	"GNU C 4.6.2 20120613 (release) [ARM/embedded-4_6-br"
ARM GAS  /tmp/ccaK2hqG.s 			page 69


 3843      4320342E 
 3843      362E3220 
 3843      32303132 
 3843      30363133 
 3844 009c 616E6368 		.ascii	"anch revision 188521]\000"
 3844      20726576 
 3844      6973696F 
 3844      6E203138 
 3844      38353231 
 3845              	.LASF211:
 3846 00b2 77726974 		.ascii	"write\000"
 3846      6500
 3847              	.LASF139:
 3848 00b8 444D4132 		.ascii	"DMA2_Stream1_IRQn\000"
 3848      5F537472 
 3848      65616D31 
 3848      5F495251 
 3848      6E00
 3849              	.LASF133:
 3850 00ca 53504933 		.ascii	"SPI3_IRQn\000"
 3850      5F495251 
 3850      6E00
 3851              	.LASF86:
 3852 00d4 464C4153 		.ascii	"FLASH_IRQn\000"
 3852      485F4952 
 3852      516E00
 3853              	.LASF168:
 3854 00df 41484233 		.ascii	"AHB3RSTR\000"
 3854      52535452 
 3854      00
 3855              	.LASF160:
 3856 00e8 44434D49 		.ascii	"DCMI_IRQn\000"
 3856      5F495251 
 3856      6E00
 3857              	.LASF220:
 3858 00f2 636F6E66 		.ascii	"config\000"
 3858      696700
 3859              	.LASF201:
 3860 00f9 73746174 		.ascii	"state\000"
 3860      6500
 3861              	.LASF110:
 3862 00ff 54494D32 		.ascii	"TIM2_IRQn\000"
 3862      5F495251 
 3862      6E00
 3863              	.LASF222:
 3864 0109 73657276 		.ascii	"serve_interrupt\000"
 3864      655F696E 
 3864      74657272 
 3864      75707400 
 3865              	.LASF218:
 3866 0119 7365745F 		.ascii	"set_error\000"
 3866      6572726F 
 3866      7200
 3867              	.LASF146:
 3868 0123 43414E32 		.ascii	"CAN2_RX0_IRQn\000"
 3868      5F525830 
 3868      5F495251 
ARM GAS  /tmp/ccaK2hqG.s 			page 70


 3868      6E00
 3869              	.LASF229:
 3870 0131 2F686F6D 		.ascii	"/home/pacifist/fox1/amsat-fox1/amsat-fox/stm32f4-de"
 3870      652F7061 
 3870      63696669 
 3870      73742F66 
 3870      6F78312F 
 3871 0164 76656C00 		.ascii	"vel\000"
 3872              	.LASF49:
 3873 0168 6D5F6F77 		.ascii	"m_owner\000"
 3873      6E657200 
 3874              	.LASF58:
 3875 0170 65786974 		.ascii	"exitcode\000"
 3875      636F6465 
 3875      00
 3876              	.LASF158:
 3877 0179 4F54475F 		.ascii	"OTG_HS_WKUP_IRQn\000"
 3877      48535F57 
 3877      4B55505F 
 3877      4952516E 
 3877      00
 3878              	.LASF66:
 3879 018a 715F746F 		.ascii	"q_top\000"
 3879      7000
 3880              	.LASF118:
 3881 0190 53504932 		.ascii	"SPI2_IRQn\000"
 3881      5F495251 
 3881      6E00
 3882              	.LASF125:
 3883 019a 54494D38 		.ascii	"TIM8_BRK_TIM12_IRQn\000"
 3883      5F42524B 
 3883      5F54494D 
 3883      31325F49 
 3883      52516E00 
 3884              	.LASF181:
 3885 01ae 41484232 		.ascii	"AHB2LPENR\000"
 3885      4C50454E 
 3885      5200
 3886              	.LASF216:
 3887 01b8 72656164 		.ascii	"readt\000"
 3887      7400
 3888              	.LASF224:
 3889 01be 73645F6C 		.ascii	"sd_lld_start\000"
 3889      6C645F73 
 3889      74617274 
 3889      00
 3890              	.LASF65:
 3891 01cb 715F6275 		.ascii	"q_buffer\000"
 3891      66666572 
 3891      00
 3892              	.LASF69:
 3893 01d4 715F6E6F 		.ascii	"q_notify\000"
 3893      74696679 
 3893      00
 3894              	.LASF28:
 3895 01dd 705F6E65 		.ascii	"p_newer\000"
 3895      77657200 
ARM GAS  /tmp/ccaK2hqG.s 			page 71


 3896              	.LASF9:
 3897 01e5 6C6F6E67 		.ascii	"long int\000"
 3897      20696E74 
 3897      00
 3898              	.LASF24:
 3899 01ee 705F6E65 		.ascii	"p_next\000"
 3899      787400
 3900              	.LASF68:
 3901 01f5 715F7264 		.ascii	"q_rdptr\000"
 3901      70747200 
 3902              	.LASF25:
 3903 01fd 705F7072 		.ascii	"p_prev\000"
 3903      657600
 3904              	.LASF233:
 3905 0204 64656661 		.ascii	"default_config\000"
 3905      756C745F 
 3905      636F6E66 
 3905      696700
 3906              	.LASF150:
 3907 0213 444D4132 		.ascii	"DMA2_Stream5_IRQn\000"
 3907      5F537472 
 3907      65616D35 
 3907      5F495251 
 3907      6E00
 3908              	.LASF17:
 3909 0225 74737461 		.ascii	"tstate_t\000"
 3909      74655F74 
 3909      00
 3910              	.LASF39:
 3911 022e 705F6D74 		.ascii	"p_mtxlist\000"
 3911      786C6973 
 3911      7400
 3912              	.LASF108:
 3913 0238 54494D31 		.ascii	"TIM1_TRG_COM_TIM11_IRQn\000"
 3913      5F545247 
 3913      5F434F4D 
 3913      5F54494D 
 3913      31315F49 
 3914              	.LASF198:
 3915 0250 53657269 		.ascii	"SerialDriver\000"
 3915      616C4472 
 3915      69766572 
 3915      00
 3916              	.LASF203:
 3917 025d 6F717565 		.ascii	"oqueue\000"
 3917      756500
 3918              	.LASF44:
 3919 0264 72656761 		.ascii	"regarm_t\000"
 3919      726D5F74 
 3919      00
 3920              	.LASF178:
 3921 026d 41504232 		.ascii	"APB2ENR\000"
 3921      454E5200 
 3922              	.LASF180:
 3923 0275 41484231 		.ascii	"AHB1LPENR\000"
 3923      4C50454E 
 3923      5200
ARM GAS  /tmp/ccaK2hqG.s 			page 72


 3924              	.LASF81:
 3925 027f 53797354 		.ascii	"SysTick_IRQn\000"
 3925      69636B5F 
 3925      4952516E 
 3925      00
 3926              	.LASF121:
 3927 028c 55534152 		.ascii	"USART3_IRQn\000"
 3927      54335F49 
 3927      52516E00 
 3928              	.LASF204:
 3929 0298 75736172 		.ascii	"usart\000"
 3929      7400
 3930              	.LASF1:
 3931 029e 7369676E 		.ascii	"signed char\000"
 3931      65642063 
 3931      68617200 
 3932              	.LASF60:
 3933 02aa 65776D61 		.ascii	"ewmask\000"
 3933      736B00
 3934              	.LASF3:
 3935 02b1 75696E74 		.ascii	"uint8_t\000"
 3935      385F7400 
 3936              	.LASF21:
 3937 02b9 6576656E 		.ascii	"eventmask_t\000"
 3937      746D6173 
 3937      6B5F7400 
 3938              	.LASF46:
 3939 02c5 636F6E74 		.ascii	"context\000"
 3939      65787400 
 3940              	.LASF95:
 3941 02cd 444D4131 		.ascii	"DMA1_Stream2_IRQn\000"
 3941      5F537472 
 3941      65616D32 
 3941      5F495251 
 3941      6E00
 3942              	.LASF169:
 3943 02df 52455345 		.ascii	"RESERVED0\000"
 3943      52564544 
 3943      3000
 3944              	.LASF172:
 3945 02e9 52455345 		.ascii	"RESERVED1\000"
 3945      52564544 
 3945      3100
 3946              	.LASF4:
 3947 02f3 756E7369 		.ascii	"unsigned char\000"
 3947      676E6564 
 3947      20636861 
 3947      7200
 3948              	.LASF142:
 3949 0301 444D4132 		.ascii	"DMA2_Stream4_IRQn\000"
 3949      5F537472 
 3949      65616D34 
 3949      5F495251 
 3949      6E00
 3950              	.LASF183:
 3951 0313 52455345 		.ascii	"RESERVED4\000"
 3951      52564544 
ARM GAS  /tmp/ccaK2hqG.s 			page 73


 3951      3400
 3952              	.LASF186:
 3953 031d 52455345 		.ascii	"RESERVED5\000"
 3953      52564544 
 3953      3500
 3954              	.LASF188:
 3955 0327 52455345 		.ascii	"RESERVED6\000"
 3955      52564544 
 3955      3600
 3956              	.LASF114:
 3957 0331 49324331 		.ascii	"I2C1_ER_IRQn\000"
 3957      5F45525F 
 3957      4952516E 
 3957      00
 3958              	.LASF148:
 3959 033e 43414E32 		.ascii	"CAN2_SCE_IRQn\000"
 3959      5F534345 
 3959      5F495251 
 3959      6E00
 3960              	.LASF194:
 3961 034c 53445F55 		.ascii	"SD_UNINIT\000"
 3961      4E494E49 
 3961      5400
 3962              	.LASF176:
 3963 0356 52455345 		.ascii	"RESERVED2\000"
 3963      52564544 
 3963      3200
 3964              	.LASF179:
 3965 0360 52455345 		.ascii	"RESERVED3\000"
 3965      52564544 
 3965      3300
 3966              	.LASF132:
 3967 036a 54494D35 		.ascii	"TIM5_IRQn\000"
 3967      5F495251 
 3967      6E00
 3968              	.LASF77:
 3969 0374 55736167 		.ascii	"UsageFault_IRQn\000"
 3969      65466175 
 3969      6C745F49 
 3969      52516E00 
 3970              	.LASF61:
 3971 0384 63686172 		.ascii	"char\000"
 3971      00
 3972              	.LASF26:
 3973 0389 705F7072 		.ascii	"p_prio\000"
 3973      696F00
 3974              	.LASF174:
 3975 0390 41484232 		.ascii	"AHB2ENR\000"
 3975      454E5200 
 3976              	.LASF62:
 3977 0398 47656E65 		.ascii	"GenericQueue\000"
 3977      72696351 
 3977      75657565 
 3977      00
 3978              	.LASF59:
 3979 03a5 77746F62 		.ascii	"wtobjp\000"
 3979      6A7000
ARM GAS  /tmp/ccaK2hqG.s 			page 74


 3980              	.LASF102:
 3981 03ac 43414E31 		.ascii	"CAN1_RX0_IRQn\000"
 3981      5F525830 
 3981      5F495251 
 3981      6E00
 3982              	.LASF200:
 3983 03ba 666C6167 		.ascii	"flags\000"
 3983      7300
 3984              	.LASF193:
 3985 03c0 55534152 		.ascii	"USART_TypeDef\000"
 3985      545F5479 
 3985      70654465 
 3985      6600
 3986              	.LASF72:
 3987 03ce 4F757470 		.ascii	"OutputQueue\000"
 3987      75745175 
 3987      65756500 
 3988              	.LASF112:
 3989 03da 54494D34 		.ascii	"TIM4_IRQn\000"
 3989      5F495251 
 3989      6E00
 3990              	.LASF120:
 3991 03e4 55534152 		.ascii	"USART2_IRQn\000"
 3991      54325F49 
 3991      52516E00 
 3992              	.LASF213:
 3993 03f0 70757477 		.ascii	"putwouldblock\000"
 3993      6F756C64 
 3993      626C6F63 
 3993      6B00
 3994              	.LASF187:
 3995 03fe 42444352 		.ascii	"BDCR\000"
 3995      00
 3996              	.LASF113:
 3997 0403 49324331 		.ascii	"I2C1_EV_IRQn\000"
 3997      5F45565F 
 3997      4952516E 
 3997      00
 3998              	.LASF45:
 3999 0410 696E7463 		.ascii	"intctx\000"
 3999      747800
 4000              	.LASF38:
 4001 0417 705F6570 		.ascii	"p_epending\000"
 4001      656E6469 
 4001      6E6700
 4002              	.LASF165:
 4003 0422 43464752 		.ascii	"CFGR\000"
 4003      00
 4004              	.LASF109:
 4005 0427 54494D31 		.ascii	"TIM1_CC_IRQn\000"
 4005      5F43435F 
 4005      4952516E 
 4005      00
 4006              	.LASF162:
 4007 0434 48415348 		.ascii	"HASH_RNG_IRQn\000"
 4007      5F524E47 
 4007      5F495251 
ARM GAS  /tmp/ccaK2hqG.s 			page 75


 4007      6E00
 4008              	.LASF89:
 4009 0442 45585449 		.ascii	"EXTI1_IRQn\000"
 4009      315F4952 
 4009      516E00
 4010              	.LASF101:
 4011 044d 43414E31 		.ascii	"CAN1_TX_IRQn\000"
 4011      5F54585F 
 4011      4952516E 
 4011      00
 4012              	.LASF98:
 4013 045a 444D4131 		.ascii	"DMA1_Stream5_IRQn\000"
 4013      5F537472 
 4013      65616D35 
 4013      5F495251 
 4013      6E00
 4014              	.LASF127:
 4015 046c 54494D38 		.ascii	"TIM8_TRG_COM_TIM14_IRQn\000"
 4015      5F545247 
 4015      5F434F4D 
 4015      5F54494D 
 4015      31345F49 
 4016              	.LASF56:
 4017 0484 65735F6E 		.ascii	"es_next\000"
 4017      65787400 
 4018              	.LASF64:
 4019 048c 715F636F 		.ascii	"q_counter\000"
 4019      756E7465 
 4019      7200
 4020              	.LASF149:
 4021 0496 4F54475F 		.ascii	"OTG_FS_IRQn\000"
 4021      46535F49 
 4021      52516E00 
 4022              	.LASF74:
 4023 04a2 4E6F6E4D 		.ascii	"NonMaskableInt_IRQn\000"
 4023      61736B61 
 4023      626C6549 
 4023      6E745F49 
 4023      52516E00 
 4024              	.LASF130:
 4025 04b6 46534D43 		.ascii	"FSMC_IRQn\000"
 4025      5F495251 
 4025      6E00
 4026              	.LASF55:
 4027 04c0 4576656E 		.ascii	"EventSource\000"
 4027      74536F75 
 4027      72636500 
 4028              	.LASF82:
 4029 04cc 57574447 		.ascii	"WWDG_IRQn\000"
 4029      5F495251 
 4029      6E00
 4030              	.LASF11:
 4031 04d6 6C6F6E67 		.ascii	"long unsigned int\000"
 4031      20756E73 
 4031      69676E65 
 4031      6420696E 
 4031      7400
ARM GAS  /tmp/ccaK2hqG.s 			page 76


 4032              	.LASF75:
 4033 04e8 4D656D6F 		.ascii	"MemoryManagement_IRQn\000"
 4033      72794D61 
 4033      6E616765 
 4033      6D656E74 
 4033      5F495251 
 4034              	.LASF84:
 4035 04fe 54414D50 		.ascii	"TAMP_STAMP_IRQn\000"
 4035      5F535441 
 4035      4D505F49 
 4035      52516E00 
 4036              	.LASF104:
 4037 050e 43414E31 		.ascii	"CAN1_SCE_IRQn\000"
 4037      5F534345 
 4037      5F495251 
 4037      6E00
 4038              	.LASF52:
 4039 051c 656C5F6E 		.ascii	"el_next\000"
 4039      65787400 
 4040              	.LASF67:
 4041 0524 715F7772 		.ascii	"q_wrptr\000"
 4041      70747200 
 4042              	.LASF210:
 4043 052c 53657269 		.ascii	"SerialDriverVMT\000"
 4043      616C4472 
 4043      69766572 
 4043      564D5400 
 4044              	.LASF221:
 4045 053c 75736172 		.ascii	"usart_deinit\000"
 4045      745F6465 
 4045      696E6974 
 4045      00
 4046              	.LASF116:
 4047 0549 49324332 		.ascii	"I2C2_ER_IRQn\000"
 4047      5F45525F 
 4047      4952516E 
 4047      00
 4048              	.LASF76:
 4049 0556 42757346 		.ascii	"BusFault_IRQn\000"
 4049      61756C74 
 4049      5F495251 
 4049      6E00
 4050              	.LASF232:
 4051 0564 73645F6C 		.ascii	"sd_lld_init\000"
 4051      6C645F69 
 4051      6E697400 
 4052              	.LASF164:
 4053 0570 504C4C43 		.ascii	"PLLCFGR\000"
 4053      46475200 
 4054              	.LASF135:
 4055 0578 55415254 		.ascii	"UART5_IRQn\000"
 4055      355F4952 
 4055      516E00
 4056              	.LASF106:
 4057 0583 54494D31 		.ascii	"TIM1_BRK_TIM9_IRQn\000"
 4057      5F42524B 
 4057      5F54494D 
ARM GAS  /tmp/ccaK2hqG.s 			page 77


 4057      395F4952 
 4057      516E00
 4058              	.LASF206:
 4059 0596 73635F63 		.ascii	"sc_cr1\000"
 4059      723100
 4060              	.LASF207:
 4061 059d 73635F63 		.ascii	"sc_cr2\000"
 4061      723200
 4062              	.LASF208:
 4063 05a4 73635F63 		.ascii	"sc_cr3\000"
 4063      723300
 4064              	.LASF47:
 4065 05ab 4D757465 		.ascii	"Mutex\000"
 4065      7800
 4066              	.LASF137:
 4067 05b1 54494D37 		.ascii	"TIM7_IRQn\000"
 4067      5F495251 
 4067      6E00
 4068              	.LASF12:
 4069 05bb 6C6F6E67 		.ascii	"long long int\000"
 4069      206C6F6E 
 4069      6720696E 
 4069      7400
 4070              	.LASF144:
 4071 05c9 4554485F 		.ascii	"ETH_WKUP_IRQn\000"
 4071      574B5550 
 4071      5F495251 
 4071      6E00
 4072              	.LASF159:
 4073 05d7 4F54475F 		.ascii	"OTG_HS_IRQn\000"
 4073      48535F49 
 4073      52516E00 
 4074              	.LASF48:
 4075 05e3 6D5F7175 		.ascii	"m_queue\000"
 4075      65756500 
 4076              	.LASF189:
 4077 05eb 53534347 		.ascii	"SSCGR\000"
 4077      5200
 4078              	.LASF117:
 4079 05f1 53504931 		.ascii	"SPI1_IRQn\000"
 4079      5F495251 
 4079      6E00
 4080              	.LASF78:
 4081 05fb 53564361 		.ascii	"SVCall_IRQn\000"
 4081      6C6C5F49 
 4081      52516E00 
 4082              	.LASF171:
 4083 0607 41504232 		.ascii	"APB2RSTR\000"
 4083      52535452 
 4083      00
 4084              	.LASF163:
 4085 0610 4650555F 		.ascii	"FPU_IRQn\000"
 4085      4952516E 
 4085      00
 4086              	.LASF134:
 4087 0619 55415254 		.ascii	"UART4_IRQn\000"
 4087      345F4952 
ARM GAS  /tmp/ccaK2hqG.s 			page 78


 4087      516E00
 4088              	.LASF185:
 4089 0624 41504232 		.ascii	"APB2LPENR\000"
 4089      4C50454E 
 4089      5200
 4090              	.LASF70:
 4091 062e 716E6F74 		.ascii	"qnotify_t\000"
 4091      6966795F 
 4091      7400
 4092              	.LASF35:
 4093 0638 705F7761 		.ascii	"p_waiting\000"
 4093      6974696E 
 4093      6700
 4094              	.LASF138:
 4095 0642 444D4132 		.ascii	"DMA2_Stream0_IRQn\000"
 4095      5F537472 
 4095      65616D30 
 4095      5F495251 
 4095      6E00
 4096              	.LASF199:
 4097 0654 6576656E 		.ascii	"event\000"
 4097      7400
 4098              	.LASF124:
 4099 065a 4F54475F 		.ascii	"OTG_FS_WKUP_IRQn\000"
 4099      46535F57 
 4099      4B55505F 
 4099      4952516E 
 4099      00
 4100              	.LASF32:
 4101 066b 705F666C 		.ascii	"p_flags\000"
 4101      61677300 
 4102              	.LASF212:
 4103 0673 72656164 		.ascii	"read\000"
 4103      00
 4104              	.LASF0:
 4105 0678 756E7369 		.ascii	"unsigned int\000"
 4105      676E6564 
 4105      20696E74 
 4105      00
 4106              	.LASF136:
 4107 0685 54494D36 		.ascii	"TIM6_DAC_IRQn\000"
 4107      5F444143 
 4107      5F495251 
 4107      6E00
 4108              	.LASF41:
 4109 0693 705F6D70 		.ascii	"p_mpool\000"
 4109      6F6F6C00 
 4110              	.LASF115:
 4111 069b 49324332 		.ascii	"I2C2_EV_IRQn\000"
 4111      5F45565F 
 4111      4952516E 
 4111      00
 4112              	.LASF33:
 4113 06a8 705F7265 		.ascii	"p_refs\000"
 4113      667300
 4114              	.LASF205:
 4115 06af 73635F73 		.ascii	"sc_speed\000"
ARM GAS  /tmp/ccaK2hqG.s 			page 79


 4115      70656564 
 4115      00
 4116              	.LASF43:
 4117 06b8 54687265 		.ascii	"ThreadsList\000"
 4117      6164734C 
 4117      69737400 
 4118              	.LASF73:
 4119 06c4 696F666C 		.ascii	"ioflags_t\000"
 4119      6167735F 
 4119      7400
 4120              	.LASF184:
 4121 06ce 41504231 		.ascii	"APB1LPENR\000"
 4121      4C50454E 
 4121      5200
 4122              	.LASF94:
 4123 06d8 444D4131 		.ascii	"DMA1_Stream1_IRQn\000"
 4123      5F537472 
 4123      65616D31 
 4123      5F495251 
 4123      6E00
 4124              	.LASF141:
 4125 06ea 444D4132 		.ascii	"DMA2_Stream3_IRQn\000"
 4125      5F537472 
 4125      65616D33 
 4125      5F495251 
 4125      6E00
 4126              	.LASF145:
 4127 06fc 43414E32 		.ascii	"CAN2_TX_IRQn\000"
 4127      5F54585F 
 4127      4952516E 
 4127      00
 4128              	.LASF34:
 4129 0709 705F7469 		.ascii	"p_time\000"
 4129      6D6500
 4130              	.LASF230:
 4131 0710 4952516E 		.ascii	"IRQn\000"
 4131      00
 4132              	.LASF99:
 4133 0715 444D4131 		.ascii	"DMA1_Stream6_IRQn\000"
 4133      5F537472 
 4133      65616D36 
 4133      5F495251 
 4133      6E00
 4134              	.LASF79:
 4135 0727 44656275 		.ascii	"DebugMonitor_IRQn\000"
 4135      674D6F6E 
 4135      69746F72 
 4135      5F495251 
 4135      6E00
 4136              	.LASF40:
 4137 0739 705F7265 		.ascii	"p_realprio\000"
 4137      616C7072 
 4137      696F00
 4138              	.LASF214:
 4139 0744 67657477 		.ascii	"getwouldblock\000"
 4139      6F756C64 
 4139      626C6F63 
ARM GAS  /tmp/ccaK2hqG.s 			page 80


 4139      6B00
 4140              	.LASF152:
 4141 0752 444D4132 		.ascii	"DMA2_Stream7_IRQn\000"
 4141      5F537472 
 4141      65616D37 
 4141      5F495251 
 4141      6E00
 4142              	.LASF93:
 4143 0764 444D4131 		.ascii	"DMA1_Stream0_IRQn\000"
 4143      5F537472 
 4143      65616D30 
 4143      5F495251 
 4143      6E00
 4144              	.LASF170:
 4145 0776 41504231 		.ascii	"APB1RSTR\000"
 4145      52535452 
 4145      00
 4146              	.LASF219:
 4147 077f 75736172 		.ascii	"usart_init\000"
 4147      745F696E 
 4147      697400
 4148              	.LASF123:
 4149 078a 5254435F 		.ascii	"RTC_Alarm_IRQn\000"
 4149      416C6172 
 4149      6D5F4952 
 4149      516E00
 4150              	.LASF177:
 4151 0799 41504231 		.ascii	"APB1ENR\000"
 4151      454E5200 
 4152              	.LASF155:
 4153 07a1 49324333 		.ascii	"I2C3_ER_IRQn\000"
 4153      5F45525F 
 4153      4952516E 
 4153      00
 4154              	.LASF161:
 4155 07ae 43525950 		.ascii	"CRYP_IRQn\000"
 4155      5F495251 
 4155      6E00
 4156              	.LASF122:
 4157 07b8 45585449 		.ascii	"EXTI15_10_IRQn\000"
 4157      31355F31 
 4157      305F4952 
 4157      516E00
 4158              	.LASF13:
 4159 07c7 6C6F6E67 		.ascii	"long long unsigned int\000"
 4159      206C6F6E 
 4159      6720756E 
 4159      7369676E 
 4159      65642069 
 4160              	.LASF29:
 4161 07de 705F6F6C 		.ascii	"p_older\000"
 4161      64657200 
 4162              	.LASF6:
 4163 07e6 75696E74 		.ascii	"uint16_t\000"
 4163      31365F74 
 4163      00
 4164              	.LASF20:
ARM GAS  /tmp/ccaK2hqG.s 			page 81


 4165 07ef 6D73675F 		.ascii	"msg_t\000"
 4165      7400
 4166              	.LASF111:
 4167 07f5 54494D33 		.ascii	"TIM3_IRQn\000"
 4167      5F495251 
 4167      6E00
 4168              	.LASF119:
 4169 07ff 55534152 		.ascii	"USART1_IRQn\000"
 4169      54315F49 
 4169      52516E00 
 4170              	.LASF90:
 4171 080b 45585449 		.ascii	"EXTI2_IRQn\000"
 4171      325F4952 
 4171      516E00
 4172              	.LASF147:
 4173 0816 43414E32 		.ascii	"CAN2_RX1_IRQn\000"
 4173      5F525831 
 4173      5F495251 
 4173      6E00
 4174              	.LASF100:
 4175 0824 4144435F 		.ascii	"ADC_IRQn\000"
 4175      4952516E 
 4175      00
 4176              	.LASF182:
 4177 082d 41484233 		.ascii	"AHB3LPENR\000"
 4177      4C50454E 
 4177      5200
 4178              	.LASF83:
 4179 0837 5056445F 		.ascii	"PVD_IRQn\000"
 4179      4952516E 
 4179      00
 4180              	.LASF153:
 4181 0840 55534152 		.ascii	"USART6_IRQn\000"
 4181      54365F49 
 4181      52516E00 
 4182              	.LASF63:
 4183 084c 715F7761 		.ascii	"q_waiting\000"
 4183      6974696E 
 4183      6700
 4184              	.LASF88:
 4185 0856 45585449 		.ascii	"EXTI0_IRQn\000"
 4185      305F4952 
 4185      516E00
 4186              	.LASF16:
 4187 0861 746D6F64 		.ascii	"tmode_t\000"
 4187      655F7400 
 4188              	.LASF97:
 4189 0869 444D4131 		.ascii	"DMA1_Stream4_IRQn\000"
 4189      5F537472 
 4189      65616D34 
 4189      5F495251 
 4189      6E00
 4190              	.LASF197:
 4191 087b 73647374 		.ascii	"sdstate_t\000"
 4191      6174655F 
 4191      7400
 4192              	.LASF151:
ARM GAS  /tmp/ccaK2hqG.s 			page 82


 4193 0885 444D4132 		.ascii	"DMA2_Stream6_IRQn\000"
 4193      5F537472 
 4193      65616D36 
 4193      5F495251 
 4193      6E00
 4194              	.LASF173:
 4195 0897 41484231 		.ascii	"AHB1ENR\000"
 4195      454E5200 
 4196              	.LASF228:
 4197 089f 2E2F6F73 		.ascii	"./os/hal/platforms/STM32/serial_lld.c\000"
 4197      2F68616C 
 4197      2F706C61 
 4197      74666F72 
 4197      6D732F53 
 4198              	.LASF196:
 4199 08c5 53445F52 		.ascii	"SD_READY\000"
 4199      45414459 
 4199      00
 4200              	.LASF154:
 4201 08ce 49324333 		.ascii	"I2C3_EV_IRQn\000"
 4201      5F45565F 
 4201      4952516E 
 4201      00
 4202              	.LASF167:
 4203 08db 41484232 		.ascii	"AHB2RSTR\000"
 4203      52535452 
 4203      00
 4204              	.LASF143:
 4205 08e4 4554485F 		.ascii	"ETH_IRQn\000"
 4205      4952516E 
 4205      00
 4206              	.LASF231:
 4207 08ed 6E6F7469 		.ascii	"notify3\000"
 4207      66793300 
 4208              	.LASF191:
 4209 08f5 5243435F 		.ascii	"RCC_TypeDef\000"
 4209      54797065 
 4209      44656600 
 4210              	.LASF5:
 4211 0901 73686F72 		.ascii	"short int\000"
 4211      7420696E 
 4211      7400
 4212              	.LASF87:
 4213 090b 5243435F 		.ascii	"RCC_IRQn\000"
 4213      4952516E 
 4213      00
 4214              	.LASF202:
 4215 0914 69717565 		.ascii	"iqueue\000"
 4215      756500
 4216              	.LASF96:
 4217 091b 444D4131 		.ascii	"DMA1_Stream3_IRQn\000"
 4217      5F537472 
 4217      65616D33 
 4217      5F495251 
 4217      6E00
 4218              	.LASF15:
 4219 092d 626F6F6C 		.ascii	"bool_t\000"
ARM GAS  /tmp/ccaK2hqG.s 			page 83


 4219      5F7400
 4220              	.LASF23:
 4221 0934 54687265 		.ascii	"Thread\000"
 4221      616400
 4222              	.LASF107:
 4223 093b 54494D31 		.ascii	"TIM1_UP_TIM10_IRQn\000"
 4223      5F55505F 
 4223      54494D31 
 4223      305F4952 
 4223      516E00
 4224              	.LASF226:
 4225 094e 49544D5F 		.ascii	"ITM_RxBuffer\000"
 4225      52784275 
 4225      66666572 
 4225      00
 4226              	.LASF217:
 4227 095b 67657466 		.ascii	"getflags\000"
 4227      6C616773 
 4227      00
 4228              	.LASF18:
 4229 0964 74726566 		.ascii	"trefs_t\000"
 4229      735F7400 
 4230              	.LASF156:
 4231 096c 4F54475F 		.ascii	"OTG_HS_EP1_OUT_IRQn\000"
 4231      48535F45 
 4231      50315F4F 
 4231      55545F49 
 4231      52516E00 
 4232              	.LASF85:
 4233 0980 5254435F 		.ascii	"RTC_WKUP_IRQn\000"
 4233      574B5550 
 4233      5F495251 
 4233      6E00
 4234              	.LASF51:
 4235 098e 4576656E 		.ascii	"EventListener\000"
 4235      744C6973 
 4235      74656E65 
 4235      7200
 4236              	.LASF10:
 4237 099c 75696E74 		.ascii	"uint32_t\000"
 4237      33325F74 
 4237      00
 4238              	.LASF103:
 4239 09a5 43414E31 		.ascii	"CAN1_RX1_IRQn\000"
 4239      5F525831 
 4239      5F495251 
 4239      6E00
 4240              	.LASF42:
 4241 09b3 54687265 		.ascii	"ThreadsQueue\000"
 4241      61647351 
 4241      75657565 
 4241      00
 4242              	.LASF14:
 4243 09c0 75696E74 		.ascii	"uint_fast16_t\000"
 4243      5F666173 
 4243      7431365F 
 4243      7400
ARM GAS  /tmp/ccaK2hqG.s 			page 84


 4244              	.LASF223:
 4245 09ce 56656374 		.ascii	"VectorDC\000"
 4245      6F724443 
 4245      00
 4246              	.LASF105:
 4247 09d7 45585449 		.ascii	"EXTI9_5_IRQn\000"
 4247      395F355F 
 4247      4952516E 
 4247      00
 4248              	.LASF57:
 4249 09e4 7264796D 		.ascii	"rdymsg\000"
 4249      736700
 4250              	.LASF92:
 4251 09eb 45585449 		.ascii	"EXTI4_IRQn\000"
 4251      345F4952 
 4251      516E00
 4252              	.LASF7:
 4253 09f6 73686F72 		.ascii	"short unsigned int\000"
 4253      7420756E 
 4253      7369676E 
 4253      65642069 
 4253      6E7400
 4254              	.LASF225:
 4255 0a09 73645F6C 		.ascii	"sd_lld_stop\000"
 4255      6C645F73 
 4255      746F7000 
 4256              	.LASF128:
 4257 0a15 54494D38 		.ascii	"TIM8_CC_IRQn\000"
 4257      5F43435F 
 4257      4952516E 
 4257      00
 4258              	.LASF131:
 4259 0a22 5344494F 		.ascii	"SDIO_IRQn\000"
 4259      5F495251 
 4259      6E00
 4260              	.LASF71:
 4261 0a2c 496E7075 		.ascii	"InputQueue\000"
 4261      74517565 
 4261      756500
 4262              	.LASF91:
 4263 0a37 45585449 		.ascii	"EXTI3_IRQn\000"
 4263      335F4952 
 4263      516E00
 4264              	.LASF80:
 4265 0a42 50656E64 		.ascii	"PendSV_IRQn\000"
 4265      53565F49 
 4265      52516E00 
 4266              	.LASF157:
 4267 0a4e 4F54475F 		.ascii	"OTG_HS_EP1_IN_IRQn\000"
 4267      48535F45 
 4267      50315F49 
 4267      4E5F4952 
 4267      516E00
 4268              	.LASF129:
 4269 0a61 444D4131 		.ascii	"DMA1_Stream7_IRQn\000"
 4269      5F537472 
 4269      65616D37 
ARM GAS  /tmp/ccaK2hqG.s 			page 85


 4269      5F495251 
 4269      6E00
 4270              	.LASF166:
 4271 0a73 41484231 		.ascii	"AHB1RSTR\000"
 4271      52535452 
 4271      00
 4272              	.LASF195:
 4273 0a7c 53445F53 		.ascii	"SD_STOP\000"
 4273      544F5000 
 4274              	.LASF54:
 4275 0a84 656C5F6D 		.ascii	"el_mask\000"
 4275      61736B00 
 4276              	.LASF30:
 4277 0a8c 705F6E61 		.ascii	"p_name\000"
 4277      6D6500
 4278              	.LASF50:
 4279 0a93 6D5F6E65 		.ascii	"m_next\000"
 4279      787400
 4280              	.LASF175:
 4281 0a9a 41484233 		.ascii	"AHB3ENR\000"
 4281      454E5200 
 4282              	.LASF140:
 4283 0aa2 444D4132 		.ascii	"DMA2_Stream2_IRQn\000"
 4283      5F537472 
 4283      65616D32 
 4283      5F495251 
 4283      6E00
 4284              	.LASF37:
 4285 0ab4 705F6D73 		.ascii	"p_msg\000"
 4285      6700
 4286              	.LASF53:
 4287 0aba 656C5F6C 		.ascii	"el_listener\000"
 4287      69737465 
 4287      6E657200 
 4288              	.LASF31:
 4289 0ac6 705F7374 		.ascii	"p_state\000"
 4289      61746500 
 4290              		.ident	"GCC: (GNU Tools for ARM Embedded Processors) 4.6.2 20120613 (release) [ARM/embedded-4_6-br
ARM GAS  /tmp/ccaK2hqG.s 			page 86


DEFINED SYMBOLS
                            *ABS*:00000000 serial_lld.c
     /tmp/ccaK2hqG.s:19     .text.notify3:00000000 $t
     /tmp/ccaK2hqG.s:24     .text.notify3:00000000 notify3
     /tmp/ccaK2hqG.s:47     .text.VectorDC:00000000 $t
     /tmp/ccaK2hqG.s:53     .text.VectorDC:00000000 VectorDC
     /tmp/ccaK2hqG.s:339    .text.VectorDC:00000134 $d
     /tmp/ccaK2hqG.s:348    .text.sd_lld_init:00000000 $t
     /tmp/ccaK2hqG.s:354    .text.sd_lld_init:00000000 sd_lld_init
     /tmp/ccaK2hqG.s:602    .bss.SD3:00000000 .LANCHOR0
     /tmp/ccaK2hqG.s:383    .text.sd_lld_start:00000000 $t
     /tmp/ccaK2hqG.s:389    .text.sd_lld_start:00000000 sd_lld_start
     /tmp/ccaK2hqG.s:512    .text.sd_lld_start:000000ac $d
     /tmp/ccaK2hqG.s:520    .text.sd_lld_stop:00000000 $t
     /tmp/ccaK2hqG.s:526    .text.sd_lld_stop:00000000 sd_lld_stop
     /tmp/ccaK2hqG.s:584    .text.sd_lld_stop:00000034 $d
     /tmp/ccaK2hqG.s:605    .bss.SD3:00000000 SD3
     /tmp/ccaK2hqG.s:590    .rodata.default_config:00000000 $d
     /tmp/ccaK2hqG.s:594    .rodata.default_config:00000000 default_config
     /tmp/ccaK2hqG.s:601    .bss.SD3:00000000 $d
                     .debug_frame:00000010 $d
     /tmp/ccaK2hqG.s:347    .text.VectorDC:0000013c $t
     /tmp/ccaK2hqG.s:519    .text.sd_lld_start:000000b4 $t
     /tmp/ccaK2hqG.s:589    .text.sd_lld_stop:00000038 $t

UNDEFINED SYMBOLS
chEvtBroadcastFlagsI
_port_irq_epilogue
sdIncomingDataI
chOQGetI
sdObjectInit
nvicEnableVector
nvicDisableVector
