ARM GAS  /tmp/ccpVNFv0.s 			page 1


   1              		.syntax unified
   2              		.cpu cortex-m4
   3              		.fpu softvfp
   4              		.eabi_attribute 20, 1
   5              		.eabi_attribute 21, 1
   6              		.eabi_attribute 23, 3
   7              		.eabi_attribute 24, 1
   8              		.eabi_attribute 25, 1
   9              		.eabi_attribute 26, 1
  10              		.eabi_attribute 30, 2
  11              		.eabi_attribute 34, 1
  12              		.eabi_attribute 18, 4
  13              		.thumb
  14              		.file	"spi.c"
  15              		.text
  16              	.Ltext0:
  17              		.cfi_sections	.debug_frame
  18              		.section	.text.spiInit,"ax",%progbits
  19              		.align	2
  20              		.p2align 4,,15
  21              		.global	spiInit
  22              		.thumb
  23              		.thumb_func
  24              		.type	spiInit, %function
  25              	spiInit:
  26              	.LFB117:
  27              		.file 1 "./os/hal/src/spi.c"
  28              		.loc 1 68 0
  29              		.cfi_startproc
  30              		@ args = 0, pretend = 0, frame = 0
  31              		@ frame_needed = 0, uses_anonymous_args = 0
  32              		@ link register save eliminated.
  33              		.loc 1 71 0
  34              		.loc 1 70 0
  35 0000 FFF7FEBF 		b	spi_lld_init
  36              		.cfi_endproc
  37              	.LFE117:
  38              		.size	spiInit, .-spiInit
  39 0004 AFF30080 		.section	.text.spiObjectInit,"ax",%progbits
  39      AFF30080 
  39      AFF30080 
  40              		.align	2
  41              		.p2align 4,,15
  42              		.global	spiObjectInit
  43              		.thumb
  44              		.thumb_func
  45              		.type	spiObjectInit, %function
  46              	spiObjectInit:
  47              	.LFB118:
  48              		.loc 1 80 0
  49              		.cfi_startproc
  50              		@ args = 0, pretend = 0, frame = 0
  51              		@ frame_needed = 0, uses_anonymous_args = 0
  52              		@ link register save eliminated.
  53              	.LVL0:
  54              		.loc 1 80 0
  55 0000 0346     		mov	r3, r0
ARM GAS  /tmp/ccpVNFv0.s 			page 2


  56              		.loc 1 83 0
  57 0002 0022     		movs	r2, #0
  58              		.loc 1 82 0
  59 0004 0121     		movs	r1, #1
  60              		.loc 1 89 0
  61 0006 00F10C00 		add	r0, r0, #12
  62              	.LVL1:
  63              		.loc 1 82 0
  64 000a 1970     		strb	r1, [r3, #0]
  65              		.loc 1 83 0
  66 000c 5A60     		str	r2, [r3, #4]
  67              		.loc 1 85 0
  68 000e 9A60     		str	r2, [r3, #8]
  69              		.loc 1 97 0
  70              		.loc 1 89 0
  71 0010 FFF7FEBF 		b	chMtxInit
  72              	.LVL2:
  73              		.cfi_endproc
  74              	.LFE118:
  75              		.size	spiObjectInit, .-spiObjectInit
  76 0014 AFF30080 		.section	.text.spiStart,"ax",%progbits
  76      AFF30080 
  76      AFF30080 
  77              		.align	2
  78              		.p2align 4,,15
  79              		.global	spiStart
  80              		.thumb
  81              		.thumb_func
  82              		.type	spiStart, %function
  83              	spiStart:
  84              	.LFB119:
  85              		.loc 1 107 0
  86              		.cfi_startproc
  87              		@ args = 0, pretend = 0, frame = 0
  88              		@ frame_needed = 0, uses_anonymous_args = 0
  89              	.LVL3:
  90 0000 10B5     		push	{r4, lr}
  91              	.LCFI0:
  92              		.cfi_def_cfa_offset 8
  93              		.cfi_offset 14, -4
  94              		.cfi_offset 4, -8
  95              	.LBB2:
  96              		.loc 1 111 0
  97 0002 2023     		movs	r3, #32
  98              	.LVL4:
  99              	.LBE2:
 100              		.loc 1 107 0
 101 0004 0446     		mov	r4, r0
 102              	.LBB3:
 103              		.loc 1 111 0
 104              	@ 111 "./os/hal/src/spi.c" 1
 105 0006 83F31188 		msr     BASEPRI, r3
 106              	@ 0 "" 2
 107              	.LVL5:
 108              		.thumb
 109              	.LBE3:
 110              		.loc 1 114 0
ARM GAS  /tmp/ccpVNFv0.s 			page 3


 111 000a 4160     		str	r1, [r0, #4]
 112              		.loc 1 115 0
 113 000c FFF7FEFF 		bl	spi_lld_start
 114              	.LVL6:
 115              		.loc 1 116 0
 116 0010 0223     		movs	r3, #2
 117 0012 2370     		strb	r3, [r4, #0]
 118              	.LBB4:
 119              		.loc 1 117 0
 120 0014 0023     		movs	r3, #0
 121              	.LVL7:
 122              	@ 117 "./os/hal/src/spi.c" 1
 123 0016 83F31188 		msr     BASEPRI, r3
 124              	@ 0 "" 2
 125              	.LVL8:
 126              		.thumb
 127              	.LBE4:
 128              		.loc 1 118 0
 129 001a 10BD     		pop	{r4, pc}
 130              		.cfi_endproc
 131              	.LFE119:
 132              		.size	spiStart, .-spiStart
 133 001c AFF30080 		.section	.text.spiStop,"ax",%progbits
 134              		.align	2
 135              		.p2align 4,,15
 136              		.global	spiStop
 137              		.thumb
 138              		.thumb_func
 139              		.type	spiStop, %function
 140              	spiStop:
 141              	.LFB120:
 142              		.loc 1 129 0
 143              		.cfi_startproc
 144              		@ args = 0, pretend = 0, frame = 0
 145              		@ frame_needed = 0, uses_anonymous_args = 0
 146              	.LVL9:
 147 0000 10B5     		push	{r4, lr}
 148              	.LCFI1:
 149              		.cfi_def_cfa_offset 8
 150              		.cfi_offset 14, -4
 151              		.cfi_offset 4, -8
 152              	.LBB5:
 153              		.loc 1 133 0
 154 0002 2023     		movs	r3, #32
 155              	.LVL10:
 156              	.LBE5:
 157              		.loc 1 129 0
 158 0004 0446     		mov	r4, r0
 159              	.LBB6:
 160              		.loc 1 133 0
 161              	@ 133 "./os/hal/src/spi.c" 1
 162 0006 83F31188 		msr     BASEPRI, r3
 163              	@ 0 "" 2
 164              	.LVL11:
 165              		.thumb
 166              	.LBE6:
 167              		.loc 1 136 0
ARM GAS  /tmp/ccpVNFv0.s 			page 4


 168 000a FFF7FEFF 		bl	spi_lld_unselect
 169              	.LVL12:
 170              		.loc 1 137 0
 171 000e 2046     		mov	r0, r4
 172 0010 FFF7FEFF 		bl	spi_lld_stop
 173              		.loc 1 138 0
 174 0014 0123     		movs	r3, #1
 175 0016 2370     		strb	r3, [r4, #0]
 176              	.LBB7:
 177              		.loc 1 139 0
 178 0018 0023     		movs	r3, #0
 179              	.LVL13:
 180              	@ 139 "./os/hal/src/spi.c" 1
 181 001a 83F31188 		msr     BASEPRI, r3
 182              	@ 0 "" 2
 183              	.LVL14:
 184              		.thumb
 185              	.LBE7:
 186              		.loc 1 140 0
 187 001e 10BD     		pop	{r4, pc}
 188              		.cfi_endproc
 189              	.LFE120:
 190              		.size	spiStop, .-spiStop
 191              		.section	.text.spiSelect,"ax",%progbits
 192              		.align	2
 193              		.p2align 4,,15
 194              		.global	spiSelect
 195              		.thumb
 196              		.thumb_func
 197              		.type	spiSelect, %function
 198              	spiSelect:
 199              	.LFB121:
 200              		.loc 1 149 0
 201              		.cfi_startproc
 202              		@ args = 0, pretend = 0, frame = 0
 203              		@ frame_needed = 0, uses_anonymous_args = 0
 204              	.LVL15:
 205 0000 08B5     		push	{r3, lr}
 206              	.LCFI2:
 207              		.cfi_def_cfa_offset 8
 208              		.cfi_offset 14, -4
 209              		.cfi_offset 3, -8
 210              	.LBB8:
 211              		.loc 1 153 0
 212 0002 2023     		movs	r3, #32
 213              	.LVL16:
 214              	@ 153 "./os/hal/src/spi.c" 1
 215 0004 83F31188 		msr     BASEPRI, r3
 216              	@ 0 "" 2
 217              	.LVL17:
 218              		.thumb
 219              	.LBE8:
 220              		.loc 1 155 0
 221 0008 FFF7FEFF 		bl	spi_lld_select
 222              	.LVL18:
 223              	.LBB9:
 224              		.loc 1 156 0
ARM GAS  /tmp/ccpVNFv0.s 			page 5


 225 000c 0023     		movs	r3, #0
 226              	.LVL19:
 227              	@ 156 "./os/hal/src/spi.c" 1
 228 000e 83F31188 		msr     BASEPRI, r3
 229              	@ 0 "" 2
 230              	.LVL20:
 231              		.thumb
 232              	.LBE9:
 233              		.loc 1 157 0
 234 0012 08BD     		pop	{r3, pc}
 235              		.cfi_endproc
 236              	.LFE121:
 237              		.size	spiSelect, .-spiSelect
 238 0014 AFF30080 		.section	.text.spiUnselect,"ax",%progbits
 238      AFF30080 
 238      AFF30080 
 239              		.align	2
 240              		.p2align 4,,15
 241              		.global	spiUnselect
 242              		.thumb
 243              		.thumb_func
 244              		.type	spiUnselect, %function
 245              	spiUnselect:
 246              	.LFB122:
 247              		.loc 1 167 0
 248              		.cfi_startproc
 249              		@ args = 0, pretend = 0, frame = 0
 250              		@ frame_needed = 0, uses_anonymous_args = 0
 251              	.LVL21:
 252 0000 08B5     		push	{r3, lr}
 253              	.LCFI3:
 254              		.cfi_def_cfa_offset 8
 255              		.cfi_offset 14, -4
 256              		.cfi_offset 3, -8
 257              	.LBB10:
 258              		.loc 1 171 0
 259 0002 2023     		movs	r3, #32
 260              	.LVL22:
 261              	@ 171 "./os/hal/src/spi.c" 1
 262 0004 83F31188 		msr     BASEPRI, r3
 263              	@ 0 "" 2
 264              	.LVL23:
 265              		.thumb
 266              	.LBE10:
 267              		.loc 1 173 0
 268 0008 FFF7FEFF 		bl	spi_lld_unselect
 269              	.LVL24:
 270              	.LBB11:
 271              		.loc 1 174 0
 272 000c 0023     		movs	r3, #0
 273              	.LVL25:
 274              	@ 174 "./os/hal/src/spi.c" 1
 275 000e 83F31188 		msr     BASEPRI, r3
 276              	@ 0 "" 2
 277              	.LVL26:
 278              		.thumb
 279              	.LBE11:
ARM GAS  /tmp/ccpVNFv0.s 			page 6


 280              		.loc 1 175 0
 281 0012 08BD     		pop	{r3, pc}
 282              		.cfi_endproc
 283              	.LFE122:
 284              		.size	spiUnselect, .-spiUnselect
 285 0014 AFF30080 		.section	.text.spiStartIgnore,"ax",%progbits
 285      AFF30080 
 285      AFF30080 
 286              		.align	2
 287              		.p2align 4,,15
 288              		.global	spiStartIgnore
 289              		.thumb
 290              		.thumb_func
 291              		.type	spiStartIgnore, %function
 292              	spiStartIgnore:
 293              	.LFB123:
 294              		.loc 1 190 0
 295              		.cfi_startproc
 296              		@ args = 0, pretend = 0, frame = 0
 297              		@ frame_needed = 0, uses_anonymous_args = 0
 298              	.LVL27:
 299 0000 08B5     		push	{r3, lr}
 300              	.LCFI4:
 301              		.cfi_def_cfa_offset 8
 302              		.cfi_offset 14, -4
 303              		.cfi_offset 3, -8
 304              	.LBB12:
 305              		.loc 1 194 0
 306 0002 2023     		movs	r3, #32
 307              	.LVL28:
 308              	@ 194 "./os/hal/src/spi.c" 1
 309 0004 83F31188 		msr     BASEPRI, r3
 310              	@ 0 "" 2
 311              	.LVL29:
 312              		.thumb
 313              	.LBE12:
 314              		.loc 1 196 0
 315 0008 0323     		movs	r3, #3
 316              	.LVL30:
 317 000a 0370     		strb	r3, [r0, #0]
 318 000c FFF7FEFF 		bl	spi_lld_ignore
 319              	.LVL31:
 320              	.LBB13:
 321              		.loc 1 197 0
 322 0010 0023     		movs	r3, #0
 323              	.LVL32:
 324              	@ 197 "./os/hal/src/spi.c" 1
 325 0012 83F31188 		msr     BASEPRI, r3
 326              	@ 0 "" 2
 327              	.LVL33:
 328              		.thumb
 329              	.LBE13:
 330              		.loc 1 198 0
 331 0016 08BD     		pop	{r3, pc}
 332              		.cfi_endproc
 333              	.LFE123:
 334              		.size	spiStartIgnore, .-spiStartIgnore
ARM GAS  /tmp/ccpVNFv0.s 			page 7


 335 0018 AFF30080 		.section	.text.spiStartExchange,"ax",%progbits
 335      AFF30080 
 336              		.align	2
 337              		.p2align 4,,15
 338              		.global	spiStartExchange
 339              		.thumb
 340              		.thumb_func
 341              		.type	spiStartExchange, %function
 342              	spiStartExchange:
 343              	.LFB124:
 344              		.loc 1 218 0
 345              		.cfi_startproc
 346              		@ args = 0, pretend = 0, frame = 0
 347              		@ frame_needed = 0, uses_anonymous_args = 0
 348              	.LVL34:
 349 0000 10B5     		push	{r4, lr}
 350              	.LCFI5:
 351              		.cfi_def_cfa_offset 8
 352              		.cfi_offset 14, -4
 353              		.cfi_offset 4, -8
 354              		.loc 1 218 0
 355 0002 1C46     		mov	r4, r3
 356              	.LBB14:
 357              		.loc 1 223 0
 358 0004 2023     		movs	r3, #32
 359              	.LVL35:
 360              	@ 223 "./os/hal/src/spi.c" 1
 361 0006 83F31188 		msr     BASEPRI, r3
 362              	@ 0 "" 2
 363              	.LVL36:
 364              		.thumb
 365              	.LBE14:
 366              		.loc 1 225 0
 367 000a 2346     		mov	r3, r4
 368              	.LVL37:
 369 000c 0324     		movs	r4, #3
 370              	.LVL38:
 371 000e 0470     		strb	r4, [r0, #0]
 372 0010 FFF7FEFF 		bl	spi_lld_exchange
 373              	.LVL39:
 374              	.LBB15:
 375              		.loc 1 226 0
 376 0014 0023     		movs	r3, #0
 377              	.LVL40:
 378              	@ 226 "./os/hal/src/spi.c" 1
 379 0016 83F31188 		msr     BASEPRI, r3
 380              	@ 0 "" 2
 381              	.LVL41:
 382              		.thumb
 383              	.LBE15:
 384              		.loc 1 227 0
 385 001a 10BD     		pop	{r4, pc}
 386              		.cfi_endproc
 387              	.LFE124:
 388              		.size	spiStartExchange, .-spiStartExchange
 389 001c AFF30080 		.section	.text.spiStartSend,"ax",%progbits
 390              		.align	2
ARM GAS  /tmp/ccpVNFv0.s 			page 8


 391              		.p2align 4,,15
 392              		.global	spiStartSend
 393              		.thumb
 394              		.thumb_func
 395              		.type	spiStartSend, %function
 396              	spiStartSend:
 397              	.LFB125:
 398              		.loc 1 244 0
 399              		.cfi_startproc
 400              		@ args = 0, pretend = 0, frame = 0
 401              		@ frame_needed = 0, uses_anonymous_args = 0
 402              	.LVL42:
 403 0000 08B5     		push	{r3, lr}
 404              	.LCFI6:
 405              		.cfi_def_cfa_offset 8
 406              		.cfi_offset 14, -4
 407              		.cfi_offset 3, -8
 408              	.LBB16:
 409              		.loc 1 249 0
 410 0002 2023     		movs	r3, #32
 411              	.LVL43:
 412              	@ 249 "./os/hal/src/spi.c" 1
 413 0004 83F31188 		msr     BASEPRI, r3
 414              	@ 0 "" 2
 415              	.LVL44:
 416              		.thumb
 417              	.LBE16:
 418              		.loc 1 251 0
 419 0008 0323     		movs	r3, #3
 420              	.LVL45:
 421 000a 0370     		strb	r3, [r0, #0]
 422 000c FFF7FEFF 		bl	spi_lld_send
 423              	.LVL46:
 424              	.LBB17:
 425              		.loc 1 252 0
 426 0010 0023     		movs	r3, #0
 427              	.LVL47:
 428              	@ 252 "./os/hal/src/spi.c" 1
 429 0012 83F31188 		msr     BASEPRI, r3
 430              	@ 0 "" 2
 431              	.LVL48:
 432              		.thumb
 433              	.LBE17:
 434              		.loc 1 253 0
 435 0016 08BD     		pop	{r3, pc}
 436              		.cfi_endproc
 437              	.LFE125:
 438              		.size	spiStartSend, .-spiStartSend
 439 0018 AFF30080 		.section	.text.spiStartReceive,"ax",%progbits
 439      AFF30080 
 440              		.align	2
 441              		.p2align 4,,15
 442              		.global	spiStartReceive
 443              		.thumb
 444              		.thumb_func
 445              		.type	spiStartReceive, %function
 446              	spiStartReceive:
ARM GAS  /tmp/ccpVNFv0.s 			page 9


 447              	.LFB126:
 448              		.loc 1 270 0
 449              		.cfi_startproc
 450              		@ args = 0, pretend = 0, frame = 0
 451              		@ frame_needed = 0, uses_anonymous_args = 0
 452              	.LVL49:
 453 0000 08B5     		push	{r3, lr}
 454              	.LCFI7:
 455              		.cfi_def_cfa_offset 8
 456              		.cfi_offset 14, -4
 457              		.cfi_offset 3, -8
 458              	.LBB18:
 459              		.loc 1 275 0
 460 0002 2023     		movs	r3, #32
 461              	.LVL50:
 462              	@ 275 "./os/hal/src/spi.c" 1
 463 0004 83F31188 		msr     BASEPRI, r3
 464              	@ 0 "" 2
 465              	.LVL51:
 466              		.thumb
 467              	.LBE18:
 468              		.loc 1 277 0
 469 0008 0323     		movs	r3, #3
 470              	.LVL52:
 471 000a 0370     		strb	r3, [r0, #0]
 472 000c FFF7FEFF 		bl	spi_lld_receive
 473              	.LVL53:
 474              	.LBB19:
 475              		.loc 1 278 0
 476 0010 0023     		movs	r3, #0
 477              	.LVL54:
 478              	@ 278 "./os/hal/src/spi.c" 1
 479 0012 83F31188 		msr     BASEPRI, r3
 480              	@ 0 "" 2
 481              	.LVL55:
 482              		.thumb
 483              	.LBE19:
 484              		.loc 1 279 0
 485 0016 08BD     		pop	{r3, pc}
 486              		.cfi_endproc
 487              	.LFE126:
 488              		.size	spiStartReceive, .-spiStartReceive
 489 0018 AFF30080 		.section	.text.spiIgnore,"ax",%progbits
 489      AFF30080 
 490              		.align	2
 491              		.p2align 4,,15
 492              		.global	spiIgnore
 493              		.thumb
 494              		.thumb_func
 495              		.type	spiIgnore, %function
 496              	spiIgnore:
 497              	.LFB127:
 498              		.loc 1 296 0
 499              		.cfi_startproc
 500              		@ args = 0, pretend = 0, frame = 0
 501              		@ frame_needed = 0, uses_anonymous_args = 0
 502              	.LVL56:
ARM GAS  /tmp/ccpVNFv0.s 			page 10


 503 0000 10B5     		push	{r4, lr}
 504              	.LCFI8:
 505              		.cfi_def_cfa_offset 8
 506              		.cfi_offset 14, -4
 507              		.cfi_offset 4, -8
 508              	.LBB20:
 509              		.loc 1 300 0
 510 0002 2023     		movs	r3, #32
 511              	.LVL57:
 512              	.LBE20:
 513              		.loc 1 296 0
 514 0004 0446     		mov	r4, r0
 515              	.LBB21:
 516              		.loc 1 300 0
 517              	@ 300 "./os/hal/src/spi.c" 1
 518 0006 83F31188 		msr     BASEPRI, r3
 519              	@ 0 "" 2
 520              	.LVL58:
 521              		.thumb
 522              	.LBE21:
 523              		.loc 1 303 0
 524 000a 0322     		movs	r2, #3
 525 000c 2270     		strb	r2, [r4, #0]
 526 000e FFF7FEFF 		bl	spi_lld_ignore
 527              	.LVL59:
 528              		.loc 1 304 0
 529 0012 40F20001 		movw	r1, #:lower16:rlist
 530 0016 C0F20001 		movt	r1, #:upper16:rlist
 531 001a 0220     		movs	r0, #2
 532 001c CB69     		ldr	r3, [r1, #28]
 533 001e A360     		str	r3, [r4, #8]
 534 0020 FFF7FEFF 		bl	chSchGoSleepS
 535              	.LBB22:
 536              		.loc 1 305 0
 537 0024 0023     		movs	r3, #0
 538              	.LVL60:
 539              	@ 305 "./os/hal/src/spi.c" 1
 540 0026 83F31188 		msr     BASEPRI, r3
 541              	@ 0 "" 2
 542              	.LVL61:
 543              		.thumb
 544              	.LBE22:
 545              		.loc 1 306 0
 546 002a 10BD     		pop	{r4, pc}
 547              		.cfi_endproc
 548              	.LFE127:
 549              		.size	spiIgnore, .-spiIgnore
 550 002c AFF30080 		.section	.text.spiExchange,"ax",%progbits
 551              		.align	2
 552              		.p2align 4,,15
 553              		.global	spiExchange
 554              		.thumb
 555              		.thumb_func
 556              		.type	spiExchange, %function
 557              	spiExchange:
 558              	.LFB128:
 559              		.loc 1 327 0
ARM GAS  /tmp/ccpVNFv0.s 			page 11


 560              		.cfi_startproc
 561              		@ args = 0, pretend = 0, frame = 0
 562              		@ frame_needed = 0, uses_anonymous_args = 0
 563              	.LVL62:
 564 0000 38B5     		push	{r3, r4, r5, lr}
 565              	.LCFI9:
 566              		.cfi_def_cfa_offset 16
 567              		.cfi_offset 14, -4
 568              		.cfi_offset 5, -8
 569              		.cfi_offset 4, -12
 570              		.cfi_offset 3, -16
 571              		.loc 1 327 0
 572 0002 1D46     		mov	r5, r3
 573 0004 0446     		mov	r4, r0
 574              	.LBB23:
 575              		.loc 1 332 0
 576 0006 2023     		movs	r3, #32
 577              	.LVL63:
 578              	@ 332 "./os/hal/src/spi.c" 1
 579 0008 83F31188 		msr     BASEPRI, r3
 580              	@ 0 "" 2
 581              	.LVL64:
 582              		.thumb
 583              	.LBE23:
 584              		.loc 1 336 0
 585 000c 2B46     		mov	r3, r5
 586              	.LVL65:
 587 000e 0325     		movs	r5, #3
 588              	.LVL66:
 589 0010 2570     		strb	r5, [r4, #0]
 590 0012 FFF7FEFF 		bl	spi_lld_exchange
 591              	.LVL67:
 592              		.loc 1 337 0
 593 0016 40F20001 		movw	r1, #:lower16:rlist
 594 001a C0F20001 		movt	r1, #:upper16:rlist
 595 001e 0220     		movs	r0, #2
 596 0020 CB69     		ldr	r3, [r1, #28]
 597 0022 A360     		str	r3, [r4, #8]
 598 0024 FFF7FEFF 		bl	chSchGoSleepS
 599              	.LBB24:
 600              		.loc 1 338 0
 601 0028 0023     		movs	r3, #0
 602              	.LVL68:
 603              	@ 338 "./os/hal/src/spi.c" 1
 604 002a 83F31188 		msr     BASEPRI, r3
 605              	@ 0 "" 2
 606              	.LVL69:
 607              		.thumb
 608              	.LBE24:
 609              		.loc 1 339 0
 610 002e 38BD     		pop	{r3, r4, r5, pc}
 611              		.cfi_endproc
 612              	.LFE128:
 613              		.size	spiExchange, .-spiExchange
 614              		.section	.text.spiSend,"ax",%progbits
 615              		.align	2
 616              		.p2align 4,,15
ARM GAS  /tmp/ccpVNFv0.s 			page 12


 617              		.global	spiSend
 618              		.thumb
 619              		.thumb_func
 620              		.type	spiSend, %function
 621              	spiSend:
 622              	.LFB129:
 623              		.loc 1 357 0
 624              		.cfi_startproc
 625              		@ args = 0, pretend = 0, frame = 0
 626              		@ frame_needed = 0, uses_anonymous_args = 0
 627              	.LVL70:
 628 0000 10B5     		push	{r4, lr}
 629              	.LCFI10:
 630              		.cfi_def_cfa_offset 8
 631              		.cfi_offset 14, -4
 632              		.cfi_offset 4, -8
 633              	.LBB25:
 634              		.loc 1 361 0
 635 0002 2023     		movs	r3, #32
 636              	.LVL71:
 637              	.LBE25:
 638              		.loc 1 357 0
 639 0004 0446     		mov	r4, r0
 640              	.LBB26:
 641              		.loc 1 361 0
 642              	@ 361 "./os/hal/src/spi.c" 1
 643 0006 83F31188 		msr     BASEPRI, r3
 644              	@ 0 "" 2
 645              	.LVL72:
 646              		.thumb
 647              	.LBE26:
 648              		.loc 1 364 0
 649 000a 0323     		movs	r3, #3
 650              	.LVL73:
 651 000c 2370     		strb	r3, [r4, #0]
 652 000e FFF7FEFF 		bl	spi_lld_send
 653              	.LVL74:
 654              		.loc 1 365 0
 655 0012 40F20001 		movw	r1, #:lower16:rlist
 656 0016 C0F20001 		movt	r1, #:upper16:rlist
 657 001a 0220     		movs	r0, #2
 658 001c CB69     		ldr	r3, [r1, #28]
 659 001e A360     		str	r3, [r4, #8]
 660 0020 FFF7FEFF 		bl	chSchGoSleepS
 661              	.LBB27:
 662              		.loc 1 366 0
 663 0024 0023     		movs	r3, #0
 664              	.LVL75:
 665              	@ 366 "./os/hal/src/spi.c" 1
 666 0026 83F31188 		msr     BASEPRI, r3
 667              	@ 0 "" 2
 668              	.LVL76:
 669              		.thumb
 670              	.LBE27:
 671              		.loc 1 367 0
 672 002a 10BD     		pop	{r4, pc}
 673              		.cfi_endproc
ARM GAS  /tmp/ccpVNFv0.s 			page 13


 674              	.LFE129:
 675              		.size	spiSend, .-spiSend
 676 002c AFF30080 		.section	.text.spiReceive,"ax",%progbits
 677              		.align	2
 678              		.p2align 4,,15
 679              		.global	spiReceive
 680              		.thumb
 681              		.thumb_func
 682              		.type	spiReceive, %function
 683              	spiReceive:
 684              	.LFB130:
 685              		.loc 1 385 0
 686              		.cfi_startproc
 687              		@ args = 0, pretend = 0, frame = 0
 688              		@ frame_needed = 0, uses_anonymous_args = 0
 689              	.LVL77:
 690 0000 10B5     		push	{r4, lr}
 691              	.LCFI11:
 692              		.cfi_def_cfa_offset 8
 693              		.cfi_offset 14, -4
 694              		.cfi_offset 4, -8
 695              	.LBB28:
 696              		.loc 1 390 0
 697 0002 2023     		movs	r3, #32
 698              	.LVL78:
 699              	.LBE28:
 700              		.loc 1 385 0
 701 0004 0446     		mov	r4, r0
 702              	.LBB29:
 703              		.loc 1 390 0
 704              	@ 390 "./os/hal/src/spi.c" 1
 705 0006 83F31188 		msr     BASEPRI, r3
 706              	@ 0 "" 2
 707              	.LVL79:
 708              		.thumb
 709              	.LBE29:
 710              		.loc 1 394 0
 711 000a 0323     		movs	r3, #3
 712              	.LVL80:
 713 000c 2370     		strb	r3, [r4, #0]
 714 000e FFF7FEFF 		bl	spi_lld_receive
 715              	.LVL81:
 716              		.loc 1 395 0
 717 0012 40F20001 		movw	r1, #:lower16:rlist
 718 0016 C0F20001 		movt	r1, #:upper16:rlist
 719 001a 0220     		movs	r0, #2
 720 001c CB69     		ldr	r3, [r1, #28]
 721 001e A360     		str	r3, [r4, #8]
 722 0020 FFF7FEFF 		bl	chSchGoSleepS
 723              	.LBB30:
 724              		.loc 1 396 0
 725 0024 0023     		movs	r3, #0
 726              	.LVL82:
 727              	@ 396 "./os/hal/src/spi.c" 1
 728 0026 83F31188 		msr     BASEPRI, r3
 729              	@ 0 "" 2
 730              	.LVL83:
ARM GAS  /tmp/ccpVNFv0.s 			page 14


 731              		.thumb
 732              	.LBE30:
 733              		.loc 1 397 0
 734 002a 10BD     		pop	{r4, pc}
 735              		.cfi_endproc
 736              	.LFE130:
 737              		.size	spiReceive, .-spiReceive
 738 002c AFF30080 		.section	.text.spiAcquireBus,"ax",%progbits
 739              		.align	2
 740              		.p2align 4,,15
 741              		.global	spiAcquireBus
 742              		.thumb
 743              		.thumb_func
 744              		.type	spiAcquireBus, %function
 745              	spiAcquireBus:
 746              	.LFB131:
 747              		.loc 1 412 0
 748              		.cfi_startproc
 749              		@ args = 0, pretend = 0, frame = 0
 750              		@ frame_needed = 0, uses_anonymous_args = 0
 751              		@ link register save eliminated.
 752              	.LVL84:
 753              		.loc 1 417 0
 754 0000 0C30     		adds	r0, r0, #12
 755              	.LVL85:
 756              		.loc 1 421 0
 757              		.loc 1 417 0
 758 0002 FFF7FEBF 		b	chMtxLock
 759              	.LVL86:
 760              		.cfi_endproc
 761              	.LFE131:
 762              		.size	spiAcquireBus, .-spiAcquireBus
 763 0006 00BFAFF3 		.section	.text.spiReleaseBus,"ax",%progbits
 763      0080AFF3 
 763      0080
 764              		.align	2
 765              		.p2align 4,,15
 766              		.global	spiReleaseBus
 767              		.thumb
 768              		.thumb_func
 769              		.type	spiReleaseBus, %function
 770              	spiReleaseBus:
 771              	.LFB132:
 772              		.loc 1 432 0
 773              		.cfi_startproc
 774              		@ args = 0, pretend = 0, frame = 0
 775              		@ frame_needed = 0, uses_anonymous_args = 0
 776              		@ link register save eliminated.
 777              	.LVL87:
 778              		.loc 1 442 0
 779              		.loc 1 438 0
 780 0000 FFF7FEBF 		b	chMtxUnlock
 781              	.LVL88:
 782              		.cfi_endproc
 783              	.LFE132:
 784              		.size	spiReleaseBus, .-spiReleaseBus
 785 0004 AFF30080 		.text
ARM GAS  /tmp/ccpVNFv0.s 			page 15


 785      AFF30080 
 785      AFF30080 
 786              	.Letext0:
 787              		.file 2 "/usr/bin/../lib/gcc/arm-none-eabi/4.6.2/include/stddef.h"
 788              		.file 3 "/usr/bin/../lib/gcc/arm-none-eabi/4.6.2/../../../../arm-none-eabi/include/stdint.h"
 789              		.file 4 "./os/ports/GCC/ARMCMx/chtypes.h"
 790              		.file 5 "./os/kernel/include/chlists.h"
 791              		.file 6 "./os/kernel/include/chthreads.h"
 792              		.file 7 "./os/ports/GCC/ARMCMx/chcore_v7m.h"
 793              		.file 8 "./os/kernel/include/chschd.h"
 794              		.file 9 "./os/kernel/include/chmtx.h"
 795              		.file 10 "./os/hal/platforms/STM32F4xx/stm32f4xx.h"
 796              		.file 11 "./os/hal/platforms/STM32F4xx/stm32_dma.h"
 797              		.file 12 "./os/hal/platforms/STM32/GPIOv2/pal_lld.h"
 798              		.file 13 "./os/hal/include/spi.h"
 799              		.file 14 "./os/hal/platforms/STM32/spi_lld.h"
 800              		.file 15 "./os/ports/common/ARMCMx/CMSIS/include/core_cm4.h"