ARM GAS  /tmp/ccYBIQcM.s 			page 1


   1              		.syntax unified
   2              		.cpu cortex-m4
   3              		.fpu softvfp
   4              		.eabi_attribute 20, 1
   5              		.eabi_attribute 21, 1
   6              		.eabi_attribute 23, 3
   7              		.eabi_attribute 24, 1
   8              		.eabi_attribute 25, 1
   9              		.eabi_attribute 26, 1
  10              		.eabi_attribute 30, 2
  11              		.eabi_attribute 34, 1
  12              		.eabi_attribute 18, 4
  13              		.thumb
  14              		.file	"spi_lld.c"
  15              		.text
  16              	.Ltext0:
  17              		.cfi_sections	.debug_frame
  18              		.section	.text.spi_lld_serve_tx_interrupt,"ax",%progbits
  19              		.align	2
  20              		.p2align 4,,15
  21              		.thumb
  22              		.thumb_func
  23              		.type	spi_lld_serve_tx_interrupt, %function
  24              	spi_lld_serve_tx_interrupt:
  25              	.LFB118:
  26              		.file 1 "./os/hal/platforms/STM32/spi_lld.c"
  27              		.loc 1 131 0
  28              		.cfi_startproc
  29              		@ args = 0, pretend = 0, frame = 0
  30              		@ frame_needed = 0, uses_anonymous_args = 0
  31              		@ link register save eliminated.
  32              	.LVL0:
  33              		.loc 1 136 0
  34 0000 11F00C0F 		tst	r1, #12
  35 0004 00D1     		bne	.L4
  36 0006 7047     		bx	lr
  37              	.L4:
  38              		.loc 1 143 0
  39              		.loc 1 137 0
  40 0008 FFF7FEBF 		b	port_halt
  41              	.LVL1:
  42              	.LVL2:
  43              		.cfi_endproc
  44              	.LFE118:
  45              		.size	spi_lld_serve_tx_interrupt, .-spi_lld_serve_tx_interrupt
  46 000c AFF30080 		.section	.text.spi_lld_serve_rx_interrupt,"ax",%progbits
  47              		.align	2
  48              		.p2align 4,,15
  49              		.thumb
  50              		.thumb_func
  51              		.type	spi_lld_serve_rx_interrupt, %function
  52              	spi_lld_serve_rx_interrupt:
  53              	.LFB117:
  54              		.loc 1 105 0
  55              		.cfi_startproc
  56              		@ args = 0, pretend = 0, frame = 0
  57              		@ frame_needed = 0, uses_anonymous_args = 0
ARM GAS  /tmp/ccYBIQcM.s 			page 2


  58              	.LVL3:
  59              		.loc 1 109 0
  60 0000 11F00C0F 		tst	r1, #12
  61              		.loc 1 105 0
  62 0004 38B5     		push	{r3, r4, r5, lr}
  63              	.LCFI0:
  64              		.cfi_def_cfa_offset 16
  65              		.cfi_offset 14, -4
  66              		.cfi_offset 5, -8
  67              		.cfi_offset 4, -12
  68              		.cfi_offset 3, -16
  69              		.loc 1 105 0
  70 0006 0546     		mov	r5, r0
  71              		.loc 1 109 0
  72 0008 38D1     		bne	.L14
  73              	.LVL4:
  74              	.L6:
  75              		.loc 1 117 0
  76 000a 686A     		ldr	r0, [r5, #36]
  77 000c 0268     		ldr	r2, [r0, #0]
  78 000e 1168     		ldr	r1, [r2, #0]
  79 0010 21F00103 		bic	r3, r1, #1
  80 0014 1360     		str	r3, [r2, #0]
  81              	.L7:
  82              		.loc 1 117 0 is_stmt 0 discriminator 1
  83 0016 1468     		ldr	r4, [r2, #0]
  84 0018 E107     		lsls	r1, r4, #31
  85 001a FCD4     		bmi	.L7
  86              		.loc 1 117 0 discriminator 2
  87 001c 047A     		ldrb	r4, [r0, #8]	@ zero_extendqisi2
  88              		.loc 1 118 0 is_stmt 1 discriminator 2
  89 001e 296A     		ldr	r1, [r5, #32]
  90              		.loc 1 117 0 discriminator 2
  91 0020 4368     		ldr	r3, [r0, #4]
  92              		.loc 1 118 0 discriminator 2
  93 0022 0A68     		ldr	r2, [r1, #0]
  94              		.loc 1 117 0 discriminator 2
  95 0024 3D20     		movs	r0, #61
  96 0026 00FA04F0 		lsl	r0, r0, r4
  97 002a 1860     		str	r0, [r3, #0]
  98              		.loc 1 118 0 discriminator 2
  99 002c 1368     		ldr	r3, [r2, #0]
 100 002e 23F00100 		bic	r0, r3, #1
 101 0032 1060     		str	r0, [r2, #0]
 102              	.L8:
 103              		.loc 1 118 0 is_stmt 0 discriminator 1
 104 0034 1368     		ldr	r3, [r2, #0]
 105 0036 DB07     		lsls	r3, r3, #31
 106 0038 FCD4     		bmi	.L8
 107              		.loc 1 122 0 is_stmt 1 discriminator 2
 108 003a 6868     		ldr	r0, [r5, #4]
 109              		.loc 1 118 0 discriminator 2
 110 003c 91F808C0 		ldrb	ip, [r1, #8]	@ zero_extendqisi2
 111 0040 4A68     		ldr	r2, [r1, #4]
 112              		.loc 1 122 0 discriminator 2
 113 0042 0368     		ldr	r3, [r0, #0]
 114              		.loc 1 118 0 discriminator 2
ARM GAS  /tmp/ccYBIQcM.s 			page 3


 115 0044 3D21     		movs	r1, #61
 116 0046 01FA0CF1 		lsl	r1, r1, ip
 117 004a 1160     		str	r1, [r2, #0]
 118              		.loc 1 122 0 discriminator 2
 119 004c 9BB1     		cbz	r3, .L9
 120              		.loc 1 122 0 is_stmt 0 discriminator 1
 121 004e 0422     		movs	r2, #4
 122 0050 2A70     		strb	r2, [r5, #0]
 123 0052 2846     		mov	r0, r5
 124 0054 9847     		blx	r3
 125 0056 2B78     		ldrb	r3, [r5, #0]	@ zero_extendqisi2
 126 0058 042B     		cmp	r3, #4
 127 005a 0CD0     		beq	.L9
 128              	.L10:
 129              		.loc 1 122 0 discriminator 4
 130 005c A868     		ldr	r0, [r5, #8]
 131 005e 48B1     		cbz	r0, .L5
 132              	.LVL5:
 133              	.LBB2:
 134              		.loc 1 122 0 discriminator 5
 135 0060 0024     		movs	r4, #0
 136 0062 AC60     		str	r4, [r5, #8]
 137              	.LBB3:
 138 0064 2023     		movs	r3, #32
 139              	.LVL6:
 140              	@ 122 "./os/hal/platforms/STM32/spi_lld.c" 1
 141 0066 83F31188 		msr     BASEPRI, r3
 142              	@ 0 "" 2
 143              	.LVL7:
 144              		.thumb
 145              	.LBE3:
 146 006a FFF7FEFF 		bl	chSchReadyI
 147              	.LVL8:
 148              	.LBB4:
 149 006e 2346     		mov	r3, r4
 150              	.LVL9:
 151              	@ 122 "./os/hal/platforms/STM32/spi_lld.c" 1
 152 0070 83F31188 		msr     BASEPRI, r3
 153              	@ 0 "" 2
 154              	.LVL10:
 155              		.thumb
 156              	.L5:
 157 0074 38BD     		pop	{r3, r4, r5, pc}
 158              	.LVL11:
 159              	.L9:
 160              	.LBE4:
 161              	.LBE2:
 162              		.loc 1 122 0 discriminator 2
 163 0076 0221     		movs	r1, #2
 164 0078 2970     		strb	r1, [r5, #0]
 165 007a EFE7     		b	.L10
 166              	.LVL12:
 167              	.L14:
 168              		.loc 1 110 0 is_stmt 1
 169 007c FFF7FEFF 		bl	port_halt
 170              	.LVL13:
 171 0080 C3E7     		b	.L6
ARM GAS  /tmp/ccYBIQcM.s 			page 4


 172              		.cfi_endproc
 173              	.LFE117:
 174              		.size	spi_lld_serve_rx_interrupt, .-spi_lld_serve_rx_interrupt
 175 0082 00BFAFF3 		.section	.text.spi_lld_init,"ax",%progbits
 175      0080AFF3 
 175      0080AFF3 
 175      0080
 176              		.align	2
 177              		.p2align 4,,15
 178              		.global	spi_lld_init
 179              		.thumb
 180              		.thumb_func
 181              		.type	spi_lld_init, %function
 182              	spi_lld_init:
 183              	.LFB119:
 184              		.loc 1 158 0
 185              		.cfi_startproc
 186              		@ args = 0, pretend = 0, frame = 0
 187              		@ frame_needed = 0, uses_anonymous_args = 0
 188 0000 38B5     		push	{r3, r4, r5, lr}
 189              	.LCFI1:
 190              		.cfi_def_cfa_offset 16
 191              		.cfi_offset 14, -4
 192              		.cfi_offset 5, -8
 193              		.cfi_offset 4, -12
 194              		.cfi_offset 3, -16
 195              		.loc 1 160 0
 196 0002 40F2000C 		movw	ip, #:lower16:.LANCHOR0
 197              		.loc 1 181 0
 198 0006 40F20004 		movw	r4, #:lower16:.LANCHOR1
 199 000a C0F20004 		movt	r4, #:upper16:.LANCHOR1
 200              		.loc 1 160 0
 201 000e C0F2000C 		movt	ip, #:upper16:.LANCHOR0
 202              		.loc 1 181 0
 203 0012 2046     		mov	r0, r4
 204              		.loc 1 160 0
 205 0014 4FF6FF75 		movw	r5, #65535
 206 0018 ACF80050 		strh	r5, [ip, #0]	@ movhi
 207              		.loc 1 181 0
 208 001c FFF7FEFF 		bl	spiObjectInit
 209              		.loc 1 183 0
 210 0020 0949     		ldr	r1, .L16
 211              		.loc 1 182 0
 212 0022 4FF46050 		mov	r0, #14336
 213              		.loc 1 185 0
 214 0026 1622     		movs	r2, #22
 215              		.loc 1 191 0
 216 0028 4623     		movs	r3, #70
 217              		.loc 1 182 0
 218 002a C4F20000 		movt	r0, 16384
 219              		.loc 1 184 0
 220 002e 01F10C05 		add	r5, r1, #12
 221              		.loc 1 185 0
 222 0032 C0F20102 		movt	r2, 1
 223              		.loc 1 191 0
 224 0036 C0F20103 		movt	r3, 1
 225              		.loc 1 182 0
ARM GAS  /tmp/ccYBIQcM.s 			page 5


 226 003a E061     		str	r0, [r4, #28]
 227              		.loc 1 183 0
 228 003c 2162     		str	r1, [r4, #32]
 229              		.loc 1 184 0
 230 003e 6562     		str	r5, [r4, #36]
 231              		.loc 1 185 0
 232 0040 A262     		str	r2, [r4, #40]
 233              		.loc 1 191 0
 234 0042 E362     		str	r3, [r4, #44]
 235              		.loc 1 215 0
 236 0044 38BD     		pop	{r3, r4, r5, pc}
 237              	.L17:
 238 0046 00BF     		.align	2
 239              	.L16:
 240 0048 24000000 		.word	_stm32_dma_streams+36
 241              		.cfi_endproc
 242              	.LFE119:
 243              		.size	spi_lld_init, .-spi_lld_init
 244 004c AFF30080 		.section	.text.spi_lld_start,"ax",%progbits
 245              		.align	2
 246              		.p2align 4,,15
 247              		.global	spi_lld_start
 248              		.thumb
 249              		.thumb_func
 250              		.type	spi_lld_start, %function
 251              	spi_lld_start:
 252              	.LFB120:
 253              		.loc 1 224 0
 254              		.cfi_startproc
 255              		@ args = 0, pretend = 0, frame = 0
 256              		@ frame_needed = 0, uses_anonymous_args = 0
 257              	.LVL14:
 258              		.loc 1 227 0
 259 0000 0378     		ldrb	r3, [r0, #0]	@ zero_extendqisi2
 260 0002 012B     		cmp	r3, #1
 261              		.loc 1 224 0
 262 0004 10B5     		push	{r4, lr}
 263              	.LCFI2:
 264              		.cfi_def_cfa_offset 8
 265              		.cfi_offset 14, -4
 266              		.cfi_offset 4, -8
 267              		.loc 1 224 0
 268 0006 0446     		mov	r4, r0
 269              		.loc 1 227 0
 270 0008 20D0     		beq	.L24
 271 000a C369     		ldr	r3, [r0, #28]
 272              	.LVL15:
 273              	.L19:
 274              		.loc 1 283 0
 275 000c 6068     		ldr	r0, [r4, #4]
 276              		.loc 1 285 0
 277 000e A16A     		ldr	r1, [r4, #40]
 278              		.loc 1 283 0
 279 0010 B0F80AC0 		ldrh	ip, [r0, #10]
 280              		.loc 1 287 0
 281 0014 E26A     		ldr	r2, [r4, #44]
 282              		.loc 1 283 0
ARM GAS  /tmp/ccYBIQcM.s 			page 6


 283 0016 1CF4006F 		tst	ip, #2048
 284              		.loc 1 285 0
 285 001a 21F4F040 		bic	r0, r1, #30720
 286              		.loc 1 287 0
 287 001e 22F4F041 		bic	r1, r2, #30720
 288              		.loc 1 291 0
 289 0022 1CBF     		itt	ne
 290 0024 40F42050 		orrne	r0, r0, #10240
 291              		.loc 1 293 0
 292 0028 41F42051 		orrne	r1, r1, #10240
 293              		.loc 1 290 0
 294 002c A062     		str	r0, [r4, #40]
 295              		.loc 1 292 0
 296 002e E162     		str	r1, [r4, #44]
 297              		.loc 1 297 0
 298 0030 4CF44170 		orr	r0, ip, #772
 299              		.loc 1 296 0
 300 0034 0022     		movs	r2, #0
 301              		.loc 1 299 0
 302 0036 0721     		movs	r1, #7
 303              		.loc 1 296 0
 304 0038 1A80     		strh	r2, [r3, #0]	@ movhi
 305              		.loc 1 297 0
 306 003a 1880     		strh	r0, [r3, #0]	@ movhi
 307              		.loc 1 299 0
 308 003c 9980     		strh	r1, [r3, #4]	@ movhi
 309              		.loc 1 300 0
 310 003e 1A88     		ldrh	r2, [r3, #0]
 311 0040 1FFA82FC 		uxth	ip, r2
 312 0044 4CF04000 		orr	r0, ip, #64
 313 0048 1880     		strh	r0, [r3, #0]	@ movhi
 314              		.loc 1 301 0
 315 004a 10BD     		pop	{r4, pc}
 316              	.L24:
 317              		.loc 1 245 0
 318 004c 1048     		ldr	r0, .L27
 319 004e 8442     		cmp	r4, r0
 320 0050 09D0     		beq	.L26
 321              	.L20:
 322              		.loc 1 278 0
 323 0052 216A     		ldr	r1, [r4, #32]
 324              		.loc 1 279 0
 325 0054 626A     		ldr	r2, [r4, #36]
 326              		.loc 1 278 0
 327 0056 E369     		ldr	r3, [r4, #28]
 328 0058 0868     		ldr	r0, [r1, #0]
 329              		.loc 1 279 0
 330 005a 1168     		ldr	r1, [r2, #0]
 331              		.loc 1 278 0
 332 005c 03F10C02 		add	r2, r3, #12
 333 0060 8260     		str	r2, [r0, #8]
 334              		.loc 1 279 0
 335 0062 8A60     		str	r2, [r1, #8]
 336 0064 D2E7     		b	.L19
 337              	.L26:
 338              	.LBB5:
 339              		.loc 1 247 0
ARM GAS  /tmp/ccYBIQcM.s 			page 7


 340 0066 0B4A     		ldr	r2, .L27+4
 341 0068 206A     		ldr	r0, [r4, #32]
 342 006a 0A21     		movs	r1, #10
 343 006c 2346     		mov	r3, r4
 344 006e FFF7FEFF 		bl	dmaStreamAllocate
 345              		.loc 1 252 0
 346 0072 094A     		ldr	r2, .L27+8
 347 0074 606A     		ldr	r0, [r4, #36]
 348 0076 0A21     		movs	r1, #10
 349 0078 2346     		mov	r3, r4
 350 007a FFF7FEFF 		bl	dmaStreamAllocate
 351              		.loc 1 257 0
 352 007e 4FF46051 		mov	r1, #14336
 353 0082 C4F20201 		movt	r1, 16386
 354 0086 0B6C     		ldr	r3, [r1, #64]
 355 0088 43F48042 		orr	r2, r3, #16384
 356 008c 0A64     		str	r2, [r1, #64]
 357 008e E0E7     		b	.L20
 358              	.L28:
 359              		.align	2
 360              	.L27:
 361 0090 00000000 		.word	.LANCHOR1
 362 0094 00000000 		.word	spi_lld_serve_rx_interrupt
 363 0098 00000000 		.word	spi_lld_serve_tx_interrupt
 364              	.LBE5:
 365              		.cfi_endproc
 366              	.LFE120:
 367              		.size	spi_lld_start, .-spi_lld_start
 368 009c AFF30080 		.section	.text.spi_lld_stop,"ax",%progbits
 369              		.align	2
 370              		.p2align 4,,15
 371              		.global	spi_lld_stop
 372              		.thumb
 373              		.thumb_func
 374              		.type	spi_lld_stop, %function
 375              	spi_lld_stop:
 376              	.LFB121:
 377              		.loc 1 310 0
 378              		.cfi_startproc
 379              		@ args = 0, pretend = 0, frame = 0
 380              		@ frame_needed = 0, uses_anonymous_args = 0
 381              	.LVL16:
 382              		.loc 1 313 0
 383 0000 0378     		ldrb	r3, [r0, #0]	@ zero_extendqisi2
 384 0002 022B     		cmp	r3, #2
 385              		.loc 1 310 0
 386 0004 10B5     		push	{r4, lr}
 387              	.LCFI3:
 388              		.cfi_def_cfa_offset 8
 389              		.cfi_offset 14, -4
 390              		.cfi_offset 4, -8
 391              		.loc 1 310 0
 392 0006 0446     		mov	r4, r0
 393              		.loc 1 313 0
 394 0008 00D0     		beq	.L31
 395              	.LVL17:
 396              	.L29:
ARM GAS  /tmp/ccYBIQcM.s 			page 8


 397 000a 10BD     		pop	{r4, pc}
 398              	.L31:
 399              		.loc 1 316 0
 400 000c C169     		ldr	r1, [r0, #28]
 401              		.loc 1 317 0
 402 000e 006A     		ldr	r0, [r0, #32]
 403              		.loc 1 316 0
 404 0010 0022     		movs	r2, #0
 405 0012 0A80     		strh	r2, [r1, #0]	@ movhi
 406              		.loc 1 317 0
 407 0014 FFF7FEFF 		bl	dmaStreamRelease
 408              		.loc 1 318 0
 409 0018 606A     		ldr	r0, [r4, #36]
 410 001a FFF7FEFF 		bl	dmaStreamRelease
 411              		.loc 1 325 0
 412 001e 0748     		ldr	r0, .L32
 413 0020 8442     		cmp	r4, r0
 414 0022 F2D1     		bne	.L29
 415              		.loc 1 326 0
 416 0024 4FF4605C 		mov	ip, #14336
 417 0028 C4F2020C 		movt	ip, 16386
 418 002c DCF84030 		ldr	r3, [ip, #64]
 419 0030 23F48040 		bic	r0, r3, #16384
 420 0034 CCF84000 		str	r0, [ip, #64]
 421 0038 E7E7     		b	.L29
 422              	.L33:
 423 003a 00BF     		.align	2
 424              	.L32:
 425 003c 00000000 		.word	.LANCHOR1
 426              		.cfi_endproc
 427              	.LFE121:
 428              		.size	spi_lld_stop, .-spi_lld_stop
 429              		.section	.text.spi_lld_select,"ax",%progbits
 430              		.align	2
 431              		.p2align 4,,15
 432              		.global	spi_lld_select
 433              		.thumb
 434              		.thumb_func
 435              		.type	spi_lld_select, %function
 436              	spi_lld_select:
 437              	.LFB122:
 438              		.loc 1 342 0
 439              		.cfi_startproc
 440              		@ args = 0, pretend = 0, frame = 0
 441              		@ frame_needed = 0, uses_anonymous_args = 0
 442              		@ link register save eliminated.
 443              	.LVL18:
 444              		.loc 1 344 0
 445 0000 4268     		ldr	r2, [r0, #4]
 446 0002 B2F808C0 		ldrh	ip, [r2, #8]
 447 0006 5368     		ldr	r3, [r2, #4]
 448 0008 0121     		movs	r1, #1
 449 000a 01FA0CF0 		lsl	r0, r1, ip
 450              	.LVL19:
 451 000e 82B2     		uxth	r2, r0
 452 0010 5A83     		strh	r2, [r3, #26]	@ movhi
 453              		.loc 1 345 0
ARM GAS  /tmp/ccYBIQcM.s 			page 9


 454 0012 7047     		bx	lr
 455              		.cfi_endproc
 456              	.LFE122:
 457              		.size	spi_lld_select, .-spi_lld_select
 458 0014 AFF30080 		.section	.text.spi_lld_unselect,"ax",%progbits
 458      AFF30080 
 458      AFF30080 
 459              		.align	2
 460              		.p2align 4,,15
 461              		.global	spi_lld_unselect
 462              		.thumb
 463              		.thumb_func
 464              		.type	spi_lld_unselect, %function
 465              	spi_lld_unselect:
 466              	.LFB123:
 467              		.loc 1 355 0
 468              		.cfi_startproc
 469              		@ args = 0, pretend = 0, frame = 0
 470              		@ frame_needed = 0, uses_anonymous_args = 0
 471              		@ link register save eliminated.
 472              	.LVL20:
 473              		.loc 1 357 0
 474 0000 4268     		ldr	r2, [r0, #4]
 475 0002 B2F808C0 		ldrh	ip, [r2, #8]
 476 0006 5368     		ldr	r3, [r2, #4]
 477 0008 0121     		movs	r1, #1
 478 000a 01FA0CF0 		lsl	r0, r1, ip
 479              	.LVL21:
 480 000e 82B2     		uxth	r2, r0
 481 0010 1A83     		strh	r2, [r3, #24]	@ movhi
 482              		.loc 1 358 0
 483 0012 7047     		bx	lr
 484              		.cfi_endproc
 485              	.LFE123:
 486              		.size	spi_lld_unselect, .-spi_lld_unselect
 487 0014 AFF30080 		.section	.text.spi_lld_ignore,"ax",%progbits
 487      AFF30080 
 487      AFF30080 
 488              		.align	2
 489              		.p2align 4,,15
 490              		.global	spi_lld_ignore
 491              		.thumb
 492              		.thumb_func
 493              		.type	spi_lld_ignore, %function
 494              	spi_lld_ignore:
 495              	.LFB124:
 496              		.loc 1 371 0
 497              		.cfi_startproc
 498              		@ args = 0, pretend = 0, frame = 0
 499              		@ frame_needed = 0, uses_anonymous_args = 0
 500              		@ link register save eliminated.
 501              	.LVL22:
 502 0000 70B4     		push	{r4, r5, r6}
 503              	.LCFI4:
 504              		.cfi_def_cfa_offset 12
 505              		.cfi_offset 6, -4
 506              		.cfi_offset 5, -8
ARM GAS  /tmp/ccYBIQcM.s 			page 10


 507              		.cfi_offset 4, -12
 508              		.loc 1 373 0
 509 0002 066A     		ldr	r6, [r0, #32]
 510              		.loc 1 377 0
 511 0004 456A     		ldr	r5, [r0, #36]
 512              		.loc 1 373 0
 513 0006 3268     		ldr	r2, [r6, #0]
 514              		.loc 1 377 0
 515 0008 2B68     		ldr	r3, [r5, #0]
 516              		.loc 1 375 0
 517 000a 866A     		ldr	r6, [r0, #40]
 518              		.loc 1 379 0
 519 000c C56A     		ldr	r5, [r0, #44]
 520              		.loc 1 373 0
 521 000e 40F20004 		movw	r4, #:lower16:.LANCHOR2
 522              		.loc 1 377 0
 523 0012 40F20000 		movw	r0, #:lower16:.LANCHOR0
 524              	.LVL23:
 525 0016 C0F20000 		movt	r0, #:upper16:.LANCHOR0
 526              		.loc 1 373 0
 527 001a C0F20004 		movt	r4, #:upper16:.LANCHOR2
 528 001e D460     		str	r4, [r2, #12]
 529              		.loc 1 374 0
 530 0020 5160     		str	r1, [r2, #4]
 531              		.loc 1 375 0
 532 0022 1660     		str	r6, [r2, #0]
 533              		.loc 1 377 0
 534 0024 D860     		str	r0, [r3, #12]
 535              		.loc 1 378 0
 536 0026 5960     		str	r1, [r3, #4]
 537              		.loc 1 379 0
 538 0028 1D60     		str	r5, [r3, #0]
 539              		.loc 1 381 0
 540 002a 1068     		ldr	r0, [r2, #0]
 541 002c 40F00101 		orr	r1, r0, #1
 542              	.LVL24:
 543 0030 1160     		str	r1, [r2, #0]
 544              		.loc 1 382 0
 545 0032 1868     		ldr	r0, [r3, #0]
 546 0034 40F00102 		orr	r2, r0, #1
 547              	.LVL25:
 548 0038 1A60     		str	r2, [r3, #0]
 549              		.loc 1 383 0
 550 003a 70BC     		pop	{r4, r5, r6}
 551 003c 7047     		bx	lr
 552              		.cfi_endproc
 553              	.LFE124:
 554              		.size	spi_lld_ignore, .-spi_lld_ignore
 555 003e 00BF     		.section	.text.spi_lld_exchange,"ax",%progbits
 556              		.align	2
 557              		.p2align 4,,15
 558              		.global	spi_lld_exchange
 559              		.thumb
 560              		.thumb_func
 561              		.type	spi_lld_exchange, %function
 562              	spi_lld_exchange:
 563              	.LFB125:
ARM GAS  /tmp/ccYBIQcM.s 			page 11


 564              		.loc 1 401 0
 565              		.cfi_startproc
 566              		@ args = 0, pretend = 0, frame = 0
 567              		@ frame_needed = 0, uses_anonymous_args = 0
 568              		@ link register save eliminated.
 569              	.LVL26:
 570 0000 F0B4     		push	{r4, r5, r6, r7}
 571              	.LCFI5:
 572              		.cfi_def_cfa_offset 16
 573              		.cfi_offset 7, -4
 574              		.cfi_offset 6, -8
 575              		.cfi_offset 5, -12
 576              		.cfi_offset 4, -16
 577              		.loc 1 403 0
 578 0002 046A     		ldr	r4, [r0, #32]
 579              		.loc 1 407 0
 580 0004 476A     		ldr	r7, [r0, #36]
 581              		.loc 1 405 0
 582 0006 866A     		ldr	r6, [r0, #40]
 583              		.loc 1 409 0
 584 0008 C56A     		ldr	r5, [r0, #44]
 585              		.loc 1 403 0
 586 000a 2468     		ldr	r4, [r4, #0]
 587              		.loc 1 407 0
 588 000c 3868     		ldr	r0, [r7, #0]
 589              	.LVL27:
 590              		.loc 1 403 0
 591 000e E360     		str	r3, [r4, #12]
 592              		.loc 1 405 0
 593 0010 46F48066 		orr	r6, r6, #1024
 594              		.loc 1 409 0
 595 0014 45F48065 		orr	r5, r5, #1024
 596              		.loc 1 404 0
 597 0018 6160     		str	r1, [r4, #4]
 598              		.loc 1 405 0
 599 001a 2660     		str	r6, [r4, #0]
 600              		.loc 1 407 0
 601 001c C260     		str	r2, [r0, #12]
 602              		.loc 1 408 0
 603 001e 4160     		str	r1, [r0, #4]
 604              		.loc 1 409 0
 605 0020 0560     		str	r5, [r0, #0]
 606              		.loc 1 411 0
 607 0022 2368     		ldr	r3, [r4, #0]
 608              	.LVL28:
 609 0024 43F00102 		orr	r2, r3, #1
 610              	.LVL29:
 611 0028 2260     		str	r2, [r4, #0]
 612              		.loc 1 412 0
 613 002a 0168     		ldr	r1, [r0, #0]
 614              	.LVL30:
 615 002c 41F00103 		orr	r3, r1, #1
 616 0030 0360     		str	r3, [r0, #0]
 617              		.loc 1 413 0
 618 0032 F0BC     		pop	{r4, r5, r6, r7}
 619 0034 7047     		bx	lr
 620              		.cfi_endproc
ARM GAS  /tmp/ccYBIQcM.s 			page 12


 621              	.LFE125:
 622              		.size	spi_lld_exchange, .-spi_lld_exchange
 623 0036 00BFAFF3 		.section	.text.spi_lld_send,"ax",%progbits
 623      0080AFF3 
 623      0080
 624              		.align	2
 625              		.p2align 4,,15
 626              		.global	spi_lld_send
 627              		.thumb
 628              		.thumb_func
 629              		.type	spi_lld_send, %function
 630              	spi_lld_send:
 631              	.LFB126:
 632              		.loc 1 428 0
 633              		.cfi_startproc
 634              		@ args = 0, pretend = 0, frame = 0
 635              		@ frame_needed = 0, uses_anonymous_args = 0
 636              		@ link register save eliminated.
 637              	.LVL31:
 638 0000 70B4     		push	{r4, r5, r6}
 639              	.LCFI6:
 640              		.cfi_def_cfa_offset 12
 641              		.cfi_offset 6, -4
 642              		.cfi_offset 5, -8
 643              		.cfi_offset 4, -12
 644              		.loc 1 434 0
 645 0002 436A     		ldr	r3, [r0, #36]
 646              		.loc 1 430 0
 647 0004 046A     		ldr	r4, [r0, #32]
 648              		.loc 1 436 0
 649 0006 C66A     		ldr	r6, [r0, #44]
 650              		.loc 1 430 0
 651 0008 2468     		ldr	r4, [r4, #0]
 652              		.loc 1 432 0
 653 000a 806A     		ldr	r0, [r0, #40]
 654              	.LVL32:
 655              		.loc 1 434 0
 656 000c 1B68     		ldr	r3, [r3, #0]
 657              		.loc 1 430 0
 658 000e 40F20005 		movw	r5, #:lower16:.LANCHOR2
 659 0012 C0F20005 		movt	r5, #:upper16:.LANCHOR2
 660              		.loc 1 436 0
 661 0016 46F48066 		orr	r6, r6, #1024
 662              		.loc 1 430 0
 663 001a E560     		str	r5, [r4, #12]
 664              		.loc 1 431 0
 665 001c 6160     		str	r1, [r4, #4]
 666              		.loc 1 432 0
 667 001e 2060     		str	r0, [r4, #0]
 668              		.loc 1 434 0
 669 0020 DA60     		str	r2, [r3, #12]
 670              		.loc 1 435 0
 671 0022 5960     		str	r1, [r3, #4]
 672              		.loc 1 436 0
 673 0024 1E60     		str	r6, [r3, #0]
 674              		.loc 1 438 0
 675 0026 2268     		ldr	r2, [r4, #0]
ARM GAS  /tmp/ccYBIQcM.s 			page 13


 676              	.LVL33:
 677 0028 42F00101 		orr	r1, r2, #1
 678              	.LVL34:
 679 002c 2160     		str	r1, [r4, #0]
 680              		.loc 1 439 0
 681 002e 1868     		ldr	r0, [r3, #0]
 682 0030 40F00102 		orr	r2, r0, #1
 683 0034 1A60     		str	r2, [r3, #0]
 684              		.loc 1 440 0
 685 0036 70BC     		pop	{r4, r5, r6}
 686 0038 7047     		bx	lr
 687              		.cfi_endproc
 688              	.LFE126:
 689              		.size	spi_lld_send, .-spi_lld_send
 690 003a 00BFAFF3 		.section	.text.spi_lld_receive,"ax",%progbits
 690      0080
 691              		.align	2
 692              		.p2align 4,,15
 693              		.global	spi_lld_receive
 694              		.thumb
 695              		.thumb_func
 696              		.type	spi_lld_receive, %function
 697              	spi_lld_receive:
 698              	.LFB127:
 699              		.loc 1 455 0
 700              		.cfi_startproc
 701              		@ args = 0, pretend = 0, frame = 0
 702              		@ frame_needed = 0, uses_anonymous_args = 0
 703              		@ link register save eliminated.
 704              	.LVL35:
 705 0000 70B4     		push	{r4, r5, r6}
 706              	.LCFI7:
 707              		.cfi_def_cfa_offset 12
 708              		.cfi_offset 6, -4
 709              		.cfi_offset 5, -8
 710              		.cfi_offset 4, -12
 711              		.loc 1 461 0
 712 0002 436A     		ldr	r3, [r0, #36]
 713              		.loc 1 457 0
 714 0004 046A     		ldr	r4, [r0, #32]
 715              		.loc 1 459 0
 716 0006 866A     		ldr	r6, [r0, #40]
 717              		.loc 1 457 0
 718 0008 2468     		ldr	r4, [r4, #0]
 719              		.loc 1 461 0
 720 000a 1B68     		ldr	r3, [r3, #0]
 721              		.loc 1 463 0
 722 000c C06A     		ldr	r0, [r0, #44]
 723              	.LVL36:
 724              		.loc 1 457 0
 725 000e E260     		str	r2, [r4, #12]
 726              		.loc 1 461 0
 727 0010 40F20005 		movw	r5, #:lower16:.LANCHOR0
 728              		.loc 1 459 0
 729 0014 46F48066 		orr	r6, r6, #1024
 730              		.loc 1 461 0
 731 0018 C0F20005 		movt	r5, #:upper16:.LANCHOR0
ARM GAS  /tmp/ccYBIQcM.s 			page 14


 732              		.loc 1 458 0
 733 001c 6160     		str	r1, [r4, #4]
 734              		.loc 1 459 0
 735 001e 2660     		str	r6, [r4, #0]
 736              		.loc 1 461 0
 737 0020 DD60     		str	r5, [r3, #12]
 738              		.loc 1 462 0
 739 0022 5960     		str	r1, [r3, #4]
 740              		.loc 1 463 0
 741 0024 1860     		str	r0, [r3, #0]
 742              		.loc 1 465 0
 743 0026 2268     		ldr	r2, [r4, #0]
 744              	.LVL37:
 745 0028 42F00101 		orr	r1, r2, #1
 746              	.LVL38:
 747 002c 2160     		str	r1, [r4, #0]
 748              		.loc 1 466 0
 749 002e 1868     		ldr	r0, [r3, #0]
 750 0030 40F00102 		orr	r2, r0, #1
 751 0034 1A60     		str	r2, [r3, #0]
 752              		.loc 1 467 0
 753 0036 70BC     		pop	{r4, r5, r6}
 754 0038 7047     		bx	lr
 755              		.cfi_endproc
 756              	.LFE127:
 757              		.size	spi_lld_receive, .-spi_lld_receive
 758 003a 00BFAFF3 		.section	.text.spi_lld_polled_exchange,"ax",%progbits
 758      0080
 759              		.align	2
 760              		.p2align 4,,15
 761              		.global	spi_lld_polled_exchange
 762              		.thumb
 763              		.thumb_func
 764              		.type	spi_lld_polled_exchange, %function
 765              	spi_lld_polled_exchange:
 766              	.LFB128:
 767              		.loc 1 481 0
 768              		.cfi_startproc
 769              		@ args = 0, pretend = 0, frame = 0
 770              		@ frame_needed = 0, uses_anonymous_args = 0
 771              		@ link register save eliminated.
 772              	.LVL39:
 773              		.loc 1 483 0
 774 0000 C269     		ldr	r2, [r0, #28]
 775 0002 9181     		strh	r1, [r2, #12]	@ movhi
 776              	.L41:
 777              		.loc 1 484 0 discriminator 1
 778 0004 1389     		ldrh	r3, [r2, #8]
 779 0006 DB07     		lsls	r3, r3, #31
 780 0008 FCD5     		bpl	.L41
 781              		.loc 1 486 0
 782 000a 9089     		ldrh	r0, [r2, #12]
 783              	.LVL40:
 784 000c 80B2     		uxth	r0, r0
 785              		.loc 1 487 0
 786 000e 7047     		bx	lr
 787              		.cfi_endproc
ARM GAS  /tmp/ccYBIQcM.s 			page 15


 788              	.LFE128:
 789              		.size	spi_lld_polled_exchange, .-spi_lld_polled_exchange
 790              		.global	SPID2
 791              		.section	.bss.dummytx,"aw",%nobits
 792              		.align	1
 793              		.set	.LANCHOR0,. + 0
 794              		.type	dummytx, %object
 795              		.size	dummytx, 2
 796              	dummytx:
 797 0000 0000     		.space	2
 798              		.section	.bss.SPID2,"aw",%nobits
 799              		.align	2
 800              		.set	.LANCHOR1,. + 0
 801              		.type	SPID2, %object
 802              		.size	SPID2, 48
 803              	SPID2:
 804 0000 00000000 		.space	48
 804      00000000 
 804      00000000 
 804      00000000 
 804      00000000 
 805              		.section	.bss.dummyrx,"aw",%nobits
 806              		.align	1
 807              		.set	.LANCHOR2,. + 0
 808              		.type	dummyrx, %object
 809              		.size	dummyrx, 2
 810              	dummyrx:
 811 0000 0000     		.space	2
 812              		.text
 813              	.Letext0:
 814              		.file 2 "/usr/bin/../lib/gcc/arm-none-eabi/4.6.2/include/stddef.h"
 815              		.file 3 "/usr/bin/../lib/gcc/arm-none-eabi/4.6.2/../../../../arm-none-eabi/include/stdint.h"
 816              		.file 4 "./os/ports/GCC/ARMCMx/chtypes.h"
 817              		.file 5 "./os/kernel/include/chlists.h"
 818              		.file 6 "./os/kernel/include/chthreads.h"
 819              		.file 7 "./os/ports/GCC/ARMCMx/chcore_v7m.h"
 820              		.file 8 "./os/kernel/include/chmtx.h"
 821              		.file 9 "./os/hal/platforms/STM32F4xx/stm32f4xx.h"
 822              		.file 10 "./os/hal/platforms/STM32F4xx/stm32_dma.h"
 823              		.file 11 "./os/hal/platforms/STM32/GPIOv2/pal_lld.h"
 824              		.file 12 "./os/hal/include/spi.h"
 825              		.file 13 "./os/hal/platforms/STM32/spi_lld.h"
 826              		.file 14 "./os/ports/common/ARMCMx/CMSIS/include/core_cm4.h"