ARM GAS  /tmp/ccH3XiDE.s 			page 1


   1              		.syntax unified
   2              		.cpu cortex-m4
   3              		.fpu softvfp
   4              		.eabi_attribute 20, 1
   5              		.eabi_attribute 21, 1
   6              		.eabi_attribute 23, 3
   7              		.eabi_attribute 24, 1
   8              		.eabi_attribute 25, 1
   9              		.eabi_attribute 26, 1
  10              		.eabi_attribute 30, 2
  11              		.eabi_attribute 34, 1
  12              		.eabi_attribute 18, 4
  13              		.thumb
  14              		.file	"spi_flash.c"
  15              		.text
  16              	.Ltext0:
  17              		.cfi_sections	.debug_frame
  18              		.section	.text.checkBusy,"ax",%progbits
  19              		.align	2
  20              		.p2align 4,,15
  21              		.thumb
  22              		.thumb_func
  23              		.type	checkBusy, %function
  24              	checkBusy:
  25              	.LFB117:
  26              		.file 1 "./spi_flash/spi_flash.c"
  27              		.loc 1 13 0
  28              		.cfi_startproc
  29              		@ args = 0, pretend = 0, frame = 8
  30              		@ frame_needed = 0, uses_anonymous_args = 0
  31 0000 70B5     		push	{r4, r5, r6, lr}
  32              	.LCFI0:
  33              		.cfi_def_cfa_offset 16
  34              		.cfi_offset 14, -4
  35              		.cfi_offset 6, -8
  36              		.cfi_offset 5, -12
  37              		.cfi_offset 4, -16
  38              		.loc 1 16 0
  39 0002 40F20004 		movw	r4, #:lower16:SPID2
  40              		.loc 1 13 0
  41 0006 82B0     		sub	sp, sp, #8
  42              	.LCFI1:
  43              		.cfi_def_cfa_offset 24
  44              		.loc 1 16 0
  45 0008 C0F20004 		movt	r4, #:upper16:SPID2
  46              		.loc 1 14 0
  47 000c 02AD     		add	r5, sp, #8
  48 000e 0021     		movs	r1, #0
  49              		.loc 1 16 0
  50 0010 2046     		mov	r0, r4
  51              		.loc 1 14 0
  52 0012 05F8011D 		strb	r1, [r5, #-1]!
  53              	.LVL0:
  54              		.loc 1 16 0
  55 0016 FFF7FEFF 		bl	spiSelect
  56              		.loc 1 18 0
  57 001a 40F20003 		movw	r3, #:lower16:.LANCHOR0
ARM GAS  /tmp/ccH3XiDE.s 			page 2


  58 001e C0F20003 		movt	r3, #:upper16:.LANCHOR0
  59 0022 0526     		movs	r6, #5
  60              		.loc 1 19 0
  61 0024 1A46     		mov	r2, r3
  62              		.loc 1 18 0
  63 0026 1E70     		strb	r6, [r3, #0]
  64              		.loc 1 19 0
  65 0028 0121     		movs	r1, #1
  66 002a 2046     		mov	r0, r4
  67 002c FFF7FEFF 		bl	spiSend
  68              		.loc 1 21 0
  69 0030 2046     		mov	r0, r4
  70 0032 0121     		movs	r1, #1
  71 0034 2A46     		mov	r2, r5
  72 0036 FFF7FEFF 		bl	spiReceive
  73              		.loc 1 22 0
  74 003a 2046     		mov	r0, r4
  75 003c FFF7FEFF 		bl	spiUnselect
  76              		.loc 1 23 0
  77 0040 9DF80700 		ldrb	r0, [sp, #7]	@ zero_extendqisi2
  78              	.LVL1:
  79 0044 00F00100 		and	r0, r0, #1
  80              	.LVL2:
  81              		.loc 1 24 0
  82 0048 02B0     		add	sp, sp, #8
  83 004a 70BD     		pop	{r4, r5, r6, pc}
  84              		.cfi_endproc
  85              	.LFE117:
  86              		.size	checkBusy, .-checkBusy
  87 004c AFF30080 		.section	.text.configureSPIFlash,"ax",%progbits
  88              		.align	2
  89              		.p2align 4,,15
  90              		.global	configureSPIFlash
  91              		.thumb
  92              		.thumb_func
  93              		.type	configureSPIFlash, %function
  94              	configureSPIFlash:
  95              	.LFB118:
  96              		.loc 1 26 0
  97              		.cfi_startproc
  98              		@ args = 0, pretend = 0, frame = 8
  99              		@ frame_needed = 0, uses_anonymous_args = 0
 100 0000 70B5     		push	{r4, r5, r6, lr}
 101              	.LCFI2:
 102              		.cfi_def_cfa_offset 16
 103              		.cfi_offset 14, -4
 104              		.cfi_offset 6, -8
 105              		.cfi_offset 5, -12
 106              		.cfi_offset 4, -16
 107              		.loc 1 28 0
 108 0002 40F20004 		movw	r4, #:lower16:SPID2
 109 0006 C0F20004 		movt	r4, #:upper16:SPID2
 110 000a 40F20001 		movw	r1, #:lower16:.LANCHOR1
 111              		.loc 1 26 0
 112 000e 82B0     		sub	sp, sp, #8
 113              	.LCFI3:
 114              		.cfi_def_cfa_offset 24
ARM GAS  /tmp/ccH3XiDE.s 			page 3


 115              		.loc 1 28 0
 116 0010 2046     		mov	r0, r4
 117 0012 C0F20001 		movt	r1, #:upper16:.LANCHOR1
 118 0016 FFF7FEFF 		bl	spiStart
 119              		.loc 1 33 0
 120 001a 0023     		movs	r3, #0
 121 001c C4F20203 		movt	r3, 16386
 122 0020 0826     		movs	r6, #8
 123              		.loc 1 38 0
 124 0022 4FF48065 		mov	r5, #1024
 125              		.loc 1 34 0
 126 0026 1846     		mov	r0, r3
 127              		.loc 1 33 0
 128 0028 1E83     		strh	r6, [r3, #24]	@ movhi
 129              		.loc 1 38 0
 130 002a C4F20205 		movt	r5, 16386
 131              		.loc 1 34 0
 132 002e 3146     		mov	r1, r6
 133 0030 1922     		movs	r2, #25
 134 0032 FFF7FEFF 		bl	_pal_lld_setgroupmode
 135              		.loc 1 38 0
 136 0036 2846     		mov	r0, r5
 137 0038 4FF40051 		mov	r1, #8192
 138 003c 40F29A22 		movw	r2, #666
 139 0040 FFF7FEFF 		bl	_pal_lld_setgroupmode
 140              		.loc 1 42 0
 141 0044 2846     		mov	r0, r5
 142 0046 4FF48041 		mov	r1, #16384
 143 004a 40F28222 		movw	r2, #642
 144 004e FFF7FEFF 		bl	_pal_lld_setgroupmode
 145              		.loc 1 45 0
 146 0052 4FF40041 		mov	r1, #32768
 147 0056 40F29A22 		movw	r2, #666
 148 005a 2846     		mov	r0, r5
 149              		.loc 1 49 0
 150 005c 0DEB0605 		add	r5, sp, r6
 151              		.loc 1 45 0
 152 0060 FFF7FEFF 		bl	_pal_lld_setgroupmode
 153              		.loc 1 49 0
 154 0064 5020     		movs	r0, #80
 155 0066 05F8010D 		strb	r0, [r5, #-1]!
 156              	.LVL3:
 157              		.loc 1 50 0
 158 006a 2046     		mov	r0, r4
 159 006c FFF7FEFF 		bl	spiAcquireBus
 160              		.loc 1 51 0
 161 0070 2046     		mov	r0, r4
 162 0072 FFF7FEFF 		bl	spiSelect
 163              		.loc 1 53 0
 164 0076 0121     		movs	r1, #1
 165 0078 2A46     		mov	r2, r5
 166 007a 2046     		mov	r0, r4
 167 007c FFF7FEFF 		bl	spiSend
 168              		.loc 1 54 0
 169 0080 2046     		mov	r0, r4
 170 0082 FFF7FEFF 		bl	spiUnselect
 171              		.loc 1 56 0
ARM GAS  /tmp/ccH3XiDE.s 			page 4


 172 0086 0126     		movs	r6, #1
 173              		.loc 1 57 0
 174 0088 2046     		mov	r0, r4
 175              		.loc 1 56 0
 176 008a 8DF80760 		strb	r6, [sp, #7]
 177              	.LVL4:
 178              		.loc 1 57 0
 179 008e FFF7FEFF 		bl	spiSelect
 180              		.loc 1 58 0
 181 0092 2046     		mov	r0, r4
 182 0094 3146     		mov	r1, r6
 183 0096 2A46     		mov	r2, r5
 184 0098 FFF7FEFF 		bl	spiSend
 185              		.loc 1 60 0
 186 009c 0023     		movs	r3, #0
 187              		.loc 1 61 0
 188 009e 3146     		mov	r1, r6
 189 00a0 2A46     		mov	r2, r5
 190 00a2 2046     		mov	r0, r4
 191              		.loc 1 60 0
 192 00a4 8DF80730 		strb	r3, [sp, #7]
 193              		.loc 1 61 0
 194 00a8 FFF7FEFF 		bl	spiSend
 195              		.loc 1 63 0
 196 00ac 40F20002 		movw	r2, #:lower16:.LANCHOR0
 197 00b0 C0F20002 		movt	r2, #:upper16:.LANCHOR0
 198 00b4 0423     		movs	r3, #4
 199 00b6 1370     		strb	r3, [r2, #0]
 200              		.loc 1 64 0
 201 00b8 2046     		mov	r0, r4
 202 00ba 3146     		mov	r1, r6
 203 00bc FFF7FEFF 		bl	spiSend
 204              		.loc 1 65 0
 205 00c0 2046     		mov	r0, r4
 206 00c2 FFF7FEFF 		bl	spiUnselect
 207              		.loc 1 66 0
 208 00c6 2046     		mov	r0, r4
 209 00c8 FFF7FEFF 		bl	spiReleaseBus
 210              		.loc 1 67 0
 211 00cc 02B0     		add	sp, sp, #8
 212 00ce 70BD     		pop	{r4, r5, r6, pc}
 213              		.cfi_endproc
 214              	.LFE118:
 215              		.size	configureSPIFlash, .-configureSPIFlash
 216              		.section	.text.flashWriteByte,"ax",%progbits
 217              		.align	2
 218              		.p2align 4,,15
 219              		.global	flashWriteByte
 220              		.thumb
 221              		.thumb_func
 222              		.type	flashWriteByte, %function
 223              	flashWriteByte:
 224              	.LFB119:
 225              		.loc 1 70 0
 226              		.cfi_startproc
 227              		@ args = 0, pretend = 0, frame = 8
 228              		@ frame_needed = 0, uses_anonymous_args = 0
ARM GAS  /tmp/ccH3XiDE.s 			page 5


 229              	.LVL5:
 230 0000 10B5     		push	{r4, lr}
 231              	.LCFI4:
 232              		.cfi_def_cfa_offset 8
 233              		.cfi_offset 14, -4
 234              		.cfi_offset 4, -8
 235              		.loc 1 72 0
 236 0002 224B     		ldr	r3, .L7
 237 0004 C0F30744 		ubfx	r4, r0, #16, #8
 238              		.loc 1 73 0
 239 0008 C0F30722 		ubfx	r2, r0, #8, #8
 240              		.loc 1 70 0
 241 000c 82B0     		sub	sp, sp, #8
 242              	.LCFI5:
 243              		.cfi_def_cfa_offset 16
 244              		.loc 1 74 0
 245 000e 9870     		strb	r0, [r3, #2]
 246              		.loc 1 72 0
 247 0010 1C70     		strb	r4, [r3, #0]
 248              		.loc 1 73 0
 249 0012 5A70     		strb	r2, [r3, #1]
 250              		.loc 1 76 0
 251 0014 1E48     		ldr	r0, .L7+4
 252              	.LVL6:
 253              		.loc 1 70 0
 254 0016 8DF80710 		strb	r1, [sp, #7]
 255              		.loc 1 76 0
 256 001a FFF7FEFF 		bl	spiAcquireBus
 257              	.LVL7:
 258              	.L4:
 259              		.loc 1 78 0 discriminator 1
 260 001e FFF7FEFF 		bl	checkBusy
 261 0022 0028     		cmp	r0, #0
 262 0024 FBD1     		bne	.L4
 263              		.loc 1 80 0
 264 0026 1B4C     		ldr	r4, .L7+8
 265              		.loc 1 82 0
 266 0028 1948     		ldr	r0, .L7+4
 267              		.loc 1 80 0
 268 002a 0623     		movs	r3, #6
 269 002c 2370     		strb	r3, [r4, #0]
 270              		.loc 1 82 0
 271 002e FFF7FEFF 		bl	spiSelect
 272              		.loc 1 84 0
 273 0032 2246     		mov	r2, r4
 274 0034 0121     		movs	r1, #1
 275 0036 1648     		ldr	r0, .L7+4
 276 0038 FFF7FEFF 		bl	spiSend
 277              		.loc 1 86 0
 278 003c 1448     		ldr	r0, .L7+4
 279 003e FFF7FEFF 		bl	spiUnselect
 280              		.loc 1 87 0
 281 0042 0221     		movs	r1, #2
 282 0044 2170     		strb	r1, [r4, #0]
 283              		.loc 1 89 0
 284 0046 1248     		ldr	r0, .L7+4
 285 0048 FFF7FEFF 		bl	spiSelect
ARM GAS  /tmp/ccH3XiDE.s 			page 6


 286              		.loc 1 91 0
 287 004c 0121     		movs	r1, #1
 288 004e 2246     		mov	r2, r4
 289 0050 0F48     		ldr	r0, .L7+4
 290 0052 FFF7FEFF 		bl	spiSend
 291              		.loc 1 93 0
 292 0056 0321     		movs	r1, #3
 293 0058 0D48     		ldr	r0, .L7+4
 294 005a 0C4A     		ldr	r2, .L7
 295 005c FFF7FEFF 		bl	spiSend
 296              		.loc 1 95 0
 297 0060 0121     		movs	r1, #1
 298 0062 0DF10702 		add	r2, sp, #7
 299 0066 0A48     		ldr	r0, .L7+4
 300 0068 FFF7FEFF 		bl	spiSend
 301              		.loc 1 97 0
 302 006c 0420     		movs	r0, #4
 303 006e 2070     		strb	r0, [r4, #0]
 304              		.loc 1 98 0
 305 0070 0121     		movs	r1, #1
 306 0072 2246     		mov	r2, r4
 307 0074 0648     		ldr	r0, .L7+4
 308 0076 FFF7FEFF 		bl	spiSend
 309              		.loc 1 100 0
 310 007a 0548     		ldr	r0, .L7+4
 311 007c FFF7FEFF 		bl	spiUnselect
 312              		.loc 1 102 0
 313 0080 0348     		ldr	r0, .L7+4
 314 0082 FFF7FEFF 		bl	spiReleaseBus
 315              		.loc 1 105 0
 316 0086 02B0     		add	sp, sp, #8
 317 0088 10BD     		pop	{r4, pc}
 318              	.L8:
 319 008a 00BF     		.align	2
 320              	.L7:
 321 008c 00000000 		.word	.LANCHOR2
 322 0090 00000000 		.word	SPID2
 323 0094 00000000 		.word	.LANCHOR0
 324              		.cfi_endproc
 325              	.LFE119:
 326              		.size	flashWriteByte, .-flashWriteByte
 327 0098 AFF30080 		.section	.text.flashWriteBytes,"ax",%progbits
 327      AFF30080 
 328              		.align	2
 329              		.p2align 4,,15
 330              		.global	flashWriteBytes
 331              		.thumb
 332              		.thumb_func
 333              		.type	flashWriteBytes, %function
 334              	flashWriteBytes:
 335              	.LFB120:
 336              		.loc 1 107 0
 337              		.cfi_startproc
 338              		@ args = 0, pretend = 0, frame = 8
 339              		@ frame_needed = 0, uses_anonymous_args = 0
 340              	.LVL8:
 341 0000 2DE9F041 		push	{r4, r5, r6, r7, r8, lr}
ARM GAS  /tmp/ccH3XiDE.s 			page 7


 342              	.LCFI6:
 343              		.cfi_def_cfa_offset 24
 344              		.cfi_offset 14, -4
 345              		.cfi_offset 8, -8
 346              		.cfi_offset 7, -12
 347              		.cfi_offset 6, -16
 348              		.cfi_offset 5, -20
 349              		.cfi_offset 4, -24
 350              		.loc 1 111 0
 351 0004 C0F50003 		rsb	r3, r0, #8388608
 352              		.loc 1 107 0
 353 0008 1546     		mov	r5, r2
 354 000a 82B0     		sub	sp, sp, #8
 355              	.LCFI7:
 356              		.cfi_def_cfa_offset 32
 357              		.loc 1 108 0
 358 000c 0022     		movs	r2, #0
 359              	.LVL9:
 360              		.loc 1 111 0
 361 000e AB42     		cmp	r3, r5
 362              		.loc 1 108 0
 363 0010 8DF80720 		strb	r2, [sp, #7]
 364              	.LVL10:
 365              		.loc 1 107 0
 366 0014 0F46     		mov	r7, r1
 367              		.loc 1 111 0
 368 0016 7DD3     		bcc	.L9
 369              		.loc 1 111 0 is_stmt 0 discriminator 1
 370 0018 012D     		cmp	r5, #1
 371 001a 7BD9     		bls	.L9
 372              		.loc 1 114 0 is_stmt 1
 373 001c 3F4E     		ldr	r6, .L19
 374 001e C0F30741 		ubfx	r1, r0, #16, #8
 375              	.LVL11:
 376              		.loc 1 115 0
 377 0022 C0F30723 		ubfx	r3, r0, #8, #8
 378              		.loc 1 116 0
 379 0026 B070     		strb	r0, [r6, #2]
 380              		.loc 1 114 0
 381 0028 3170     		strb	r1, [r6, #0]
 382              		.loc 1 115 0
 383 002a 7370     		strb	r3, [r6, #1]
 384              		.loc 1 118 0
 385 002c 3C48     		ldr	r0, .L19+4
 386              	.LVL12:
 387 002e FFF7FEFF 		bl	spiAcquireBus
 388              	.L11:
 389              		.loc 1 120 0 discriminator 1
 390 0032 FFF7FEFF 		bl	checkBusy
 391 0036 0028     		cmp	r0, #0
 392 0038 FBD1     		bne	.L11
 393              		.loc 1 124 0
 394 003a 3A4E     		ldr	r6, .L19+8
 395              		.loc 1 122 0
 396 003c 3848     		ldr	r0, .L19+4
 397 003e FFF7FEFF 		bl	spiSelect
 398              		.loc 1 124 0
ARM GAS  /tmp/ccH3XiDE.s 			page 8


 399 0042 0623     		movs	r3, #6
 400 0044 3370     		strb	r3, [r6, #0]
 401              		.loc 1 126 0
 402 0046 0121     		movs	r1, #1
 403 0048 3246     		mov	r2, r6
 404 004a 3548     		ldr	r0, .L19+4
 405 004c FFF7FEFF 		bl	spiSend
 406              		.loc 1 127 0
 407 0050 3348     		ldr	r0, .L19+4
 408 0052 FFF7FEFF 		bl	spiUnselect
 409              		.loc 1 129 0
 410 0056 8022     		movs	r2, #128
 411              		.loc 1 131 0
 412 0058 3148     		ldr	r0, .L19+4
 413              		.loc 1 129 0
 414 005a 3270     		strb	r2, [r6, #0]
 415              		.loc 1 131 0
 416 005c FFF7FEFF 		bl	spiSelect
 417              		.loc 1 135 0
 418 0060 4FF0AD08 		mov	r8, #173
 419              		.loc 1 133 0
 420 0064 0121     		movs	r1, #1
 421 0066 3246     		mov	r2, r6
 422 0068 2D48     		ldr	r0, .L19+4
 423 006a FFF7FEFF 		bl	spiSend
 424              		.loc 1 137 0
 425 006e 0121     		movs	r1, #1
 426 0070 2B48     		ldr	r0, .L19+4
 427              		.loc 1 135 0
 428 0072 86F80080 		strb	r8, [r6, #0]
 429              		.loc 1 137 0
 430 0076 3246     		mov	r2, r6
 431 0078 FFF7FEFF 		bl	spiSend
 432              		.loc 1 139 0
 433 007c 0321     		movs	r1, #3
 434 007e 2848     		ldr	r0, .L19+4
 435 0080 264A     		ldr	r2, .L19
 436 0082 FFF7FEFF 		bl	spiSend
 437              		.loc 1 141 0
 438 0086 0221     		movs	r1, #2
 439 0088 2548     		ldr	r0, .L19+4
 440 008a 3A46     		mov	r2, r7
 441 008c FFF7FEFF 		bl	spiSend
 442              		.loc 1 143 0
 443 0090 2348     		ldr	r0, .L19+4
 444 0092 FFF7FEFF 		bl	spiUnselect
 445              		.loc 1 145 0
 446 0096 022D     		cmp	r5, #2
 447 0098 2CD0     		beq	.L12
 448 009a 0224     		movs	r4, #2
 449 009c 04E0     		b	.L15
 450              	.LVL13:
 451              	.L13:
 452              		.loc 1 164 0
 453 009e 2048     		ldr	r0, .L19+4
 454 00a0 FFF7FEFF 		bl	spiUnselect
 455              		.loc 1 145 0
ARM GAS  /tmp/ccH3XiDE.s 			page 9


 456 00a4 AC42     		cmp	r4, r5
 457 00a6 25D2     		bcs	.L12
 458              	.LVL14:
 459              	.L15:
 460              		.loc 1 146 0
 461 00a8 FFF7FEFF 		bl	checkBusy
 462 00ac 0028     		cmp	r0, #0
 463 00ae F6D1     		bne	.L13
 464              		.loc 1 147 0
 465 00b0 1B48     		ldr	r0, .L19+4
 466 00b2 FFF7FEFF 		bl	spiSelect
 467              		.loc 1 151 0
 468 00b6 0121     		movs	r1, #1
 469 00b8 1948     		ldr	r0, .L19+4
 470 00ba 1A4A     		ldr	r2, .L19+8
 471              		.loc 1 149 0
 472 00bc 86F80080 		strb	r8, [r6, #0]
 473              		.loc 1 151 0
 474 00c0 FFF7FEFF 		bl	spiSend
 475              		.loc 1 152 0
 476 00c4 601C     		adds	r0, r4, #1
 477 00c6 A842     		cmp	r0, r5
 478              		.loc 1 159 0
 479 00c8 07EB0402 		add	r2, r7, r4
 480 00cc 1448     		ldr	r0, .L19+4
 481 00ce 4FF00201 		mov	r1, #2
 482              		.loc 1 152 0
 483 00d2 03D0     		beq	.L18
 484              		.loc 1 159 0
 485 00d4 FFF7FEFF 		bl	spiSend
 486              		.loc 1 160 0
 487 00d8 0234     		adds	r4, r4, #2
 488              	.LVL15:
 489 00da E0E7     		b	.L13
 490              	.LVL16:
 491              	.L18:
 492              		.loc 1 154 0
 493 00dc 0121     		movs	r1, #1
 494 00de FFF7FEFF 		bl	spiSend
 495              		.loc 1 156 0
 496 00e2 0F48     		ldr	r0, .L19+4
 497 00e4 0121     		movs	r1, #1
 498 00e6 0DF10702 		add	r2, sp, #7
 499 00ea FFF7FEFF 		bl	spiSend
 500              		.loc 1 164 0
 501 00ee 0C48     		ldr	r0, .L19+4
 502 00f0 FFF7FEFF 		bl	spiUnselect
 503              	.L12:
 504              		.loc 1 167 0
 505 00f4 0A48     		ldr	r0, .L19+4
 506 00f6 FFF7FEFF 		bl	spiSelect
 507              		.loc 1 169 0
 508 00fa 0421     		movs	r1, #4
 509 00fc 3170     		strb	r1, [r6, #0]
 510              		.loc 1 170 0
 511 00fe 0848     		ldr	r0, .L19+4
 512 0100 084A     		ldr	r2, .L19+8
ARM GAS  /tmp/ccH3XiDE.s 			page 10


 513 0102 0121     		movs	r1, #1
 514 0104 FFF7FEFF 		bl	spiSend
 515              		.loc 1 172 0
 516 0108 0548     		ldr	r0, .L19+4
 517 010a FFF7FEFF 		bl	spiUnselect
 518              		.loc 1 174 0
 519 010e 0448     		ldr	r0, .L19+4
 520 0110 FFF7FEFF 		bl	spiReleaseBus
 521              	.L9:
 522              		.loc 1 176 0
 523 0114 02B0     		add	sp, sp, #8
 524 0116 BDE8F081 		pop	{r4, r5, r6, r7, r8, pc}
 525              	.L20:
 526 011a 00BF     		.align	2
 527              	.L19:
 528 011c 00000000 		.word	.LANCHOR2
 529 0120 00000000 		.word	SPID2
 530 0124 00000000 		.word	.LANCHOR0
 531              		.cfi_endproc
 532              	.LFE120:
 533              		.size	flashWriteBytes, .-flashWriteBytes
 534 0128 AFF30080 		.section	.text.flashReadByte,"ax",%progbits
 534      AFF30080 
 535              		.align	2
 536              		.p2align 4,,15
 537              		.global	flashReadByte
 538              		.thumb
 539              		.thumb_func
 540              		.type	flashReadByte, %function
 541              	flashReadByte:
 542              	.LFB121:
 543              		.loc 1 178 0
 544              		.cfi_startproc
 545              		@ args = 0, pretend = 0, frame = 8
 546              		@ frame_needed = 0, uses_anonymous_args = 0
 547              	.LVL17:
 548 0000 10B5     		push	{r4, lr}
 549              	.LCFI8:
 550              		.cfi_def_cfa_offset 8
 551              		.cfi_offset 14, -4
 552              		.cfi_offset 4, -8
 553              		.loc 1 183 0
 554 0002 1C4B     		ldr	r3, .L24
 555 0004 C0F30741 		ubfx	r1, r0, #16, #8
 556              		.loc 1 184 0
 557 0008 C0F30722 		ubfx	r2, r0, #8, #8
 558              		.loc 1 178 0
 559 000c 82B0     		sub	sp, sp, #8
 560              	.LCFI9:
 561              		.cfi_def_cfa_offset 16
 562              		.loc 1 181 0
 563 000e 0024     		movs	r4, #0
 564              		.loc 1 185 0
 565 0010 9870     		strb	r0, [r3, #2]
 566              		.loc 1 183 0
 567 0012 1970     		strb	r1, [r3, #0]
 568              		.loc 1 184 0
ARM GAS  /tmp/ccH3XiDE.s 			page 11


 569 0014 5A70     		strb	r2, [r3, #1]
 570              		.loc 1 187 0
 571 0016 1848     		ldr	r0, .L24+4
 572              	.LVL18:
 573              		.loc 1 181 0
 574 0018 8DF80740 		strb	r4, [sp, #7]
 575              	.LVL19:
 576              		.loc 1 187 0
 577 001c FFF7FEFF 		bl	spiAcquireBus
 578              	.L22:
 579              		.loc 1 189 0 discriminator 1
 580 0020 FFF7FEFF 		bl	checkBusy
 581 0024 0028     		cmp	r0, #0
 582 0026 FBD1     		bne	.L22
 583              		.loc 1 190 0
 584 0028 144C     		ldr	r4, .L24+8
 585              		.loc 1 192 0
 586 002a 1348     		ldr	r0, .L24+4
 587              		.loc 1 190 0
 588 002c 0B23     		movs	r3, #11
 589 002e 2370     		strb	r3, [r4, #0]
 590              		.loc 1 192 0
 591 0030 FFF7FEFF 		bl	spiSelect
 592              		.loc 1 193 0
 593 0034 0121     		movs	r1, #1
 594 0036 2246     		mov	r2, r4
 595 0038 0F48     		ldr	r0, .L24+4
 596 003a FFF7FEFF 		bl	spiSend
 597              		.loc 1 195 0
 598 003e 0321     		movs	r1, #3
 599 0040 0D48     		ldr	r0, .L24+4
 600 0042 0C4A     		ldr	r2, .L24
 601 0044 FFF7FEFF 		bl	spiSend
 602              		.loc 1 197 0
 603 0048 0121     		movs	r1, #1
 604 004a 0DF10702 		add	r2, sp, #7
 605 004e 0A48     		ldr	r0, .L24+4
 606 0050 FFF7FEFF 		bl	spiSend
 607              		.loc 1 199 0
 608 0054 0121     		movs	r1, #1
 609 0056 0DF10602 		add	r2, sp, #6
 610 005a 0748     		ldr	r0, .L24+4
 611 005c FFF7FEFF 		bl	spiReceive
 612              		.loc 1 201 0
 613 0060 0548     		ldr	r0, .L24+4
 614 0062 FFF7FEFF 		bl	spiUnselect
 615              		.loc 1 202 0
 616 0066 0448     		ldr	r0, .L24+4
 617 0068 FFF7FEFF 		bl	spiReleaseBus
 618              	.LVL20:
 619              		.loc 1 204 0
 620 006c 9DF80600 		ldrb	r0, [sp, #6]	@ zero_extendqisi2
 621              	.LVL21:
 622              		.loc 1 205 0
 623 0070 02B0     		add	sp, sp, #8
 624 0072 10BD     		pop	{r4, pc}
 625              	.L25:
ARM GAS  /tmp/ccH3XiDE.s 			page 12


 626              		.align	2
 627              	.L24:
 628 0074 00000000 		.word	.LANCHOR2
 629 0078 00000000 		.word	SPID2
 630 007c 00000000 		.word	.LANCHOR0
 631              		.cfi_endproc
 632              	.LFE121:
 633              		.size	flashReadByte, .-flashReadByte
 634              		.section	.text.flashReadBytes,"ax",%progbits
 635              		.align	2
 636              		.p2align 4,,15
 637              		.global	flashReadBytes
 638              		.thumb
 639              		.thumb_func
 640              		.type	flashReadBytes, %function
 641              	flashReadBytes:
 642              	.LFB122:
 643              		.loc 1 207 0
 644              		.cfi_startproc
 645              		@ args = 0, pretend = 0, frame = 8
 646              		@ frame_needed = 0, uses_anonymous_args = 0
 647              	.LVL22:
 648 0000 F0B5     		push	{r4, r5, r6, r7, lr}
 649              	.LCFI10:
 650              		.cfi_def_cfa_offset 20
 651              		.cfi_offset 14, -4
 652              		.cfi_offset 7, -8
 653              		.cfi_offset 6, -12
 654              		.cfi_offset 5, -16
 655              		.cfi_offset 4, -20
 656              		.loc 1 211 0
 657 0002 1C4B     		ldr	r3, .L29
 658 0004 C0F30747 		ubfx	r7, r0, #16, #8
 659              		.loc 1 212 0
 660 0008 C0F30726 		ubfx	r6, r0, #8, #8
 661              		.loc 1 207 0
 662 000c 83B0     		sub	sp, sp, #12
 663              	.LCFI11:
 664              		.cfi_def_cfa_offset 32
 665              		.loc 1 207 0
 666 000e 1546     		mov	r5, r2
 667              		.loc 1 213 0
 668 0010 9870     		strb	r0, [r3, #2]
 669              		.loc 1 209 0
 670 0012 0022     		movs	r2, #0
 671              	.LVL23:
 672              		.loc 1 211 0
 673 0014 1F70     		strb	r7, [r3, #0]
 674              		.loc 1 212 0
 675 0016 5E70     		strb	r6, [r3, #1]
 676              		.loc 1 215 0
 677 0018 1748     		ldr	r0, .L29+4
 678              	.LVL24:
 679              		.loc 1 209 0
 680 001a 8DF80720 		strb	r2, [sp, #7]
 681              	.LVL25:
 682              		.loc 1 207 0
ARM GAS  /tmp/ccH3XiDE.s 			page 13


 683 001e 0C46     		mov	r4, r1
 684              		.loc 1 215 0
 685 0020 FFF7FEFF 		bl	spiAcquireBus
 686              	.LVL26:
 687              	.L27:
 688              		.loc 1 217 0 discriminator 1
 689 0024 FFF7FEFF 		bl	checkBusy
 690 0028 0028     		cmp	r0, #0
 691 002a FBD1     		bne	.L27
 692              		.loc 1 219 0
 693 002c 134E     		ldr	r6, .L29+8
 694              		.loc 1 221 0
 695 002e 1248     		ldr	r0, .L29+4
 696              		.loc 1 219 0
 697 0030 0B21     		movs	r1, #11
 698 0032 3170     		strb	r1, [r6, #0]
 699              		.loc 1 221 0
 700 0034 FFF7FEFF 		bl	spiSelect
 701              		.loc 1 222 0
 702 0038 0121     		movs	r1, #1
 703 003a 3246     		mov	r2, r6
 704 003c 0E48     		ldr	r0, .L29+4
 705 003e FFF7FEFF 		bl	spiSend
 706              		.loc 1 224 0
 707 0042 0321     		movs	r1, #3
 708 0044 0B4A     		ldr	r2, .L29
 709 0046 0C48     		ldr	r0, .L29+4
 710 0048 FFF7FEFF 		bl	spiSend
 711              		.loc 1 226 0
 712 004c 0121     		movs	r1, #1
 713 004e 0DF10702 		add	r2, sp, #7
 714 0052 0948     		ldr	r0, .L29+4
 715 0054 FFF7FEFF 		bl	spiSend
 716              		.loc 1 228 0
 717 0058 2946     		mov	r1, r5
 718 005a 2246     		mov	r2, r4
 719 005c 0648     		ldr	r0, .L29+4
 720 005e FFF7FEFF 		bl	spiReceive
 721              		.loc 1 230 0
 722 0062 0548     		ldr	r0, .L29+4
 723 0064 FFF7FEFF 		bl	spiUnselect
 724              		.loc 1 231 0
 725 0068 0348     		ldr	r0, .L29+4
 726 006a FFF7FEFF 		bl	spiReleaseBus
 727              		.loc 1 234 0
 728 006e 03B0     		add	sp, sp, #12
 729 0070 F0BD     		pop	{r4, r5, r6, r7, pc}
 730              	.L30:
 731 0072 00BF     		.align	2
 732              	.L29:
 733 0074 00000000 		.word	.LANCHOR2
 734 0078 00000000 		.word	SPID2
 735 007c 00000000 		.word	.LANCHOR0
 736              		.cfi_endproc
 737              	.LFE122:
 738              		.size	flashReadBytes, .-flashReadBytes
 739              		.section	.text.flashErase,"ax",%progbits
ARM GAS  /tmp/ccH3XiDE.s 			page 14


 740              		.align	2
 741              		.p2align 4,,15
 742              		.global	flashErase
 743              		.thumb
 744              		.thumb_func
 745              		.type	flashErase, %function
 746              	flashErase:
 747              	.LFB123:
 748              		.loc 1 236 0
 749              		.cfi_startproc
 750              		@ args = 0, pretend = 0, frame = 0
 751              		@ frame_needed = 0, uses_anonymous_args = 0
 752              	.LVL27:
 753 0000 F8B5     		push	{r3, r4, r5, r6, r7, lr}
 754              	.LCFI12:
 755              		.cfi_def_cfa_offset 24
 756              		.cfi_offset 14, -4
 757              		.cfi_offset 7, -8
 758              		.cfi_offset 6, -12
 759              		.cfi_offset 5, -16
 760              		.cfi_offset 4, -20
 761              		.cfi_offset 3, -24
 762              		.loc 1 241 0
 763 0002 214B     		ldr	r3, .L40
 764 0004 C0F30747 		ubfx	r7, r0, #16, #8
 765              		.loc 1 242 0
 766 0008 C0F30724 		ubfx	r4, r0, #8, #8
 767              		.loc 1 243 0
 768 000c 9870     		strb	r0, [r3, #2]
 769              		.loc 1 241 0
 770 000e 1F70     		strb	r7, [r3, #0]
 771              		.loc 1 242 0
 772 0010 5C70     		strb	r4, [r3, #1]
 773              		.loc 1 245 0
 774 0012 1E48     		ldr	r0, .L40+4
 775              	.LVL28:
 776              		.loc 1 236 0
 777 0014 0D46     		mov	r5, r1
 778 0016 1646     		mov	r6, r2
 779              		.loc 1 245 0
 780 0018 FFF7FEFF 		bl	spiAcquireBus
 781              	.LVL29:
 782              	.L32:
 783              		.loc 1 247 0 discriminator 1
 784 001c FFF7FEFF 		bl	checkBusy
 785 0020 0028     		cmp	r0, #0
 786 0022 FBD1     		bne	.L32
 787              		.loc 1 250 0
 788 0024 1A4C     		ldr	r4, .L40+8
 789              		.loc 1 249 0
 790 0026 1948     		ldr	r0, .L40+4
 791 0028 FFF7FEFF 		bl	spiSelect
 792              		.loc 1 250 0
 793 002c 0623     		movs	r3, #6
 794              		.loc 1 252 0
 795 002e 0121     		movs	r1, #1
 796 0030 2246     		mov	r2, r4
ARM GAS  /tmp/ccH3XiDE.s 			page 15


 797              		.loc 1 250 0
 798 0032 2370     		strb	r3, [r4, #0]
 799              		.loc 1 252 0
 800 0034 1548     		ldr	r0, .L40+4
 801 0036 FFF7FEFF 		bl	spiSend
 802              		.loc 1 253 0
 803 003a 1448     		ldr	r0, .L40+4
 804 003c FFF7FEFF 		bl	spiUnselect
 805              		.loc 1 256 0
 806 0040 1248     		ldr	r0, .L40+4
 807              		.loc 1 255 0
 808 0042 2570     		strb	r5, [r4, #0]
 809              		.loc 1 256 0
 810 0044 FFF7FEFF 		bl	spiSelect
 811              		.loc 1 258 0
 812 0048 0121     		movs	r1, #1
 813 004a 1048     		ldr	r0, .L40+4
 814 004c 2246     		mov	r2, r4
 815 004e FFF7FEFF 		bl	spiSend
 816              		.loc 1 259 0
 817 0052 602D     		cmp	r5, #96
 818 0054 04D0     		beq	.L33
 819              		.loc 1 261 0
 820 0056 0D48     		ldr	r0, .L40+4
 821 0058 0B4A     		ldr	r2, .L40
 822 005a 0321     		movs	r1, #3
 823 005c FFF7FEFF 		bl	spiSend
 824              	.L33:
 825              		.loc 1 264 0
 826 0060 0A48     		ldr	r0, .L40+4
 827 0062 FFF7FEFF 		bl	spiUnselect
 828              		.loc 1 265 0
 829 0066 012E     		cmp	r6, #1
 830 0068 04D0     		beq	.L36
 831              	.L34:
 832              		.loc 1 268 0
 833 006a 0848     		ldr	r0, .L40+4
 834              		.loc 1 271 0
 835 006c BDE8F840 		pop	{r3, r4, r5, r6, r7, lr}
 836              		.loc 1 268 0
 837 0070 FFF7FEBF 		b	spiReleaseBus
 838              	.L36:
 839              		.loc 1 266 0 discriminator 1
 840 0074 FFF7FEFF 		bl	checkBusy
 841 0078 0028     		cmp	r0, #0
 842 007a F6D0     		beq	.L34
 843              		.loc 1 266 0 is_stmt 0
 844 007c FFF7FEFF 		bl	checkBusy
 845 0080 0028     		cmp	r0, #0
 846 0082 F7D1     		bne	.L36
 847 0084 F1E7     		b	.L34
 848              	.L41:
 849 0086 00BF     		.align	2
 850              	.L40:
 851 0088 00000000 		.word	.LANCHOR2
 852 008c 00000000 		.word	SPID2
 853 0090 00000000 		.word	.LANCHOR0
ARM GAS  /tmp/ccH3XiDE.s 			page 16


 854              		.cfi_endproc
 855              	.LFE123:
 856              		.size	flashErase, .-flashErase
 857 0094 AFF30080 		.section	.bss.flash_addr,"aw",%nobits
 857      AFF30080 
 857      AFF30080 
 858              		.align	2
 859              		.set	.LANCHOR2,. + 0
 860              		.type	flash_addr, %object
 861              		.size	flash_addr, 3
 862              	flash_addr:
 863 0000 000000   		.space	3
 864 0003 00       		.section	.rodata.spi2cfg,"a",%progbits
 865              		.align	2
 866              		.set	.LANCHOR1,. + 0
 867              		.type	spi2cfg, %object
 868              		.size	spi2cfg, 12
 869              	spi2cfg:
 870 0000 00000000 		.word	0
 871 0004 00000240 		.word	1073872896
 872 0008 0300     		.short	3
 873 000a 0000     		.short	0
 874              		.section	.bss.flash_cmd,"aw",%nobits
 875              		.set	.LANCHOR0,. + 0
 876              		.type	flash_cmd, %object
 877              		.size	flash_cmd, 1
 878              	flash_cmd:
 879 0000 00       		.space	1
 880              		.text
 881              	.Letext0:
 882              		.file 2 "/usr/bin/../lib/gcc/arm-none-eabi/4.6.2/../../../../arm-none-eabi/include/stdint.h"
 883              		.file 3 "./os/ports/GCC/ARMCMx/chtypes.h"
 884              		.file 4 "./os/kernel/include/chlists.h"
 885              		.file 5 "./os/kernel/include/chthreads.h"
 886              		.file 6 "./os/ports/GCC/ARMCMx/chcore_v7m.h"
 887              		.file 7 "./os/kernel/include/chmtx.h"
 888              		.file 8 "./os/hal/platforms/STM32F4xx/stm32f4xx.h"
 889              		.file 9 "./os/hal/platforms/STM32F4xx/stm32_dma.h"
 890              		.file 10 "./os/hal/platforms/STM32/GPIOv2/pal_lld.h"
 891              		.file 11 "./os/hal/include/spi.h"
 892              		.file 12 "./os/hal/platforms/STM32/spi_lld.h"
 893              		.file 13 "./os/ports/common/ARMCMx/CMSIS/include/core_cm4.h"