ARM GAS  /tmp/ccotE08m.s 			page 1


   1              		.syntax unified
   2              		.cpu cortex-m4
   3              		.fpu softvfp
   4              		.eabi_attribute 20, 1
   5              		.eabi_attribute 21, 1
   6              		.eabi_attribute 23, 3
   7              		.eabi_attribute 24, 1
   8              		.eabi_attribute 25, 1
   9              		.eabi_attribute 26, 1
  10              		.eabi_attribute 30, 2
  11              		.eabi_attribute 34, 1
  12              		.eabi_attribute 18, 4
  13              		.thumb
  14              		.file	"stm32_dma.c"
  15              		.text
  16              	.Ltext0:
  17              		.cfi_sections	.debug_frame
  18              		.section	.text.Vector6C,"ax",%progbits
  19              		.align	2
  20              		.p2align 4,,15
  21              		.global	Vector6C
  22              		.thumb
  23              		.thumb_func
  24              		.type	Vector6C, %function
  25              	Vector6C:
  26              	.LFB117:
  27              		.file 1 "./os/hal/platforms/STM32F4xx/stm32_dma.c"
  28              		.loc 1 139 0
  29              		.cfi_startproc
  30              		@ args = 0, pretend = 0, frame = 0
  31              		@ frame_needed = 0, uses_anonymous_args = 0
  32 0000 10B5     		push	{r4, lr}
  33              	.LCFI0:
  34              		.cfi_def_cfa_offset 8
  35              		.cfi_offset 14, -4
  36              		.cfi_offset 4, -8
  37              		.loc 1 146 0
  38 0002 0848     		ldr	r0, .L4
  39              		.loc 1 144 0
  40 0004 4FF4C042 		mov	r2, #24576
  41 0008 C4F20202 		movt	r2, 16386
  42              		.loc 1 146 0
  43 000c 0368     		ldr	r3, [r0, #0]
  44              		.loc 1 144 0
  45 000e 1168     		ldr	r1, [r2, #0]
  46              	.LVL0:
  47              		.loc 1 145 0
  48 0010 3D24     		movs	r4, #61
  49 0012 9460     		str	r4, [r2, #8]
  50              		.loc 1 146 0
  51 0014 13B1     		cbz	r3, .L2
  52              		.loc 1 147 0
  53 0016 4068     		ldr	r0, [r0, #4]
  54              		.loc 1 144 0
  55 0018 2140     		ands	r1, r1, r4
  56              	.LVL1:
  57              		.loc 1 147 0
ARM GAS  /tmp/ccotE08m.s 			page 2


  58 001a 9847     		blx	r3
  59              	.LVL2:
  60              	.L2:
  61              		.loc 1 150 0
  62 001c BDE81040 		pop	{r4, lr}
  63              		.loc 1 149 0
  64 0020 FFF7FEBF 		b	_port_irq_epilogue
  65              	.L5:
  66              		.align	2
  67              	.L4:
  68 0024 00000000 		.word	.LANCHOR0
  69              		.cfi_endproc
  70              	.LFE117:
  71              		.size	Vector6C, .-Vector6C
  72 0028 AFF30080 		.section	.text.Vector70,"ax",%progbits
  72      AFF30080 
  73              		.align	2
  74              		.p2align 4,,15
  75              		.global	Vector70
  76              		.thumb
  77              		.thumb_func
  78              		.type	Vector70, %function
  79              	Vector70:
  80              	.LFB118:
  81              		.loc 1 157 0
  82              		.cfi_startproc
  83              		@ args = 0, pretend = 0, frame = 0
  84              		@ frame_needed = 0, uses_anonymous_args = 0
  85 0000 10B5     		push	{r4, lr}
  86              	.LCFI1:
  87              		.cfi_def_cfa_offset 8
  88              		.cfi_offset 14, -4
  89              		.cfi_offset 4, -8
  90              		.loc 1 164 0
  91 0002 0A48     		ldr	r0, .L8
  92              		.loc 1 162 0
  93 0004 4FF4C042 		mov	r2, #24576
  94 0008 C4F20202 		movt	r2, 16386
  95              		.loc 1 164 0
  96 000c 8368     		ldr	r3, [r0, #8]
  97              		.loc 1 162 0
  98 000e 1168     		ldr	r1, [r2, #0]
  99              	.LVL3:
 100              		.loc 1 163 0
 101 0010 4FF47464 		mov	r4, #3904
 102 0014 9460     		str	r4, [r2, #8]
 103              		.loc 1 164 0
 104 0016 23B1     		cbz	r3, .L7
 105              		.loc 1 162 0
 106 0018 8909     		lsrs	r1, r1, #6
 107              	.LVL4:
 108              		.loc 1 165 0
 109 001a C068     		ldr	r0, [r0, #12]
 110              		.loc 1 162 0
 111 001c 01F03D01 		and	r1, r1, #61
 112              	.LVL5:
 113              		.loc 1 165 0
ARM GAS  /tmp/ccotE08m.s 			page 3


 114 0020 9847     		blx	r3
 115              	.L7:
 116              		.loc 1 168 0
 117 0022 BDE81040 		pop	{r4, lr}
 118              		.loc 1 167 0
 119 0026 FFF7FEBF 		b	_port_irq_epilogue
 120              	.L9:
 121 002a 00BF     		.align	2
 122              	.L8:
 123 002c 00000000 		.word	.LANCHOR0
 124              		.cfi_endproc
 125              	.LFE118:
 126              		.size	Vector70, .-Vector70
 127              		.section	.text.Vector74,"ax",%progbits
 128              		.align	2
 129              		.p2align 4,,15
 130              		.global	Vector74
 131              		.thumb
 132              		.thumb_func
 133              		.type	Vector74, %function
 134              	Vector74:
 135              	.LFB119:
 136              		.loc 1 175 0
 137              		.cfi_startproc
 138              		@ args = 0, pretend = 0, frame = 0
 139              		@ frame_needed = 0, uses_anonymous_args = 0
 140 0000 10B5     		push	{r4, lr}
 141              	.LCFI2:
 142              		.cfi_def_cfa_offset 8
 143              		.cfi_offset 14, -4
 144              		.cfi_offset 4, -8
 145              		.loc 1 182 0
 146 0002 0A48     		ldr	r0, .L12
 147              		.loc 1 180 0
 148 0004 4FF4C042 		mov	r2, #24576
 149 0008 C4F20202 		movt	r2, 16386
 150              		.loc 1 182 0
 151 000c 0369     		ldr	r3, [r0, #16]
 152              		.loc 1 180 0
 153 000e 1168     		ldr	r1, [r2, #0]
 154              	.LVL6:
 155              		.loc 1 181 0
 156 0010 4FF47414 		mov	r4, #3997696
 157 0014 9460     		str	r4, [r2, #8]
 158              		.loc 1 182 0
 159 0016 23B1     		cbz	r3, .L11
 160              		.loc 1 180 0
 161 0018 090C     		lsrs	r1, r1, #16
 162              	.LVL7:
 163              		.loc 1 183 0
 164 001a 4069     		ldr	r0, [r0, #20]
 165              		.loc 1 180 0
 166 001c 01F03D01 		and	r1, r1, #61
 167              	.LVL8:
 168              		.loc 1 183 0
 169 0020 9847     		blx	r3
 170              	.L11:
ARM GAS  /tmp/ccotE08m.s 			page 4


 171              		.loc 1 186 0
 172 0022 BDE81040 		pop	{r4, lr}
 173              		.loc 1 185 0
 174 0026 FFF7FEBF 		b	_port_irq_epilogue
 175              	.L13:
 176 002a 00BF     		.align	2
 177              	.L12:
 178 002c 00000000 		.word	.LANCHOR0
 179              		.cfi_endproc
 180              	.LFE119:
 181              		.size	Vector74, .-Vector74
 182              		.section	.text.Vector78,"ax",%progbits
 183              		.align	2
 184              		.p2align 4,,15
 185              		.global	Vector78
 186              		.thumb
 187              		.thumb_func
 188              		.type	Vector78, %function
 189              	Vector78:
 190              	.LFB120:
 191              		.loc 1 193 0
 192              		.cfi_startproc
 193              		@ args = 0, pretend = 0, frame = 0
 194              		@ frame_needed = 0, uses_anonymous_args = 0
 195 0000 10B5     		push	{r4, lr}
 196              	.LCFI3:
 197              		.cfi_def_cfa_offset 8
 198              		.cfi_offset 14, -4
 199              		.cfi_offset 4, -8
 200              		.loc 1 200 0
 201 0002 0A48     		ldr	r0, .L16
 202              		.loc 1 198 0
 203 0004 4FF4C042 		mov	r2, #24576
 204 0008 C4F20202 		movt	r2, 16386
 205              		.loc 1 200 0
 206 000c 8369     		ldr	r3, [r0, #24]
 207              		.loc 1 198 0
 208 000e 1168     		ldr	r1, [r2, #0]
 209              	.LVL9:
 210              		.loc 1 199 0
 211 0010 4FF07464 		mov	r4, #255852544
 212 0014 9460     		str	r4, [r2, #8]
 213              		.loc 1 200 0
 214 0016 23B1     		cbz	r3, .L15
 215              		.loc 1 198 0
 216 0018 890D     		lsrs	r1, r1, #22
 217              	.LVL10:
 218              		.loc 1 201 0
 219 001a C069     		ldr	r0, [r0, #28]
 220              		.loc 1 198 0
 221 001c 01F03D01 		and	r1, r1, #61
 222              	.LVL11:
 223              		.loc 1 201 0
 224 0020 9847     		blx	r3
 225              	.L15:
 226              		.loc 1 204 0
 227 0022 BDE81040 		pop	{r4, lr}
ARM GAS  /tmp/ccotE08m.s 			page 5


 228              		.loc 1 203 0
 229 0026 FFF7FEBF 		b	_port_irq_epilogue
 230              	.L17:
 231 002a 00BF     		.align	2
 232              	.L16:
 233 002c 00000000 		.word	.LANCHOR0
 234              		.cfi_endproc
 235              	.LFE120:
 236              		.size	Vector78, .-Vector78
 237              		.section	.text.Vector7C,"ax",%progbits
 238              		.align	2
 239              		.p2align 4,,15
 240              		.global	Vector7C
 241              		.thumb
 242              		.thumb_func
 243              		.type	Vector7C, %function
 244              	Vector7C:
 245              	.LFB121:
 246              		.loc 1 211 0
 247              		.cfi_startproc
 248              		@ args = 0, pretend = 0, frame = 0
 249              		@ frame_needed = 0, uses_anonymous_args = 0
 250 0000 10B5     		push	{r4, lr}
 251              	.LCFI4:
 252              		.cfi_def_cfa_offset 8
 253              		.cfi_offset 14, -4
 254              		.cfi_offset 4, -8
 255              		.loc 1 218 0
 256 0002 0848     		ldr	r0, .L20
 257              		.loc 1 216 0
 258 0004 4FF4C042 		mov	r2, #24576
 259 0008 C4F20202 		movt	r2, 16386
 260              		.loc 1 218 0
 261 000c 036A     		ldr	r3, [r0, #32]
 262              		.loc 1 216 0
 263 000e 5168     		ldr	r1, [r2, #4]
 264              	.LVL12:
 265              		.loc 1 217 0
 266 0010 3D24     		movs	r4, #61
 267 0012 D460     		str	r4, [r2, #12]
 268              		.loc 1 218 0
 269 0014 13B1     		cbz	r3, .L19
 270              		.loc 1 219 0
 271 0016 406A     		ldr	r0, [r0, #36]
 272              		.loc 1 216 0
 273 0018 2140     		ands	r1, r1, r4
 274              	.LVL13:
 275              		.loc 1 219 0
 276 001a 9847     		blx	r3
 277              	.LVL14:
 278              	.L19:
 279              		.loc 1 222 0
 280 001c BDE81040 		pop	{r4, lr}
 281              		.loc 1 221 0
 282 0020 FFF7FEBF 		b	_port_irq_epilogue
 283              	.L21:
 284              		.align	2
ARM GAS  /tmp/ccotE08m.s 			page 6


 285              	.L20:
 286 0024 00000000 		.word	.LANCHOR0
 287              		.cfi_endproc
 288              	.LFE121:
 289              		.size	Vector7C, .-Vector7C
 290 0028 AFF30080 		.section	.text.Vector80,"ax",%progbits
 290      AFF30080 
 291              		.align	2
 292              		.p2align 4,,15
 293              		.global	Vector80
 294              		.thumb
 295              		.thumb_func
 296              		.type	Vector80, %function
 297              	Vector80:
 298              	.LFB122:
 299              		.loc 1 229 0
 300              		.cfi_startproc
 301              		@ args = 0, pretend = 0, frame = 0
 302              		@ frame_needed = 0, uses_anonymous_args = 0
 303 0000 10B5     		push	{r4, lr}
 304              	.LCFI5:
 305              		.cfi_def_cfa_offset 8
 306              		.cfi_offset 14, -4
 307              		.cfi_offset 4, -8
 308              		.loc 1 236 0
 309 0002 0A48     		ldr	r0, .L24
 310              		.loc 1 234 0
 311 0004 4FF4C042 		mov	r2, #24576
 312 0008 C4F20202 		movt	r2, 16386
 313              		.loc 1 236 0
 314 000c 836A     		ldr	r3, [r0, #40]
 315              		.loc 1 234 0
 316 000e 5168     		ldr	r1, [r2, #4]
 317              	.LVL15:
 318              		.loc 1 235 0
 319 0010 4FF47464 		mov	r4, #3904
 320 0014 D460     		str	r4, [r2, #12]
 321              		.loc 1 236 0
 322 0016 23B1     		cbz	r3, .L23
 323              		.loc 1 234 0
 324 0018 8909     		lsrs	r1, r1, #6
 325              	.LVL16:
 326              		.loc 1 237 0
 327 001a C06A     		ldr	r0, [r0, #44]
 328              		.loc 1 234 0
 329 001c 01F03D01 		and	r1, r1, #61
 330              	.LVL17:
 331              		.loc 1 237 0
 332 0020 9847     		blx	r3
 333              	.L23:
 334              		.loc 1 240 0
 335 0022 BDE81040 		pop	{r4, lr}
 336              		.loc 1 239 0
 337 0026 FFF7FEBF 		b	_port_irq_epilogue
 338              	.L25:
 339 002a 00BF     		.align	2
 340              	.L24:
ARM GAS  /tmp/ccotE08m.s 			page 7


 341 002c 00000000 		.word	.LANCHOR0
 342              		.cfi_endproc
 343              	.LFE122:
 344              		.size	Vector80, .-Vector80
 345              		.section	.text.Vector84,"ax",%progbits
 346              		.align	2
 347              		.p2align 4,,15
 348              		.global	Vector84
 349              		.thumb
 350              		.thumb_func
 351              		.type	Vector84, %function
 352              	Vector84:
 353              	.LFB123:
 354              		.loc 1 247 0
 355              		.cfi_startproc
 356              		@ args = 0, pretend = 0, frame = 0
 357              		@ frame_needed = 0, uses_anonymous_args = 0
 358 0000 10B5     		push	{r4, lr}
 359              	.LCFI6:
 360              		.cfi_def_cfa_offset 8
 361              		.cfi_offset 14, -4
 362              		.cfi_offset 4, -8
 363              		.loc 1 254 0
 364 0002 0A48     		ldr	r0, .L28
 365              		.loc 1 252 0
 366 0004 4FF4C042 		mov	r2, #24576
 367 0008 C4F20202 		movt	r2, 16386
 368              		.loc 1 254 0
 369 000c 036B     		ldr	r3, [r0, #48]
 370              		.loc 1 252 0
 371 000e 5168     		ldr	r1, [r2, #4]
 372              	.LVL18:
 373              		.loc 1 253 0
 374 0010 4FF47414 		mov	r4, #3997696
 375 0014 D460     		str	r4, [r2, #12]
 376              		.loc 1 254 0
 377 0016 23B1     		cbz	r3, .L27
 378              		.loc 1 252 0
 379 0018 090C     		lsrs	r1, r1, #16
 380              	.LVL19:
 381              		.loc 1 255 0
 382 001a 406B     		ldr	r0, [r0, #52]
 383              		.loc 1 252 0
 384 001c 01F03D01 		and	r1, r1, #61
 385              	.LVL20:
 386              		.loc 1 255 0
 387 0020 9847     		blx	r3
 388              	.L27:
 389              		.loc 1 258 0
 390 0022 BDE81040 		pop	{r4, lr}
 391              		.loc 1 257 0
 392 0026 FFF7FEBF 		b	_port_irq_epilogue
 393              	.L29:
 394 002a 00BF     		.align	2
 395              	.L28:
 396 002c 00000000 		.word	.LANCHOR0
 397              		.cfi_endproc
ARM GAS  /tmp/ccotE08m.s 			page 8


 398              	.LFE123:
 399              		.size	Vector84, .-Vector84
 400              		.section	.text.VectorFC,"ax",%progbits
 401              		.align	2
 402              		.p2align 4,,15
 403              		.global	VectorFC
 404              		.thumb
 405              		.thumb_func
 406              		.type	VectorFC, %function
 407              	VectorFC:
 408              	.LFB124:
 409              		.loc 1 265 0
 410              		.cfi_startproc
 411              		@ args = 0, pretend = 0, frame = 0
 412              		@ frame_needed = 0, uses_anonymous_args = 0
 413 0000 10B5     		push	{r4, lr}
 414              	.LCFI7:
 415              		.cfi_def_cfa_offset 8
 416              		.cfi_offset 14, -4
 417              		.cfi_offset 4, -8
 418              		.loc 1 272 0
 419 0002 0A48     		ldr	r0, .L32
 420              		.loc 1 270 0
 421 0004 4FF4C042 		mov	r2, #24576
 422 0008 C4F20202 		movt	r2, 16386
 423              		.loc 1 272 0
 424 000c 836B     		ldr	r3, [r0, #56]
 425              		.loc 1 270 0
 426 000e 5168     		ldr	r1, [r2, #4]
 427              	.LVL21:
 428              		.loc 1 271 0
 429 0010 4FF07464 		mov	r4, #255852544
 430 0014 D460     		str	r4, [r2, #12]
 431              		.loc 1 272 0
 432 0016 23B1     		cbz	r3, .L31
 433              		.loc 1 270 0
 434 0018 890D     		lsrs	r1, r1, #22
 435              	.LVL22:
 436              		.loc 1 273 0
 437 001a C06B     		ldr	r0, [r0, #60]
 438              		.loc 1 270 0
 439 001c 01F03D01 		and	r1, r1, #61
 440              	.LVL23:
 441              		.loc 1 273 0
 442 0020 9847     		blx	r3
 443              	.L31:
 444              		.loc 1 276 0
 445 0022 BDE81040 		pop	{r4, lr}
 446              		.loc 1 275 0
 447 0026 FFF7FEBF 		b	_port_irq_epilogue
 448              	.L33:
 449 002a 00BF     		.align	2
 450              	.L32:
 451 002c 00000000 		.word	.LANCHOR0
 452              		.cfi_endproc
 453              	.LFE124:
 454              		.size	VectorFC, .-VectorFC
ARM GAS  /tmp/ccotE08m.s 			page 9


 455              		.section	.text.Vector120,"ax",%progbits
 456              		.align	2
 457              		.p2align 4,,15
 458              		.global	Vector120
 459              		.thumb
 460              		.thumb_func
 461              		.type	Vector120, %function
 462              	Vector120:
 463              	.LFB125:
 464              		.loc 1 283 0
 465              		.cfi_startproc
 466              		@ args = 0, pretend = 0, frame = 0
 467              		@ frame_needed = 0, uses_anonymous_args = 0
 468 0000 10B5     		push	{r4, lr}
 469              	.LCFI8:
 470              		.cfi_def_cfa_offset 8
 471              		.cfi_offset 14, -4
 472              		.cfi_offset 4, -8
 473              		.loc 1 290 0
 474 0002 0848     		ldr	r0, .L36
 475              		.loc 1 288 0
 476 0004 4FF4C842 		mov	r2, #25600
 477 0008 C4F20202 		movt	r2, 16386
 478              		.loc 1 290 0
 479 000c 036C     		ldr	r3, [r0, #64]
 480              		.loc 1 288 0
 481 000e 1168     		ldr	r1, [r2, #0]
 482              	.LVL24:
 483              		.loc 1 289 0
 484 0010 3D24     		movs	r4, #61
 485 0012 9460     		str	r4, [r2, #8]
 486              		.loc 1 290 0
 487 0014 13B1     		cbz	r3, .L35
 488              		.loc 1 291 0
 489 0016 406C     		ldr	r0, [r0, #68]
 490              		.loc 1 288 0
 491 0018 2140     		ands	r1, r1, r4
 492              	.LVL25:
 493              		.loc 1 291 0
 494 001a 9847     		blx	r3
 495              	.LVL26:
 496              	.L35:
 497              		.loc 1 294 0
 498 001c BDE81040 		pop	{r4, lr}
 499              		.loc 1 293 0
 500 0020 FFF7FEBF 		b	_port_irq_epilogue
 501              	.L37:
 502              		.align	2
 503              	.L36:
 504 0024 00000000 		.word	.LANCHOR0
 505              		.cfi_endproc
 506              	.LFE125:
 507              		.size	Vector120, .-Vector120
 508 0028 AFF30080 		.section	.text.Vector124,"ax",%progbits
 508      AFF30080 
 509              		.align	2
 510              		.p2align 4,,15
ARM GAS  /tmp/ccotE08m.s 			page 10


 511              		.global	Vector124
 512              		.thumb
 513              		.thumb_func
 514              		.type	Vector124, %function
 515              	Vector124:
 516              	.LFB126:
 517              		.loc 1 301 0
 518              		.cfi_startproc
 519              		@ args = 0, pretend = 0, frame = 0
 520              		@ frame_needed = 0, uses_anonymous_args = 0
 521 0000 10B5     		push	{r4, lr}
 522              	.LCFI9:
 523              		.cfi_def_cfa_offset 8
 524              		.cfi_offset 14, -4
 525              		.cfi_offset 4, -8
 526              		.loc 1 308 0
 527 0002 0A48     		ldr	r0, .L40
 528              		.loc 1 306 0
 529 0004 4FF4C842 		mov	r2, #25600
 530 0008 C4F20202 		movt	r2, 16386
 531              		.loc 1 308 0
 532 000c 836C     		ldr	r3, [r0, #72]
 533              		.loc 1 306 0
 534 000e 1168     		ldr	r1, [r2, #0]
 535              	.LVL27:
 536              		.loc 1 307 0
 537 0010 4FF47464 		mov	r4, #3904
 538 0014 9460     		str	r4, [r2, #8]
 539              		.loc 1 308 0
 540 0016 23B1     		cbz	r3, .L39
 541              		.loc 1 306 0
 542 0018 8909     		lsrs	r1, r1, #6
 543              	.LVL28:
 544              		.loc 1 309 0
 545 001a C06C     		ldr	r0, [r0, #76]
 546              		.loc 1 306 0
 547 001c 01F03D01 		and	r1, r1, #61
 548              	.LVL29:
 549              		.loc 1 309 0
 550 0020 9847     		blx	r3
 551              	.L39:
 552              		.loc 1 312 0
 553 0022 BDE81040 		pop	{r4, lr}
 554              		.loc 1 311 0
 555 0026 FFF7FEBF 		b	_port_irq_epilogue
 556              	.L41:
 557 002a 00BF     		.align	2
 558              	.L40:
 559 002c 00000000 		.word	.LANCHOR0
 560              		.cfi_endproc
 561              	.LFE126:
 562              		.size	Vector124, .-Vector124
 563              		.section	.text.Vector128,"ax",%progbits
 564              		.align	2
 565              		.p2align 4,,15
 566              		.global	Vector128
 567              		.thumb
ARM GAS  /tmp/ccotE08m.s 			page 11


 568              		.thumb_func
 569              		.type	Vector128, %function
 570              	Vector128:
 571              	.LFB127:
 572              		.loc 1 319 0
 573              		.cfi_startproc
 574              		@ args = 0, pretend = 0, frame = 0
 575              		@ frame_needed = 0, uses_anonymous_args = 0
 576 0000 10B5     		push	{r4, lr}
 577              	.LCFI10:
 578              		.cfi_def_cfa_offset 8
 579              		.cfi_offset 14, -4
 580              		.cfi_offset 4, -8
 581              		.loc 1 326 0
 582 0002 0A48     		ldr	r0, .L44
 583              		.loc 1 324 0
 584 0004 4FF4C842 		mov	r2, #25600
 585 0008 C4F20202 		movt	r2, 16386
 586              		.loc 1 326 0
 587 000c 036D     		ldr	r3, [r0, #80]
 588              		.loc 1 324 0
 589 000e 1168     		ldr	r1, [r2, #0]
 590              	.LVL30:
 591              		.loc 1 325 0
 592 0010 4FF47414 		mov	r4, #3997696
 593 0014 9460     		str	r4, [r2, #8]
 594              		.loc 1 326 0
 595 0016 23B1     		cbz	r3, .L43
 596              		.loc 1 324 0
 597 0018 090C     		lsrs	r1, r1, #16
 598              	.LVL31:
 599              		.loc 1 327 0
 600 001a 406D     		ldr	r0, [r0, #84]
 601              		.loc 1 324 0
 602 001c 01F03D01 		and	r1, r1, #61
 603              	.LVL32:
 604              		.loc 1 327 0
 605 0020 9847     		blx	r3
 606              	.L43:
 607              		.loc 1 330 0
 608 0022 BDE81040 		pop	{r4, lr}
 609              		.loc 1 329 0
 610 0026 FFF7FEBF 		b	_port_irq_epilogue
 611              	.L45:
 612 002a 00BF     		.align	2
 613              	.L44:
 614 002c 00000000 		.word	.LANCHOR0
 615              		.cfi_endproc
 616              	.LFE127:
 617              		.size	Vector128, .-Vector128
 618              		.section	.text.Vector12C,"ax",%progbits
 619              		.align	2
 620              		.p2align 4,,15
 621              		.global	Vector12C
 622              		.thumb
 623              		.thumb_func
 624              		.type	Vector12C, %function
ARM GAS  /tmp/ccotE08m.s 			page 12


 625              	Vector12C:
 626              	.LFB128:
 627              		.loc 1 337 0
 628              		.cfi_startproc
 629              		@ args = 0, pretend = 0, frame = 0
 630              		@ frame_needed = 0, uses_anonymous_args = 0
 631 0000 10B5     		push	{r4, lr}
 632              	.LCFI11:
 633              		.cfi_def_cfa_offset 8
 634              		.cfi_offset 14, -4
 635              		.cfi_offset 4, -8
 636              		.loc 1 344 0
 637 0002 0A48     		ldr	r0, .L48
 638              		.loc 1 342 0
 639 0004 4FF4C842 		mov	r2, #25600
 640 0008 C4F20202 		movt	r2, 16386
 641              		.loc 1 344 0
 642 000c 836D     		ldr	r3, [r0, #88]
 643              		.loc 1 342 0
 644 000e 1168     		ldr	r1, [r2, #0]
 645              	.LVL33:
 646              		.loc 1 343 0
 647 0010 4FF07464 		mov	r4, #255852544
 648 0014 9460     		str	r4, [r2, #8]
 649              		.loc 1 344 0
 650 0016 23B1     		cbz	r3, .L47
 651              		.loc 1 342 0
 652 0018 890D     		lsrs	r1, r1, #22
 653              	.LVL34:
 654              		.loc 1 345 0
 655 001a C06D     		ldr	r0, [r0, #92]
 656              		.loc 1 342 0
 657 001c 01F03D01 		and	r1, r1, #61
 658              	.LVL35:
 659              		.loc 1 345 0
 660 0020 9847     		blx	r3
 661              	.L47:
 662              		.loc 1 348 0
 663 0022 BDE81040 		pop	{r4, lr}
 664              		.loc 1 347 0
 665 0026 FFF7FEBF 		b	_port_irq_epilogue
 666              	.L49:
 667 002a 00BF     		.align	2
 668              	.L48:
 669 002c 00000000 		.word	.LANCHOR0
 670              		.cfi_endproc
 671              	.LFE128:
 672              		.size	Vector12C, .-Vector12C
 673              		.section	.text.Vector130,"ax",%progbits
 674              		.align	2
 675              		.p2align 4,,15
 676              		.global	Vector130
 677              		.thumb
 678              		.thumb_func
 679              		.type	Vector130, %function
 680              	Vector130:
 681              	.LFB129:
ARM GAS  /tmp/ccotE08m.s 			page 13


 682              		.loc 1 355 0
 683              		.cfi_startproc
 684              		@ args = 0, pretend = 0, frame = 0
 685              		@ frame_needed = 0, uses_anonymous_args = 0
 686 0000 10B5     		push	{r4, lr}
 687              	.LCFI12:
 688              		.cfi_def_cfa_offset 8
 689              		.cfi_offset 14, -4
 690              		.cfi_offset 4, -8
 691              		.loc 1 362 0
 692 0002 0848     		ldr	r0, .L52
 693              		.loc 1 360 0
 694 0004 4FF4C842 		mov	r2, #25600
 695 0008 C4F20202 		movt	r2, 16386
 696              		.loc 1 362 0
 697 000c 036E     		ldr	r3, [r0, #96]
 698              		.loc 1 360 0
 699 000e 5168     		ldr	r1, [r2, #4]
 700              	.LVL36:
 701              		.loc 1 361 0
 702 0010 3D24     		movs	r4, #61
 703 0012 D460     		str	r4, [r2, #12]
 704              		.loc 1 362 0
 705 0014 13B1     		cbz	r3, .L51
 706              		.loc 1 363 0
 707 0016 406E     		ldr	r0, [r0, #100]
 708              		.loc 1 360 0
 709 0018 2140     		ands	r1, r1, r4
 710              	.LVL37:
 711              		.loc 1 363 0
 712 001a 9847     		blx	r3
 713              	.LVL38:
 714              	.L51:
 715              		.loc 1 366 0
 716 001c BDE81040 		pop	{r4, lr}
 717              		.loc 1 365 0
 718 0020 FFF7FEBF 		b	_port_irq_epilogue
 719              	.L53:
 720              		.align	2
 721              	.L52:
 722 0024 00000000 		.word	.LANCHOR0
 723              		.cfi_endproc
 724              	.LFE129:
 725              		.size	Vector130, .-Vector130
 726 0028 AFF30080 		.section	.text.Vector150,"ax",%progbits
 726      AFF30080 
 727              		.align	2
 728              		.p2align 4,,15
 729              		.global	Vector150
 730              		.thumb
 731              		.thumb_func
 732              		.type	Vector150, %function
 733              	Vector150:
 734              	.LFB130:
 735              		.loc 1 373 0
 736              		.cfi_startproc
 737              		@ args = 0, pretend = 0, frame = 0
ARM GAS  /tmp/ccotE08m.s 			page 14


 738              		@ frame_needed = 0, uses_anonymous_args = 0
 739 0000 10B5     		push	{r4, lr}
 740              	.LCFI13:
 741              		.cfi_def_cfa_offset 8
 742              		.cfi_offset 14, -4
 743              		.cfi_offset 4, -8
 744              		.loc 1 380 0
 745 0002 0A48     		ldr	r0, .L56
 746              		.loc 1 378 0
 747 0004 4FF4C842 		mov	r2, #25600
 748 0008 C4F20202 		movt	r2, 16386
 749              		.loc 1 380 0
 750 000c 836E     		ldr	r3, [r0, #104]
 751              		.loc 1 378 0
 752 000e 5168     		ldr	r1, [r2, #4]
 753              	.LVL39:
 754              		.loc 1 379 0
 755 0010 4FF47464 		mov	r4, #3904
 756 0014 D460     		str	r4, [r2, #12]
 757              		.loc 1 380 0
 758 0016 23B1     		cbz	r3, .L55
 759              		.loc 1 378 0
 760 0018 8909     		lsrs	r1, r1, #6
 761              	.LVL40:
 762              		.loc 1 381 0
 763 001a C06E     		ldr	r0, [r0, #108]
 764              		.loc 1 378 0
 765 001c 01F03D01 		and	r1, r1, #61
 766              	.LVL41:
 767              		.loc 1 381 0
 768 0020 9847     		blx	r3
 769              	.L55:
 770              		.loc 1 384 0
 771 0022 BDE81040 		pop	{r4, lr}
 772              		.loc 1 383 0
 773 0026 FFF7FEBF 		b	_port_irq_epilogue
 774              	.L57:
 775 002a 00BF     		.align	2
 776              	.L56:
 777 002c 00000000 		.word	.LANCHOR0
 778              		.cfi_endproc
 779              	.LFE130:
 780              		.size	Vector150, .-Vector150
 781              		.section	.text.Vector154,"ax",%progbits
 782              		.align	2
 783              		.p2align 4,,15
 784              		.global	Vector154
 785              		.thumb
 786              		.thumb_func
 787              		.type	Vector154, %function
 788              	Vector154:
 789              	.LFB131:
 790              		.loc 1 391 0
 791              		.cfi_startproc
 792              		@ args = 0, pretend = 0, frame = 0
 793              		@ frame_needed = 0, uses_anonymous_args = 0
 794 0000 10B5     		push	{r4, lr}
ARM GAS  /tmp/ccotE08m.s 			page 15


 795              	.LCFI14:
 796              		.cfi_def_cfa_offset 8
 797              		.cfi_offset 14, -4
 798              		.cfi_offset 4, -8
 799              		.loc 1 398 0
 800 0002 0A48     		ldr	r0, .L60
 801              		.loc 1 396 0
 802 0004 4FF4C842 		mov	r2, #25600
 803 0008 C4F20202 		movt	r2, 16386
 804              		.loc 1 398 0
 805 000c 036F     		ldr	r3, [r0, #112]
 806              		.loc 1 396 0
 807 000e 5168     		ldr	r1, [r2, #4]
 808              	.LVL42:
 809              		.loc 1 397 0
 810 0010 4FF47414 		mov	r4, #3997696
 811 0014 D460     		str	r4, [r2, #12]
 812              		.loc 1 398 0
 813 0016 23B1     		cbz	r3, .L59
 814              		.loc 1 396 0
 815 0018 090C     		lsrs	r1, r1, #16
 816              	.LVL43:
 817              		.loc 1 399 0
 818 001a 406F     		ldr	r0, [r0, #116]
 819              		.loc 1 396 0
 820 001c 01F03D01 		and	r1, r1, #61
 821              	.LVL44:
 822              		.loc 1 399 0
 823 0020 9847     		blx	r3
 824              	.L59:
 825              		.loc 1 402 0
 826 0022 BDE81040 		pop	{r4, lr}
 827              		.loc 1 401 0
 828 0026 FFF7FEBF 		b	_port_irq_epilogue
 829              	.L61:
 830 002a 00BF     		.align	2
 831              	.L60:
 832 002c 00000000 		.word	.LANCHOR0
 833              		.cfi_endproc
 834              	.LFE131:
 835              		.size	Vector154, .-Vector154
 836              		.section	.text.Vector158,"ax",%progbits
 837              		.align	2
 838              		.p2align 4,,15
 839              		.global	Vector158
 840              		.thumb
 841              		.thumb_func
 842              		.type	Vector158, %function
 843              	Vector158:
 844              	.LFB132:
 845              		.loc 1 409 0
 846              		.cfi_startproc
 847              		@ args = 0, pretend = 0, frame = 0
 848              		@ frame_needed = 0, uses_anonymous_args = 0
 849 0000 10B5     		push	{r4, lr}
 850              	.LCFI15:
 851              		.cfi_def_cfa_offset 8
ARM GAS  /tmp/ccotE08m.s 			page 16


 852              		.cfi_offset 14, -4
 853              		.cfi_offset 4, -8
 854              		.loc 1 416 0
 855 0002 0A48     		ldr	r0, .L64
 856              		.loc 1 414 0
 857 0004 4FF4C842 		mov	r2, #25600
 858 0008 C4F20202 		movt	r2, 16386
 859              		.loc 1 416 0
 860 000c 836F     		ldr	r3, [r0, #120]
 861              		.loc 1 414 0
 862 000e 5168     		ldr	r1, [r2, #4]
 863              	.LVL45:
 864              		.loc 1 415 0
 865 0010 4FF07464 		mov	r4, #255852544
 866 0014 D460     		str	r4, [r2, #12]
 867              		.loc 1 416 0
 868 0016 23B1     		cbz	r3, .L63
 869              		.loc 1 414 0
 870 0018 890D     		lsrs	r1, r1, #22
 871              	.LVL46:
 872              		.loc 1 417 0
 873 001a C06F     		ldr	r0, [r0, #124]
 874              		.loc 1 414 0
 875 001c 01F03D01 		and	r1, r1, #61
 876              	.LVL47:
 877              		.loc 1 417 0
 878 0020 9847     		blx	r3
 879              	.L63:
 880              		.loc 1 420 0
 881 0022 BDE81040 		pop	{r4, lr}
 882              		.loc 1 419 0
 883 0026 FFF7FEBF 		b	_port_irq_epilogue
 884              	.L65:
 885 002a 00BF     		.align	2
 886              	.L64:
 887 002c 00000000 		.word	.LANCHOR0
 888              		.cfi_endproc
 889              	.LFE132:
 890              		.size	Vector158, .-Vector158
 891              		.section	.text.dmaInit,"ax",%progbits
 892              		.align	2
 893              		.p2align 4,,15
 894              		.global	dmaInit
 895              		.thumb
 896              		.thumb_func
 897              		.type	dmaInit, %function
 898              	dmaInit:
 899              	.LFB133:
 900              		.loc 1 431 0
 901              		.cfi_startproc
 902              		@ args = 0, pretend = 0, frame = 40
 903              		@ frame_needed = 0, uses_anonymous_args = 0
 904              		@ link register save eliminated.
 905 0000 2DE9F00F 		push	{r4, r5, r6, r7, r8, r9, sl, fp}
 906              	.LCFI16:
 907              		.cfi_def_cfa_offset 32
 908              		.cfi_offset 11, -4
ARM GAS  /tmp/ccotE08m.s 			page 17


 909              		.cfi_offset 10, -8
 910              		.cfi_offset 9, -12
 911              		.cfi_offset 8, -16
 912              		.cfi_offset 7, -20
 913              		.cfi_offset 6, -24
 914              		.cfi_offset 5, -28
 915              		.cfi_offset 4, -32
 916              		.loc 1 436 0
 917 0004 46F21044 		movw	r4, #25616
 918              		.loc 1 431 0
 919 0008 8AB0     		sub	sp, sp, #40
 920              	.LCFI17:
 921              		.cfi_def_cfa_offset 72
 922              		.loc 1 436 0
 923 000a 6034     		adds	r4, r4, #96
 924              		.loc 1 434 0
 925 000c 40F20000 		movw	r0, #:lower16:.LANCHOR1
 926              		.loc 1 436 0
 927 0010 4834     		adds	r4, r4, #72
 928              		.loc 1 434 0
 929 0012 C0F20000 		movt	r0, #:upper16:.LANCHOR1
 930 0016 0390     		str	r0, [sp, #12]
 931              		.loc 1 436 0
 932 0018 A4F58060 		sub	r0, r4, #1024
 933 001c C4F20200 		movt	r0, 16386
 934 0020 46F21044 		movw	r4, #25616
 935 0024 0290     		str	r0, [sp, #8]
 936 0026 C4F20204 		movt	r4, 16386
 937 002a 46F24040 		movw	r0, #25664
 938 002e 0194     		str	r4, [sp, #4]
 939 0030 C4F20200 		movt	r0, 16386
 940 0034 46F25844 		movw	r4, #25688
 941 0038 0490     		str	r0, [sp, #16]
 942 003a C4F20204 		movt	r4, 16386
 943 003e 46F27040 		movw	r0, #25712
 944 0042 0594     		str	r4, [sp, #20]
 945 0044 C4F20200 		movt	r0, 16386
 946 0048 46F28844 		movw	r4, #25736
 947 004c 0690     		str	r0, [sp, #24]
 948 004e C4F20204 		movt	r4, 16386
 949 0052 46F2A040 		movw	r0, #25760
 950 0056 0794     		str	r4, [sp, #28]
 951 0058 C4F20200 		movt	r0, 16386
 952 005c 46F2B844 		movw	r4, #25784
 953 0060 0890     		str	r0, [sp, #32]
 954 0062 C4F20204 		movt	r4, 16386
 955              		.loc 1 434 0
 956 0066 0398     		ldr	r0, [sp, #12]
 957              		.loc 1 436 0
 958 0068 0994     		str	r4, [sp, #36]
 959 006a 46F2100A 		movw	sl, #24592
 960              		.loc 1 434 0
 961 006e 0024     		movs	r4, #0
 962              		.loc 1 437 0
 963 0070 40F20003 		movw	r3, #:lower16:.LANCHOR0
 964              		.loc 1 436 0
 965 0074 46F22809 		movw	r9, #24616
ARM GAS  /tmp/ccotE08m.s 			page 18


 966 0078 46F24008 		movw	r8, #24640
 967 007c 46F2580C 		movw	ip, #24664
 968 0080 46F27007 		movw	r7, #24688
 969 0084 46F28806 		movw	r6, #24712
 970 0088 46F2A005 		movw	r5, #24736
 971              		.loc 1 437 0
 972 008c C0F20003 		movt	r3, #:upper16:.LANCHOR0
 973              		.loc 1 434 0
 974 0090 0460     		str	r4, [r0, #0]
 975              	.LVL48:
 976              		.loc 1 436 0
 977 0092 C4F2020A 		movt	sl, 16386
 978 0096 0298     		ldr	r0, [sp, #8]
 979 0098 CAF80040 		str	r4, [sl, #0]
 980 009c C4F20209 		movt	r9, 16386
 981 00a0 C4F20208 		movt	r8, 16386
 982 00a4 C4F2020C 		movt	ip, 16386
 983 00a8 C4F20207 		movt	r7, 16386
 984 00ac C4F20206 		movt	r6, 16386
 985 00b0 C4F20205 		movt	r5, 16386
 986 00b4 46F2284B 		movw	fp, #25640
 987              		.loc 1 437 0
 988 00b8 1C60     		str	r4, [r3, #0]
 989              	.LVL49:
 990              		.loc 1 436 0
 991 00ba C4F2020B 		movt	fp, 16386
 992 00be C9F80040 		str	r4, [r9, #0]
 993              		.loc 1 437 0
 994 00c2 9C60     		str	r4, [r3, #8]
 995              	.LVL50:
 996              		.loc 1 436 0
 997 00c4 C8F80040 		str	r4, [r8, #0]
 998              		.loc 1 437 0
 999 00c8 1C61     		str	r4, [r3, #16]
 1000              	.LVL51:
 1001              		.loc 1 436 0
 1002 00ca CCF80040 		str	r4, [ip, #0]
 1003              		.loc 1 437 0
 1004 00ce 9C61     		str	r4, [r3, #24]
 1005              	.LVL52:
 1006              		.loc 1 436 0
 1007 00d0 3C60     		str	r4, [r7, #0]
 1008              		.loc 1 437 0
 1009 00d2 1C62     		str	r4, [r3, #32]
 1010              	.LVL53:
 1011              		.loc 1 436 0
 1012 00d4 3460     		str	r4, [r6, #0]
 1013              		.loc 1 437 0
 1014 00d6 9C62     		str	r4, [r3, #40]
 1015              	.LVL54:
 1016              		.loc 1 436 0
 1017 00d8 2C60     		str	r4, [r5, #0]
 1018              		.loc 1 437 0
 1019 00da 1C63     		str	r4, [r3, #48]
 1020              	.LVL55:
 1021              		.loc 1 436 0
 1022 00dc 0460     		str	r4, [r0, #0]
ARM GAS  /tmp/ccotE08m.s 			page 19


 1023 00de 0198     		ldr	r0, [sp, #4]
 1024              		.loc 1 437 0
 1025 00e0 9C63     		str	r4, [r3, #56]
 1026              	.LVL56:
 1027              		.loc 1 436 0
 1028 00e2 0460     		str	r4, [r0, #0]
 1029              		.loc 1 437 0
 1030 00e4 1C64     		str	r4, [r3, #64]
 1031              	.LVL57:
 1032              		.loc 1 436 0
 1033 00e6 CBF80040 		str	r4, [fp, #0]
 1034              		.loc 1 437 0
 1035 00ea 9C64     		str	r4, [r3, #72]
 1036              	.LVL58:
 1037              		.loc 1 436 0
 1038 00ec 0498     		ldr	r0, [sp, #16]
 1039 00ee 0460     		str	r4, [r0, #0]
 1040 00f0 0598     		ldr	r0, [sp, #20]
 1041              		.loc 1 437 0
 1042 00f2 1C65     		str	r4, [r3, #80]
 1043              	.LVL59:
 1044              		.loc 1 436 0
 1045 00f4 0460     		str	r4, [r0, #0]
 1046 00f6 0698     		ldr	r0, [sp, #24]
 1047              		.loc 1 437 0
 1048 00f8 9C65     		str	r4, [r3, #88]
 1049              	.LVL60:
 1050              		.loc 1 436 0
 1051 00fa 0460     		str	r4, [r0, #0]
 1052 00fc 0798     		ldr	r0, [sp, #28]
 1053              		.loc 1 437 0
 1054 00fe 1C66     		str	r4, [r3, #96]
 1055              	.LVL61:
 1056              		.loc 1 436 0
 1057 0100 0460     		str	r4, [r0, #0]
 1058 0102 0898     		ldr	r0, [sp, #32]
 1059              		.loc 1 437 0
 1060 0104 9C66     		str	r4, [r3, #104]
 1061              	.LVL62:
 1062              		.loc 1 439 0
 1063 0106 4FF4C041 		mov	r1, #24576
 1064              		.loc 1 436 0
 1065 010a 0460     		str	r4, [r0, #0]
 1066              		.loc 1 441 0
 1067 010c 4FF4C842 		mov	r2, #25600
 1068              		.loc 1 436 0
 1069 0110 0998     		ldr	r0, [sp, #36]
 1070              		.loc 1 437 0
 1071 0112 1C67     		str	r4, [r3, #112]
 1072              	.LVL63:
 1073              		.loc 1 439 0
 1074 0114 C4F20201 		movt	r1, 16386
 1075              		.loc 1 441 0
 1076 0118 C4F20202 		movt	r2, 16386
 1077              		.loc 1 436 0
 1078 011c 0460     		str	r4, [r0, #0]
 1079              		.loc 1 437 0
ARM GAS  /tmp/ccotE08m.s 			page 20


 1080 011e 9C67     		str	r4, [r3, #120]
 1081              	.LVL64:
 1082              		.loc 1 439 0
 1083 0120 4FF0FF33 		mov	r3, #-1
 1084 0124 8B60     		str	r3, [r1, #8]
 1085              		.loc 1 440 0
 1086 0126 CB60     		str	r3, [r1, #12]
 1087              		.loc 1 441 0
 1088 0128 9360     		str	r3, [r2, #8]
 1089              		.loc 1 442 0
 1090 012a D360     		str	r3, [r2, #12]
 1091              		.loc 1 443 0
 1092 012c 0AB0     		add	sp, sp, #40
 1093 012e BDE8F00F 		pop	{r4, r5, r6, r7, r8, r9, sl, fp}
 1094 0132 7047     		bx	lr
 1095              		.cfi_endproc
 1096              	.LFE133:
 1097              		.size	dmaInit, .-dmaInit
 1098 0134 AFF30080 		.section	.text.dmaStreamAllocate,"ax",%progbits
 1098      AFF30080 
 1098      AFF30080 
 1099              		.align	2
 1100              		.p2align 4,,15
 1101              		.global	dmaStreamAllocate
 1102              		.thumb
 1103              		.thumb_func
 1104              		.type	dmaStreamAllocate, %function
 1105              	dmaStreamAllocate:
 1106              	.LFB134:
 1107              		.loc 1 472 0
 1108              		.cfi_startproc
 1109              		@ args = 0, pretend = 0, frame = 0
 1110              		@ frame_needed = 0, uses_anonymous_args = 0
 1111              	.LVL65:
 1112 0000 2DE9F041 		push	{r4, r5, r6, r7, r8, lr}
 1113              	.LCFI18:
 1114              		.cfi_def_cfa_offset 24
 1115              		.cfi_offset 14, -4
 1116              		.cfi_offset 8, -8
 1117              		.cfi_offset 7, -12
 1118              		.cfi_offset 6, -16
 1119              		.cfi_offset 5, -20
 1120              		.cfi_offset 4, -24
 1121              		.loc 1 477 0
 1122 0004 254D     		ldr	r5, .L76
 1123 0006 447A     		ldrb	r4, [r0, #9]	@ zero_extendqisi2
 1124 0008 2E68     		ldr	r6, [r5, #0]
 1125 000a 4FF0010C 		mov	ip, #1
 1126 000e 0CFA04F7 		lsl	r7, ip, r4
 1127 0012 3742     		tst	r7, r6
 1128 0014 3BD1     		bne	.L72
 1129              		.loc 1 481 0
 1130 0016 DFF888C0 		ldr	ip, .L76+4
 1131              		.loc 1 483 0
 1132 001a 3E43     		orrs	r6, r6, r7
 1133              		.loc 1 482 0
 1134 001c 0CEBC408 		add	r8, ip, r4, lsl #3
ARM GAS  /tmp/ccotE08m.s 			page 21


 1135              		.loc 1 486 0
 1136 0020 16F0FF0F 		tst	r6, #255
 1137              		.loc 1 481 0
 1138 0024 4CF83420 		str	r2, [ip, r4, lsl #3]
 1139              		.loc 1 482 0
 1140 0028 C8F80430 		str	r3, [r8, #4]
 1141              		.loc 1 483 0
 1142 002c 2E60     		str	r6, [r5, #0]
 1143              		.loc 1 486 0
 1144 002e 07D0     		beq	.L69
 1145              		.loc 1 487 0
 1146 0030 4FF46053 		mov	r3, #14336
 1147              	.LVL66:
 1148 0034 C4F20203 		movt	r3, 16386
 1149 0038 1D6B     		ldr	r5, [r3, #48]
 1150 003a 45F40014 		orr	r4, r5, #2097152
 1151 003e 1C63     		str	r4, [r3, #48]
 1152              	.L69:
 1153              		.loc 1 488 0
 1154 0040 16F47F4F 		tst	r6, #65280
 1155 0044 1AD1     		bne	.L75
 1156              	.L70:
 1157              		.loc 1 492 0
 1158 0046 0368     		ldr	r3, [r0, #0]
 1159 0048 1D68     		ldr	r5, [r3, #0]
 1160 004a 25F00104 		bic	r4, r5, #1
 1161 004e 1C60     		str	r4, [r3, #0]
 1162              	.L71:
 1163              		.loc 1 492 0 is_stmt 0 discriminator 1
 1164 0050 1E68     		ldr	r6, [r3, #0]
 1165 0052 16F00104 		ands	r4, r6, #1
 1166 0056 FBD1     		bne	.L71
 1167              		.loc 1 492 0 discriminator 2
 1168 0058 90F808C0 		ldrb	ip, [r0, #8]	@ zero_extendqisi2
 1169 005c 4568     		ldr	r5, [r0, #4]
 1170 005e 3D27     		movs	r7, #61
 1171 0060 07FA0CF6 		lsl	r6, r7, ip
 1172 0064 2E60     		str	r6, [r5, #0]
 1173              		.loc 1 494 0 is_stmt 1 discriminator 2
 1174 0066 2125     		movs	r5, #33
 1175              		.loc 1 493 0 discriminator 2
 1176 0068 1C60     		str	r4, [r3, #0]
 1177              		.loc 1 494 0 discriminator 2
 1178 006a 5D61     		str	r5, [r3, #20]
 1179              		.loc 1 497 0 discriminator 2
 1180 006c 92B1     		cbz	r2, .L73
 1181              		.loc 1 498 0
 1182 006e 807A     		ldrb	r0, [r0, #10]	@ zero_extendqisi2
 1183              	.LVL67:
 1184 0070 0901     		lsls	r1, r1, #4
 1185              	.LVL68:
 1186 0072 FFF7FEFF 		bl	nvicEnableVector
 1187              	.LVL69:
 1188              		.loc 1 500 0
 1189 0076 2046     		mov	r0, r4
 1190 0078 BDE8F081 		pop	{r4, r5, r6, r7, r8, pc}
 1191              	.LVL70:
ARM GAS  /tmp/ccotE08m.s 			page 22


 1192              	.L75:
 1193              		.loc 1 489 0
 1194 007c 4FF46056 		mov	r6, #14336
 1195 0080 C4F20206 		movt	r6, 16386
 1196 0084 336B     		ldr	r3, [r6, #48]
 1197 0086 43F48007 		orr	r7, r3, #4194304
 1198 008a 3763     		str	r7, [r6, #48]
 1199 008c DBE7     		b	.L70
 1200              	.LVL71:
 1201              	.L72:
 1202              		.loc 1 478 0
 1203 008e 6046     		mov	r0, ip
 1204              	.LVL72:
 1205 0090 BDE8F081 		pop	{r4, r5, r6, r7, r8, pc}
 1206              	.LVL73:
 1207              	.L73:
 1208              		.loc 1 500 0
 1209 0094 1046     		mov	r0, r2
 1210              	.LVL74:
 1211              		.loc 1 501 0
 1212 0096 BDE8F081 		pop	{r4, r5, r6, r7, r8, pc}
 1213              	.L77:
 1214 009a 00BF     		.align	2
 1215              	.L76:
 1216 009c 00000000 		.word	.LANCHOR1
 1217 00a0 00000000 		.word	.LANCHOR0
 1218              		.cfi_endproc
 1219              	.LFE134:
 1220              		.size	dmaStreamAllocate, .-dmaStreamAllocate
 1221 00a4 AFF30080 		.section	.text.dmaStreamRelease,"ax",%progbits
 1221      AFF30080 
 1221      AFF30080 
 1222              		.align	2
 1223              		.p2align 4,,15
 1224              		.global	dmaStreamRelease
 1225              		.thumb
 1226              		.thumb_func
 1227              		.type	dmaStreamRelease, %function
 1228              	dmaStreamRelease:
 1229              	.LFB135:
 1230              		.loc 1 516 0
 1231              		.cfi_startproc
 1232              		@ args = 0, pretend = 0, frame = 0
 1233              		@ frame_needed = 0, uses_anonymous_args = 0
 1234              	.LVL75:
 1235 0000 10B5     		push	{r4, lr}
 1236              	.LCFI19:
 1237              		.cfi_def_cfa_offset 8
 1238              		.cfi_offset 14, -4
 1239              		.cfi_offset 4, -8
 1240              		.loc 1 516 0
 1241 0002 0446     		mov	r4, r0
 1242              		.loc 1 525 0
 1243 0004 807A     		ldrb	r0, [r0, #10]	@ zero_extendqisi2
 1244              	.LVL76:
 1245 0006 FFF7FEFF 		bl	nvicDisableVector
 1246              		.loc 1 528 0
ARM GAS  /tmp/ccotE08m.s 			page 23


 1247 000a 114A     		ldr	r2, .L81
 1248 000c 94F809C0 		ldrb	ip, [r4, #9]	@ zero_extendqisi2
 1249 0010 1168     		ldr	r1, [r2, #0]
 1250 0012 0120     		movs	r0, #1
 1251 0014 00FA0CF3 		lsl	r3, r0, ip
 1252 0018 21EA0303 		bic	r3, r1, r3
 1253              		.loc 1 531 0
 1254 001c 13F0FF0F 		tst	r3, #255
 1255              		.loc 1 528 0
 1256 0020 1360     		str	r3, [r2, #0]
 1257              		.loc 1 531 0
 1258 0022 09D1     		bne	.L79
 1259              		.loc 1 532 0
 1260 0024 4FF4605E 		mov	lr, #14336
 1261 0028 C4F2020E 		movt	lr, 16386
 1262 002c DEF83020 		ldr	r2, [lr, #48]
 1263 0030 22F40011 		bic	r1, r2, #2097152
 1264 0034 CEF83010 		str	r1, [lr, #48]
 1265              	.L79:
 1266              		.loc 1 533 0
 1267 0038 13F47F4F 		tst	r3, #65280
 1268 003c 07D1     		bne	.L78
 1269              		.loc 1 534 0
 1270 003e 4FF46053 		mov	r3, #14336
 1271 0042 C4F20203 		movt	r3, 16386
 1272 0046 196B     		ldr	r1, [r3, #48]
 1273 0048 21F48000 		bic	r0, r1, #4194304
 1274 004c 1863     		str	r0, [r3, #48]
 1275              	.L78:
 1276 004e 10BD     		pop	{r4, pc}
 1277              	.L82:
 1278              		.align	2
 1279              	.L81:
 1280 0050 00000000 		.word	.LANCHOR1
 1281              		.cfi_endproc
 1282              	.LFE135:
 1283              		.size	dmaStreamRelease, .-dmaStreamRelease
 1284              		.global	_stm32_dma_streams
 1285 0054 AFF30080 		.section	.bss.dma_isr_redir,"aw",%nobits
 1285      AFF30080 
 1285      AFF30080 
 1286              		.align	2
 1287              		.set	.LANCHOR0,. + 0
 1288              		.type	dma_isr_redir, %object
 1289              		.size	dma_isr_redir, 128
 1290              	dma_isr_redir:
 1291 0000 00000000 		.space	128
 1291      00000000 
 1291      00000000 
 1291      00000000 
 1291      00000000 
 1292              		.section	.rodata._stm32_dma_streams,"a",%progbits
 1293              		.align	2
 1294              		.type	_stm32_dma_streams, %object
 1295              		.size	_stm32_dma_streams, 192
 1296              	_stm32_dma_streams:
 1297 0000 10600240 		.word	1073897488
ARM GAS  /tmp/ccotE08m.s 			page 24


 1298 0004 08600240 		.word	1073897480
 1299 0008 00       		.byte	0
 1300 0009 00       		.byte	0
 1301 000a 0B       		.byte	11
 1302 000b 00       		.space	1
 1303 000c 28600240 		.word	1073897512
 1304 0010 08600240 		.word	1073897480
 1305 0014 06       		.byte	6
 1306 0015 01       		.byte	1
 1307 0016 0C       		.byte	12
 1308 0017 00       		.space	1
 1309 0018 40600240 		.word	1073897536
 1310 001c 08600240 		.word	1073897480
 1311 0020 10       		.byte	16
 1312 0021 02       		.byte	2
 1313 0022 0D       		.byte	13
 1314 0023 00       		.space	1
 1315 0024 58600240 		.word	1073897560
 1316 0028 08600240 		.word	1073897480
 1317 002c 16       		.byte	22
 1318 002d 03       		.byte	3
 1319 002e 0E       		.byte	14
 1320 002f 00       		.space	1
 1321 0030 70600240 		.word	1073897584
 1322 0034 0C600240 		.word	1073897484
 1323 0038 00       		.byte	0
 1324 0039 04       		.byte	4
 1325 003a 0F       		.byte	15
 1326 003b 00       		.space	1
 1327 003c 88600240 		.word	1073897608
 1328 0040 0C600240 		.word	1073897484
 1329 0044 06       		.byte	6
 1330 0045 05       		.byte	5
 1331 0046 10       		.byte	16
 1332 0047 00       		.space	1
 1333 0048 A0600240 		.word	1073897632
 1334 004c 0C600240 		.word	1073897484
 1335 0050 10       		.byte	16
 1336 0051 06       		.byte	6
 1337 0052 11       		.byte	17
 1338 0053 00       		.space	1
 1339 0054 B8600240 		.word	1073897656
 1340 0058 0C600240 		.word	1073897484
 1341 005c 16       		.byte	22
 1342 005d 07       		.byte	7
 1343 005e 2F       		.byte	47
 1344 005f 00       		.space	1
 1345 0060 10640240 		.word	1073898512
 1346 0064 08640240 		.word	1073898504
 1347 0068 00       		.byte	0
 1348 0069 08       		.byte	8
 1349 006a 38       		.byte	56
 1350 006b 00       		.space	1
 1351 006c 28640240 		.word	1073898536
 1352 0070 08640240 		.word	1073898504
 1353 0074 06       		.byte	6
 1354 0075 09       		.byte	9
ARM GAS  /tmp/ccotE08m.s 			page 25


 1355 0076 39       		.byte	57
 1356 0077 00       		.space	1
 1357 0078 40640240 		.word	1073898560
 1358 007c 08640240 		.word	1073898504
 1359 0080 10       		.byte	16
 1360 0081 0A       		.byte	10
 1361 0082 3A       		.byte	58
 1362 0083 00       		.space	1
 1363 0084 58640240 		.word	1073898584
 1364 0088 08640240 		.word	1073898504
 1365 008c 16       		.byte	22
 1366 008d 0B       		.byte	11
 1367 008e 3B       		.byte	59
 1368 008f 00       		.space	1
 1369 0090 70640240 		.word	1073898608
 1370 0094 0C640240 		.word	1073898508
 1371 0098 00       		.byte	0
 1372 0099 0C       		.byte	12
 1373 009a 3C       		.byte	60
 1374 009b 00       		.space	1
 1375 009c 88640240 		.word	1073898632
 1376 00a0 0C640240 		.word	1073898508
 1377 00a4 06       		.byte	6
 1378 00a5 0D       		.byte	13
 1379 00a6 44       		.byte	68
 1380 00a7 00       		.space	1
 1381 00a8 A0640240 		.word	1073898656
 1382 00ac 0C640240 		.word	1073898508
 1383 00b0 10       		.byte	16
 1384 00b1 0E       		.byte	14
 1385 00b2 45       		.byte	69
 1386 00b3 00       		.space	1
 1387 00b4 B8640240 		.word	1073898680
 1388 00b8 0C640240 		.word	1073898508
 1389 00bc 16       		.byte	22
 1390 00bd 0F       		.byte	15
 1391 00be 46       		.byte	70
 1392 00bf 00       		.space	1
 1393              		.section	.bss.dma_streams_mask,"aw",%nobits
 1394              		.align	2
 1395              		.set	.LANCHOR1,. + 0
 1396              		.type	dma_streams_mask, %object
 1397              		.size	dma_streams_mask, 4
 1398              	dma_streams_mask:
 1399 0000 00000000 		.space	4
 1400              		.text
 1401              	.Letext0:
 1402              		.file 2 "/usr/bin/../lib/gcc/arm-none-eabi/4.6.2/../../../../arm-none-eabi/include/stdint.h"
 1403              		.file 3 "./os/ports/GCC/ARMCMx/chtypes.h"
 1404              		.file 4 "./os/hal/platforms/STM32F4xx/stm32f4xx.h"
 1405              		.file 5 "./os/hal/platforms/STM32F4xx/stm32_dma.h"
 1406              		.file 6 "./os/ports/common/ARMCMx/CMSIS/include/core_cm4.h"