ARM GAS  /tmp/ccOuzkN6.s 			page 1


   1              		.syntax unified
   2              		.cpu cortex-m4
   3              		.fpu softvfp
   4              		.eabi_attribute 20, 1
   5              		.eabi_attribute 21, 1
   6              		.eabi_attribute 23, 3
   7              		.eabi_attribute 24, 1
   8              		.eabi_attribute 25, 1
   9              		.eabi_attribute 26, 1
  10              		.eabi_attribute 30, 2
  11              		.eabi_attribute 34, 1
  12              		.eabi_attribute 18, 4
  13              		.thumb
  14              		.file	"uart_iface.c"
  15              		.text
  16              	.Ltext0:
  17              		.cfi_sections	.debug_frame
  18              		.section	.text.showMenu,"ax",%progbits
  19              		.align	2
  20              		.p2align 4,,15
  21              		.thumb
  22              		.thumb_func
  23              		.type	showMenu, %function
  24              	showMenu:
  25              	.LFB117:
  26              		.file 1 "./uart_iface/uart_iface.c"
  27              		.loc 1 14 0
  28              		.cfi_startproc
  29              		@ args = 0, pretend = 0, frame = 0
  30              		@ frame_needed = 0, uses_anonymous_args = 0
  31              	.LVL0:
  32 0000 10B5     		push	{r4, lr}
  33              	.LCFI0:
  34              		.cfi_def_cfa_offset 8
  35              		.cfi_offset 14, -4
  36              		.cfi_offset 4, -8
  37              		.loc 1 15 0
  38 0002 0023     		movs	r3, #0
  39 0004 0F48     		ldr	r0, .L6
  40              		.loc 1 17 0
  41 0006 1946     		mov	r1, r3
  42              	.LVL1:
  43              	.L2:
  44              		.loc 1 16 0 discriminator 2
  45 0008 5C1C     		adds	r4, r3, #1
  46 000a E2B2     		uxtb	r2, r4
  47 000c 541C     		adds	r4, r2, #1
  48              		.loc 1 17 0 discriminator 2
  49 000e C154     		strb	r1, [r0, r3]
  50              	.LVL2:
  51              		.loc 1 16 0 discriminator 2
  52 0010 E3B2     		uxtb	r3, r4
  53              	.LVL3:
  54 0012 802B     		cmp	r3, #128
  55              		.loc 1 17 0 discriminator 2
  56 0014 8154     		strb	r1, [r0, r2]
  57              		.loc 1 16 0 discriminator 2
ARM GAS  /tmp/ccOuzkN6.s 			page 2


  58 0016 F7D1     		bne	.L2
  59              		.loc 1 18 0
  60 0018 0B48     		ldr	r0, .L6+4
  61 001a 0C49     		ldr	r1, .L6+8
  62 001c FFF7FEFF 		bl	chprintf
  63              	.LVL4:
  64              		.loc 1 19 0
  65 0020 0948     		ldr	r0, .L6+4
  66 0022 0B49     		ldr	r1, .L6+12
  67 0024 FFF7FEFF 		bl	chprintf
  68              		.loc 1 20 0
  69 0028 0748     		ldr	r0, .L6+4
  70 002a 0A49     		ldr	r1, .L6+16
  71 002c FFF7FEFF 		bl	chprintf
  72              		.loc 1 21 0
  73 0030 0548     		ldr	r0, .L6+4
  74 0032 0949     		ldr	r1, .L6+20
  75 0034 FFF7FEFF 		bl	chprintf
  76              		.loc 1 22 0
  77 0038 0348     		ldr	r0, .L6+4
  78 003a 0849     		ldr	r1, .L6+24
  79              		.loc 1 24 0
  80 003c BDE81040 		pop	{r4, lr}
  81              		.loc 1 22 0
  82 0040 FFF7FEBF 		b	chprintf
  83              	.L7:
  84              		.align	2
  85              	.L6:
  86 0044 00000000 		.word	.LANCHOR0
  87 0048 00000000 		.word	SD3
  88 004c 00000000 		.word	.LC0
  89 0050 18000000 		.word	.LC1
  90 0054 38000000 		.word	.LC2
  91 0058 58000000 		.word	.LC3
  92 005c 78000000 		.word	.LC4
  93              		.cfi_endproc
  94              	.LFE117:
  95              		.size	showMenu, .-showMenu
  96              		.section	.text.UART_Thread,"ax",%progbits
  97              		.align	2
  98              		.p2align 4,,15
  99              		.global	UART_Thread
 100              		.thumb
 101              		.thumb_func
 102              		.type	UART_Thread, %function
 103              	UART_Thread:
 104              	.LFB122:
 105              		.loc 1 86 0
 106              		.cfi_startproc
 107              		@ args = 0, pretend = 0, frame = 16
 108              		@ frame_needed = 0, uses_anonymous_args = 0
 109              	.LVL5:
 110 0000 2DE9F04F 		push	{r4, r5, r6, r7, r8, r9, sl, fp, lr}
 111              	.LCFI1:
 112              		.cfi_def_cfa_offset 36
 113              		.cfi_offset 14, -4
 114              		.cfi_offset 11, -8
ARM GAS  /tmp/ccOuzkN6.s 			page 3


 115              		.cfi_offset 10, -12
 116              		.cfi_offset 9, -16
 117              		.cfi_offset 8, -20
 118              		.cfi_offset 7, -24
 119              		.cfi_offset 6, -28
 120              		.cfi_offset 5, -32
 121              		.cfi_offset 4, -36
 122 0004 85B0     		sub	sp, sp, #20
 123              	.LCFI2:
 124              		.cfi_def_cfa_offset 56
 125              		.loc 1 95 0
 126 0006 8148     		ldr	r0, .L126
 127              	.LVL6:
 128 0008 DFF80CA2 		ldr	sl, .L126+12
 129 000c 6946     		mov	r1, sp
 130 000e 8C22     		movs	r2, #140
 131 0010 FFF7FEFF 		bl	chEvtRegisterMask
 132              	.LVL7:
 133              		.loc 1 162 0
 134 0014 0025     		movs	r5, #0
 135              	.LBB15:
 136              		.loc 1 332 0
 137 0016 4CF6CD48 		movw	r8, #52429
 138              	.LBE15:
 139              		.loc 1 163 0
 140 001a A946     		mov	r9, r5
 141              	.LBB16:
 142              		.loc 1 332 0
 143 001c CCF6CC48 		movt	r8, 52428
 144              	.LVL8:
 145              	.L108:
 146              	.LBE16:
 147              		.loc 1 166 0
 148 0020 8C20     		movs	r0, #140
 149 0022 FFF7FEFF 		bl	chEvtWaitOne
 150              		.loc 1 168 0
 151 0026 4207     		lsls	r2, r0, #29
 152              		.loc 1 166 0
 153 0028 0446     		mov	r4, r0
 154              	.LVL9:
 155              		.loc 1 168 0
 156 002a 0AD4     		bmi	.L113
 157              	.LVL10:
 158              	.L10:
 159              		.loc 1 352 0
 160 002c 2307     		lsls	r3, r4, #28
 161 002e F7D5     		bpl	.L108
 162              		.loc 1 353 0
 163 0030 0820     		movs	r0, #8
 164 0032 FFF7FEFF 		bl	chEvtClearFlags
 165              		.loc 1 166 0
 166 0036 8C20     		movs	r0, #140
 167 0038 FFF7FEFF 		bl	chEvtWaitOne
 168              		.loc 1 168 0
 169 003c 4207     		lsls	r2, r0, #29
 170              		.loc 1 166 0
 171 003e 0446     		mov	r4, r0
ARM GAS  /tmp/ccOuzkN6.s 			page 4


 172              	.LVL11:
 173              		.loc 1 168 0
 174 0040 F4D5     		bpl	.L10
 175              	.LVL12:
 176              	.L113:
 177              		.loc 1 170 0
 178 0042 0122     		movs	r2, #1
 179 0044 4FF0FF33 		mov	r3, #-1
 180 0048 03A9     		add	r1, sp, #12
 181 004a 7148     		ldr	r0, .L126+4
 182              	.LVL13:
 183 004c FFF7FEFF 		bl	chIQReadTimeout
 184              		.loc 1 171 0
 185 0050 0420     		movs	r0, #4
 186 0052 FFF7FEFF 		bl	chEvtClearFlags
 187              		.loc 1 172 0
 188 0056 9DF80C30 		ldrb	r3, [sp, #12]	@ zero_extendqisi2
 189 005a 082B     		cmp	r3, #8
 190 005c 22D0     		beq	.L114
 191              		.loc 1 181 0
 192 005e 14F08006 		ands	r6, r4, #128
 193 0062 0BD0     		beq	.L12
 194              		.loc 1 184 0
 195 0064 4FF44060 		mov	r0, #3072
 196 0068 C4F20200 		movt	r0, 16386
 197 006c 4169     		ldr	r1, [r0, #20]
 198 006e 81F48042 		eor	r2, r1, #16384
 199 0072 4261     		str	r2, [r0, #20]
 200              		.loc 1 185 0
 201 0074 8020     		movs	r0, #128
 202 0076 FFF7FEFF 		bl	chEvtClearFlags
 203 007a D7E7     		b	.L10
 204              	.L12:
 205              		.loc 1 188 0
 206 007c 6548     		ldr	r0, .L126+8
 207 007e 03A9     		add	r1, sp, #12
 208 0080 0122     		movs	r2, #1
 209 0082 3346     		mov	r3, r6
 210 0084 FFF7FEFF 		bl	chOQWriteTimeout
 211              		.loc 1 195 0
 212 0088 B9F1000F 		cmp	r9, #0
 213 008c 15D1     		bne	.L13
 214              		.loc 1 196 0
 215 008e 9DF80C60 		ldrb	r6, [sp, #12]	@ zero_extendqisi2
 216              		.loc 1 197 0
 217 0092 0D2E     		cmp	r6, #13
 218              		.loc 1 196 0
 219 0094 0AF80560 		strb	r6, [sl, r5]
 220              		.loc 1 197 0
 221 0098 34D0     		beq	.L115
 222              		.loc 1 217 0
 223 009a 7F2D     		cmp	r5, #127
 224 009c 44D0     		beq	.L75
 225              	.L110:
 226              		.loc 1 346 0
 227 009e 0135     		adds	r5, r5, #1
 228 00a0 EDB2     		uxtb	r5, r5
ARM GAS  /tmp/ccOuzkN6.s 			page 5


 229              	.LVL14:
 230 00a2 C3E7     		b	.L10
 231              	.LVL15:
 232              	.L114:
 233              		.loc 1 173 0
 234 00a4 013D     		subs	r5, r5, #1
 235 00a6 EDB2     		uxtb	r5, r5
 236              	.LVL16:
 237              		.loc 1 174 0
 238 00a8 FF2D     		cmp	r5, #255
 239 00aa 1CD0     		beq	.L83
 240              		.loc 1 178 0
 241 00ac 03A9     		add	r1, sp, #12
 242 00ae 0122     		movs	r2, #1
 243 00b0 0023     		movs	r3, #0
 244 00b2 5848     		ldr	r0, .L126+8
 245 00b4 FFF7FEFF 		bl	chOQWriteTimeout
 246 00b8 B8E7     		b	.L10
 247              	.LVL17:
 248              	.L13:
 249              		.loc 1 223 0
 250 00ba B9F1060F 		cmp	r9, #6
 251 00be 14D0     		beq	.L116
 252              		.loc 1 255 0
 253 00c0 B9F1070F 		cmp	r9, #7
 254 00c4 32D0     		beq	.L117
 255              		.loc 1 287 0
 256 00c6 B9F1040F 		cmp	r9, #4
 257 00ca 00F0AD80 		beq	.L118
 258              		.loc 1 321 0
 259 00ce B9F1050F 		cmp	r9, #5
 260 00d2 ABD1     		bne	.L10
 261              		.loc 1 322 0
 262 00d4 9DF80C00 		ldrb	r0, [sp, #12]	@ zero_extendqisi2
 263              		.loc 1 323 0
 264 00d8 0D28     		cmp	r0, #13
 265              		.loc 1 322 0
 266 00da 0AF80500 		strb	r0, [sl, r5]
 267              		.loc 1 323 0
 268 00de 00F0FF81 		beq	.L119
 269              		.loc 1 342 0
 270 00e2 7F2D     		cmp	r5, #127
 271 00e4 DBD1     		bne	.L110
 272              	.L83:
 273              		.loc 1 343 0
 274 00e6 0025     		movs	r5, #0
 275 00e8 A0E7     		b	.L10
 276              	.L116:
 277              		.loc 1 224 0
 278 00ea 9DF80CB0 		ldrb	fp, [sp, #12]	@ zero_extendqisi2
 279 00ee 4A4F     		ldr	r7, .L126+12
 280 00f0 0AF805B0 		strb	fp, [sl, r5]
 281              		.loc 1 225 0
 282 00f4 BBF10D0F 		cmp	fp, #13
 283 00f8 00F06481 		beq	.L120
 284              	.L60:
 285              		.loc 1 314 0
ARM GAS  /tmp/ccOuzkN6.s 			page 6


 286 00fc 7F2D     		cmp	r5, #127
 287 00fe CED1     		bne	.L110
 288              		.loc 1 315 0
 289 0100 3546     		mov	r5, r6
 290 0102 93E7     		b	.L10
 291              	.L115:
 292              	.LBB17:
 293              		.loc 1 198 0
 294 0104 444F     		ldr	r7, .L126+12
 295 0106 3B78     		ldrb	r3, [r7, #0]	@ zero_extendqisi2
 296              	.LVL18:
 297              		.loc 1 202 0
 298 0108 312B     		cmp	r3, #49
 299 010a 00F04F81 		beq	.L121
 300              		.loc 1 205 0
 301 010e 322B     		cmp	r3, #50
 302 0110 00F0BE81 		beq	.L122
 303              		.loc 1 208 0
 304 0114 332B     		cmp	r3, #51
 305 0116 00F04782 		beq	.L123
 306              		.loc 1 211 0
 307 011a 342B     		cmp	r3, #52
 308 011c 00F03A81 		beq	.L124
 309              		.loc 1 215 0
 310 0120 FFF7FEFF 		bl	showMenu
 311              	.LVL19:
 312              		.loc 1 201 0
 313 0124 4D46     		mov	r5, r9
 314 0126 81E7     		b	.L10
 315              	.LVL20:
 316              	.L75:
 317              	.LBE17:
 318              		.loc 1 218 0
 319 0128 4D46     		mov	r5, r9
 320 012a 7FE7     		b	.L10
 321              	.L117:
 322              		.loc 1 256 0
 323 012c 9DF80CC0 		ldrb	ip, [sp, #12]	@ zero_extendqisi2
 324 0130 394F     		ldr	r7, .L126+12
 325 0132 0AF805C0 		strb	ip, [sl, r5]
 326              		.loc 1 257 0
 327 0136 BCF10D0F 		cmp	ip, #13
 328 013a DFD1     		bne	.L60
 329              	.LBB26:
 330              		.loc 1 258 0
 331 013c 3748     		ldr	r0, .L126+16
 332 013e 3849     		ldr	r1, .L126+20
 333 0140 FFF7FEFF 		bl	chprintf
 334              		.loc 1 259 0
 335 0144 0622     		movs	r2, #6
 336 0146 4FF0FF33 		mov	r3, #-1
 337 014a 3248     		ldr	r0, .L126+8
 338 014c 3946     		mov	r1, r7
 339 014e FFF7FEFF 		bl	chOQWriteTimeout
 340              	.LVL21:
 341              		.loc 1 265 0
 342 0152 3B78     		ldrb	r3, [r7, #0]	@ zero_extendqisi2
ARM GAS  /tmp/ccOuzkN6.s 			page 7


 343 0154 602B     		cmp	r3, #96
 344 0156 00F25782 		bhi	.L41
 345              		.loc 1 267 0
 346 015a 402B     		cmp	r3, #64
 347              		.loc 1 270 0
 348 015c 94BF     		ite	ls
 349 015e A3F13002 		subls	r2, r3, #48
 350              	.LVL22:
 351              		.loc 1 268 0
 352 0162 A3F13102 		subhi	r2, r3, #49
 353              	.LVL23:
 354              	.L43:
 355              		.loc 1 265 0
 356 0166 9AF80130 		ldrb	r3, [sl, #1]	@ zero_extendqisi2
 357              		.loc 1 271 0
 358 016a 1105     		lsls	r1, r2, #20
 359              	.LVL24:
 360              		.loc 1 265 0
 361 016c 602B     		cmp	r3, #96
 362 016e 00F24882 		bhi	.L44
 363              		.loc 1 267 0
 364 0172 402B     		cmp	r3, #64
 365              		.loc 1 270 0
 366 0174 94BF     		ite	ls
 367 0176 A3F13002 		subls	r2, r3, #48
 368              	.LVL25:
 369              		.loc 1 268 0
 370 017a A3F13102 		subhi	r2, r3, #49
 371              	.LVL26:
 372              	.L46:
 373              		.loc 1 265 0
 374 017e 9AF80230 		ldrb	r3, [sl, #2]	@ zero_extendqisi2
 375 0182 602B     		cmp	r3, #96
 376              		.loc 1 271 0
 377 0184 41EA0241 		orr	r1, r1, r2, lsl #16
 378              	.LVL27:
 379              		.loc 1 265 0
 380 0188 00F23882 		bhi	.L47
 381              		.loc 1 267 0
 382 018c 402B     		cmp	r3, #64
 383              		.loc 1 270 0
 384 018e 94BF     		ite	ls
 385 0190 A3F13002 		subls	r2, r3, #48
 386              	.LVL28:
 387              		.loc 1 268 0
 388 0194 A3F13102 		subhi	r2, r3, #49
 389              	.LVL29:
 390              	.L49:
 391              		.loc 1 265 0
 392 0198 9AF80330 		ldrb	r3, [sl, #3]	@ zero_extendqisi2
 393 019c 602B     		cmp	r3, #96
 394              		.loc 1 271 0
 395 019e 41EA0231 		orr	r1, r1, r2, lsl #12
 396              	.LVL30:
 397              		.loc 1 265 0
 398 01a2 00F22882 		bhi	.L50
 399              		.loc 1 267 0
ARM GAS  /tmp/ccOuzkN6.s 			page 8


 400 01a6 402B     		cmp	r3, #64
 401              		.loc 1 270 0
 402 01a8 94BF     		ite	ls
 403 01aa A3F13002 		subls	r2, r3, #48
 404              	.LVL31:
 405              		.loc 1 268 0
 406 01ae A3F13102 		subhi	r2, r3, #49
 407              	.LVL32:
 408              	.L52:
 409              		.loc 1 265 0
 410 01b2 9AF80430 		ldrb	r3, [sl, #4]	@ zero_extendqisi2
 411 01b6 602B     		cmp	r3, #96
 412              		.loc 1 271 0
 413 01b8 41EA0221 		orr	r1, r1, r2, lsl #8
 414              	.LVL33:
 415              		.loc 1 265 0
 416 01bc 00F21882 		bhi	.L53
 417              		.loc 1 267 0
 418 01c0 402B     		cmp	r3, #64
 419              		.loc 1 270 0
 420 01c2 94BF     		ite	ls
 421 01c4 A3F13002 		subls	r2, r3, #48
 422              	.LVL34:
 423              		.loc 1 268 0
 424 01c8 A3F13102 		subhi	r2, r3, #49
 425              	.LVL35:
 426              	.L55:
 427              		.loc 1 265 0
 428 01cc 9AF80530 		ldrb	r3, [sl, #5]	@ zero_extendqisi2
 429 01d0 602B     		cmp	r3, #96
 430              		.loc 1 271 0
 431 01d2 41EA0212 		orr	r2, r1, r2, lsl #4
 432              	.LVL36:
 433              		.loc 1 265 0
 434 01d6 40F20782 		bls	.L56
 435              		.loc 1 266 0
 436 01da 513B     		subs	r3, r3, #81
 437              	.LVL37:
 438              	.L57:
 439              		.loc 1 271 0
 440 01dc 43EA0200 		orr	r0, r3, r2
 441              		.loc 1 274 0
 442 01e0 FFF7FEFF 		bl	flashReadByte
 443              	.LVL38:
 444              		.loc 1 275 0
 445 01e4 0F49     		ldr	r1, .L126+24
 446              		.loc 1 274 0
 447 01e6 8146     		mov	r9, r0
 448              		.loc 1 275 0
 449 01e8 0C48     		ldr	r0, .L126+16
 450              		.loc 1 274 0
 451 01ea 8DF80F90 		strb	r9, [sp, #15]
 452              		.loc 1 279 0
 453 01ee 0025     		movs	r5, #0
 454              		.loc 1 275 0
 455 01f0 FFF7FEFF 		bl	chprintf
 456              		.loc 1 276 0
ARM GAS  /tmp/ccOuzkN6.s 			page 9


 457 01f4 0DF10F01 		add	r1, sp, #15
 458 01f8 0122     		movs	r2, #1
 459 01fa 4FF0FF33 		mov	r3, #-1
 460 01fe 0548     		ldr	r0, .L126+8
 461 0200 FFF7FEFF 		bl	chOQWriteTimeout
 462              	.LVL39:
 463              		.loc 1 277 0
 464 0204 A946     		mov	r9, r5
 465              		.loc 1 278 0
 466 0206 FFF7FEFF 		bl	showMenu
 467              	.LVL40:
 468 020a 0FE7     		b	.L10
 469              	.L127:
 470              		.align	2
 471              	.L126:
 472 020c 04000000 		.word	SD3+4
 473 0210 10000000 		.word	SD3+16
 474 0214 30000000 		.word	SD3+48
 475 0218 00000000 		.word	.LANCHOR0
 476 021c 00000000 		.word	SD3
 477 0220 6C010000 		.word	.LC12
 478 0224 60010000 		.word	.LC11
 479              	.LVL41:
 480              	.L118:
 481              	.LBE26:
 482              		.loc 1 288 0
 483 0228 9DF80CE0 		ldrb	lr, [sp, #12]	@ zero_extendqisi2
 484              		.loc 1 289 0
 485 022c BEF10D0F 		cmp	lr, #13
 486              		.loc 1 288 0
 487 0230 0AF805E0 		strb	lr, [sl, r5]
 488              		.loc 1 289 0
 489 0234 7FF462AF 		bne	.L60
 490              	.LVL42:
 491              	.LBB27:
 492              		.loc 1 293 0 discriminator 1
 493 0238 6F1E     		subs	r7, r5, #1
 494 023a 0121     		movs	r1, #1
 495 023c 002F     		cmp	r7, #0
 496 023e 06DD     		ble	.L61
 497              	.LVL43:
 498              	.L62:
 499              		.loc 1 293 0 is_stmt 0 discriminator 2
 500 0240 721C     		adds	r2, r6, #1
 501              		.loc 1 294 0 is_stmt 1 discriminator 2
 502 0242 01EB8103 		add	r3, r1, r1, lsl #2
 503              		.loc 1 293 0 discriminator 2
 504 0246 D6B2     		uxtb	r6, r2
 505              		.loc 1 294 0 discriminator 2
 506 0248 5900     		lsls	r1, r3, #1
 507              	.LVL44:
 508              		.loc 1 293 0 discriminator 2
 509 024a BE42     		cmp	r6, r7
 510 024c F8DB     		blt	.L62
 511              	.LVL45:
 512              	.L61:
 513              		.loc 1 296 0 discriminator 1
ARM GAS  /tmp/ccOuzkN6.s 			page 10


 514 024e 002D     		cmp	r5, #0
 515 0250 00F0E781 		beq	.L63
 516              		.loc 1 86 0
 517 0254 944B     		ldr	r3, .L128
 518 0256 581E     		subs	r0, r3, #1
 519              		.loc 1 297 0
 520 0258 1E78     		ldrb	r6, [r3, #0]	@ zero_extendqisi2
 521 025a C243     		mvns	r2, r0
 522              		.loc 1 86 0
 523 025c 5AFA87F7 		uxtab	r7, sl, r7
 524 0260 D019     		adds	r0, r2, r7
 525              		.loc 1 297 0
 526 0262 A6F1300B 		sub	fp, r6, #48
 527              		.loc 1 298 0
 528 0266 A8FB0162 		umull	r6, r2, r8, r1
 529 026a D208     		lsrs	r2, r2, #3
 530              		.loc 1 296 0
 531 026c BB42     		cmp	r3, r7
 532 026e 00F00100 		and	r0, r0, #1
 533              		.loc 1 297 0
 534 0272 01FB0BF9 		mul	r9, r1, fp
 535              	.LVL46:
 536              		.loc 1 296 0
 537 0276 1ED0     		beq	.L109
 538 0278 48B1     		cbz	r0, .L64
 539              		.loc 1 297 0
 540 027a 13F8010F 		ldrb	r0, [r3, #1]!	@ zero_extendqisi2
 541              		.loc 1 298 0
 542 027e A8FB0261 		umull	r6, r1, r8, r2
 543              	.LVL47:
 544              		.loc 1 297 0
 545 0282 3038     		subs	r0, r0, #48
 546 0284 02FB0099 		mla	r9, r2, r0, r9
 547              		.loc 1 298 0
 548 0288 CA08     		lsrs	r2, r1, #3
 549              		.loc 1 296 0
 550 028a BB42     		cmp	r3, r7
 551 028c 13D0     		beq	.L109
 552              	.L64:
 553              		.loc 1 297 0 discriminator 2
 554 028e 5E78     		ldrb	r6, [r3, #1]	@ zero_extendqisi2
 555 0290 93F802E0 		ldrb	lr, [r3, #2]	@ zero_extendqisi2
 556              		.loc 1 86 0 discriminator 2
 557 0294 581C     		adds	r0, r3, #1
 558              		.loc 1 298 0 discriminator 2
 559 0296 A8FB02C3 		umull	ip, r3, r8, r2
 560 029a D908     		lsrs	r1, r3, #3
 561              		.loc 1 297 0 discriminator 2
 562 029c 303E     		subs	r6, r6, #48
 563 029e 02FB0699 		mla	r9, r2, r6, r9
 564 02a2 AEF1300C 		sub	ip, lr, #48
 565              		.loc 1 86 0 discriminator 2
 566 02a6 431C     		adds	r3, r0, #1
 567              		.loc 1 298 0 discriminator 2
 568 02a8 A8FB01E6 		umull	lr, r6, r8, r1
 569 02ac F208     		lsrs	r2, r6, #3
 570              		.loc 1 296 0 discriminator 2
ARM GAS  /tmp/ccOuzkN6.s 			page 11


 571 02ae BB42     		cmp	r3, r7
 572              		.loc 1 297 0 discriminator 2
 573 02b0 01FB0C99 		mla	r9, r1, ip, r9
 574              		.loc 1 296 0 discriminator 2
 575 02b4 EBD1     		bne	.L64
 576              	.L109:
 577              		.loc 1 300 0
 578 02b6 4A46     		mov	r2, r9
 579 02b8 7C48     		ldr	r0, .L128+4
 580 02ba 7D49     		ldr	r1, .L128+8
 581 02bc FFF7FEFF 		bl	chprintf
 582              		.loc 1 301 0
 583 02c0 7A48     		ldr	r0, .L128+4
 584 02c2 7C49     		ldr	r1, .L128+12
 585 02c4 FFF7FEFF 		bl	chprintf
 586              		.loc 1 302 0
 587 02c8 0020     		movs	r0, #0
 588 02ca 2021     		movs	r1, #32
 589 02cc 0122     		movs	r2, #1
 590 02ce FFF7FEFF 		bl	flashErase
 591              		.loc 1 303 0
 592 02d2 7648     		ldr	r0, .L128+4
 593 02d4 7849     		ldr	r1, .L128+16
 594 02d6 4A46     		mov	r2, r9
 595 02d8 FFF7FEFF 		bl	chprintf
 596              	.LVL48:
 597              		.loc 1 304 0
 598 02dc B9F1000F 		cmp	r9, #0
 599 02e0 4ED0     		beq	.L65
 600              		.loc 1 305 0
 601 02e2 4FF0010B 		mov	fp, #1
 602 02e6 4FF0FF33 		mov	r3, #-1
 603 02ea 6F49     		ldr	r1, .L128
 604 02ec 7348     		ldr	r0, .L128+20
 605 02ee 5A46     		mov	r2, fp
 606 02f0 09EB0307 		add	r7, r9, r3
 607 02f4 FFF7FEFF 		bl	chIQReadTimeout
 608              		.loc 1 307 0
 609 02f8 0023     		movs	r3, #0
 610 02fa 7148     		ldr	r0, .L128+24
 611 02fc 6A49     		ldr	r1, .L128
 612 02fe 5A46     		mov	r2, fp
 613 0300 FFF7FEFF 		bl	chOQWriteTimeout
 614              	.LVL49:
 615              		.loc 1 304 0
 616 0304 CB45     		cmp	fp, r9
 617 0306 07EA0B06 		and	r6, r7, fp
 618 030a 5B46     		mov	r3, fp
 619 030c 5F46     		mov	r7, fp
 620 030e 37D2     		bcs	.L65
 621 0310 8EB1     		cbz	r6, .L66
 622              		.loc 1 305 0
 623 0312 6C4E     		ldr	r6, .L128+28
 624 0314 6948     		ldr	r0, .L128+20
 625 0316 5A46     		mov	r2, fp
 626 0318 3146     		mov	r1, r6
 627 031a 4FF0FF33 		mov	r3, #-1
ARM GAS  /tmp/ccOuzkN6.s 			page 12


 628 031e FFF7FEFF 		bl	chIQReadTimeout
 629              		.loc 1 304 0
 630 0322 0227     		movs	r7, #2
 631              		.loc 1 307 0
 632 0324 0023     		movs	r3, #0
 633 0326 5A46     		mov	r2, fp
 634 0328 6548     		ldr	r0, .L128+24
 635 032a 3146     		mov	r1, r6
 636 032c FFF7FEFF 		bl	chOQWriteTimeout
 637              		.loc 1 304 0
 638 0330 4F45     		cmp	r7, r9
 639 0332 3B46     		mov	r3, r7
 640 0334 24D2     		bcs	.L65
 641              	.L66:
 642              		.loc 1 305 0 discriminator 2
 643 0336 0AEB0306 		add	r6, sl, r3
 644 033a 3146     		mov	r1, r6
 645 033c 0122     		movs	r2, #1
 646 033e 4FF0FF33 		mov	r3, #-1
 647 0342 5E48     		ldr	r0, .L128+20
 648 0344 FFF7FEFF 		bl	chIQReadTimeout
 649              		.loc 1 307 0 discriminator 2
 650 0348 3146     		mov	r1, r6
 651 034a 0122     		movs	r2, #1
 652 034c 0023     		movs	r3, #0
 653 034e 5C48     		ldr	r0, .L128+24
 654 0350 FFF7FEFF 		bl	chOQWriteTimeout
 655              		.loc 1 304 0 discriminator 2
 656 0354 791C     		adds	r1, r7, #1
 657 0356 CEB2     		uxtb	r6, r1
 658              		.loc 1 305 0 discriminator 2
 659 0358 0AEB060B 		add	fp, sl, r6
 660 035c 0122     		movs	r2, #1
 661 035e 5946     		mov	r1, fp
 662 0360 4FF0FF33 		mov	r3, #-1
 663 0364 5548     		ldr	r0, .L128+20
 664 0366 FFF7FEFF 		bl	chIQReadTimeout
 665              		.loc 1 307 0 discriminator 2
 666 036a 0122     		movs	r2, #1
 667 036c 0023     		movs	r3, #0
 668 036e 5448     		ldr	r0, .L128+24
 669 0370 5946     		mov	r1, fp
 670 0372 FFF7FEFF 		bl	chOQWriteTimeout
 671              		.loc 1 304 0 discriminator 2
 672 0376 721C     		adds	r2, r6, #1
 673 0378 D7B2     		uxtb	r7, r2
 674 037a 4F45     		cmp	r7, r9
 675 037c 3B46     		mov	r3, r7
 676 037e DAD3     		bcc	.L66
 677              	.L65:
 678              		.loc 1 310 0
 679 0380 4A46     		mov	r2, r9
 680 0382 0020     		movs	r0, #0
 681 0384 4849     		ldr	r1, .L128
 682 0386 FFF7FEFF 		bl	flashWriteBytes
 683              	.LVL50:
 684              		.loc 1 311 0
ARM GAS  /tmp/ccOuzkN6.s 			page 13


 685 038a 4FF00009 		mov	r9, #0
 686              		.loc 1 312 0
 687 038e FFF7FEFF 		bl	showMenu
 688 0392 4BE6     		b	.L10
 689              	.LVL51:
 690              	.L124:
 691              	.LBE27:
 692              	.LBB28:
 693              	.LBB18:
 694              	.LBB19:
 695              		.loc 1 38 0
 696 0394 4548     		ldr	r0, .L128+4
 697 0396 4C49     		ldr	r1, .L128+32
 698 0398 FFF7FEFF 		bl	chprintf
 699              	.LVL52:
 700              		.loc 1 39 0
 701 039c 4348     		ldr	r0, .L128+4
 702 039e 4B49     		ldr	r1, .L128+36
 703              		.loc 1 201 0
 704 03a0 4D46     		mov	r5, r9
 705              		.loc 1 39 0
 706 03a2 FFF7FEFF 		bl	chprintf
 707              		.loc 1 212 0
 708 03a6 4FF00509 		mov	r9, #5
 709 03aa 3FE6     		b	.L10
 710              	.LVL53:
 711              	.L121:
 712              	.LBE19:
 713              	.LBE18:
 714              	.LBB20:
 715              	.LBB21:
 716              		.loc 1 26 0
 717 03ac 3F48     		ldr	r0, .L128+4
 718 03ae 4849     		ldr	r1, .L128+40
 719 03b0 FFF7FEFF 		bl	chprintf
 720              	.LVL54:
 721              		.loc 1 27 0
 722 03b4 3D48     		ldr	r0, .L128+4
 723 03b6 4549     		ldr	r1, .L128+36
 724              		.loc 1 201 0
 725 03b8 4D46     		mov	r5, r9
 726              		.loc 1 27 0
 727 03ba FFF7FEFF 		bl	chprintf
 728              		.loc 1 203 0
 729 03be 4FF00609 		mov	r9, #6
 730 03c2 33E6     		b	.L10
 731              	.LVL55:
 732              	.L120:
 733              	.LBE21:
 734              	.LBE20:
 735              	.LBE28:
 736              	.LBB29:
 737              		.loc 1 226 0
 738 03c4 3948     		ldr	r0, .L128+4
 739 03c6 4349     		ldr	r1, .L128+44
 740 03c8 FFF7FEFF 		bl	chprintf
 741              		.loc 1 227 0
ARM GAS  /tmp/ccOuzkN6.s 			page 14


 742 03cc 4A46     		mov	r2, r9
 743 03ce 4FF0FF33 		mov	r3, #-1
 744 03d2 3946     		mov	r1, r7
 745 03d4 3A48     		ldr	r0, .L128+24
 746 03d6 FFF7FEFF 		bl	chOQWriteTimeout
 747              		.loc 1 228 0
 748 03da 3448     		ldr	r0, .L128+4
 749 03dc 3E49     		ldr	r1, .L128+48
 750 03de FFF7FEFF 		bl	chprintf
 751              		.loc 1 229 0
 752 03e2 F91D     		adds	r1, r7, #7
 753 03e4 0122     		movs	r2, #1
 754 03e6 4FF0FF33 		mov	r3, #-1
 755 03ea 3548     		ldr	r0, .L128+24
 756 03ec FFF7FEFF 		bl	chOQWriteTimeout
 757              	.LVL56:
 758              		.loc 1 235 0
 759 03f0 3B78     		ldrb	r3, [r7, #0]	@ zero_extendqisi2
 760 03f2 602B     		cmp	r3, #96
 761 03f4 00F2F580 		bhi	.L21
 762              		.loc 1 237 0
 763 03f8 402B     		cmp	r3, #64
 764              		.loc 1 240 0
 765 03fa 94BF     		ite	ls
 766 03fc A3F13002 		subls	r2, r3, #48
 767              	.LVL57:
 768              		.loc 1 238 0
 769 0400 A3F13102 		subhi	r2, r3, #49
 770              	.LVL58:
 771              	.L23:
 772              		.loc 1 235 0
 773 0404 9AF80130 		ldrb	r3, [sl, #1]	@ zero_extendqisi2
 774              		.loc 1 241 0
 775 0408 1105     		lsls	r1, r2, #20
 776              	.LVL59:
 777              		.loc 1 235 0
 778 040a 602B     		cmp	r3, #96
 779 040c 00F2E680 		bhi	.L24
 780              		.loc 1 237 0
 781 0410 402B     		cmp	r3, #64
 782              		.loc 1 240 0
 783 0412 94BF     		ite	ls
 784 0414 A3F13002 		subls	r2, r3, #48
 785              	.LVL60:
 786              		.loc 1 238 0
 787 0418 A3F13102 		subhi	r2, r3, #49
 788              	.LVL61:
 789              	.L26:
 790              		.loc 1 235 0
 791 041c 9AF80230 		ldrb	r3, [sl, #2]	@ zero_extendqisi2
 792 0420 602B     		cmp	r3, #96
 793              		.loc 1 241 0
 794 0422 41EA0241 		orr	r1, r1, r2, lsl #16
 795              	.LVL62:
 796              		.loc 1 235 0
 797 0426 00F2D680 		bhi	.L27
 798              		.loc 1 237 0
ARM GAS  /tmp/ccOuzkN6.s 			page 15


 799 042a 402B     		cmp	r3, #64
 800              		.loc 1 240 0
 801 042c 94BF     		ite	ls
 802 042e A3F13002 		subls	r2, r3, #48
 803              	.LVL63:
 804              		.loc 1 238 0
 805 0432 A3F13102 		subhi	r2, r3, #49
 806              	.LVL64:
 807              	.L29:
 808              		.loc 1 235 0
 809 0436 9AF80330 		ldrb	r3, [sl, #3]	@ zero_extendqisi2
 810 043a 602B     		cmp	r3, #96
 811              		.loc 1 241 0
 812 043c 41EA0231 		orr	r1, r1, r2, lsl #12
 813              	.LVL65:
 814              		.loc 1 235 0
 815 0440 00F2C680 		bhi	.L30
 816              		.loc 1 237 0
 817 0444 402B     		cmp	r3, #64
 818              		.loc 1 240 0
 819 0446 94BF     		ite	ls
 820 0448 A3F13002 		subls	r2, r3, #48
 821              	.LVL66:
 822              		.loc 1 238 0
 823 044c A3F13102 		subhi	r2, r3, #49
 824              	.LVL67:
 825              	.L32:
 826              		.loc 1 235 0
 827 0450 9AF80430 		ldrb	r3, [sl, #4]	@ zero_extendqisi2
 828 0454 602B     		cmp	r3, #96
 829              		.loc 1 241 0
 830 0456 41EA0221 		orr	r1, r1, r2, lsl #8
 831              	.LVL68:
 832              		.loc 1 235 0
 833 045a 00F2B680 		bhi	.L33
 834              		.loc 1 237 0
 835 045e 402B     		cmp	r3, #64
 836              		.loc 1 240 0
 837 0460 94BF     		ite	ls
 838 0462 A3F13002 		subls	r2, r3, #48
 839              	.LVL69:
 840              		.loc 1 238 0
 841 0466 A3F13102 		subhi	r2, r3, #49
 842              	.LVL70:
 843              	.L35:
 844              		.loc 1 235 0
 845 046a 9AF80530 		ldrb	r3, [sl, #5]	@ zero_extendqisi2
 846 046e 602B     		cmp	r3, #96
 847              		.loc 1 241 0
 848 0470 41EA0212 		orr	r2, r1, r2, lsl #4
 849              	.LVL71:
 850              		.loc 1 235 0
 851 0474 40F2A580 		bls	.L36
 852              		.loc 1 236 0
 853 0478 513B     		subs	r3, r3, #81
 854              	.LVL72:
 855              	.L37:
ARM GAS  /tmp/ccOuzkN6.s 			page 16


 856              		.loc 1 244 0
 857 047a 9AF80710 		ldrb	r1, [sl, #7]	@ zero_extendqisi2
 858              		.loc 1 241 0
 859 047e 43EA0200 		orr	r0, r3, r2
 860              		.loc 1 247 0
 861 0482 0025     		movs	r5, #0
 862              		.loc 1 244 0
 863 0484 FFF7FEFF 		bl	flashWriteByte
 864              	.LVL73:
 865              		.loc 1 245 0
 866 0488 A946     		mov	r9, r5
 867              		.loc 1 246 0
 868 048a FFF7FEFF 		bl	showMenu
 869              	.LVL74:
 870 048e CDE5     		b	.L10
 871              	.LVL75:
 872              	.L122:
 873              	.LBE29:
 874              	.LBB30:
 875              	.LBB22:
 876              	.LBB23:
 877              		.loc 1 30 0
 878 0490 0648     		ldr	r0, .L128+4
 879 0492 1249     		ldr	r1, .L128+52
 880 0494 FFF7FEFF 		bl	chprintf
 881              	.LVL76:
 882              		.loc 1 31 0
 883 0498 0448     		ldr	r0, .L128+4
 884 049a 0C49     		ldr	r1, .L128+36
 885              		.loc 1 201 0
 886 049c 4D46     		mov	r5, r9
 887              		.loc 1 31 0
 888 049e FFF7FEFF 		bl	chprintf
 889              		.loc 1 206 0
 890 04a2 4FF00709 		mov	r9, #7
 891 04a6 C1E5     		b	.L10
 892              	.L129:
 893              		.align	2
 894              	.L128:
 895 04a8 00000000 		.word	.LANCHOR0
 896 04ac 00000000 		.word	SD3
 897 04b0 78010000 		.word	.LC13
 898 04b4 88010000 		.word	.LC14
 899 04b8 9C010000 		.word	.LC15
 900 04bc 10000000 		.word	SD3+16
 901 04c0 30000000 		.word	SD3+48
 902 04c4 01000000 		.word	.LANCHOR0+1
 903 04c8 1C010000 		.word	.LC9
 904 04cc C0000000 		.word	.LC6
 905 04d0 98000000 		.word	.LC5
 906 04d4 50010000 		.word	.LC10
 907 04d8 60010000 		.word	.LC11
 908 04dc C4000000 		.word	.LC7
 909              	.LVL77:
 910              	.L119:
 911              	.LBE23:
 912              	.LBE22:
ARM GAS  /tmp/ccOuzkN6.s 			page 17


 913              	.LBE30:
 914              	.LBB31:
 915              		.loc 1 327 0 discriminator 1
 916 04e0 05F1FF3E 		add	lr, r5, #-1
 917 04e4 BEF1000F 		cmp	lr, #0
 918 04e8 40F39580 		ble	.L81
 919              		.loc 1 327 0 is_stmt 0
 920 04ec 0023     		movs	r3, #0
 921 04ee 0121     		movs	r1, #1
 922              	.LVL78:
 923              	.L69:
 924              		.loc 1 327 0 discriminator 2
 925 04f0 0133     		adds	r3, r3, #1
 926              		.loc 1 328 0 is_stmt 1 discriminator 2
 927 04f2 01EB8107 		add	r7, r1, r1, lsl #2
 928              		.loc 1 327 0 discriminator 2
 929 04f6 DBB2     		uxtb	r3, r3
 930              		.loc 1 328 0 discriminator 2
 931 04f8 7900     		lsls	r1, r7, #1
 932              	.LVL79:
 933              		.loc 1 327 0 discriminator 2
 934 04fa 7345     		cmp	r3, lr
 935 04fc F8DB     		blt	.L69
 936              	.LVL80:
 937              		.loc 1 330 0 discriminator 1
 938 04fe 002D     		cmp	r5, #0
 939 0500 00F08D80 		beq	.L82
 940              	.L125:
 941              		.loc 1 86 0
 942 0504 514B     		ldr	r3, .L130
 943 0506 5F1E     		subs	r7, r3, #1
 944              		.loc 1 331 0
 945 0508 1E78     		ldrb	r6, [r3, #0]	@ zero_extendqisi2
 946 050a F843     		mvns	r0, r7
 947              		.loc 1 86 0
 948 050c 5AFA8EFE 		uxtab	lr, sl, lr
 949              		.loc 1 332 0
 950 0510 A8FB0172 		umull	r7, r2, r8, r1
 951              		.loc 1 331 0
 952 0514 303E     		subs	r6, r6, #48
 953 0516 00EB0E0C 		add	ip, r0, lr
 954              		.loc 1 332 0
 955 051a D208     		lsrs	r2, r2, #3
 956              		.loc 1 330 0
 957 051c 7345     		cmp	r3, lr
 958 051e 0CF00100 		and	r0, ip, #1
 959              		.loc 1 331 0
 960 0522 01FB06F6 		mul	r6, r1, r6
 961              	.LVL81:
 962              		.loc 1 330 0
 963 0526 1DD0     		beq	.L70
 964 0528 48B1     		cbz	r0, .L71
 965              		.loc 1 331 0
 966 052a 13F8010F 		ldrb	r0, [r3, #1]!	@ zero_extendqisi2
 967              		.loc 1 332 0
 968 052e A8FB0271 		umull	r7, r1, r8, r2
 969              	.LVL82:
ARM GAS  /tmp/ccOuzkN6.s 			page 18


 970              		.loc 1 331 0
 971 0532 3038     		subs	r0, r0, #48
 972 0534 02FB0066 		mla	r6, r2, r0, r6
 973              		.loc 1 332 0
 974 0538 CA08     		lsrs	r2, r1, #3
 975              		.loc 1 330 0
 976 053a 7345     		cmp	r3, lr
 977 053c 12D0     		beq	.L70
 978              	.L71:
 979              		.loc 1 331 0 discriminator 2
 980 053e 5F78     		ldrb	r7, [r3, #1]	@ zero_extendqisi2
 981              		.loc 1 86 0 discriminator 2
 982 0540 581C     		adds	r0, r3, #1
 983              		.loc 1 332 0 discriminator 2
 984 0542 A8FB02C1 		umull	ip, r1, r8, r2
 985              		.loc 1 331 0 discriminator 2
 986 0546 9B78     		ldrb	r3, [r3, #2]	@ zero_extendqisi2
 987              		.loc 1 332 0 discriminator 2
 988 0548 C908     		lsrs	r1, r1, #3
 989              		.loc 1 331 0 discriminator 2
 990 054a 303F     		subs	r7, r7, #48
 991 054c 02FB076B 		mla	fp, r2, r7, r6
 992 0550 A3F13009 		sub	r9, r3, #48
 993              		.loc 1 332 0 discriminator 2
 994 0554 A8FB0137 		umull	r3, r7, r8, r1
 995              		.loc 1 86 0 discriminator 2
 996 0558 431C     		adds	r3, r0, #1
 997              		.loc 1 332 0 discriminator 2
 998 055a FA08     		lsrs	r2, r7, #3
 999              		.loc 1 330 0 discriminator 2
 1000 055c 7345     		cmp	r3, lr
 1001              		.loc 1 331 0 discriminator 2
 1002 055e 01FB09B6 		mla	r6, r1, r9, fp
 1003              		.loc 1 330 0 discriminator 2
 1004 0562 ECD1     		bne	.L71
 1005              	.L70:
 1006              	.LVL83:
 1007              		.loc 1 330 0 is_stmt 0 discriminator 1
 1008 0564 0023     		movs	r3, #0
 1009              		.loc 1 335 0 is_stmt 1 discriminator 1
 1010 0566 1946     		mov	r1, r3
 1011              	.LVL84:
 1012              	.L72:
 1013              		.loc 1 334 0 discriminator 2
 1014 0568 5F1C     		adds	r7, r3, #1
 1015 056a FAB2     		uxtb	r2, r7
 1016 056c 501C     		adds	r0, r2, #1
 1017              		.loc 1 335 0 discriminator 2
 1018 056e 0AF80310 		strb	r1, [sl, r3]
 1019              	.LVL85:
 1020              		.loc 1 334 0 discriminator 2
 1021 0572 C3B2     		uxtb	r3, r0
 1022              	.LVL86:
 1023 0574 802B     		cmp	r3, #128
 1024              		.loc 1 335 0 discriminator 2
 1025 0576 0AF80210 		strb	r1, [sl, r2]
 1026              		.loc 1 334 0 discriminator 2
ARM GAS  /tmp/ccOuzkN6.s 			page 19


 1027 057a F5D1     		bne	.L72
 1028              		.loc 1 336 0
 1029 057c 3246     		mov	r2, r6
 1030 057e 3448     		ldr	r0, .L130+4
 1031 0580 3449     		ldr	r1, .L130+8
 1032 0582 FFF7FEFF 		bl	chprintf
 1033              	.LVL87:
 1034              		.loc 1 337 0
 1035 0586 0020     		movs	r0, #0
 1036 0588 3246     		mov	r2, r6
 1037 058a 3049     		ldr	r1, .L130
 1038 058c FFF7FEFF 		bl	flashReadBytes
 1039              		.loc 1 338 0
 1040 0590 2E49     		ldr	r1, .L130
 1041 0592 3148     		ldr	r0, .L130+12
 1042 0594 3246     		mov	r2, r6
 1043 0596 4FF0FF33 		mov	r3, #-1
 1044 059a FFF7FEFF 		bl	chOQWriteTimeout
 1045              	.LVL88:
 1046              		.loc 1 339 0
 1047 059e 4FF00009 		mov	r9, #0
 1048              		.loc 1 340 0
 1049 05a2 FFF7FEFF 		bl	showMenu
 1050 05a6 41E5     		b	.L10
 1051              	.LVL89:
 1052              	.L123:
 1053              	.LBE31:
 1054              	.LBB32:
 1055              	.LBB24:
 1056              	.LBB25:
 1057              		.loc 1 34 0
 1058 05a8 2948     		ldr	r0, .L130+4
 1059 05aa 2C49     		ldr	r1, .L130+16
 1060 05ac 8022     		movs	r2, #128
 1061 05ae FFF7FEFF 		bl	chprintf
 1062              	.LVL90:
 1063              		.loc 1 35 0
 1064 05b2 2748     		ldr	r0, .L130+4
 1065 05b4 2A49     		ldr	r1, .L130+20
 1066              		.loc 1 201 0
 1067 05b6 4D46     		mov	r5, r9
 1068              		.loc 1 35 0
 1069 05b8 FFF7FEFF 		bl	chprintf
 1070              		.loc 1 209 0
 1071 05bc 4FF00409 		mov	r9, #4
 1072 05c0 34E5     		b	.L10
 1073              	.LVL91:
 1074              	.L36:
 1075              	.LBE25:
 1076              	.LBE24:
 1077              	.LBE32:
 1078              	.LBB33:
 1079              		.loc 1 237 0
 1080 05c2 402B     		cmp	r3, #64
 1081 05c4 23D9     		bls	.L38
 1082              		.loc 1 238 0
 1083 05c6 313B     		subs	r3, r3, #49
ARM GAS  /tmp/ccOuzkN6.s 			page 20


 1084              	.LVL92:
 1085 05c8 57E7     		b	.L37
 1086              	.LVL93:
 1087              	.L33:
 1088              		.loc 1 236 0
 1089 05ca A3F15102 		sub	r2, r3, #81
 1090              	.LVL94:
 1091 05ce 4CE7     		b	.L35
 1092              	.LVL95:
 1093              	.L30:
 1094 05d0 A3F15102 		sub	r2, r3, #81
 1095              	.LVL96:
 1096 05d4 3CE7     		b	.L32
 1097              	.LVL97:
 1098              	.L27:
 1099 05d6 A3F15102 		sub	r2, r3, #81
 1100              	.LVL98:
 1101 05da 2CE7     		b	.L29
 1102              	.LVL99:
 1103              	.L24:
 1104 05dc A3F15102 		sub	r2, r3, #81
 1105              	.LVL100:
 1106 05e0 1CE7     		b	.L26
 1107              	.LVL101:
 1108              	.L21:
 1109 05e2 A3F15102 		sub	r2, r3, #81
 1110              	.LVL102:
 1111 05e6 0DE7     		b	.L23
 1112              	.LVL103:
 1113              	.L56:
 1114              	.LBE33:
 1115              	.LBB34:
 1116              		.loc 1 267 0
 1117 05e8 402B     		cmp	r3, #64
 1118 05ea 12D9     		bls	.L58
 1119              		.loc 1 268 0
 1120 05ec 313B     		subs	r3, r3, #49
 1121              	.LVL104:
 1122 05ee F5E5     		b	.L57
 1123              	.LVL105:
 1124              	.L53:
 1125              		.loc 1 266 0
 1126 05f0 A3F15102 		sub	r2, r3, #81
 1127              	.LVL106:
 1128 05f4 EAE5     		b	.L55
 1129              	.LVL107:
 1130              	.L50:
 1131 05f6 A3F15102 		sub	r2, r3, #81
 1132              	.LVL108:
 1133 05fa DAE5     		b	.L52
 1134              	.LVL109:
 1135              	.L47:
 1136 05fc A3F15102 		sub	r2, r3, #81
 1137              	.LVL110:
 1138 0600 CAE5     		b	.L49
 1139              	.LVL111:
 1140              	.L44:
ARM GAS  /tmp/ccOuzkN6.s 			page 21


 1141 0602 A3F15102 		sub	r2, r3, #81
 1142              	.LVL112:
 1143 0606 BAE5     		b	.L46
 1144              	.LVL113:
 1145              	.L41:
 1146 0608 A3F15102 		sub	r2, r3, #81
 1147              	.LVL114:
 1148 060c ABE5     		b	.L43
 1149              	.LVL115:
 1150              	.L38:
 1151              	.LBE34:
 1152              	.LBB35:
 1153              		.loc 1 240 0
 1154 060e 303B     		subs	r3, r3, #48
 1155              	.LVL116:
 1156 0610 33E7     		b	.L37
 1157              	.LVL117:
 1158              	.L58:
 1159              	.LBE35:
 1160              	.LBB36:
 1161              		.loc 1 270 0
 1162 0612 303B     		subs	r3, r3, #48
 1163              	.LVL118:
 1164 0614 E2E5     		b	.L57
 1165              	.LVL119:
 1166              	.L81:
 1167              	.LBE36:
 1168              	.LBB37:
 1169              		.loc 1 327 0
 1170 0616 0121     		movs	r1, #1
 1171              	.LVL120:
 1172              		.loc 1 330 0
 1173 0618 002D     		cmp	r5, #0
 1174 061a 7FF473AF 		bne	.L125
 1175              	.L82:
 1176 061e 2E46     		mov	r6, r5
 1177 0620 A0E7     		b	.L70
 1178              	.LVL121:
 1179              	.L63:
 1180              	.LBE37:
 1181              	.LBB38:
 1182              		.loc 1 300 0
 1183 0622 2A46     		mov	r2, r5
 1184 0624 0A48     		ldr	r0, .L130+4
 1185 0626 0F49     		ldr	r1, .L130+24
 1186              	.LVL122:
 1187 0628 FFF7FEFF 		bl	chprintf
 1188              		.loc 1 301 0
 1189 062c 0E49     		ldr	r1, .L130+28
 1190 062e 0848     		ldr	r0, .L130+4
 1191 0630 FFF7FEFF 		bl	chprintf
 1192              		.loc 1 302 0
 1193 0634 2846     		mov	r0, r5
 1194 0636 2021     		movs	r1, #32
 1195 0638 0122     		movs	r2, #1
 1196 063a FFF7FEFF 		bl	flashErase
 1197              		.loc 1 303 0
ARM GAS  /tmp/ccOuzkN6.s 			page 22


 1198 063e 0448     		ldr	r0, .L130+4
 1199 0640 0A49     		ldr	r1, .L130+32
 1200 0642 2A46     		mov	r2, r5
 1201 0644 FFF7FEFF 		bl	chprintf
 1202 0648 A946     		mov	r9, r5
 1203 064a 99E6     		b	.L65
 1204              	.L131:
 1205              		.align	2
 1206              	.L130:
 1207 064c 00000000 		.word	.LANCHOR0
 1208 0650 00000000 		.word	SD3
 1209 0654 C0010000 		.word	.LC16
 1210 0658 30000000 		.word	SD3+48
 1211 065c E0000000 		.word	.LC8
 1212 0660 C0000000 		.word	.LC6
 1213 0664 78010000 		.word	.LC13
 1214 0668 88010000 		.word	.LC14
 1215 066c 9C010000 		.word	.LC15
 1216              	.LBE38:
 1217              		.cfi_endproc
 1218              	.LFE122:
 1219              		.size	UART_Thread, .-UART_Thread
 1220              		.section	.bss.input_buffer,"aw",%nobits
 1221              		.align	2
 1222              		.set	.LANCHOR0,. + 0
 1223              		.type	input_buffer, %object
 1224              		.size	input_buffer, 128
 1225              	input_buffer:
 1226 0000 00000000 		.space	128
 1226      00000000 
 1226      00000000 
 1226      00000000 
 1226      00000000 
 1227              		.section	.rodata.str1.4,"aMS",%progbits,1
 1228              		.align	2
 1229              	.LC0:
 1230 0000 0D0A4465 		.ascii	"\015\012Development Menu\015\012\000"
 1230      76656C6F 
 1230      706D656E 
 1230      74204D65 
 1230      6E750D0A 
 1231 0015 000000   		.space	3
 1232              	.LC1:
 1233 0018 28312920 		.ascii	"(1) Write Byte to SPI Flash\015\012\000"
 1233      57726974 
 1233      65204279 
 1233      74652074 
 1233      6F205350 
 1234 0036 0000     		.space	2
 1235              	.LC2:
 1236 0038 28322920 		.ascii	"(2) Read Byte from SPI Flash\015\012\000"
 1236      52656164 
 1236      20427974 
 1236      65206672 
 1236      6F6D2053 
 1237 0057 00       		.space	1
 1238              	.LC3:
ARM GAS  /tmp/ccOuzkN6.s 			page 23


 1239 0058 28332920 		.ascii	"(3) Write Bytes to SPI Flash\015\012\000"
 1239      57726974 
 1239      65204279 
 1239      74657320 
 1239      746F2053 
 1240 0077 00       		.space	1
 1241              	.LC4:
 1242 0078 28342920 		.ascii	"(4) Read Bytes from SPI Flash\015\012\000"
 1242      52656164 
 1242      20427974 
 1242      65732066 
 1242      726F6D20 
 1243              	.LC5:
 1244 0098 0D0A3C48 		.ascii	"\015\012<Hex Address> <Hex Byte>: 00100F Z\015\012\000"
 1244      65782041 
 1244      64647265 
 1244      73733E20 
 1244      3C486578 
 1245 00bf 00       		.space	1
 1246              	.LC6:
 1247 00c0 203A3E00 		.ascii	" :>\000"
 1248              	.LC7:
 1249 00c4 0D0A3C48 		.ascii	"\015\012<Hex Address>: 00100F\015\012\000"
 1249      65782041 
 1249      64647265 
 1249      73733E3A 
 1249      20303031 
 1250 00de 0000     		.space	2
 1251              	.LC8:
 1252 00e0 0D0A5374 		.ascii	"\015\012Startng at 0x000000, enter number of bytes "
 1252      6172746E 
 1252      67206174 
 1252      20307830 
 1252      30303030 
 1253 010d 286D6178 		.ascii	"(max %d):\015\012\000"
 1253      20256429 
 1253      3A0D0A00 
 1254 0119 000000   		.space	3
 1255              	.LC9:
 1256 011c 0D0A5265 		.ascii	"\015\012Reading from 0x000000, enter number of byte"
 1256      6164696E 
 1256      67206672 
 1256      6F6D2030 
 1256      78303030 
 1257 0149 733A0D0A 		.ascii	"s:\015\012\000"
 1257      00
 1258 014e 0000     		.space	2
 1259              	.LC10:
 1260 0150 0D0A4465 		.ascii	"\015\012Destination: \000"
 1260      7374696E 
 1260      6174696F 
 1260      6E3A2000 
 1261              	.LC11:
 1262 0160 0D0A4461 		.ascii	"\015\012Data: \000"
 1262      74613A20 
 1262      00
 1263 0169 000000   		.space	3
ARM GAS  /tmp/ccOuzkN6.s 			page 24


 1264              	.LC12:
 1265 016c 0D0A5461 		.ascii	"\015\012Target: \000"
 1265      72676574 
 1265      3A2000
 1266 0177 00       		.space	1
 1267              	.LC13:
 1268 0178 0D0A4E75 		.ascii	"\015\012Num Bytes: %d\000"
 1268      6D204279 
 1268      7465733A 
 1268      20256400 
 1269              	.LC14:
 1270 0188 0D0A4572 		.ascii	"\015\012Erasing Flash\015\012\000"
 1270      6173696E 
 1270      6720466C 
 1270      6173680D 
 1270      0A00
 1271 019a 0000     		.space	2
 1272              	.LC15:
 1273 019c 0D0A4572 		.ascii	"\015\012Erasing Done, Transfer %d bytes\015\012\000"
 1273      6173696E 
 1273      6720446F 
 1273      6E652C20 
 1273      5472616E 
 1274              	.LC16:
 1275 01c0 0D0A4E75 		.ascii	"\015\012Num Bytes: %d\015\012\000"
 1275      6D204279 
 1275      7465733A 
 1275      2025640D 
 1275      0A00
 1276 01d2 0000     		.text
 1277              	.Letext0:
 1278              		.file 2 "/usr/bin/../lib/gcc/arm-none-eabi/4.6.2/include/stddef.h"
 1279              		.file 3 "/usr/bin/../lib/gcc/arm-none-eabi/4.6.2/../../../../arm-none-eabi/include/stdint.h"
 1280              		.file 4 "./os/ports/GCC/ARMCMx/chtypes.h"
 1281              		.file 5 "./os/kernel/include/chlists.h"
 1282              		.file 6 "./os/kernel/include/chthreads.h"
 1283              		.file 7 "./os/ports/GCC/ARMCMx/chcore_v7m.h"
 1284              		.file 8 "./os/kernel/include/chmtx.h"
 1285              		.file 9 "./os/kernel/include/chevents.h"
 1286              		.file 10 "./os/kernel/include/chqueues.h"
 1287              		.file 11 "./os/kernel/include/chioch.h"
 1288              		.file 12 "./os/hal/platforms/STM32F4xx/stm32f4xx.h"
 1289              		.file 13 "./os/hal/platforms/STM32/GPIOv2/pal_lld.h"
 1290              		.file 14 "./os/hal/include/serial.h"
 1291              		.file 15 "./os/ports/common/ARMCMx/CMSIS/include/core_cm4.h"
 1292              		.file 16 "./os/hal/platforms/STM32/serial_lld.h"
 1293              		.section	.debug_info,"",%progbits
 1294              	.Ldebug_info0:
 1295 0000 B00C0000 		.4byte	0xcb0
 1296 0004 0200     		.2byte	0x2
 1297 0006 00000000 		.4byte	.Ldebug_abbrev0
 1298 000a 04       		.byte	0x4
 1299 000b 01       		.uleb128 0x1
 1300 000c 1F010000 		.4byte	.LASF137
 1301 0010 01       		.byte	0x1
 1302 0011 EE040000 		.4byte	.LASF138
 1303 0015 90010000 		.4byte	.LASF139
ARM GAS  /tmp/ccOuzkN6.s 			page 25


 1304 0019 00000000 		.4byte	0
 1305 001d 00000000 		.4byte	0
 1306 0021 A8000000 		.4byte	.Ldebug_ranges0+0xa8
 1307 0025 00000000 		.4byte	.Ldebug_line0
 1308 0029 02       		.uleb128 0x2
 1309 002a 04       		.byte	0x4
 1310 002b 05       		.byte	0x5
 1311 002c 696E7400 		.ascii	"int\000"
 1312 0030 03       		.uleb128 0x3
 1313 0031 00000000 		.4byte	.LASF2
 1314 0035 02       		.byte	0x2
 1315 0036 D4       		.byte	0xd4
 1316 0037 3B000000 		.4byte	0x3b
 1317 003b 04       		.uleb128 0x4
 1318 003c 04       		.byte	0x4
 1319 003d 07       		.byte	0x7
 1320 003e 0F020000 		.4byte	.LASF0
 1321 0042 04       		.uleb128 0x4
 1322 0043 01       		.byte	0x1
 1323 0044 06       		.byte	0x6
 1324 0045 D5000000 		.4byte	.LASF1
 1325 0049 03       		.uleb128 0x3
 1326 004a 78050000 		.4byte	.LASF3
 1327 004e 03       		.byte	0x3
 1328 004f 2A       		.byte	0x2a
 1329 0050 54000000 		.4byte	0x54
 1330 0054 04       		.uleb128 0x4
 1331 0055 01       		.byte	0x1
 1332 0056 08       		.byte	0x8
 1333 0057 F2030000 		.4byte	.LASF4
 1334 005b 04       		.uleb128 0x4
 1335 005c 02       		.byte	0x2
 1336 005d 05       		.byte	0x5
 1337 005e 1E040000 		.4byte	.LASF5
 1338 0062 03       		.uleb128 0x3
 1339 0063 1C020000 		.4byte	.LASF6
 1340 0067 03       		.byte	0x3
 1341 0068 36       		.byte	0x36
 1342 0069 6D000000 		.4byte	0x6d
 1343 006d 04       		.uleb128 0x4
 1344 006e 02       		.byte	0x2
 1345 006f 07       		.byte	0x7
 1346 0070 74020000 		.4byte	.LASF7
 1347 0074 03       		.uleb128 0x3
 1348 0075 EA030000 		.4byte	.LASF8
 1349 0079 03       		.byte	0x3
 1350 007a 4F       		.byte	0x4f
 1351 007b 7F000000 		.4byte	0x7f
 1352 007f 04       		.uleb128 0x4
 1353 0080 04       		.byte	0x4
 1354 0081 05       		.byte	0x5
 1355 0082 16010000 		.4byte	.LASF9
 1356 0086 03       		.uleb128 0x3
 1357 0087 4B050000 		.4byte	.LASF10
 1358 008b 03       		.byte	0x3
 1359 008c 50       		.byte	0x50
 1360 008d 91000000 		.4byte	0x91
ARM GAS  /tmp/ccOuzkN6.s 			page 26


 1361 0091 04       		.uleb128 0x4
 1362 0092 04       		.byte	0x4
 1363 0093 07       		.byte	0x7
 1364 0094 CD040000 		.4byte	.LASF11
 1365 0098 04       		.uleb128 0x4
 1366 0099 08       		.byte	0x8
 1367 009a 05       		.byte	0x5
 1368 009b C7000000 		.4byte	.LASF12
 1369 009f 04       		.uleb128 0x4
 1370 00a0 08       		.byte	0x8
 1371 00a1 07       		.byte	0x7
 1372 00a2 48000000 		.4byte	.LASF13
 1373 00a6 03       		.uleb128 0x3
 1374 00a7 3A000000 		.4byte	.LASF14
 1375 00ab 03       		.byte	0x3
 1376 00ac A6       		.byte	0xa6
 1377 00ad 3B000000 		.4byte	0x3b
 1378 00b1 03       		.uleb128 0x3
 1379 00b2 F3000000 		.4byte	.LASF15
 1380 00b6 04       		.byte	0x4
 1381 00b7 2E       		.byte	0x2e
 1382 00b8 74000000 		.4byte	0x74
 1383 00bc 03       		.uleb128 0x3
 1384 00bd B6020000 		.4byte	.LASF16
 1385 00c1 04       		.byte	0x4
 1386 00c2 2F       		.byte	0x2f
 1387 00c3 49000000 		.4byte	0x49
 1388 00c7 03       		.uleb128 0x3
 1389 00c8 68010000 		.4byte	.LASF17
 1390 00cc 04       		.byte	0x4
 1391 00cd 30       		.byte	0x30
 1392 00ce 49000000 		.4byte	0x49
 1393 00d2 03       		.uleb128 0x3
 1394 00d3 8F030000 		.4byte	.LASF18
 1395 00d7 04       		.byte	0x4
 1396 00d8 31       		.byte	0x31
 1397 00d9 49000000 		.4byte	0x49
 1398 00dd 03       		.uleb128 0x3
 1399 00de DA030000 		.4byte	.LASF19
 1400 00e2 04       		.byte	0x4
 1401 00e3 32       		.byte	0x32
 1402 00e4 86000000 		.4byte	0x86
 1403 00e8 03       		.uleb128 0x3
 1404 00e9 87020000 		.4byte	.LASF20
 1405 00ed 04       		.byte	0x4
 1406 00ee 33       		.byte	0x33
 1407 00ef 74000000 		.4byte	0x74
 1408 00f3 03       		.uleb128 0x3
 1409 00f4 CA020000 		.4byte	.LASF21
 1410 00f8 04       		.byte	0x4
 1411 00f9 35       		.byte	0x35
 1412 00fa 86000000 		.4byte	0x86
 1413 00fe 03       		.uleb128 0x3
 1414 00ff 0F050000 		.4byte	.LASF22
 1415 0103 04       		.byte	0x4
 1416 0104 36       		.byte	0x36
 1417 0105 86000000 		.4byte	0x86
ARM GAS  /tmp/ccOuzkN6.s 			page 27


 1418 0109 03       		.uleb128 0x3
 1419 010a 69040000 		.4byte	.LASF23
 1420 010e 05       		.byte	0x5
 1421 010f 2A       		.byte	0x2a
 1422 0110 14010000 		.4byte	0x114
 1423 0114 05       		.uleb128 0x5
 1424 0115 69040000 		.4byte	.LASF23
 1425 0119 48       		.byte	0x48
 1426 011a 06       		.byte	0x6
 1427 011b 5E       		.byte	0x5e
 1428 011c 2B020000 		.4byte	0x22b
 1429 0120 06       		.uleb128 0x6
 1430 0121 4A040000 		.4byte	.LASF24
 1431 0125 06       		.byte	0x6
 1432 0126 5F       		.byte	0x5f
 1433 0127 50020000 		.4byte	0x250
 1434 012b 02       		.byte	0x2
 1435 012c 23       		.byte	0x23
 1436 012d 00       		.uleb128 0
 1437 012e 06       		.uleb128 0x6
 1438 012f C9030000 		.4byte	.LASF25
 1439 0133 06       		.byte	0x6
 1440 0134 61       		.byte	0x61
 1441 0135 50020000 		.4byte	0x250
 1442 0139 02       		.byte	0x2
 1443 013a 23       		.byte	0x23
 1444 013b 04       		.uleb128 0x4
 1445 013c 06       		.uleb128 0x6
 1446 013d A4000000 		.4byte	.LASF26
 1447 0141 06       		.byte	0x6
 1448 0142 63       		.byte	0x63
 1449 0143 DD000000 		.4byte	0xdd
 1450 0147 02       		.byte	0x2
 1451 0148 23       		.byte	0x23
 1452 0149 08       		.uleb128 0x8
 1453 014a 06       		.uleb128 0x6
 1454 014b CA050000 		.4byte	.LASF27
 1455 014f 06       		.byte	0x6
 1456 0150 64       		.byte	0x64
 1457 0151 1D030000 		.4byte	0x31d
 1458 0155 02       		.byte	0x2
 1459 0156 23       		.byte	0x23
 1460 0157 0C       		.uleb128 0xc
 1461 0158 06       		.uleb128 0x6
 1462 0159 C7010000 		.4byte	.LASF28
 1463 015d 06       		.byte	0x6
 1464 015e 66       		.byte	0x66
 1465 015f 50020000 		.4byte	0x250
 1466 0163 02       		.byte	0x2
 1467 0164 23       		.byte	0x23
 1468 0165 10       		.uleb128 0x10
 1469 0166 06       		.uleb128 0x6
 1470 0167 4D030000 		.4byte	.LASF29
 1471 016b 06       		.byte	0x6
 1472 016c 67       		.byte	0x67
 1473 016d 50020000 		.4byte	0x250
 1474 0171 02       		.byte	0x2
ARM GAS  /tmp/ccOuzkN6.s 			page 28


 1475 0172 23       		.byte	0x23
 1476 0173 14       		.uleb128 0x14
 1477 0174 06       		.uleb128 0x6
 1478 0175 5A050000 		.4byte	.LASF30
 1479 0179 06       		.byte	0x6
 1480 017a 6E       		.byte	0x6e
 1481 017b 35040000 		.4byte	0x435
 1482 017f 02       		.byte	0x2
 1483 0180 23       		.byte	0x23
 1484 0181 18       		.uleb128 0x18
 1485 0182 06       		.uleb128 0x6
 1486 0183 0C040000 		.4byte	.LASF31
 1487 0187 06       		.byte	0x6
 1488 0188 79       		.byte	0x79
 1489 0189 C7000000 		.4byte	0xc7
 1490 018d 02       		.byte	0x2
 1491 018e 23       		.byte	0x23
 1492 018f 1C       		.uleb128 0x1c
 1493 0190 06       		.uleb128 0x6
 1494 0191 51040000 		.4byte	.LASF32
 1495 0195 06       		.byte	0x6
 1496 0196 7D       		.byte	0x7d
 1497 0197 BC000000 		.4byte	0xbc
 1498 019b 02       		.byte	0x2
 1499 019c 23       		.byte	0x23
 1500 019d 1D       		.uleb128 0x1d
 1501 019e 06       		.uleb128 0x6
 1502 019f 71010000 		.4byte	.LASF33
 1503 01a3 06       		.byte	0x6
 1504 01a4 82       		.byte	0x82
 1505 01a5 D2000000 		.4byte	0xd2
 1506 01a9 02       		.byte	0x2
 1507 01aa 23       		.byte	0x23
 1508 01ab 1E       		.uleb128 0x1e
 1509 01ac 06       		.uleb128 0x6
 1510 01ad 89010000 		.4byte	.LASF34
 1511 01b1 06       		.byte	0x6
 1512 01b2 89       		.byte	0x89
 1513 01b3 45030000 		.4byte	0x345
 1514 01b7 02       		.byte	0x2
 1515 01b8 23       		.byte	0x23
 1516 01b9 20       		.uleb128 0x20
 1517 01ba 07       		.uleb128 0x7
 1518 01bb 705F7500 		.ascii	"p_u\000"
 1519 01bf 06       		.byte	0x6
 1520 01c0 AE       		.byte	0xae
 1521 01c1 00040000 		.4byte	0x400
 1522 01c5 02       		.byte	0x2
 1523 01c6 23       		.byte	0x23
 1524 01c7 24       		.uleb128 0x24
 1525 01c8 06       		.uleb128 0x6
 1526 01c9 D0050000 		.4byte	.LASF35
 1527 01cd 06       		.byte	0x6
 1528 01ce B3       		.byte	0xb3
 1529 01cf 78020000 		.4byte	0x278
 1530 01d3 02       		.byte	0x2
 1531 01d4 23       		.byte	0x23
ARM GAS  /tmp/ccOuzkN6.s 			page 29


 1532 01d5 28       		.uleb128 0x28
 1533 01d6 06       		.uleb128 0x6
 1534 01d7 3C020000 		.4byte	.LASF36
 1535 01db 06       		.byte	0x6
 1536 01dc B9       		.byte	0xb9
 1537 01dd 56020000 		.4byte	0x256
 1538 01e1 02       		.byte	0x2
 1539 01e2 23       		.byte	0x23
 1540 01e3 2C       		.uleb128 0x2c
 1541 01e4 06       		.uleb128 0x6
 1542 01e5 35050000 		.4byte	.LASF37
 1543 01e9 06       		.byte	0x6
 1544 01ea BD       		.byte	0xbd
 1545 01eb E8000000 		.4byte	0xe8
 1546 01ef 02       		.byte	0x2
 1547 01f0 23       		.byte	0x23
 1548 01f1 34       		.uleb128 0x34
 1549 01f2 06       		.uleb128 0x6
 1550 01f3 35030000 		.4byte	.LASF38
 1551 01f7 06       		.byte	0x6
 1552 01f8 C3       		.byte	0xc3
 1553 01f9 F3000000 		.4byte	0xf3
 1554 01fd 02       		.byte	0x2
 1555 01fe 23       		.byte	0x23
 1556 01ff 38       		.uleb128 0x38
 1557 0200 06       		.uleb128 0x6
 1558 0201 14040000 		.4byte	.LASF39
 1559 0205 06       		.byte	0x6
 1560 0206 CA       		.byte	0xca
 1561 0207 47040000 		.4byte	0x447
 1562 020b 02       		.byte	0x2
 1563 020c 23       		.byte	0x23
 1564 020d 3C       		.uleb128 0x3c
 1565 020e 06       		.uleb128 0x6
 1566 020f 19050000 		.4byte	.LASF40
 1567 0213 06       		.byte	0x6
 1568 0214 CE       		.byte	0xce
 1569 0215 DD000000 		.4byte	0xdd
 1570 0219 02       		.byte	0x2
 1571 021a 23       		.byte	0x23
 1572 021b 40       		.uleb128 0x40
 1573 021c 06       		.uleb128 0x6
 1574 021d EB000000 		.4byte	.LASF41
 1575 0221 06       		.byte	0x6
 1576 0222 D4       		.byte	0xd4
 1577 0223 8E020000 		.4byte	0x28e
 1578 0227 02       		.byte	0x2
 1579 0228 23       		.byte	0x23
 1580 0229 44       		.uleb128 0x44
 1581 022a 00       		.byte	0
 1582 022b 08       		.uleb128 0x8
 1583 022c 08       		.byte	0x8
 1584 022d 05       		.byte	0x5
 1585 022e 61       		.byte	0x61
 1586 022f 50020000 		.4byte	0x250
 1587 0233 06       		.uleb128 0x6
 1588 0234 4A040000 		.4byte	.LASF24
ARM GAS  /tmp/ccOuzkN6.s 			page 30


 1589 0238 05       		.byte	0x5
 1590 0239 62       		.byte	0x62
 1591 023a 50020000 		.4byte	0x250
 1592 023e 02       		.byte	0x2
 1593 023f 23       		.byte	0x23
 1594 0240 00       		.uleb128 0
 1595 0241 06       		.uleb128 0x6
 1596 0242 C9030000 		.4byte	.LASF25
 1597 0246 05       		.byte	0x5
 1598 0247 64       		.byte	0x64
 1599 0248 50020000 		.4byte	0x250
 1600 024c 02       		.byte	0x2
 1601 024d 23       		.byte	0x23
 1602 024e 04       		.uleb128 0x4
 1603 024f 00       		.byte	0
 1604 0250 09       		.uleb128 0x9
 1605 0251 04       		.byte	0x4
 1606 0252 09010000 		.4byte	0x109
 1607 0256 03       		.uleb128 0x3
 1608 0257 5F030000 		.4byte	.LASF42
 1609 025b 05       		.byte	0x5
 1610 025c 66       		.byte	0x66
 1611 025d 2B020000 		.4byte	0x22b
 1612 0261 08       		.uleb128 0x8
 1613 0262 04       		.byte	0x4
 1614 0263 05       		.byte	0x5
 1615 0264 6B       		.byte	0x6b
 1616 0265 78020000 		.4byte	0x278
 1617 0269 06       		.uleb128 0x6
 1618 026a 4A040000 		.4byte	.LASF24
 1619 026e 05       		.byte	0x5
 1620 026f 6D       		.byte	0x6d
 1621 0270 50020000 		.4byte	0x250
 1622 0274 02       		.byte	0x2
 1623 0275 23       		.byte	0x23
 1624 0276 00       		.uleb128 0
 1625 0277 00       		.byte	0
 1626 0278 03       		.uleb128 0x3
 1627 0279 BE020000 		.4byte	.LASF43
 1628 027d 05       		.byte	0x5
 1629 027e 70       		.byte	0x70
 1630 027f 61020000 		.4byte	0x261
 1631 0283 03       		.uleb128 0x3
 1632 0284 E5010000 		.4byte	.LASF44
 1633 0288 07       		.byte	0x7
 1634 0289 D7       		.byte	0xd7
 1635 028a 8E020000 		.4byte	0x28e
 1636 028e 0A       		.uleb128 0xa
 1637 028f 04       		.byte	0x4
 1638 0290 05       		.uleb128 0x5
 1639 0291 3B050000 		.4byte	.LASF45
 1640 0295 24       		.byte	0x24
 1641 0296 07       		.byte	0x7
 1642 0297 FE       		.byte	0xfe
 1643 0298 1D030000 		.4byte	0x31d
 1644 029c 0B       		.uleb128 0xb
 1645 029d 723400   		.ascii	"r4\000"
ARM GAS  /tmp/ccOuzkN6.s 			page 31


 1646 02a0 07       		.byte	0x7
 1647 02a1 1101     		.2byte	0x111
 1648 02a3 83020000 		.4byte	0x283
 1649 02a7 02       		.byte	0x2
 1650 02a8 23       		.byte	0x23
 1651 02a9 00       		.uleb128 0
 1652 02aa 0B       		.uleb128 0xb
 1653 02ab 723500   		.ascii	"r5\000"
 1654 02ae 07       		.byte	0x7
 1655 02af 1201     		.2byte	0x112
 1656 02b1 83020000 		.4byte	0x283
 1657 02b5 02       		.byte	0x2
 1658 02b6 23       		.byte	0x23
 1659 02b7 04       		.uleb128 0x4
 1660 02b8 0B       		.uleb128 0xb
 1661 02b9 723600   		.ascii	"r6\000"
 1662 02bc 07       		.byte	0x7
 1663 02bd 1301     		.2byte	0x113
 1664 02bf 83020000 		.4byte	0x283
 1665 02c3 02       		.byte	0x2
 1666 02c4 23       		.byte	0x23
 1667 02c5 08       		.uleb128 0x8
 1668 02c6 0B       		.uleb128 0xb
 1669 02c7 723700   		.ascii	"r7\000"
 1670 02ca 07       		.byte	0x7
 1671 02cb 1401     		.2byte	0x114
 1672 02cd 83020000 		.4byte	0x283
 1673 02d1 02       		.byte	0x2
 1674 02d2 23       		.byte	0x23
 1675 02d3 0C       		.uleb128 0xc
 1676 02d4 0B       		.uleb128 0xb
 1677 02d5 723800   		.ascii	"r8\000"
 1678 02d8 07       		.byte	0x7
 1679 02d9 1501     		.2byte	0x115
 1680 02db 83020000 		.4byte	0x283
 1681 02df 02       		.byte	0x2
 1682 02e0 23       		.byte	0x23
 1683 02e1 10       		.uleb128 0x10
 1684 02e2 0B       		.uleb128 0xb
 1685 02e3 723900   		.ascii	"r9\000"
 1686 02e6 07       		.byte	0x7
 1687 02e7 1601     		.2byte	0x116
 1688 02e9 83020000 		.4byte	0x283
 1689 02ed 02       		.byte	0x2
 1690 02ee 23       		.byte	0x23
 1691 02ef 14       		.uleb128 0x14
 1692 02f0 0B       		.uleb128 0xb
 1693 02f1 72313000 		.ascii	"r10\000"
 1694 02f5 07       		.byte	0x7
 1695 02f6 1701     		.2byte	0x117
 1696 02f8 83020000 		.4byte	0x283
 1697 02fc 02       		.byte	0x2
 1698 02fd 23       		.byte	0x23
 1699 02fe 18       		.uleb128 0x18
 1700 02ff 0B       		.uleb128 0xb
 1701 0300 72313100 		.ascii	"r11\000"
 1702 0304 07       		.byte	0x7
ARM GAS  /tmp/ccOuzkN6.s 			page 32


 1703 0305 1801     		.2byte	0x118
 1704 0307 83020000 		.4byte	0x283
 1705 030b 02       		.byte	0x2
 1706 030c 23       		.byte	0x23
 1707 030d 1C       		.uleb128 0x1c
 1708 030e 0B       		.uleb128 0xb
 1709 030f 6C7200   		.ascii	"lr\000"
 1710 0312 07       		.byte	0x7
 1711 0313 1901     		.2byte	0x119
 1712 0315 83020000 		.4byte	0x283
 1713 0319 02       		.byte	0x2
 1714 031a 23       		.byte	0x23
 1715 031b 20       		.uleb128 0x20
 1716 031c 00       		.byte	0
 1717 031d 0C       		.uleb128 0xc
 1718 031e 2D050000 		.4byte	.LASF46
 1719 0322 04       		.byte	0x4
 1720 0323 07       		.byte	0x7
 1721 0324 2301     		.2byte	0x123
 1722 0326 3A030000 		.4byte	0x33a
 1723 032a 0B       		.uleb128 0xb
 1724 032b 72313300 		.ascii	"r13\000"
 1725 032f 07       		.byte	0x7
 1726 0330 2401     		.2byte	0x124
 1727 0332 3A030000 		.4byte	0x33a
 1728 0336 02       		.byte	0x2
 1729 0337 23       		.byte	0x23
 1730 0338 00       		.uleb128 0
 1731 0339 00       		.byte	0
 1732 033a 09       		.uleb128 0x9
 1733 033b 04       		.byte	0x4
 1734 033c 90020000 		.4byte	0x290
 1735 0340 0D       		.uleb128 0xd
 1736 0341 86000000 		.4byte	0x86
 1737 0345 0D       		.uleb128 0xd
 1738 0346 FE000000 		.4byte	0xfe
 1739 034a 05       		.uleb128 0x5
 1740 034b 22030000 		.4byte	.LASF47
 1741 034f 10       		.byte	0x10
 1742 0350 08       		.byte	0x8
 1743 0351 2C       		.byte	0x2c
 1744 0352 81030000 		.4byte	0x381
 1745 0356 06       		.uleb128 0x6
 1746 0357 FA000000 		.4byte	.LASF48
 1747 035b 08       		.byte	0x8
 1748 035c 2D       		.byte	0x2d
 1749 035d 56020000 		.4byte	0x256
 1750 0361 02       		.byte	0x2
 1751 0362 23       		.byte	0x23
 1752 0363 00       		.uleb128 0
 1753 0364 06       		.uleb128 0x6
 1754 0365 C2050000 		.4byte	.LASF49
 1755 0369 08       		.byte	0x8
 1756 036a 2F       		.byte	0x2f
 1757 036b 50020000 		.4byte	0x250
 1758 036f 02       		.byte	0x2
 1759 0370 23       		.byte	0x23
ARM GAS  /tmp/ccOuzkN6.s 			page 33


 1760 0371 08       		.uleb128 0x8
 1761 0372 06       		.uleb128 0x6
 1762 0373 08050000 		.4byte	.LASF50
 1763 0377 08       		.byte	0x8
 1764 0378 31       		.byte	0x31
 1765 0379 81030000 		.4byte	0x381
 1766 037d 02       		.byte	0x2
 1767 037e 23       		.byte	0x23
 1768 037f 0C       		.uleb128 0xc
 1769 0380 00       		.byte	0
 1770 0381 09       		.uleb128 0x9
 1771 0382 04       		.byte	0x4
 1772 0383 4A030000 		.4byte	0x34a
 1773 0387 03       		.uleb128 0x3
 1774 0388 22030000 		.4byte	.LASF47
 1775 038c 08       		.byte	0x8
 1776 038d 33       		.byte	0x33
 1777 038e 4A030000 		.4byte	0x34a
 1778 0392 03       		.uleb128 0x3
 1779 0393 92050000 		.4byte	.LASF51
 1780 0397 09       		.byte	0x9
 1781 0398 29       		.byte	0x29
 1782 0399 9D030000 		.4byte	0x39d
 1783 039d 05       		.uleb128 0x5
 1784 039e 92050000 		.4byte	.LASF51
 1785 03a2 0C       		.byte	0xc
 1786 03a3 09       		.byte	0x9
 1787 03a4 2E       		.byte	0x2e
 1788 03a5 D4030000 		.4byte	0x3d4
 1789 03a9 06       		.uleb128 0x6
 1790 03aa 59040000 		.4byte	.LASF52
 1791 03ae 09       		.byte	0x9
 1792 03af 2F       		.byte	0x2f
 1793 03b0 D4030000 		.4byte	0x3d4
 1794 03b4 02       		.byte	0x2
 1795 03b5 23       		.byte	0x23
 1796 03b6 00       		.uleb128 0
 1797 03b7 06       		.uleb128 0x6
 1798 03b8 00040000 		.4byte	.LASF53
 1799 03bc 09       		.byte	0x9
 1800 03bd 32       		.byte	0x32
 1801 03be 50020000 		.4byte	0x250
 1802 03c2 02       		.byte	0x2
 1803 03c3 23       		.byte	0x23
 1804 03c4 04       		.uleb128 0x4
 1805 03c5 06       		.uleb128 0x6
 1806 03c6 71030000 		.4byte	.LASF54
 1807 03ca 09       		.byte	0x9
 1808 03cb 34       		.byte	0x34
 1809 03cc F3000000 		.4byte	0xf3
 1810 03d0 02       		.byte	0x2
 1811 03d1 23       		.byte	0x23
 1812 03d2 08       		.uleb128 0x8
 1813 03d3 00       		.byte	0
 1814 03d4 09       		.uleb128 0x9
 1815 03d5 04       		.byte	0x4
 1816 03d6 92030000 		.4byte	0x392
ARM GAS  /tmp/ccOuzkN6.s 			page 34


 1817 03da 05       		.uleb128 0x5
 1818 03db EE010000 		.4byte	.LASF55
 1819 03df 04       		.byte	0x4
 1820 03e0 09       		.byte	0x9
 1821 03e1 3C       		.byte	0x3c
 1822 03e2 F5030000 		.4byte	0x3f5
 1823 03e6 06       		.uleb128 0x6
 1824 03e7 61050000 		.4byte	.LASF56
 1825 03eb 09       		.byte	0x9
 1826 03ec 3D       		.byte	0x3d
 1827 03ed D4030000 		.4byte	0x3d4
 1828 03f1 02       		.byte	0x2
 1829 03f2 23       		.byte	0x23
 1830 03f3 00       		.uleb128 0
 1831 03f4 00       		.byte	0
 1832 03f5 03       		.uleb128 0x3
 1833 03f6 EE010000 		.4byte	.LASF55
 1834 03fa 09       		.byte	0x9
 1835 03fb 40       		.byte	0x40
 1836 03fc DA030000 		.4byte	0x3da
 1837 0400 0E       		.uleb128 0xe
 1838 0401 04       		.byte	0x4
 1839 0402 06       		.byte	0x6
 1840 0403 90       		.byte	0x90
 1841 0404 35040000 		.4byte	0x435
 1842 0408 0F       		.uleb128 0xf
 1843 0409 07000000 		.4byte	.LASF57
 1844 040d 06       		.byte	0x6
 1845 040e 97       		.byte	0x97
 1846 040f E8000000 		.4byte	0xe8
 1847 0413 0F       		.uleb128 0xf
 1848 0414 74000000 		.4byte	.LASF58
 1849 0418 06       		.byte	0x6
 1850 0419 9E       		.byte	0x9e
 1851 041a E8000000 		.4byte	0xe8
 1852 041e 0F       		.uleb128 0xf
 1853 041f A0050000 		.4byte	.LASF59
 1854 0423 06       		.byte	0x6
 1855 0424 A5       		.byte	0xa5
 1856 0425 8E020000 		.4byte	0x28e
 1857 0429 0F       		.uleb128 0xf
 1858 042a 43040000 		.4byte	.LASF60
 1859 042e 06       		.byte	0x6
 1860 042f AC       		.byte	0xac
 1861 0430 F3000000 		.4byte	0xf3
 1862 0434 00       		.byte	0
 1863 0435 09       		.uleb128 0x9
 1864 0436 04       		.byte	0x4
 1865 0437 3B040000 		.4byte	0x43b
 1866 043b 10       		.uleb128 0x10
 1867 043c 40040000 		.4byte	0x440
 1868 0440 04       		.uleb128 0x4
 1869 0441 01       		.byte	0x1
 1870 0442 08       		.byte	0x8
 1871 0443 E4040000 		.4byte	.LASF61
 1872 0447 09       		.uleb128 0x9
 1873 0448 04       		.byte	0x4
ARM GAS  /tmp/ccOuzkN6.s 			page 35


 1874 0449 87030000 		.4byte	0x387
 1875 044d 03       		.uleb128 0x3
 1876 044e EB020000 		.4byte	.LASF62
 1877 0452 0A       		.byte	0xa
 1878 0453 37       		.byte	0x37
 1879 0454 58040000 		.4byte	0x458
 1880 0458 05       		.uleb128 0x5
 1881 0459 EB020000 		.4byte	.LASF62
 1882 045d 20       		.byte	0x20
 1883 045e 0A       		.byte	0xa
 1884 045f 45       		.byte	0x45
 1885 0460 C7040000 		.4byte	0x4c7
 1886 0464 06       		.uleb128 0x6
 1887 0465 BD000000 		.4byte	.LASF63
 1888 0469 0A       		.byte	0xa
 1889 046a 46       		.byte	0x46
 1890 046b 56020000 		.4byte	0x256
 1891 046f 02       		.byte	0x2
 1892 0470 23       		.byte	0x23
 1893 0471 00       		.uleb128 0
 1894 0472 06       		.uleb128 0x6
 1895 0473 A2040000 		.4byte	.LASF64
 1896 0477 0A       		.byte	0xa
 1897 0478 47       		.byte	0x47
 1898 0479 30000000 		.4byte	0x30
 1899 047d 02       		.byte	0x2
 1900 047e 23       		.byte	0x23
 1901 047f 08       		.uleb128 0x8
 1902 0480 06       		.uleb128 0x6
 1903 0481 78010000 		.4byte	.LASF65
 1904 0485 0A       		.byte	0xa
 1905 0486 48       		.byte	0x48
 1906 0487 EA040000 		.4byte	0x4ea
 1907 048b 02       		.byte	0x2
 1908 048c 23       		.byte	0x23
 1909 048d 0C       		.uleb128 0xc
 1910 048e 06       		.uleb128 0x6
 1911 048f 54050000 		.4byte	.LASF66
 1912 0493 0A       		.byte	0xa
 1913 0494 49       		.byte	0x49
 1914 0495 EA040000 		.4byte	0x4ea
 1915 0499 02       		.byte	0x2
 1916 049a 23       		.byte	0x23
 1917 049b 10       		.uleb128 0x10
 1918 049c 06       		.uleb128 0x6
 1919 049d 81010000 		.4byte	.LASF67
 1920 04a1 0A       		.byte	0xa
 1921 04a2 4B       		.byte	0x4b
 1922 04a3 EA040000 		.4byte	0x4ea
 1923 04a7 02       		.byte	0x2
 1924 04a8 23       		.byte	0x23
 1925 04a9 14       		.uleb128 0x14
 1926 04aa 06       		.uleb128 0x6
 1927 04ab E2030000 		.4byte	.LASF68
 1928 04af 0A       		.byte	0xa
 1929 04b0 4C       		.byte	0x4c
 1930 04b1 EA040000 		.4byte	0x4ea
ARM GAS  /tmp/ccOuzkN6.s 			page 36


 1931 04b5 02       		.byte	0x2
 1932 04b6 23       		.byte	0x23
 1933 04b7 18       		.uleb128 0x18
 1934 04b8 06       		.uleb128 0x6
 1935 04b9 69050000 		.4byte	.LASF69
 1936 04bd 0A       		.byte	0xa
 1937 04be 4D       		.byte	0x4d
 1938 04bf C7040000 		.4byte	0x4c7
 1939 04c3 02       		.byte	0x2
 1940 04c4 23       		.byte	0x23
 1941 04c5 1C       		.uleb128 0x1c
 1942 04c6 00       		.byte	0
 1943 04c7 03       		.uleb128 0x3
 1944 04c8 E1020000 		.4byte	.LASF70
 1945 04cc 0A       		.byte	0xa
 1946 04cd 3A       		.byte	0x3a
 1947 04ce D2040000 		.4byte	0x4d2
 1948 04d2 09       		.uleb128 0x9
 1949 04d3 04       		.byte	0x4
 1950 04d4 D8040000 		.4byte	0x4d8
 1951 04d8 11       		.uleb128 0x11
 1952 04d9 01       		.byte	0x1
 1953 04da E4040000 		.4byte	0x4e4
 1954 04de 12       		.uleb128 0x12
 1955 04df E4040000 		.4byte	0x4e4
 1956 04e3 00       		.byte	0
 1957 04e4 09       		.uleb128 0x9
 1958 04e5 04       		.byte	0x4
 1959 04e6 4D040000 		.4byte	0x44d
 1960 04ea 09       		.uleb128 0x9
 1961 04eb 04       		.byte	0x4
 1962 04ec 49000000 		.4byte	0x49
 1963 04f0 03       		.uleb128 0x3
 1964 04f1 D6020000 		.4byte	.LASF71
 1965 04f5 0A       		.byte	0xa
 1966 04f6 76       		.byte	0x76
 1967 04f7 4D040000 		.4byte	0x44d
 1968 04fb 03       		.uleb128 0x3
 1969 04fc 0E000000 		.4byte	.LASF72
 1970 0500 0A       		.byte	0xa
 1971 0501 E6       		.byte	0xe6
 1972 0502 4D040000 		.4byte	0x44d
 1973 0506 13       		.uleb128 0x13
 1974 0507 01       		.byte	0x1
 1975 0508 30000000 		.4byte	0x30
 1976 050c 20050000 		.4byte	0x520
 1977 0510 12       		.uleb128 0x12
 1978 0511 8E020000 		.4byte	0x28e
 1979 0515 12       		.uleb128 0x12
 1980 0516 20050000 		.4byte	0x520
 1981 051a 12       		.uleb128 0x12
 1982 051b 30000000 		.4byte	0x30
 1983 051f 00       		.byte	0
 1984 0520 09       		.uleb128 0x9
 1985 0521 04       		.byte	0x4
 1986 0522 26050000 		.4byte	0x526
 1987 0526 10       		.uleb128 0x10
ARM GAS  /tmp/ccOuzkN6.s 			page 37


 1988 0527 49000000 		.4byte	0x49
 1989 052b 09       		.uleb128 0x9
 1990 052c 04       		.byte	0x4
 1991 052d 06050000 		.4byte	0x506
 1992 0531 13       		.uleb128 0x13
 1993 0532 01       		.byte	0x1
 1994 0533 30000000 		.4byte	0x30
 1995 0537 4B050000 		.4byte	0x54b
 1996 053b 12       		.uleb128 0x12
 1997 053c 8E020000 		.4byte	0x28e
 1998 0540 12       		.uleb128 0x12
 1999 0541 EA040000 		.4byte	0x4ea
 2000 0545 12       		.uleb128 0x12
 2001 0546 30000000 		.4byte	0x30
 2002 054a 00       		.byte	0
 2003 054b 09       		.uleb128 0x9
 2004 054c 04       		.byte	0x4
 2005 054d 31050000 		.4byte	0x531
 2006 0551 05       		.uleb128 0x5
 2007 0552 5F000000 		.4byte	.LASF73
 2008 0556 20       		.byte	0x20
 2009 0557 0B       		.byte	0xb
 2010 0558 51       		.byte	0x51
 2011 0559 CE050000 		.4byte	0x5ce
 2012 055d 06       		.uleb128 0x6
 2013 055e 02030000 		.4byte	.LASF74
 2014 0562 0B       		.byte	0xb
 2015 0563 52       		.byte	0x52
 2016 0564 2B050000 		.4byte	0x52b
 2017 0568 02       		.byte	0x2
 2018 0569 23       		.byte	0x23
 2019 056a 00       		.uleb128 0
 2020 056b 06       		.uleb128 0x6
 2021 056c DF040000 		.4byte	.LASF75
 2022 0570 0B       		.byte	0xb
 2023 0571 52       		.byte	0x52
 2024 0572 4B050000 		.4byte	0x54b
 2025 0576 02       		.byte	0x2
 2026 0577 23       		.byte	0x23
 2027 0578 04       		.uleb128 0x4
 2028 0579 06       		.uleb128 0x6
 2029 057a CF010000 		.4byte	.LASF76
 2030 057e 0B       		.byte	0xb
 2031 057f 52       		.byte	0x52
 2032 0580 DE050000 		.4byte	0x5de
 2033 0584 02       		.byte	0x2
 2034 0585 23       		.byte	0x23
 2035 0586 08       		.uleb128 0x8
 2036 0587 06       		.uleb128 0x6
 2037 0588 B4050000 		.4byte	.LASF77
 2038 058c 0B       		.byte	0xb
 2039 058d 52       		.byte	0x52
 2040 058e DE050000 		.4byte	0x5de
 2041 0592 02       		.byte	0x2
 2042 0593 23       		.byte	0x23
 2043 0594 0C       		.uleb128 0xc
 2044 0595 07       		.uleb128 0x7
ARM GAS  /tmp/ccOuzkN6.s 			page 38


 2045 0596 70757400 		.ascii	"put\000"
 2046 059a 0B       		.byte	0xb
 2047 059b 52       		.byte	0x52
 2048 059c FE050000 		.4byte	0x5fe
 2049 05a0 02       		.byte	0x2
 2050 05a1 23       		.byte	0x23
 2051 05a2 10       		.uleb128 0x10
 2052 05a3 07       		.uleb128 0x7
 2053 05a4 67657400 		.ascii	"get\000"
 2054 05a8 0B       		.byte	0xb
 2055 05a9 52       		.byte	0x52
 2056 05aa 19060000 		.4byte	0x619
 2057 05ae 02       		.byte	0x2
 2058 05af 23       		.byte	0x23
 2059 05b0 14       		.uleb128 0x14
 2060 05b1 06       		.uleb128 0x6
 2061 05b2 AF020000 		.4byte	.LASF78
 2062 05b6 0B       		.byte	0xb
 2063 05b7 52       		.byte	0x52
 2064 05b8 3E060000 		.4byte	0x63e
 2065 05bc 02       		.byte	0x2
 2066 05bd 23       		.byte	0x23
 2067 05be 18       		.uleb128 0x18
 2068 05bf 06       		.uleb128 0x6
 2069 05c0 AB000000 		.4byte	.LASF79
 2070 05c4 0B       		.byte	0xb
 2071 05c5 52       		.byte	0x52
 2072 05c6 63060000 		.4byte	0x663
 2073 05ca 02       		.byte	0x2
 2074 05cb 23       		.byte	0x23
 2075 05cc 1C       		.uleb128 0x1c
 2076 05cd 00       		.byte	0
 2077 05ce 13       		.uleb128 0x13
 2078 05cf 01       		.byte	0x1
 2079 05d0 B1000000 		.4byte	0xb1
 2080 05d4 DE050000 		.4byte	0x5de
 2081 05d8 12       		.uleb128 0x12
 2082 05d9 8E020000 		.4byte	0x28e
 2083 05dd 00       		.byte	0
 2084 05de 09       		.uleb128 0x9
 2085 05df 04       		.byte	0x4
 2086 05e0 CE050000 		.4byte	0x5ce
 2087 05e4 13       		.uleb128 0x13
 2088 05e5 01       		.byte	0x1
 2089 05e6 E8000000 		.4byte	0xe8
 2090 05ea FE050000 		.4byte	0x5fe
 2091 05ee 12       		.uleb128 0x12
 2092 05ef 8E020000 		.4byte	0x28e
 2093 05f3 12       		.uleb128 0x12
 2094 05f4 49000000 		.4byte	0x49
 2095 05f8 12       		.uleb128 0x12
 2096 05f9 FE000000 		.4byte	0xfe
 2097 05fd 00       		.byte	0
 2098 05fe 09       		.uleb128 0x9
 2099 05ff 04       		.byte	0x4
 2100 0600 E4050000 		.4byte	0x5e4
 2101 0604 13       		.uleb128 0x13
ARM GAS  /tmp/ccOuzkN6.s 			page 39


 2102 0605 01       		.byte	0x1
 2103 0606 E8000000 		.4byte	0xe8
 2104 060a 19060000 		.4byte	0x619
 2105 060e 12       		.uleb128 0x12
 2106 060f 8E020000 		.4byte	0x28e
 2107 0613 12       		.uleb128 0x12
 2108 0614 FE000000 		.4byte	0xfe
 2109 0618 00       		.byte	0
 2110 0619 09       		.uleb128 0x9
 2111 061a 04       		.byte	0x4
 2112 061b 04060000 		.4byte	0x604
 2113 061f 13       		.uleb128 0x13
 2114 0620 01       		.byte	0x1
 2115 0621 30000000 		.4byte	0x30
 2116 0625 3E060000 		.4byte	0x63e
 2117 0629 12       		.uleb128 0x12
 2118 062a 8E020000 		.4byte	0x28e
 2119 062e 12       		.uleb128 0x12
 2120 062f 20050000 		.4byte	0x520
 2121 0633 12       		.uleb128 0x12
 2122 0634 30000000 		.4byte	0x30
 2123 0638 12       		.uleb128 0x12
 2124 0639 FE000000 		.4byte	0xfe
 2125 063d 00       		.byte	0
 2126 063e 09       		.uleb128 0x9
 2127 063f 04       		.byte	0x4
 2128 0640 1F060000 		.4byte	0x61f
 2129 0644 13       		.uleb128 0x13
 2130 0645 01       		.byte	0x1
 2131 0646 30000000 		.4byte	0x30
 2132 064a 63060000 		.4byte	0x663
 2133 064e 12       		.uleb128 0x12
 2134 064f 8E020000 		.4byte	0x28e
 2135 0653 12       		.uleb128 0x12
 2136 0654 EA040000 		.4byte	0x4ea
 2137 0658 12       		.uleb128 0x12
 2138 0659 30000000 		.4byte	0x30
 2139 065d 12       		.uleb128 0x12
 2140 065e FE000000 		.4byte	0xfe
 2141 0662 00       		.byte	0
 2142 0663 09       		.uleb128 0x9
 2143 0664 04       		.byte	0x4
 2144 0665 44060000 		.4byte	0x644
 2145 0669 08       		.uleb128 0x8
 2146 066a 04       		.byte	0x4
 2147 066b 0B       		.byte	0xb
 2148 066c 5C       		.byte	0x5c
 2149 066d 80060000 		.4byte	0x680
 2150 0671 07       		.uleb128 0x7
 2151 0672 766D7400 		.ascii	"vmt\000"
 2152 0676 0B       		.byte	0xb
 2153 0677 5E       		.byte	0x5e
 2154 0678 80060000 		.4byte	0x680
 2155 067c 02       		.byte	0x2
 2156 067d 23       		.byte	0x23
 2157 067e 00       		.uleb128 0
 2158 067f 00       		.byte	0
ARM GAS  /tmp/ccOuzkN6.s 			page 40


 2159 0680 09       		.uleb128 0x9
 2160 0681 04       		.byte	0x4
 2161 0682 86060000 		.4byte	0x686
 2162 0686 10       		.uleb128 0x10
 2163 0687 51050000 		.4byte	0x551
 2164 068b 03       		.uleb128 0x3
 2165 068c 80050000 		.4byte	.LASF80
 2166 0690 0B       		.byte	0xb
 2167 0691 60       		.byte	0x60
 2168 0692 69060000 		.4byte	0x669
 2169 0696 14       		.uleb128 0x14
 2170 0697 55030000 		.4byte	.LASF81
 2171 069b 0B       		.byte	0xb
 2172 069c 0B01     		.2byte	0x10b
 2173 069e A6000000 		.4byte	0xa6
 2174 06a2 13       		.uleb128 0x13
 2175 06a3 01       		.byte	0x1
 2176 06a4 96060000 		.4byte	0x696
 2177 06a8 B2060000 		.4byte	0x6b2
 2178 06ac 12       		.uleb128 0x12
 2179 06ad 8E020000 		.4byte	0x28e
 2180 06b1 00       		.byte	0
 2181 06b2 09       		.uleb128 0x9
 2182 06b3 04       		.byte	0x4
 2183 06b4 A2060000 		.4byte	0x6a2
 2184 06b8 0D       		.uleb128 0xd
 2185 06b9 62000000 		.4byte	0x62
 2186 06bd 0D       		.uleb128 0xd
 2187 06be 74000000 		.4byte	0x74
 2188 06c2 15       		.uleb128 0x15
 2189 06c3 1C       		.byte	0x1c
 2190 06c4 0C       		.byte	0xc
 2191 06c5 9303     		.2byte	0x393
 2192 06c7 9C070000 		.4byte	0x79c
 2193 06cb 0B       		.uleb128 0xb
 2194 06cc 535200   		.ascii	"SR\000"
 2195 06cf 0C       		.byte	0xc
 2196 06d0 9503     		.2byte	0x395
 2197 06d2 B8060000 		.4byte	0x6b8
 2198 06d6 02       		.byte	0x2
 2199 06d7 23       		.byte	0x23
 2200 06d8 00       		.uleb128 0
 2201 06d9 16       		.uleb128 0x16
 2202 06da 97030000 		.4byte	.LASF82
 2203 06de 0C       		.byte	0xc
 2204 06df 9603     		.2byte	0x396
 2205 06e1 62000000 		.4byte	0x62
 2206 06e5 02       		.byte	0x2
 2207 06e6 23       		.byte	0x23
 2208 06e7 02       		.uleb128 0x2
 2209 06e8 0B       		.uleb128 0xb
 2210 06e9 445200   		.ascii	"DR\000"
 2211 06ec 0C       		.byte	0xc
 2212 06ed 9703     		.2byte	0x397
 2213 06ef B8060000 		.4byte	0x6b8
 2214 06f3 02       		.byte	0x2
 2215 06f4 23       		.byte	0x23
ARM GAS  /tmp/ccOuzkN6.s 			page 41


 2216 06f5 04       		.uleb128 0x4
 2217 06f6 16       		.uleb128 0x16
 2218 06f7 A1030000 		.4byte	.LASF83
 2219 06fb 0C       		.byte	0xc
 2220 06fc 9803     		.2byte	0x398
 2221 06fe 62000000 		.4byte	0x62
 2222 0702 02       		.byte	0x2
 2223 0703 23       		.byte	0x23
 2224 0704 06       		.uleb128 0x6
 2225 0705 0B       		.uleb128 0xb
 2226 0706 42525200 		.ascii	"BRR\000"
 2227 070a 0C       		.byte	0xc
 2228 070b 9903     		.2byte	0x399
 2229 070d B8060000 		.4byte	0x6b8
 2230 0711 02       		.byte	0x2
 2231 0712 23       		.byte	0x23
 2232 0713 08       		.uleb128 0x8
 2233 0714 16       		.uleb128 0x16
 2234 0715 AB030000 		.4byte	.LASF84
 2235 0719 0C       		.byte	0xc
 2236 071a 9A03     		.2byte	0x39a
 2237 071c 62000000 		.4byte	0x62
 2238 0720 02       		.byte	0x2
 2239 0721 23       		.byte	0x23
 2240 0722 0A       		.uleb128 0xa
 2241 0723 0B       		.uleb128 0xb
 2242 0724 43523100 		.ascii	"CR1\000"
 2243 0728 0C       		.byte	0xc
 2244 0729 9B03     		.2byte	0x39b
 2245 072b B8060000 		.4byte	0x6b8
 2246 072f 02       		.byte	0x2
 2247 0730 23       		.byte	0x23
 2248 0731 0C       		.uleb128 0xc
 2249 0732 16       		.uleb128 0x16
 2250 0733 B5030000 		.4byte	.LASF85
 2251 0737 0C       		.byte	0xc
 2252 0738 9C03     		.2byte	0x39c
 2253 073a 62000000 		.4byte	0x62
 2254 073e 02       		.byte	0x2
 2255 073f 23       		.byte	0x23
 2256 0740 0E       		.uleb128 0xe
 2257 0741 0B       		.uleb128 0xb
 2258 0742 43523200 		.ascii	"CR2\000"
 2259 0746 0C       		.byte	0xc
 2260 0747 9D03     		.2byte	0x39d
 2261 0749 B8060000 		.4byte	0x6b8
 2262 074d 02       		.byte	0x2
 2263 074e 23       		.byte	0x23
 2264 074f 10       		.uleb128 0x10
 2265 0750 16       		.uleb128 0x16
 2266 0751 BF030000 		.4byte	.LASF86
 2267 0755 0C       		.byte	0xc
 2268 0756 9E03     		.2byte	0x39e
 2269 0758 62000000 		.4byte	0x62
 2270 075c 02       		.byte	0x2
 2271 075d 23       		.byte	0x23
 2272 075e 12       		.uleb128 0x12
ARM GAS  /tmp/ccOuzkN6.s 			page 42


 2273 075f 0B       		.uleb128 0xb
 2274 0760 43523300 		.ascii	"CR3\000"
 2275 0764 0C       		.byte	0xc
 2276 0765 9F03     		.2byte	0x39f
 2277 0767 B8060000 		.4byte	0x6b8
 2278 076b 02       		.byte	0x2
 2279 076c 23       		.byte	0x23
 2280 076d 14       		.uleb128 0x14
 2281 076e 16       		.uleb128 0x16
 2282 076f 88040000 		.4byte	.LASF87
 2283 0773 0C       		.byte	0xc
 2284 0774 A003     		.2byte	0x3a0
 2285 0776 62000000 		.4byte	0x62
 2286 077a 02       		.byte	0x2
 2287 077b 23       		.byte	0x23
 2288 077c 16       		.uleb128 0x16
 2289 077d 16       		.uleb128 0x16
 2290 077e E6000000 		.4byte	.LASF88
 2291 0782 0C       		.byte	0xc
 2292 0783 A103     		.2byte	0x3a1
 2293 0785 B8060000 		.4byte	0x6b8
 2294 0789 02       		.byte	0x2
 2295 078a 23       		.byte	0x23
 2296 078b 18       		.uleb128 0x18
 2297 078c 16       		.uleb128 0x16
 2298 078d D0030000 		.4byte	.LASF89
 2299 0791 0C       		.byte	0xc
 2300 0792 A203     		.2byte	0x3a2
 2301 0794 62000000 		.4byte	0x62
 2302 0798 02       		.byte	0x2
 2303 0799 23       		.byte	0x23
 2304 079a 1A       		.uleb128 0x1a
 2305 079b 00       		.byte	0
 2306 079c 14       		.uleb128 0x14
 2307 079d A1020000 		.4byte	.LASF90
 2308 07a1 0C       		.byte	0xc
 2309 07a2 A303     		.2byte	0x3a3
 2310 07a4 C2060000 		.4byte	0x6c2
 2311 07a8 08       		.uleb128 0x8
 2312 07a9 04       		.byte	0x4
 2313 07aa 0D       		.byte	0xd
 2314 07ab 9D       		.byte	0x9d
 2315 07ac CD070000 		.4byte	0x7cd
 2316 07b0 07       		.uleb128 0x7
 2317 07b1 73657400 		.ascii	"set\000"
 2318 07b5 0D       		.byte	0xd
 2319 07b6 9E       		.byte	0x9e
 2320 07b7 62000000 		.4byte	0x62
 2321 07bb 02       		.byte	0x2
 2322 07bc 23       		.byte	0x23
 2323 07bd 00       		.uleb128 0
 2324 07be 06       		.uleb128 0x6
 2325 07bf 1C030000 		.4byte	.LASF91
 2326 07c3 0D       		.byte	0xd
 2327 07c4 9F       		.byte	0x9f
 2328 07c5 62000000 		.4byte	0x62
 2329 07c9 02       		.byte	0x2
ARM GAS  /tmp/ccOuzkN6.s 			page 43


 2330 07ca 23       		.byte	0x23
 2331 07cb 02       		.uleb128 0x2
 2332 07cc 00       		.byte	0
 2333 07cd 0E       		.uleb128 0xe
 2334 07ce 04       		.byte	0x4
 2335 07cf 0D       		.byte	0xd
 2336 07d0 9B       		.byte	0x9b
 2337 07d1 E8070000 		.4byte	0x7e8
 2338 07d5 17       		.uleb128 0x17
 2339 07d6 5700     		.ascii	"W\000"
 2340 07d8 0D       		.byte	0xd
 2341 07d9 9C       		.byte	0x9c
 2342 07da 86000000 		.4byte	0x86
 2343 07de 17       		.uleb128 0x17
 2344 07df 4800     		.ascii	"H\000"
 2345 07e1 0D       		.byte	0xd
 2346 07e2 A0       		.byte	0xa0
 2347 07e3 A8070000 		.4byte	0x7a8
 2348 07e7 00       		.byte	0
 2349 07e8 08       		.uleb128 0x8
 2350 07e9 28       		.byte	0x28
 2351 07ea 0D       		.byte	0xd
 2352 07eb 93       		.byte	0x93
 2353 07ec 7D080000 		.4byte	0x87d
 2354 07f0 06       		.uleb128 0x6
 2355 07f1 34000000 		.4byte	.LASF92
 2356 07f5 0D       		.byte	0xd
 2357 07f6 95       		.byte	0x95
 2358 07f7 40030000 		.4byte	0x340
 2359 07fb 02       		.byte	0x2
 2360 07fc 23       		.byte	0x23
 2361 07fd 00       		.uleb128 0
 2362 07fe 06       		.uleb128 0x6
 2363 07ff 1A000000 		.4byte	.LASF93
 2364 0803 0D       		.byte	0xd
 2365 0804 96       		.byte	0x96
 2366 0805 40030000 		.4byte	0x340
 2367 0809 02       		.byte	0x2
 2368 080a 23       		.byte	0x23
 2369 080b 04       		.uleb128 0x4
 2370 080c 06       		.uleb128 0x6
 2371 080d DD010000 		.4byte	.LASF94
 2372 0811 0D       		.byte	0xd
 2373 0812 97       		.byte	0x97
 2374 0813 40030000 		.4byte	0x340
 2375 0817 02       		.byte	0x2
 2376 0818 23       		.byte	0x23
 2377 0819 08       		.uleb128 0x8
 2378 081a 06       		.uleb128 0x6
 2379 081b 6E000000 		.4byte	.LASF95
 2380 081f 0D       		.byte	0xd
 2381 0820 98       		.byte	0x98
 2382 0821 40030000 		.4byte	0x340
 2383 0825 02       		.byte	0x2
 2384 0826 23       		.byte	0x23
 2385 0827 0C       		.uleb128 0xc
 2386 0828 07       		.uleb128 0x7
ARM GAS  /tmp/ccOuzkN6.s 			page 44


 2387 0829 49445200 		.ascii	"IDR\000"
 2388 082d 0D       		.byte	0xd
 2389 082e 99       		.byte	0x99
 2390 082f 40030000 		.4byte	0x340
 2391 0833 02       		.byte	0x2
 2392 0834 23       		.byte	0x23
 2393 0835 10       		.uleb128 0x10
 2394 0836 07       		.uleb128 0x7
 2395 0837 4F445200 		.ascii	"ODR\000"
 2396 083b 0D       		.byte	0xd
 2397 083c 9A       		.byte	0x9a
 2398 083d 40030000 		.4byte	0x340
 2399 0841 02       		.byte	0x2
 2400 0842 23       		.byte	0x23
 2401 0843 14       		.uleb128 0x14
 2402 0844 06       		.uleb128 0x6
 2403 0845 E1000000 		.4byte	.LASF96
 2404 0849 0D       		.byte	0xd
 2405 084a A1       		.byte	0xa1
 2406 084b 7D080000 		.4byte	0x87d
 2407 084f 02       		.byte	0x2
 2408 0850 23       		.byte	0x23
 2409 0851 18       		.uleb128 0x18
 2410 0852 06       		.uleb128 0x6
 2411 0853 69020000 		.4byte	.LASF97
 2412 0857 0D       		.byte	0xd
 2413 0858 A2       		.byte	0xa2
 2414 0859 40030000 		.4byte	0x340
 2415 085d 02       		.byte	0x2
 2416 085e 23       		.byte	0x23
 2417 085f 1C       		.uleb128 0x1c
 2418 0860 06       		.uleb128 0x6
 2419 0861 7E030000 		.4byte	.LASF98
 2420 0865 0D       		.byte	0xd
 2421 0866 A3       		.byte	0xa3
 2422 0867 40030000 		.4byte	0x340
 2423 086b 02       		.byte	0x2
 2424 086c 23       		.byte	0x23
 2425 086d 20       		.uleb128 0x20
 2426 086e 06       		.uleb128 0x6
 2427 086f 79030000 		.4byte	.LASF99
 2428 0873 0D       		.byte	0xd
 2429 0874 A4       		.byte	0xa4
 2430 0875 40030000 		.4byte	0x340
 2431 0879 02       		.byte	0x2
 2432 087a 23       		.byte	0x23
 2433 087b 24       		.uleb128 0x24
 2434 087c 00       		.byte	0
 2435 087d 0D       		.uleb128 0xd
 2436 087e CD070000 		.4byte	0x7cd
 2437 0882 03       		.uleb128 0x3
 2438 0883 47020000 		.4byte	.LASF100
 2439 0887 0D       		.byte	0xd
 2440 0888 A5       		.byte	0xa5
 2441 0889 E8070000 		.4byte	0x7e8
 2442 088d 03       		.uleb128 0x3
 2443 088e 40030000 		.4byte	.LASF101
ARM GAS  /tmp/ccOuzkN6.s 			page 45


 2444 0892 0D       		.byte	0xd
 2445 0893 EF       		.byte	0xef
 2446 0894 86000000 		.4byte	0x86
 2447 0898 18       		.uleb128 0x18
 2448 0899 01       		.byte	0x1
 2449 089a 0E       		.byte	0xe
 2450 089b 64       		.byte	0x64
 2451 089c B3080000 		.4byte	0x8b3
 2452 08a0 19       		.uleb128 0x19
 2453 08a1 7E040000 		.4byte	.LASF102
 2454 08a5 00       		.sleb128 0
 2455 08a6 19       		.uleb128 0x19
 2456 08a7 61040000 		.4byte	.LASF103
 2457 08ab 01       		.sleb128 1
 2458 08ac 19       		.uleb128 0x19
 2459 08ad 42050000 		.4byte	.LASF104
 2460 08b1 02       		.sleb128 2
 2461 08b2 00       		.byte	0
 2462 08b3 03       		.uleb128 0x3
 2463 08b4 B6040000 		.4byte	.LASF105
 2464 08b8 0E       		.byte	0xe
 2465 08b9 68       		.byte	0x68
 2466 08ba 98080000 		.4byte	0x898
 2467 08be 03       		.uleb128 0x3
 2468 08bf C0040000 		.4byte	.LASF106
 2469 08c3 0E       		.byte	0xe
 2470 08c4 6D       		.byte	0x6d
 2471 08c5 C9080000 		.4byte	0x8c9
 2472 08c9 05       		.uleb128 0x5
 2473 08ca C0040000 		.4byte	.LASF106
 2474 08ce D4       		.byte	0xd4
 2475 08cf 0E       		.byte	0xe
 2476 08d0 87       		.byte	0x87
 2477 08d1 54090000 		.4byte	0x954
 2478 08d5 07       		.uleb128 0x7
 2479 08d6 766D7400 		.ascii	"vmt\000"
 2480 08da 0E       		.byte	0xe
 2481 08db 89       		.byte	0x89
 2482 08dc DF090000 		.4byte	0x9df
 2483 08e0 02       		.byte	0x2
 2484 08e1 23       		.byte	0x23
 2485 08e2 00       		.uleb128 0
 2486 08e3 06       		.uleb128 0x6
 2487 08e4 6E020000 		.4byte	.LASF107
 2488 08e8 0E       		.byte	0xe
 2489 08e9 8A       		.byte	0x8a
 2490 08ea F5030000 		.4byte	0x3f5
 2491 08ee 02       		.byte	0x2
 2492 08ef 23       		.byte	0x23
 2493 08f0 04       		.uleb128 0x4
 2494 08f1 06       		.uleb128 0x6
 2495 08f2 8C050000 		.4byte	.LASF108
 2496 08f6 0E       		.byte	0xe
 2497 08f7 8A       		.byte	0x8a
 2498 08f8 96060000 		.4byte	0x696
 2499 08fc 02       		.byte	0x2
 2500 08fd 23       		.byte	0x23
ARM GAS  /tmp/ccOuzkN6.s 			page 46


 2501 08fe 08       		.uleb128 0x8
 2502 08ff 06       		.uleb128 0x6
 2503 0900 10010000 		.4byte	.LASF109
 2504 0904 0E       		.byte	0xe
 2505 0905 8A       		.byte	0x8a
 2506 0906 B3080000 		.4byte	0x8b3
 2507 090a 02       		.byte	0x2
 2508 090b 23       		.byte	0x23
 2509 090c 0C       		.uleb128 0xc
 2510 090d 06       		.uleb128 0x6
 2511 090e 35020000 		.4byte	.LASF110
 2512 0912 0E       		.byte	0xe
 2513 0913 8A       		.byte	0x8a
 2514 0914 F0040000 		.4byte	0x4f0
 2515 0918 02       		.byte	0x2
 2516 0919 23       		.byte	0x23
 2517 091a 10       		.uleb128 0x10
 2518 091b 06       		.uleb128 0x6
 2519 091c 8D020000 		.4byte	.LASF111
 2520 0920 0E       		.byte	0xe
 2521 0921 8A       		.byte	0x8a
 2522 0922 FB040000 		.4byte	0x4fb
 2523 0926 02       		.byte	0x2
 2524 0927 23       		.byte	0x23
 2525 0928 30       		.uleb128 0x30
 2526 0929 07       		.uleb128 0x7
 2527 092a 696200   		.ascii	"ib\000"
 2528 092d 0E       		.byte	0xe
 2529 092e 8A       		.byte	0x8a
 2530 092f EA090000 		.4byte	0x9ea
 2531 0933 02       		.byte	0x2
 2532 0934 23       		.byte	0x23
 2533 0935 50       		.uleb128 0x50
 2534 0936 07       		.uleb128 0x7
 2535 0937 6F6200   		.ascii	"ob\000"
 2536 093a 0E       		.byte	0xe
 2537 093b 8A       		.byte	0x8a
 2538 093c EA090000 		.4byte	0x9ea
 2539 0940 03       		.byte	0x3
 2540 0941 23       		.byte	0x23
 2541 0942 9001     		.uleb128 0x90
 2542 0944 06       		.uleb128 0x6
 2543 0945 09020000 		.4byte	.LASF112
 2544 0949 0E       		.byte	0xe
 2545 094a 8A       		.byte	0x8a
 2546 094b FA090000 		.4byte	0x9fa
 2547 094f 03       		.byte	0x3
 2548 0950 23       		.byte	0x23
 2549 0951 D001     		.uleb128 0xd0
 2550 0953 00       		.byte	0
 2551 0954 05       		.uleb128 0x5
 2552 0955 25020000 		.4byte	.LASF113
 2553 0959 24       		.byte	0x24
 2554 095a 0E       		.byte	0xe
 2555 095b 7C       		.byte	0x7c
 2556 095c DF090000 		.4byte	0x9df
 2557 0960 06       		.uleb128 0x6
ARM GAS  /tmp/ccOuzkN6.s 			page 47


 2558 0961 02030000 		.4byte	.LASF74
 2559 0965 0E       		.byte	0xe
 2560 0966 7D       		.byte	0x7d
 2561 0967 2B050000 		.4byte	0x52b
 2562 096b 02       		.byte	0x2
 2563 096c 23       		.byte	0x23
 2564 096d 00       		.uleb128 0
 2565 096e 06       		.uleb128 0x6
 2566 096f DF040000 		.4byte	.LASF75
 2567 0973 0E       		.byte	0xe
 2568 0974 7D       		.byte	0x7d
 2569 0975 4B050000 		.4byte	0x54b
 2570 0979 02       		.byte	0x2
 2571 097a 23       		.byte	0x23
 2572 097b 04       		.uleb128 0x4
 2573 097c 06       		.uleb128 0x6
 2574 097d CF010000 		.4byte	.LASF76
 2575 0981 0E       		.byte	0xe
 2576 0982 7D       		.byte	0x7d
 2577 0983 DE050000 		.4byte	0x5de
 2578 0987 02       		.byte	0x2
 2579 0988 23       		.byte	0x23
 2580 0989 08       		.uleb128 0x8
 2581 098a 06       		.uleb128 0x6
 2582 098b B4050000 		.4byte	.LASF77
 2583 098f 0E       		.byte	0xe
 2584 0990 7D       		.byte	0x7d
 2585 0991 DE050000 		.4byte	0x5de
 2586 0995 02       		.byte	0x2
 2587 0996 23       		.byte	0x23
 2588 0997 0C       		.uleb128 0xc
 2589 0998 07       		.uleb128 0x7
 2590 0999 70757400 		.ascii	"put\000"
 2591 099d 0E       		.byte	0xe
 2592 099e 7D       		.byte	0x7d
 2593 099f FE050000 		.4byte	0x5fe
 2594 09a3 02       		.byte	0x2
 2595 09a4 23       		.byte	0x23
 2596 09a5 10       		.uleb128 0x10
 2597 09a6 07       		.uleb128 0x7
 2598 09a7 67657400 		.ascii	"get\000"
 2599 09ab 0E       		.byte	0xe
 2600 09ac 7D       		.byte	0x7d
 2601 09ad 19060000 		.4byte	0x619
 2602 09b1 02       		.byte	0x2
 2603 09b2 23       		.byte	0x23
 2604 09b3 14       		.uleb128 0x14
 2605 09b4 06       		.uleb128 0x6
 2606 09b5 AF020000 		.4byte	.LASF78
 2607 09b9 0E       		.byte	0xe
 2608 09ba 7D       		.byte	0x7d
 2609 09bb 3E060000 		.4byte	0x63e
 2610 09bf 02       		.byte	0x2
 2611 09c0 23       		.byte	0x23
 2612 09c1 18       		.uleb128 0x18
 2613 09c2 06       		.uleb128 0x6
 2614 09c3 AB000000 		.4byte	.LASF79
ARM GAS  /tmp/ccOuzkN6.s 			page 48


 2615 09c7 0E       		.byte	0xe
 2616 09c8 7D       		.byte	0x7d
 2617 09c9 63060000 		.4byte	0x663
 2618 09cd 02       		.byte	0x2
 2619 09ce 23       		.byte	0x23
 2620 09cf 1C       		.uleb128 0x1c
 2621 09d0 06       		.uleb128 0x6
 2622 09d1 24050000 		.4byte	.LASF114
 2623 09d5 0E       		.byte	0xe
 2624 09d6 7D       		.byte	0x7d
 2625 09d7 B2060000 		.4byte	0x6b2
 2626 09db 02       		.byte	0x2
 2627 09dc 23       		.byte	0x23
 2628 09dd 20       		.uleb128 0x20
 2629 09de 00       		.byte	0
 2630 09df 09       		.uleb128 0x9
 2631 09e0 04       		.byte	0x4
 2632 09e1 E5090000 		.4byte	0x9e5
 2633 09e5 10       		.uleb128 0x10
 2634 09e6 54090000 		.4byte	0x954
 2635 09ea 1A       		.uleb128 0x1a
 2636 09eb 49000000 		.4byte	0x49
 2637 09ef FA090000 		.4byte	0x9fa
 2638 09f3 1B       		.uleb128 0x1b
 2639 09f4 3B000000 		.4byte	0x3b
 2640 09f8 3F       		.byte	0x3f
 2641 09f9 00       		.byte	0
 2642 09fa 09       		.uleb128 0x9
 2643 09fb 04       		.byte	0x4
 2644 09fc 9C070000 		.4byte	0x79c
 2645 0a00 1C       		.uleb128 0x1c
 2646 0a01 28040000 		.4byte	.LASF115
 2647 0a05 01       		.byte	0x1
 2648 0a06 19       		.byte	0x19
 2649 0a07 01       		.byte	0x1
 2650 0a08 01       		.byte	0x1
 2651 0a09 1C       		.uleb128 0x1c
 2652 0a0a 21000000 		.4byte	.LASF116
 2653 0a0e 01       		.byte	0x1
 2654 0a0f 1D       		.byte	0x1d
 2655 0a10 01       		.byte	0x1
 2656 0a11 01       		.byte	0x1
 2657 0a12 1C       		.uleb128 0x1c
 2658 0a13 54020000 		.4byte	.LASF117
 2659 0a17 01       		.byte	0x1
 2660 0a18 21       		.byte	0x21
 2661 0a19 01       		.byte	0x1
 2662 0a1a 01       		.byte	0x1
 2663 0a1b 1C       		.uleb128 0x1c
 2664 0a1c 08030000 		.4byte	.LASF118
 2665 0a20 01       		.byte	0x1
 2666 0a21 25       		.byte	0x25
 2667 0a22 01       		.byte	0x1
 2668 0a23 01       		.byte	0x1
 2669 0a24 1D       		.uleb128 0x1d
 2670 0a25 92040000 		.4byte	.LASF140
 2671 0a29 01       		.byte	0x1
ARM GAS  /tmp/ccOuzkN6.s 			page 49


 2672 0a2a 0E       		.byte	0xe
 2673 0a2b 01       		.byte	0x1
 2674 0a2c 00000000 		.4byte	.LFB117
 2675 0a30 60000000 		.4byte	.LFE117
 2676 0a34 00000000 		.4byte	.LLST0
 2677 0a38 4A0A0000 		.4byte	0xa4a
 2678 0a3c 1E       		.uleb128 0x1e
 2679 0a3d 6900     		.ascii	"i\000"
 2680 0a3f 01       		.byte	0x1
 2681 0a40 0F       		.byte	0xf
 2682 0a41 49000000 		.4byte	0x49
 2683 0a45 20000000 		.4byte	.LLST1
 2684 0a49 00       		.byte	0
 2685 0a4a 1F       		.uleb128 0x1f
 2686 0a4b 01       		.byte	0x1
 2687 0a4c B1000000 		.4byte	.LASF141
 2688 0a50 01       		.byte	0x1
 2689 0a51 56       		.byte	0x56
 2690 0a52 01       		.byte	0x1
 2691 0a53 E8000000 		.4byte	0xe8
 2692 0a57 00000000 		.4byte	.LFB122
 2693 0a5b 70060000 		.4byte	.LFE122
 2694 0a5f 3F000000 		.4byte	.LLST2
 2695 0a63 090C0000 		.4byte	0xc09
 2696 0a67 20       		.uleb128 0x20
 2697 0a68 61726700 		.ascii	"arg\000"
 2698 0a6c 01       		.byte	0x1
 2699 0a6d 56       		.byte	0x56
 2700 0a6e 8E020000 		.4byte	0x28e
 2701 0a72 6B000000 		.4byte	.LLST3
 2702 0a76 21       		.uleb128 0x21
 2703 0a77 70040000 		.4byte	.LASF119
 2704 0a7b 01       		.byte	0x1
 2705 0a7c 5A       		.byte	0x5a
 2706 0a7d 92030000 		.4byte	0x392
 2707 0a81 02       		.byte	0x2
 2708 0a82 91       		.byte	0x91
 2709 0a83 48       		.sleb128 -56
 2710 0a84 22       		.uleb128 0x22
 2711 0a85 02010000 		.4byte	.LASF120
 2712 0a89 01       		.byte	0x1
 2713 0a8a 5C       		.byte	0x5c
 2714 0a8b 090C0000 		.4byte	0xc09
 2715 0a8f 8C       		.byte	0x8c
 2716 0a90 21       		.uleb128 0x21
 2717 0a91 83030000 		.4byte	.LASF121
 2718 0a95 01       		.byte	0x1
 2719 0a96 62       		.byte	0x62
 2720 0a97 0E0C0000 		.4byte	0xc0e
 2721 0a9b 02       		.byte	0x2
 2722 0a9c 91       		.byte	0x91
 2723 0a9d 54       		.sleb128 -44
 2724 0a9e 23       		.uleb128 0x23
 2725 0a9f 28030000 		.4byte	.LASF122
 2726 0aa3 01       		.byte	0x1
 2727 0aa4 66       		.byte	0x66
 2728 0aa5 49000000 		.4byte	0x49
ARM GAS  /tmp/ccOuzkN6.s 			page 50


 2729 0aa9 7E000000 		.4byte	.LLST4
 2730 0aad 23       		.uleb128 0x23
 2731 0aae 9B040000 		.4byte	.LASF123
 2732 0ab2 01       		.byte	0x1
 2733 0ab3 68       		.byte	0x68
 2734 0ab4 F3000000 		.4byte	0xf3
 2735 0ab8 FD000000 		.4byte	.LLST5
 2736 0abc 23       		.uleb128 0x23
 2737 0abd F8020000 		.4byte	.LASF124
 2738 0ac1 01       		.byte	0x1
 2739 0ac2 A2       		.byte	0xa2
 2740 0ac3 49000000 		.4byte	0x49
 2741 0ac7 31010000 		.4byte	.LLST6
 2742 0acb 24       		.uleb128 0x24
 2743 0acc 00000000 		.4byte	.Ldebug_ranges0+0
 2744 0ad0 030B0000 		.4byte	0xb03
 2745 0ad4 25       		.uleb128 0x25
 2746 0ad5 72050000 		.4byte	.LASF125
 2747 0ad9 01       		.byte	0x1
 2748 0ada 4401     		.2byte	0x144
 2749 0adc 86000000 		.4byte	0x86
 2750 0ae0 A2010000 		.4byte	.LLST7
 2751 0ae4 25       		.uleb128 0x25
 2752 0ae5 E9040000 		.4byte	.LASF126
 2753 0ae9 01       		.byte	0x1
 2754 0aea 4501     		.2byte	0x145
 2755 0aec 86000000 		.4byte	0x86
 2756 0af0 C2010000 		.4byte	.LLST8
 2757 0af4 26       		.uleb128 0x26
 2758 0af5 6900     		.ascii	"i\000"
 2759 0af7 01       		.byte	0x1
 2760 0af8 4601     		.2byte	0x146
 2761 0afa 49000000 		.4byte	0x49
 2762 0afe F8010000 		.4byte	.LLST9
 2763 0b02 00       		.byte	0
 2764 0b03 24       		.uleb128 0x24
 2765 0b04 28000000 		.4byte	.Ldebug_ranges0+0x28
 2766 0b08 580B0000 		.4byte	0xb58
 2767 0b0c 23       		.uleb128 0x23
 2768 0b0d 3C040000 		.4byte	.LASF127
 2769 0b11 01       		.byte	0x1
 2770 0b12 C6       		.byte	0xc6
 2771 0b13 40040000 		.4byte	0x440
 2772 0b17 46020000 		.4byte	.LLST10
 2773 0b1b 27       		.uleb128 0x27
 2774 0b1c 1B0A0000 		.4byte	0xa1b
 2775 0b20 94030000 		.4byte	.LBB18
 2776 0b24 AC030000 		.4byte	.LBE18
 2777 0b28 01       		.byte	0x1
 2778 0b29 D5       		.byte	0xd5
 2779 0b2a 27       		.uleb128 0x27
 2780 0b2b 000A0000 		.4byte	0xa00
 2781 0b2f AC030000 		.4byte	.LBB20
 2782 0b33 C4030000 		.4byte	.LBE20
 2783 0b37 01       		.byte	0x1
 2784 0b38 CC       		.byte	0xcc
 2785 0b39 27       		.uleb128 0x27
ARM GAS  /tmp/ccOuzkN6.s 			page 51


 2786 0b3a 090A0000 		.4byte	0xa09
 2787 0b3e 90040000 		.4byte	.LBB22
 2788 0b42 E0040000 		.4byte	.LBE22
 2789 0b46 01       		.byte	0x1
 2790 0b47 CF       		.byte	0xcf
 2791 0b48 27       		.uleb128 0x27
 2792 0b49 120A0000 		.4byte	0xa12
 2793 0b4d A8050000 		.4byte	.LBB24
 2794 0b51 C2050000 		.4byte	.LBE24
 2795 0b55 01       		.byte	0x1
 2796 0b56 D2       		.byte	0xd2
 2797 0b57 00       		.byte	0
 2798 0b58 24       		.uleb128 0x24
 2799 0b59 50000000 		.4byte	.Ldebug_ranges0+0x50
 2800 0b5d 9F0B0000 		.4byte	0xb9f
 2801 0b61 25       		.uleb128 0x25
 2802 0b62 6C030000 		.4byte	.LASF128
 2803 0b66 01       		.byte	0x1
 2804 0b67 0501     		.2byte	0x105
 2805 0b69 86000000 		.4byte	0x86
 2806 0b6d 85020000 		.4byte	.LLST11
 2807 0b71 25       		.uleb128 0x25
 2808 0b72 FA010000 		.4byte	.LASF129
 2809 0b76 01       		.byte	0x1
 2810 0b77 0601     		.2byte	0x106
 2811 0b79 86000000 		.4byte	0x86
 2812 0b7d CF020000 		.4byte	.LLST12
 2813 0b81 26       		.uleb128 0x26
 2814 0b82 6900     		.ascii	"i\000"
 2815 0b84 01       		.byte	0x1
 2816 0b85 0701     		.2byte	0x107
 2817 0b87 49000000 		.4byte	0x49
 2818 0b8b 36030000 		.4byte	.LLST13
 2819 0b8f 28       		.uleb128 0x28
 2820 0b90 DF040000 		.4byte	.LASF75
 2821 0b94 01       		.byte	0x1
 2822 0b95 1201     		.2byte	0x112
 2823 0b97 49000000 		.4byte	0x49
 2824 0b9b 02       		.byte	0x2
 2825 0b9c 91       		.byte	0x91
 2826 0b9d 57       		.sleb128 -41
 2827 0b9e 00       		.byte	0
 2828 0b9f 24       		.uleb128 0x24
 2829 0ba0 70000000 		.4byte	.Ldebug_ranges0+0x70
 2830 0ba4 D70B0000 		.4byte	0xbd7
 2831 0ba8 25       		.uleb128 0x25
 2832 0ba9 72050000 		.4byte	.LASF125
 2833 0bad 01       		.byte	0x1
 2834 0bae 2201     		.2byte	0x122
 2835 0bb0 86000000 		.4byte	0x86
 2836 0bb4 E6030000 		.4byte	.LLST14
 2837 0bb8 25       		.uleb128 0x25
 2838 0bb9 E9040000 		.4byte	.LASF126
 2839 0bbd 01       		.byte	0x1
 2840 0bbe 2301     		.2byte	0x123
 2841 0bc0 86000000 		.4byte	0x86
 2842 0bc4 06040000 		.4byte	.LLST15
ARM GAS  /tmp/ccOuzkN6.s 			page 52


 2843 0bc8 26       		.uleb128 0x26
 2844 0bc9 6900     		.ascii	"i\000"
 2845 0bcb 01       		.byte	0x1
 2846 0bcc 2401     		.2byte	0x124
 2847 0bce 49000000 		.4byte	0x49
 2848 0bd2 30040000 		.4byte	.LLST16
 2849 0bd6 00       		.byte	0
 2850 0bd7 29       		.uleb128 0x29
 2851 0bd8 88000000 		.4byte	.Ldebug_ranges0+0x88
 2852 0bdc 23       		.uleb128 0x23
 2853 0bdd 6C030000 		.4byte	.LASF128
 2854 0be1 01       		.byte	0x1
 2855 0be2 E7       		.byte	0xe7
 2856 0be3 86000000 		.4byte	0x86
 2857 0be7 73040000 		.4byte	.LLST17
 2858 0beb 23       		.uleb128 0x23
 2859 0bec FA010000 		.4byte	.LASF129
 2860 0bf0 01       		.byte	0x1
 2861 0bf1 E8       		.byte	0xe8
 2862 0bf2 86000000 		.4byte	0x86
 2863 0bf6 BD040000 		.4byte	.LLST18
 2864 0bfa 1E       		.uleb128 0x1e
 2865 0bfb 6900     		.ascii	"i\000"
 2866 0bfd 01       		.byte	0x1
 2867 0bfe E9       		.byte	0xe9
 2868 0bff 49000000 		.4byte	0x49
 2869 0c03 24050000 		.4byte	.LLST19
 2870 0c07 00       		.byte	0
 2871 0c08 00       		.byte	0
 2872 0c09 10       		.uleb128 0x10
 2873 0c0a F3000000 		.4byte	0xf3
 2874 0c0e 1A       		.uleb128 0x1a
 2875 0c0f 49000000 		.4byte	0x49
 2876 0c13 1E0C0000 		.4byte	0xc1e
 2877 0c17 1B       		.uleb128 0x1b
 2878 0c18 3B000000 		.4byte	0x3b
 2879 0c1c 00       		.byte	0
 2880 0c1d 00       		.byte	0
 2881 0c1e 2A       		.uleb128 0x2a
 2882 0c1f 7D000000 		.4byte	.LASF130
 2883 0c23 0F       		.byte	0xf
 2884 0c24 1A05     		.2byte	0x51a
 2885 0c26 BD060000 		.4byte	0x6bd
 2886 0c2a 01       		.byte	0x1
 2887 0c2b 01       		.byte	0x1
 2888 0c2c 2B       		.uleb128 0x2b
 2889 0c2d 53443300 		.ascii	"SD3\000"
 2890 0c31 10       		.byte	0x10
 2891 0c32 0101     		.2byte	0x101
 2892 0c34 BE080000 		.4byte	0x8be
 2893 0c38 01       		.byte	0x1
 2894 0c39 01       		.byte	0x1
 2895 0c3a 22       		.uleb128 0x22
 2896 0c3b 94020000 		.4byte	.LASF131
 2897 0c3f 01       		.byte	0x1
 2898 0c40 03       		.byte	0x3
 2899 0c41 26050000 		.4byte	0x526
ARM GAS  /tmp/ccOuzkN6.s 			page 53


 2900 0c45 54       		.byte	0x54
 2901 0c46 22       		.uleb128 0x22
 2902 0c47 8A000000 		.4byte	.LASF132
 2903 0c4b 01       		.byte	0x1
 2904 0c4c 04       		.byte	0x4
 2905 0c4d 26050000 		.4byte	0x526
 2906 0c51 59       		.byte	0x59
 2907 0c52 22       		.uleb128 0x22
 2908 0c53 AC040000 		.4byte	.LASF133
 2909 0c57 01       		.byte	0x1
 2910 0c58 05       		.byte	0x5
 2911 0c59 26050000 		.4byte	0x526
 2912 0c5d 41       		.byte	0x41
 2913 0c5e 22       		.uleb128 0x22
 2914 0c5f 01020000 		.4byte	.LASF134
 2915 0c63 01       		.byte	0x1
 2916 0c64 08       		.byte	0x8
 2917 0c65 26050000 		.4byte	0x526
 2918 0c69 4B       		.byte	0x4b
 2919 0c6a 22       		.uleb128 0x22
 2920 0c6b 98000000 		.4byte	.LASF135
 2921 0c6f 01       		.byte	0x1
 2922 0c70 09       		.byte	0x9
 2923 0c71 26050000 		.4byte	0x526
 2924 0c75 45       		.byte	0x45
 2925 0c76 1A       		.uleb128 0x1a
 2926 0c77 49000000 		.4byte	0x49
 2927 0c7b 860C0000 		.4byte	0xc86
 2928 0c7f 1B       		.uleb128 0x1b
 2929 0c80 3B000000 		.4byte	0x3b
 2930 0c84 7F       		.byte	0x7f
 2931 0c85 00       		.byte	0
 2932 0c86 21       		.uleb128 0x21
 2933 0c87 A7050000 		.4byte	.LASF136
 2934 0c8b 01       		.byte	0x1
 2935 0c8c 0D       		.byte	0xd
 2936 0c8d 760C0000 		.4byte	0xc76
 2937 0c91 05       		.byte	0x5
 2938 0c92 03       		.byte	0x3
 2939 0c93 00000000 		.4byte	input_buffer
 2940 0c97 2A       		.uleb128 0x2a
 2941 0c98 7D000000 		.4byte	.LASF130
 2942 0c9c 0F       		.byte	0xf
 2943 0c9d 1A05     		.2byte	0x51a
 2944 0c9f BD060000 		.4byte	0x6bd
 2945 0ca3 01       		.byte	0x1
 2946 0ca4 01       		.byte	0x1
 2947 0ca5 2B       		.uleb128 0x2b
 2948 0ca6 53443300 		.ascii	"SD3\000"
 2949 0caa 10       		.byte	0x10
 2950 0cab 0101     		.2byte	0x101
 2951 0cad BE080000 		.4byte	0x8be
 2952 0cb1 01       		.byte	0x1
 2953 0cb2 01       		.byte	0x1
 2954 0cb3 00       		.byte	0
 2955              		.section	.debug_abbrev,"",%progbits
 2956              	.Ldebug_abbrev0:
ARM GAS  /tmp/ccOuzkN6.s 			page 54


 2957 0000 01       		.uleb128 0x1
 2958 0001 11       		.uleb128 0x11
 2959 0002 01       		.byte	0x1
 2960 0003 25       		.uleb128 0x25
 2961 0004 0E       		.uleb128 0xe
 2962 0005 13       		.uleb128 0x13
 2963 0006 0B       		.uleb128 0xb
 2964 0007 03       		.uleb128 0x3
 2965 0008 0E       		.uleb128 0xe
 2966 0009 1B       		.uleb128 0x1b
 2967 000a 0E       		.uleb128 0xe
 2968 000b 11       		.uleb128 0x11
 2969 000c 01       		.uleb128 0x1
 2970 000d 52       		.uleb128 0x52
 2971 000e 01       		.uleb128 0x1
 2972 000f 55       		.uleb128 0x55
 2973 0010 06       		.uleb128 0x6
 2974 0011 10       		.uleb128 0x10
 2975 0012 06       		.uleb128 0x6
 2976 0013 00       		.byte	0
 2977 0014 00       		.byte	0
 2978 0015 02       		.uleb128 0x2
 2979 0016 24       		.uleb128 0x24
 2980 0017 00       		.byte	0
 2981 0018 0B       		.uleb128 0xb
 2982 0019 0B       		.uleb128 0xb
 2983 001a 3E       		.uleb128 0x3e
 2984 001b 0B       		.uleb128 0xb
 2985 001c 03       		.uleb128 0x3
 2986 001d 08       		.uleb128 0x8
 2987 001e 00       		.byte	0
 2988 001f 00       		.byte	0
 2989 0020 03       		.uleb128 0x3
 2990 0021 16       		.uleb128 0x16
 2991 0022 00       		.byte	0
 2992 0023 03       		.uleb128 0x3
 2993 0024 0E       		.uleb128 0xe
 2994 0025 3A       		.uleb128 0x3a
 2995 0026 0B       		.uleb128 0xb
 2996 0027 3B       		.uleb128 0x3b
 2997 0028 0B       		.uleb128 0xb
 2998 0029 49       		.uleb128 0x49
 2999 002a 13       		.uleb128 0x13
 3000 002b 00       		.byte	0
 3001 002c 00       		.byte	0
 3002 002d 04       		.uleb128 0x4
 3003 002e 24       		.uleb128 0x24
 3004 002f 00       		.byte	0
 3005 0030 0B       		.uleb128 0xb
 3006 0031 0B       		.uleb128 0xb
 3007 0032 3E       		.uleb128 0x3e
 3008 0033 0B       		.uleb128 0xb
 3009 0034 03       		.uleb128 0x3
 3010 0035 0E       		.uleb128 0xe
 3011 0036 00       		.byte	0
 3012 0037 00       		.byte	0
 3013 0038 05       		.uleb128 0x5
ARM GAS  /tmp/ccOuzkN6.s 			page 55


 3014 0039 13       		.uleb128 0x13
 3015 003a 01       		.byte	0x1
 3016 003b 03       		.uleb128 0x3
 3017 003c 0E       		.uleb128 0xe
 3018 003d 0B       		.uleb128 0xb
 3019 003e 0B       		.uleb128 0xb
 3020 003f 3A       		.uleb128 0x3a
 3021 0040 0B       		.uleb128 0xb
 3022 0041 3B       		.uleb128 0x3b
 3023 0042 0B       		.uleb128 0xb
 3024 0043 01       		.uleb128 0x1
 3025 0044 13       		.uleb128 0x13
 3026 0045 00       		.byte	0
 3027 0046 00       		.byte	0
 3028 0047 06       		.uleb128 0x6
 3029 0048 0D       		.uleb128 0xd
 3030 0049 00       		.byte	0
 3031 004a 03       		.uleb128 0x3
 3032 004b 0E       		.uleb128 0xe
 3033 004c 3A       		.uleb128 0x3a
 3034 004d 0B       		.uleb128 0xb
 3035 004e 3B       		.uleb128 0x3b
 3036 004f 0B       		.uleb128 0xb
 3037 0050 49       		.uleb128 0x49
 3038 0051 13       		.uleb128 0x13
 3039 0052 38       		.uleb128 0x38
 3040 0053 0A       		.uleb128 0xa
 3041 0054 00       		.byte	0
 3042 0055 00       		.byte	0
 3043 0056 07       		.uleb128 0x7
 3044 0057 0D       		.uleb128 0xd
 3045 0058 00       		.byte	0
 3046 0059 03       		.uleb128 0x3
 3047 005a 08       		.uleb128 0x8
 3048 005b 3A       		.uleb128 0x3a
 3049 005c 0B       		.uleb128 0xb
 3050 005d 3B       		.uleb128 0x3b
 3051 005e 0B       		.uleb128 0xb
 3052 005f 49       		.uleb128 0x49
 3053 0060 13       		.uleb128 0x13
 3054 0061 38       		.uleb128 0x38
 3055 0062 0A       		.uleb128 0xa
 3056 0063 00       		.byte	0
 3057 0064 00       		.byte	0
 3058 0065 08       		.uleb128 0x8
 3059 0066 13       		.uleb128 0x13
 3060 0067 01       		.byte	0x1
 3061 0068 0B       		.uleb128 0xb
 3062 0069 0B       		.uleb128 0xb
 3063 006a 3A       		.uleb128 0x3a
 3064 006b 0B       		.uleb128 0xb
 3065 006c 3B       		.uleb128 0x3b
 3066 006d 0B       		.uleb128 0xb
 3067 006e 01       		.uleb128 0x1
 3068 006f 13       		.uleb128 0x13
 3069 0070 00       		.byte	0
 3070 0071 00       		.byte	0
ARM GAS  /tmp/ccOuzkN6.s 			page 56


 3071 0072 09       		.uleb128 0x9
 3072 0073 0F       		.uleb128 0xf
 3073 0074 00       		.byte	0
 3074 0075 0B       		.uleb128 0xb
 3075 0076 0B       		.uleb128 0xb
 3076 0077 49       		.uleb128 0x49
 3077 0078 13       		.uleb128 0x13
 3078 0079 00       		.byte	0
 3079 007a 00       		.byte	0
 3080 007b 0A       		.uleb128 0xa
 3081 007c 0F       		.uleb128 0xf
 3082 007d 00       		.byte	0
 3083 007e 0B       		.uleb128 0xb
 3084 007f 0B       		.uleb128 0xb
 3085 0080 00       		.byte	0
 3086 0081 00       		.byte	0
 3087 0082 0B       		.uleb128 0xb
 3088 0083 0D       		.uleb128 0xd
 3089 0084 00       		.byte	0
 3090 0085 03       		.uleb128 0x3
 3091 0086 08       		.uleb128 0x8
 3092 0087 3A       		.uleb128 0x3a
 3093 0088 0B       		.uleb128 0xb
 3094 0089 3B       		.uleb128 0x3b
 3095 008a 05       		.uleb128 0x5
 3096 008b 49       		.uleb128 0x49
 3097 008c 13       		.uleb128 0x13
 3098 008d 38       		.uleb128 0x38
 3099 008e 0A       		.uleb128 0xa
 3100 008f 00       		.byte	0
 3101 0090 00       		.byte	0
 3102 0091 0C       		.uleb128 0xc
 3103 0092 13       		.uleb128 0x13
 3104 0093 01       		.byte	0x1
 3105 0094 03       		.uleb128 0x3
 3106 0095 0E       		.uleb128 0xe
 3107 0096 0B       		.uleb128 0xb
 3108 0097 0B       		.uleb128 0xb
 3109 0098 3A       		.uleb128 0x3a
 3110 0099 0B       		.uleb128 0xb
 3111 009a 3B       		.uleb128 0x3b
 3112 009b 05       		.uleb128 0x5
 3113 009c 01       		.uleb128 0x1
 3114 009d 13       		.uleb128 0x13
 3115 009e 00       		.byte	0
 3116 009f 00       		.byte	0
 3117 00a0 0D       		.uleb128 0xd
 3118 00a1 35       		.uleb128 0x35
 3119 00a2 00       		.byte	0
 3120 00a3 49       		.uleb128 0x49
 3121 00a4 13       		.uleb128 0x13
 3122 00a5 00       		.byte	0
 3123 00a6 00       		.byte	0
 3124 00a7 0E       		.uleb128 0xe
 3125 00a8 17       		.uleb128 0x17
 3126 00a9 01       		.byte	0x1
 3127 00aa 0B       		.uleb128 0xb
ARM GAS  /tmp/ccOuzkN6.s 			page 57


 3128 00ab 0B       		.uleb128 0xb
 3129 00ac 3A       		.uleb128 0x3a
 3130 00ad 0B       		.uleb128 0xb
 3131 00ae 3B       		.uleb128 0x3b
 3132 00af 0B       		.uleb128 0xb
 3133 00b0 01       		.uleb128 0x1
 3134 00b1 13       		.uleb128 0x13
 3135 00b2 00       		.byte	0
 3136 00b3 00       		.byte	0
 3137 00b4 0F       		.uleb128 0xf
 3138 00b5 0D       		.uleb128 0xd
 3139 00b6 00       		.byte	0
 3140 00b7 03       		.uleb128 0x3
 3141 00b8 0E       		.uleb128 0xe
 3142 00b9 3A       		.uleb128 0x3a
 3143 00ba 0B       		.uleb128 0xb
 3144 00bb 3B       		.uleb128 0x3b
 3145 00bc 0B       		.uleb128 0xb
 3146 00bd 49       		.uleb128 0x49
 3147 00be 13       		.uleb128 0x13
 3148 00bf 00       		.byte	0
 3149 00c0 00       		.byte	0
 3150 00c1 10       		.uleb128 0x10
 3151 00c2 26       		.uleb128 0x26
 3152 00c3 00       		.byte	0
 3153 00c4 49       		.uleb128 0x49
 3154 00c5 13       		.uleb128 0x13
 3155 00c6 00       		.byte	0
 3156 00c7 00       		.byte	0
 3157 00c8 11       		.uleb128 0x11
 3158 00c9 15       		.uleb128 0x15
 3159 00ca 01       		.byte	0x1
 3160 00cb 27       		.uleb128 0x27
 3161 00cc 0C       		.uleb128 0xc
 3162 00cd 01       		.uleb128 0x1
 3163 00ce 13       		.uleb128 0x13
 3164 00cf 00       		.byte	0
 3165 00d0 00       		.byte	0
 3166 00d1 12       		.uleb128 0x12
 3167 00d2 05       		.uleb128 0x5
 3168 00d3 00       		.byte	0
 3169 00d4 49       		.uleb128 0x49
 3170 00d5 13       		.uleb128 0x13
 3171 00d6 00       		.byte	0
 3172 00d7 00       		.byte	0
 3173 00d8 13       		.uleb128 0x13
 3174 00d9 15       		.uleb128 0x15
 3175 00da 01       		.byte	0x1
 3176 00db 27       		.uleb128 0x27
 3177 00dc 0C       		.uleb128 0xc
 3178 00dd 49       		.uleb128 0x49
 3179 00de 13       		.uleb128 0x13
 3180 00df 01       		.uleb128 0x1
 3181 00e0 13       		.uleb128 0x13
 3182 00e1 00       		.byte	0
 3183 00e2 00       		.byte	0
 3184 00e3 14       		.uleb128 0x14
ARM GAS  /tmp/ccOuzkN6.s 			page 58


 3185 00e4 16       		.uleb128 0x16
 3186 00e5 00       		.byte	0
 3187 00e6 03       		.uleb128 0x3
 3188 00e7 0E       		.uleb128 0xe
 3189 00e8 3A       		.uleb128 0x3a
 3190 00e9 0B       		.uleb128 0xb
 3191 00ea 3B       		.uleb128 0x3b
 3192 00eb 05       		.uleb128 0x5
 3193 00ec 49       		.uleb128 0x49
 3194 00ed 13       		.uleb128 0x13
 3195 00ee 00       		.byte	0
 3196 00ef 00       		.byte	0
 3197 00f0 15       		.uleb128 0x15
 3198 00f1 13       		.uleb128 0x13
 3199 00f2 01       		.byte	0x1
 3200 00f3 0B       		.uleb128 0xb
 3201 00f4 0B       		.uleb128 0xb
 3202 00f5 3A       		.uleb128 0x3a
 3203 00f6 0B       		.uleb128 0xb
 3204 00f7 3B       		.uleb128 0x3b
 3205 00f8 05       		.uleb128 0x5
 3206 00f9 01       		.uleb128 0x1
 3207 00fa 13       		.uleb128 0x13
 3208 00fb 00       		.byte	0
 3209 00fc 00       		.byte	0
 3210 00fd 16       		.uleb128 0x16
 3211 00fe 0D       		.uleb128 0xd
 3212 00ff 00       		.byte	0
 3213 0100 03       		.uleb128 0x3
 3214 0101 0E       		.uleb128 0xe
 3215 0102 3A       		.uleb128 0x3a
 3216 0103 0B       		.uleb128 0xb
 3217 0104 3B       		.uleb128 0x3b
 3218 0105 05       		.uleb128 0x5
 3219 0106 49       		.uleb128 0x49
 3220 0107 13       		.uleb128 0x13
 3221 0108 38       		.uleb128 0x38
 3222 0109 0A       		.uleb128 0xa
 3223 010a 00       		.byte	0
 3224 010b 00       		.byte	0
 3225 010c 17       		.uleb128 0x17
 3226 010d 0D       		.uleb128 0xd
 3227 010e 00       		.byte	0
 3228 010f 03       		.uleb128 0x3
 3229 0110 08       		.uleb128 0x8
 3230 0111 3A       		.uleb128 0x3a
 3231 0112 0B       		.uleb128 0xb
 3232 0113 3B       		.uleb128 0x3b
 3233 0114 0B       		.uleb128 0xb
 3234 0115 49       		.uleb128 0x49
 3235 0116 13       		.uleb128 0x13
 3236 0117 00       		.byte	0
 3237 0118 00       		.byte	0
 3238 0119 18       		.uleb128 0x18
 3239 011a 04       		.uleb128 0x4
 3240 011b 01       		.byte	0x1
 3241 011c 0B       		.uleb128 0xb
ARM GAS  /tmp/ccOuzkN6.s 			page 59


 3242 011d 0B       		.uleb128 0xb
 3243 011e 3A       		.uleb128 0x3a
 3244 011f 0B       		.uleb128 0xb
 3245 0120 3B       		.uleb128 0x3b
 3246 0121 0B       		.uleb128 0xb
 3247 0122 01       		.uleb128 0x1
 3248 0123 13       		.uleb128 0x13
 3249 0124 00       		.byte	0
 3250 0125 00       		.byte	0
 3251 0126 19       		.uleb128 0x19
 3252 0127 28       		.uleb128 0x28
 3253 0128 00       		.byte	0
 3254 0129 03       		.uleb128 0x3
 3255 012a 0E       		.uleb128 0xe
 3256 012b 1C       		.uleb128 0x1c
 3257 012c 0D       		.uleb128 0xd
 3258 012d 00       		.byte	0
 3259 012e 00       		.byte	0
 3260 012f 1A       		.uleb128 0x1a
 3261 0130 01       		.uleb128 0x1
 3262 0131 01       		.byte	0x1
 3263 0132 49       		.uleb128 0x49
 3264 0133 13       		.uleb128 0x13
 3265 0134 01       		.uleb128 0x1
 3266 0135 13       		.uleb128 0x13
 3267 0136 00       		.byte	0
 3268 0137 00       		.byte	0
 3269 0138 1B       		.uleb128 0x1b
 3270 0139 21       		.uleb128 0x21
 3271 013a 00       		.byte	0
 3272 013b 49       		.uleb128 0x49
 3273 013c 13       		.uleb128 0x13
 3274 013d 2F       		.uleb128 0x2f
 3275 013e 0B       		.uleb128 0xb
 3276 013f 00       		.byte	0
 3277 0140 00       		.byte	0
 3278 0141 1C       		.uleb128 0x1c
 3279 0142 2E       		.uleb128 0x2e
 3280 0143 00       		.byte	0
 3281 0144 03       		.uleb128 0x3
 3282 0145 0E       		.uleb128 0xe
 3283 0146 3A       		.uleb128 0x3a
 3284 0147 0B       		.uleb128 0xb
 3285 0148 3B       		.uleb128 0x3b
 3286 0149 0B       		.uleb128 0xb
 3287 014a 27       		.uleb128 0x27
 3288 014b 0C       		.uleb128 0xc
 3289 014c 20       		.uleb128 0x20
 3290 014d 0B       		.uleb128 0xb
 3291 014e 00       		.byte	0
 3292 014f 00       		.byte	0
 3293 0150 1D       		.uleb128 0x1d
 3294 0151 2E       		.uleb128 0x2e
 3295 0152 01       		.byte	0x1
 3296 0153 03       		.uleb128 0x3
 3297 0154 0E       		.uleb128 0xe
 3298 0155 3A       		.uleb128 0x3a
ARM GAS  /tmp/ccOuzkN6.s 			page 60


 3299 0156 0B       		.uleb128 0xb
 3300 0157 3B       		.uleb128 0x3b
 3301 0158 0B       		.uleb128 0xb
 3302 0159 27       		.uleb128 0x27
 3303 015a 0C       		.uleb128 0xc
 3304 015b 11       		.uleb128 0x11
 3305 015c 01       		.uleb128 0x1
 3306 015d 12       		.uleb128 0x12
 3307 015e 01       		.uleb128 0x1
 3308 015f 40       		.uleb128 0x40
 3309 0160 06       		.uleb128 0x6
 3310 0161 01       		.uleb128 0x1
 3311 0162 13       		.uleb128 0x13
 3312 0163 00       		.byte	0
 3313 0164 00       		.byte	0
 3314 0165 1E       		.uleb128 0x1e
 3315 0166 34       		.uleb128 0x34
 3316 0167 00       		.byte	0
 3317 0168 03       		.uleb128 0x3
 3318 0169 08       		.uleb128 0x8
 3319 016a 3A       		.uleb128 0x3a
 3320 016b 0B       		.uleb128 0xb
 3321 016c 3B       		.uleb128 0x3b
 3322 016d 0B       		.uleb128 0xb
 3323 016e 49       		.uleb128 0x49
 3324 016f 13       		.uleb128 0x13
 3325 0170 02       		.uleb128 0x2
 3326 0171 06       		.uleb128 0x6
 3327 0172 00       		.byte	0
 3328 0173 00       		.byte	0
 3329 0174 1F       		.uleb128 0x1f
 3330 0175 2E       		.uleb128 0x2e
 3331 0176 01       		.byte	0x1
 3332 0177 3F       		.uleb128 0x3f
 3333 0178 0C       		.uleb128 0xc
 3334 0179 03       		.uleb128 0x3
 3335 017a 0E       		.uleb128 0xe
 3336 017b 3A       		.uleb128 0x3a
 3337 017c 0B       		.uleb128 0xb
 3338 017d 3B       		.uleb128 0x3b
 3339 017e 0B       		.uleb128 0xb
 3340 017f 27       		.uleb128 0x27
 3341 0180 0C       		.uleb128 0xc
 3342 0181 49       		.uleb128 0x49
 3343 0182 13       		.uleb128 0x13
 3344 0183 11       		.uleb128 0x11
 3345 0184 01       		.uleb128 0x1
 3346 0185 12       		.uleb128 0x12
 3347 0186 01       		.uleb128 0x1
 3348 0187 40       		.uleb128 0x40
 3349 0188 06       		.uleb128 0x6
 3350 0189 01       		.uleb128 0x1
 3351 018a 13       		.uleb128 0x13
 3352 018b 00       		.byte	0
 3353 018c 00       		.byte	0
 3354 018d 20       		.uleb128 0x20
 3355 018e 05       		.uleb128 0x5
ARM GAS  /tmp/ccOuzkN6.s 			page 61


 3356 018f 00       		.byte	0
 3357 0190 03       		.uleb128 0x3
 3358 0191 08       		.uleb128 0x8
 3359 0192 3A       		.uleb128 0x3a
 3360 0193 0B       		.uleb128 0xb
 3361 0194 3B       		.uleb128 0x3b
 3362 0195 0B       		.uleb128 0xb
 3363 0196 49       		.uleb128 0x49
 3364 0197 13       		.uleb128 0x13
 3365 0198 02       		.uleb128 0x2
 3366 0199 06       		.uleb128 0x6
 3367 019a 00       		.byte	0
 3368 019b 00       		.byte	0
 3369 019c 21       		.uleb128 0x21
 3370 019d 34       		.uleb128 0x34
 3371 019e 00       		.byte	0
 3372 019f 03       		.uleb128 0x3
 3373 01a0 0E       		.uleb128 0xe
 3374 01a1 3A       		.uleb128 0x3a
 3375 01a2 0B       		.uleb128 0xb
 3376 01a3 3B       		.uleb128 0x3b
 3377 01a4 0B       		.uleb128 0xb
 3378 01a5 49       		.uleb128 0x49
 3379 01a6 13       		.uleb128 0x13
 3380 01a7 02       		.uleb128 0x2
 3381 01a8 0A       		.uleb128 0xa
 3382 01a9 00       		.byte	0
 3383 01aa 00       		.byte	0
 3384 01ab 22       		.uleb128 0x22
 3385 01ac 34       		.uleb128 0x34
 3386 01ad 00       		.byte	0
 3387 01ae 03       		.uleb128 0x3
 3388 01af 0E       		.uleb128 0xe
 3389 01b0 3A       		.uleb128 0x3a
 3390 01b1 0B       		.uleb128 0xb
 3391 01b2 3B       		.uleb128 0x3b
 3392 01b3 0B       		.uleb128 0xb
 3393 01b4 49       		.uleb128 0x49
 3394 01b5 13       		.uleb128 0x13
 3395 01b6 1C       		.uleb128 0x1c
 3396 01b7 0B       		.uleb128 0xb
 3397 01b8 00       		.byte	0
 3398 01b9 00       		.byte	0
 3399 01ba 23       		.uleb128 0x23
 3400 01bb 34       		.uleb128 0x34
 3401 01bc 00       		.byte	0
 3402 01bd 03       		.uleb128 0x3
 3403 01be 0E       		.uleb128 0xe
 3404 01bf 3A       		.uleb128 0x3a
 3405 01c0 0B       		.uleb128 0xb
 3406 01c1 3B       		.uleb128 0x3b
 3407 01c2 0B       		.uleb128 0xb
 3408 01c3 49       		.uleb128 0x49
 3409 01c4 13       		.uleb128 0x13
 3410 01c5 02       		.uleb128 0x2
 3411 01c6 06       		.uleb128 0x6
 3412 01c7 00       		.byte	0
ARM GAS  /tmp/ccOuzkN6.s 			page 62


 3413 01c8 00       		.byte	0
 3414 01c9 24       		.uleb128 0x24
 3415 01ca 0B       		.uleb128 0xb
 3416 01cb 01       		.byte	0x1
 3417 01cc 55       		.uleb128 0x55
 3418 01cd 06       		.uleb128 0x6
 3419 01ce 01       		.uleb128 0x1
 3420 01cf 13       		.uleb128 0x13
 3421 01d0 00       		.byte	0
 3422 01d1 00       		.byte	0
 3423 01d2 25       		.uleb128 0x25
 3424 01d3 34       		.uleb128 0x34
 3425 01d4 00       		.byte	0
 3426 01d5 03       		.uleb128 0x3
 3427 01d6 0E       		.uleb128 0xe
 3428 01d7 3A       		.uleb128 0x3a
 3429 01d8 0B       		.uleb128 0xb
 3430 01d9 3B       		.uleb128 0x3b
 3431 01da 05       		.uleb128 0x5
 3432 01db 49       		.uleb128 0x49
 3433 01dc 13       		.uleb128 0x13
 3434 01dd 02       		.uleb128 0x2
 3435 01de 06       		.uleb128 0x6
 3436 01df 00       		.byte	0
 3437 01e0 00       		.byte	0
 3438 01e1 26       		.uleb128 0x26
 3439 01e2 34       		.uleb128 0x34
 3440 01e3 00       		.byte	0
 3441 01e4 03       		.uleb128 0x3
 3442 01e5 08       		.uleb128 0x8
 3443 01e6 3A       		.uleb128 0x3a
 3444 01e7 0B       		.uleb128 0xb
 3445 01e8 3B       		.uleb128 0x3b
 3446 01e9 05       		.uleb128 0x5
 3447 01ea 49       		.uleb128 0x49
 3448 01eb 13       		.uleb128 0x13
 3449 01ec 02       		.uleb128 0x2
 3450 01ed 06       		.uleb128 0x6
 3451 01ee 00       		.byte	0
 3452 01ef 00       		.byte	0
 3453 01f0 27       		.uleb128 0x27
 3454 01f1 1D       		.uleb128 0x1d
 3455 01f2 00       		.byte	0
 3456 01f3 31       		.uleb128 0x31
 3457 01f4 13       		.uleb128 0x13
 3458 01f5 11       		.uleb128 0x11
 3459 01f6 01       		.uleb128 0x1
 3460 01f7 12       		.uleb128 0x12
 3461 01f8 01       		.uleb128 0x1
 3462 01f9 58       		.uleb128 0x58
 3463 01fa 0B       		.uleb128 0xb
 3464 01fb 59       		.uleb128 0x59
 3465 01fc 0B       		.uleb128 0xb
 3466 01fd 00       		.byte	0
 3467 01fe 00       		.byte	0
 3468 01ff 28       		.uleb128 0x28
 3469 0200 34       		.uleb128 0x34
ARM GAS  /tmp/ccOuzkN6.s 			page 63


 3470 0201 00       		.byte	0
 3471 0202 03       		.uleb128 0x3
 3472 0203 0E       		.uleb128 0xe
 3473 0204 3A       		.uleb128 0x3a
 3474 0205 0B       		.uleb128 0xb
 3475 0206 3B       		.uleb128 0x3b
 3476 0207 05       		.uleb128 0x5
 3477 0208 49       		.uleb128 0x49
 3478 0209 13       		.uleb128 0x13
 3479 020a 02       		.uleb128 0x2
 3480 020b 0A       		.uleb128 0xa
 3481 020c 00       		.byte	0
 3482 020d 00       		.byte	0
 3483 020e 29       		.uleb128 0x29
 3484 020f 0B       		.uleb128 0xb
 3485 0210 01       		.byte	0x1
 3486 0211 55       		.uleb128 0x55
 3487 0212 06       		.uleb128 0x6
 3488 0213 00       		.byte	0
 3489 0214 00       		.byte	0
 3490 0215 2A       		.uleb128 0x2a
 3491 0216 34       		.uleb128 0x34
 3492 0217 00       		.byte	0
 3493 0218 03       		.uleb128 0x3
 3494 0219 0E       		.uleb128 0xe
 3495 021a 3A       		.uleb128 0x3a
 3496 021b 0B       		.uleb128 0xb
 3497 021c 3B       		.uleb128 0x3b
 3498 021d 05       		.uleb128 0x5
 3499 021e 49       		.uleb128 0x49
 3500 021f 13       		.uleb128 0x13
 3501 0220 3F       		.uleb128 0x3f
 3502 0221 0C       		.uleb128 0xc
 3503 0222 3C       		.uleb128 0x3c
 3504 0223 0C       		.uleb128 0xc
 3505 0224 00       		.byte	0
 3506 0225 00       		.byte	0
 3507 0226 2B       		.uleb128 0x2b
 3508 0227 34       		.uleb128 0x34
 3509 0228 00       		.byte	0
 3510 0229 03       		.uleb128 0x3
 3511 022a 08       		.uleb128 0x8
 3512 022b 3A       		.uleb128 0x3a
 3513 022c 0B       		.uleb128 0xb
 3514 022d 3B       		.uleb128 0x3b
 3515 022e 05       		.uleb128 0x5
 3516 022f 49       		.uleb128 0x49
 3517 0230 13       		.uleb128 0x13
 3518 0231 3F       		.uleb128 0x3f
 3519 0232 0C       		.uleb128 0xc
 3520 0233 3C       		.uleb128 0x3c
 3521 0234 0C       		.uleb128 0xc
 3522 0235 00       		.byte	0
 3523 0236 00       		.byte	0
 3524 0237 00       		.byte	0
 3525              		.section	.debug_loc,"",%progbits
 3526              	.Ldebug_loc0:
ARM GAS  /tmp/ccOuzkN6.s 			page 64


 3527              	.LLST0:
 3528 0000 00000000 		.4byte	.LFB117
 3529 0004 02000000 		.4byte	.LCFI0
 3530 0008 0200     		.2byte	0x2
 3531 000a 7D       		.byte	0x7d
 3532 000b 00       		.sleb128 0
 3533 000c 02000000 		.4byte	.LCFI0
 3534 0010 60000000 		.4byte	.LFE117
 3535 0014 0200     		.2byte	0x2
 3536 0016 7D       		.byte	0x7d
 3537 0017 08       		.sleb128 8
 3538 0018 00000000 		.4byte	0
 3539 001c 00000000 		.4byte	0
 3540              	.LLST1:
 3541 0020 00000000 		.4byte	.LVL0
 3542 0024 08000000 		.4byte	.LVL1
 3543 0028 0200     		.2byte	0x2
 3544 002a 30       		.byte	0x30
 3545 002b 9F       		.byte	0x9f
 3546 002c 10000000 		.4byte	.LVL2
 3547 0030 1F000000 		.4byte	.LVL4-1
 3548 0034 0100     		.2byte	0x1
 3549 0036 53       		.byte	0x53
 3550 0037 00000000 		.4byte	0
 3551 003b 00000000 		.4byte	0
 3552              	.LLST2:
 3553 003f 00000000 		.4byte	.LFB122
 3554 0043 04000000 		.4byte	.LCFI1
 3555 0047 0200     		.2byte	0x2
 3556 0049 7D       		.byte	0x7d
 3557 004a 00       		.sleb128 0
 3558 004b 04000000 		.4byte	.LCFI1
 3559 004f 06000000 		.4byte	.LCFI2
 3560 0053 0200     		.2byte	0x2
 3561 0055 7D       		.byte	0x7d
 3562 0056 24       		.sleb128 36
 3563 0057 06000000 		.4byte	.LCFI2
 3564 005b 70060000 		.4byte	.LFE122
 3565 005f 0200     		.2byte	0x2
 3566 0061 7D       		.byte	0x7d
 3567 0062 38       		.sleb128 56
 3568 0063 00000000 		.4byte	0
 3569 0067 00000000 		.4byte	0
 3570              	.LLST3:
 3571 006b 00000000 		.4byte	.LVL5
 3572 006f 08000000 		.4byte	.LVL6
 3573 0073 0100     		.2byte	0x1
 3574 0075 50       		.byte	0x50
 3575 0076 00000000 		.4byte	0
 3576 007a 00000000 		.4byte	0
 3577              	.LLST4:
 3578 007e 14000000 		.4byte	.LVL7
 3579 0082 20000000 		.4byte	.LVL8
 3580 0086 0200     		.2byte	0x2
 3581 0088 30       		.byte	0x30
 3582 0089 9F       		.byte	0x9f
 3583 008a 20000000 		.4byte	.LVL8
ARM GAS  /tmp/ccOuzkN6.s 			page 65


 3584 008e 42000000 		.4byte	.LVL12
 3585 0092 0100     		.2byte	0x1
 3586 0094 59       		.byte	0x59
 3587 0095 04020000 		.4byte	.LVL39
 3588 0099 28020000 		.4byte	.LVL41
 3589 009d 0200     		.2byte	0x2
 3590 009f 30       		.byte	0x30
 3591 00a0 9F       		.byte	0x9f
 3592 00a1 8A030000 		.4byte	.LVL50
 3593 00a5 94030000 		.4byte	.LVL51
 3594 00a9 0200     		.2byte	0x2
 3595 00ab 30       		.byte	0x30
 3596 00ac 9F       		.byte	0x9f
 3597 00ad 94030000 		.4byte	.LVL51
 3598 00b1 AC030000 		.4byte	.LVL53
 3599 00b5 0200     		.2byte	0x2
 3600 00b7 35       		.byte	0x35
 3601 00b8 9F       		.byte	0x9f
 3602 00b9 AC030000 		.4byte	.LVL53
 3603 00bd C4030000 		.4byte	.LVL55
 3604 00c1 0200     		.2byte	0x2
 3605 00c3 36       		.byte	0x36
 3606 00c4 9F       		.byte	0x9f
 3607 00c5 88040000 		.4byte	.LVL73
 3608 00c9 90040000 		.4byte	.LVL75
 3609 00cd 0200     		.2byte	0x2
 3610 00cf 30       		.byte	0x30
 3611 00d0 9F       		.byte	0x9f
 3612 00d1 90040000 		.4byte	.LVL75
 3613 00d5 E0040000 		.4byte	.LVL77
 3614 00d9 0200     		.2byte	0x2
 3615 00db 37       		.byte	0x37
 3616 00dc 9F       		.byte	0x9f
 3617 00dd 9E050000 		.4byte	.LVL88
 3618 00e1 A8050000 		.4byte	.LVL89
 3619 00e5 0200     		.2byte	0x2
 3620 00e7 30       		.byte	0x30
 3621 00e8 9F       		.byte	0x9f
 3622 00e9 A8050000 		.4byte	.LVL89
 3623 00ed C2050000 		.4byte	.LVL91
 3624 00f1 0200     		.2byte	0x2
 3625 00f3 34       		.byte	0x34
 3626 00f4 9F       		.byte	0x9f
 3627 00f5 00000000 		.4byte	0
 3628 00f9 00000000 		.4byte	0
 3629              	.LLST5:
 3630 00fd 2A000000 		.4byte	.LVL9
 3631 0101 2C000000 		.4byte	.LVL10
 3632 0105 0100     		.2byte	0x1
 3633 0107 50       		.byte	0x50
 3634 0108 2C000000 		.4byte	.LVL10
 3635 010c 40000000 		.4byte	.LVL11
 3636 0110 0100     		.2byte	0x1
 3637 0112 54       		.byte	0x54
 3638 0113 40000000 		.4byte	.LVL11
 3639 0117 4C000000 		.4byte	.LVL13
 3640 011b 0100     		.2byte	0x1
ARM GAS  /tmp/ccOuzkN6.s 			page 66


 3641 011d 50       		.byte	0x50
 3642 011e 4C000000 		.4byte	.LVL13
 3643 0122 70060000 		.4byte	.LFE122
 3644 0126 0100     		.2byte	0x1
 3645 0128 54       		.byte	0x54
 3646 0129 00000000 		.4byte	0
 3647 012d 00000000 		.4byte	0
 3648              	.LLST6:
 3649 0131 14000000 		.4byte	.LVL7
 3650 0135 20000000 		.4byte	.LVL8
 3651 0139 0200     		.2byte	0x2
 3652 013b 30       		.byte	0x30
 3653 013c 9F       		.byte	0x9f
 3654 013d 20000000 		.4byte	.LVL8
 3655 0141 42000000 		.4byte	.LVL12
 3656 0145 0100     		.2byte	0x1
 3657 0147 55       		.byte	0x55
 3658 0148 A2000000 		.4byte	.LVL14
 3659 014c A4000000 		.4byte	.LVL15
 3660 0150 0100     		.2byte	0x1
 3661 0152 55       		.byte	0x55
 3662 0153 A8000000 		.4byte	.LVL16
 3663 0157 BA000000 		.4byte	.LVL17
 3664 015b 0100     		.2byte	0x1
 3665 015d 55       		.byte	0x55
 3666 015e 08010000 		.4byte	.LVL18
 3667 0162 28010000 		.4byte	.LVL20
 3668 0166 0200     		.2byte	0x2
 3669 0168 30       		.byte	0x30
 3670 0169 9F       		.byte	0x9f
 3671 016a 0A020000 		.4byte	.LVL40
 3672 016e 28020000 		.4byte	.LVL41
 3673 0172 0200     		.2byte	0x2
 3674 0174 30       		.byte	0x30
 3675 0175 9F       		.byte	0x9f
 3676 0176 94030000 		.4byte	.LVL51
 3677 017a C4030000 		.4byte	.LVL55
 3678 017e 0200     		.2byte	0x2
 3679 0180 30       		.byte	0x30
 3680 0181 9F       		.byte	0x9f
 3681 0182 8E040000 		.4byte	.LVL74
 3682 0186 E0040000 		.4byte	.LVL77
 3683 018a 0200     		.2byte	0x2
 3684 018c 30       		.byte	0x30
 3685 018d 9F       		.byte	0x9f
 3686 018e A8050000 		.4byte	.LVL89
 3687 0192 C2050000 		.4byte	.LVL91
 3688 0196 0200     		.2byte	0x2
 3689 0198 30       		.byte	0x30
 3690 0199 9F       		.byte	0x9f
 3691 019a 00000000 		.4byte	0
 3692 019e 00000000 		.4byte	0
 3693              	.LLST7:
 3694 01a2 FE040000 		.4byte	.LVL80
 3695 01a6 26050000 		.4byte	.LVL81
 3696 01aa 0200     		.2byte	0x2
 3697 01ac 30       		.byte	0x30
ARM GAS  /tmp/ccOuzkN6.s 			page 67


 3698 01ad 9F       		.byte	0x9f
 3699 01ae 18060000 		.4byte	.LVL120
 3700 01b2 22060000 		.4byte	.LVL121
 3701 01b6 0200     		.2byte	0x2
 3702 01b8 30       		.byte	0x30
 3703 01b9 9F       		.byte	0x9f
 3704 01ba 00000000 		.4byte	0
 3705 01be 00000000 		.4byte	0
 3706              	.LLST8:
 3707 01c2 E0040000 		.4byte	.LVL77
 3708 01c6 F0040000 		.4byte	.LVL78
 3709 01ca 0200     		.2byte	0x2
 3710 01cc 31       		.byte	0x31
 3711 01cd 9F       		.byte	0x9f
 3712 01ce FA040000 		.4byte	.LVL79
 3713 01d2 32050000 		.4byte	.LVL82
 3714 01d6 0100     		.2byte	0x1
 3715 01d8 51       		.byte	0x51
 3716 01d9 16060000 		.4byte	.LVL119
 3717 01dd 18060000 		.4byte	.LVL120
 3718 01e1 0200     		.2byte	0x2
 3719 01e3 31       		.byte	0x31
 3720 01e4 9F       		.byte	0x9f
 3721 01e5 18060000 		.4byte	.LVL120
 3722 01e9 22060000 		.4byte	.LVL121
 3723 01ed 0100     		.2byte	0x1
 3724 01ef 51       		.byte	0x51
 3725 01f0 00000000 		.4byte	0
 3726 01f4 00000000 		.4byte	0
 3727              	.LLST9:
 3728 01f8 E0040000 		.4byte	.LVL77
 3729 01fc F0040000 		.4byte	.LVL78
 3730 0200 0200     		.2byte	0x2
 3731 0202 30       		.byte	0x30
 3732 0203 9F       		.byte	0x9f
 3733 0204 FA040000 		.4byte	.LVL79
 3734 0208 FE040000 		.4byte	.LVL80
 3735 020c 0100     		.2byte	0x1
 3736 020e 53       		.byte	0x53
 3737 020f FE040000 		.4byte	.LVL80
 3738 0213 26050000 		.4byte	.LVL81
 3739 0217 0200     		.2byte	0x2
 3740 0219 30       		.byte	0x30
 3741 021a 9F       		.byte	0x9f
 3742 021b 64050000 		.4byte	.LVL83
 3743 021f 68050000 		.4byte	.LVL84
 3744 0223 0200     		.2byte	0x2
 3745 0225 30       		.byte	0x30
 3746 0226 9F       		.byte	0x9f
 3747 0227 72050000 		.4byte	.LVL85
 3748 022b 85050000 		.4byte	.LVL87-1
 3749 022f 0100     		.2byte	0x1
 3750 0231 53       		.byte	0x53
 3751 0232 16060000 		.4byte	.LVL119
 3752 0236 22060000 		.4byte	.LVL121
 3753 023a 0200     		.2byte	0x2
 3754 023c 30       		.byte	0x30
ARM GAS  /tmp/ccOuzkN6.s 			page 68


 3755 023d 9F       		.byte	0x9f
 3756 023e 00000000 		.4byte	0
 3757 0242 00000000 		.4byte	0
 3758              	.LLST10:
 3759 0246 08010000 		.4byte	.LVL18
 3760 024a 23010000 		.4byte	.LVL19-1
 3761 024e 0100     		.2byte	0x1
 3762 0250 53       		.byte	0x53
 3763 0251 94030000 		.4byte	.LVL51
 3764 0255 9B030000 		.4byte	.LVL52-1
 3765 0259 0100     		.2byte	0x1
 3766 025b 53       		.byte	0x53
 3767 025c AC030000 		.4byte	.LVL53
 3768 0260 B3030000 		.4byte	.LVL54-1
 3769 0264 0100     		.2byte	0x1
 3770 0266 53       		.byte	0x53
 3771 0267 90040000 		.4byte	.LVL75
 3772 026b 97040000 		.4byte	.LVL76-1
 3773 026f 0100     		.2byte	0x1
 3774 0271 53       		.byte	0x53
 3775 0272 A8050000 		.4byte	.LVL89
 3776 0276 B1050000 		.4byte	.LVL90-1
 3777 027a 0100     		.2byte	0x1
 3778 027c 53       		.byte	0x53
 3779 027d 00000000 		.4byte	0
 3780 0281 00000000 		.4byte	0
 3781              	.LLST11:
 3782 0285 62010000 		.4byte	.LVL22
 3783 0289 D6010000 		.4byte	.LVL36
 3784 028d 0100     		.2byte	0x1
 3785 028f 52       		.byte	0x52
 3786 0290 DC010000 		.4byte	.LVL37
 3787 0294 E3010000 		.4byte	.LVL38-1
 3788 0298 0100     		.2byte	0x1
 3789 029a 53       		.byte	0x53
 3790 029b EE050000 		.4byte	.LVL104
 3791 029f F0050000 		.4byte	.LVL105
 3792 02a3 0100     		.2byte	0x1
 3793 02a5 53       		.byte	0x53
 3794 02a6 F0050000 		.4byte	.LVL105
 3795 02aa 08060000 		.4byte	.LVL113
 3796 02ae 0100     		.2byte	0x1
 3797 02b0 52       		.byte	0x52
 3798 02b1 0C060000 		.4byte	.LVL114
 3799 02b5 0E060000 		.4byte	.LVL115
 3800 02b9 0100     		.2byte	0x1
 3801 02bb 52       		.byte	0x52
 3802 02bc 14060000 		.4byte	.LVL118
 3803 02c0 16060000 		.4byte	.LVL119
 3804 02c4 0100     		.2byte	0x1
 3805 02c6 53       		.byte	0x53
 3806 02c7 00000000 		.4byte	0
 3807 02cb 00000000 		.4byte	0
 3808              	.LLST12:
 3809 02cf 52010000 		.4byte	.LVL21
 3810 02d3 6C010000 		.4byte	.LVL24
 3811 02d7 0200     		.2byte	0x2
ARM GAS  /tmp/ccOuzkN6.s 			page 69


 3812 02d9 30       		.byte	0x30
 3813 02da 9F       		.byte	0x9f
 3814 02db 6C010000 		.4byte	.LVL24
 3815 02df D6010000 		.4byte	.LVL36
 3816 02e3 0100     		.2byte	0x1
 3817 02e5 51       		.byte	0x51
 3818 02e6 D6010000 		.4byte	.LVL36
 3819 02ea DC010000 		.4byte	.LVL37
 3820 02ee 0100     		.2byte	0x1
 3821 02f0 52       		.byte	0x52
 3822 02f1 DC010000 		.4byte	.LVL37
 3823 02f5 E3010000 		.4byte	.LVL38-1
 3824 02f9 0600     		.2byte	0x6
 3825 02fb 73       		.byte	0x73
 3826 02fc 00       		.sleb128 0
 3827 02fd 72       		.byte	0x72
 3828 02fe 00       		.sleb128 0
 3829 02ff 21       		.byte	0x21
 3830 0300 9F       		.byte	0x9f
 3831 0301 E8050000 		.4byte	.LVL103
 3832 0305 F0050000 		.4byte	.LVL105
 3833 0309 0100     		.2byte	0x1
 3834 030b 52       		.byte	0x52
 3835 030c F0050000 		.4byte	.LVL105
 3836 0310 08060000 		.4byte	.LVL113
 3837 0314 0100     		.2byte	0x1
 3838 0316 51       		.byte	0x51
 3839 0317 08060000 		.4byte	.LVL113
 3840 031b 0E060000 		.4byte	.LVL115
 3841 031f 0200     		.2byte	0x2
 3842 0321 30       		.byte	0x30
 3843 0322 9F       		.byte	0x9f
 3844 0323 12060000 		.4byte	.LVL117
 3845 0327 16060000 		.4byte	.LVL119
 3846 032b 0100     		.2byte	0x1
 3847 032d 52       		.byte	0x52
 3848 032e 00000000 		.4byte	0
 3849 0332 00000000 		.4byte	0
 3850              	.LLST13:
 3851 0336 52010000 		.4byte	.LVL21
 3852 033a 6C010000 		.4byte	.LVL24
 3853 033e 0200     		.2byte	0x2
 3854 0340 30       		.byte	0x30
 3855 0341 9F       		.byte	0x9f
 3856 0342 6C010000 		.4byte	.LVL24
 3857 0346 88010000 		.4byte	.LVL27
 3858 034a 0200     		.2byte	0x2
 3859 034c 31       		.byte	0x31
 3860 034d 9F       		.byte	0x9f
 3861 034e 88010000 		.4byte	.LVL27
 3862 0352 A2010000 		.4byte	.LVL30
 3863 0356 0200     		.2byte	0x2
 3864 0358 32       		.byte	0x32
 3865 0359 9F       		.byte	0x9f
 3866 035a A2010000 		.4byte	.LVL30
 3867 035e BC010000 		.4byte	.LVL33
 3868 0362 0200     		.2byte	0x2
ARM GAS  /tmp/ccOuzkN6.s 			page 70


 3869 0364 33       		.byte	0x33
 3870 0365 9F       		.byte	0x9f
 3871 0366 BC010000 		.4byte	.LVL33
 3872 036a D6010000 		.4byte	.LVL36
 3873 036e 0200     		.2byte	0x2
 3874 0370 34       		.byte	0x34
 3875 0371 9F       		.byte	0x9f
 3876 0372 D6010000 		.4byte	.LVL36
 3877 0376 DC010000 		.4byte	.LVL37
 3878 037a 0200     		.2byte	0x2
 3879 037c 35       		.byte	0x35
 3880 037d 9F       		.byte	0x9f
 3881 037e DC010000 		.4byte	.LVL37
 3882 0382 28020000 		.4byte	.LVL41
 3883 0386 0200     		.2byte	0x2
 3884 0388 36       		.byte	0x36
 3885 0389 9F       		.byte	0x9f
 3886 038a E8050000 		.4byte	.LVL103
 3887 038e F0050000 		.4byte	.LVL105
 3888 0392 0200     		.2byte	0x2
 3889 0394 35       		.byte	0x35
 3890 0395 9F       		.byte	0x9f
 3891 0396 F0050000 		.4byte	.LVL105
 3892 039a F6050000 		.4byte	.LVL107
 3893 039e 0200     		.2byte	0x2
 3894 03a0 34       		.byte	0x34
 3895 03a1 9F       		.byte	0x9f
 3896 03a2 F6050000 		.4byte	.LVL107
 3897 03a6 FC050000 		.4byte	.LVL109
 3898 03aa 0200     		.2byte	0x2
 3899 03ac 33       		.byte	0x33
 3900 03ad 9F       		.byte	0x9f
 3901 03ae FC050000 		.4byte	.LVL109
 3902 03b2 02060000 		.4byte	.LVL111
 3903 03b6 0200     		.2byte	0x2
 3904 03b8 32       		.byte	0x32
 3905 03b9 9F       		.byte	0x9f
 3906 03ba 02060000 		.4byte	.LVL111
 3907 03be 08060000 		.4byte	.LVL113
 3908 03c2 0200     		.2byte	0x2
 3909 03c4 31       		.byte	0x31
 3910 03c5 9F       		.byte	0x9f
 3911 03c6 08060000 		.4byte	.LVL113
 3912 03ca 0E060000 		.4byte	.LVL115
 3913 03ce 0200     		.2byte	0x2
 3914 03d0 30       		.byte	0x30
 3915 03d1 9F       		.byte	0x9f
 3916 03d2 12060000 		.4byte	.LVL117
 3917 03d6 16060000 		.4byte	.LVL119
 3918 03da 0200     		.2byte	0x2
 3919 03dc 35       		.byte	0x35
 3920 03dd 9F       		.byte	0x9f
 3921 03de 00000000 		.4byte	0
 3922 03e2 00000000 		.4byte	0
 3923              	.LLST14:
 3924 03e6 4E020000 		.4byte	.LVL45
 3925 03ea 76020000 		.4byte	.LVL46
ARM GAS  /tmp/ccOuzkN6.s 			page 71


 3926 03ee 0200     		.2byte	0x2
 3927 03f0 30       		.byte	0x30
 3928 03f1 9F       		.byte	0x9f
 3929 03f2 22060000 		.4byte	.LVL121
 3930 03f6 70060000 		.4byte	.LFE122
 3931 03fa 0200     		.2byte	0x2
 3932 03fc 30       		.byte	0x30
 3933 03fd 9F       		.byte	0x9f
 3934 03fe 00000000 		.4byte	0
 3935 0402 00000000 		.4byte	0
 3936              	.LLST15:
 3937 0406 38020000 		.4byte	.LVL42
 3938 040a 40020000 		.4byte	.LVL43
 3939 040e 0200     		.2byte	0x2
 3940 0410 31       		.byte	0x31
 3941 0411 9F       		.byte	0x9f
 3942 0412 4A020000 		.4byte	.LVL44
 3943 0416 82020000 		.4byte	.LVL47
 3944 041a 0100     		.2byte	0x1
 3945 041c 51       		.byte	0x51
 3946 041d 22060000 		.4byte	.LVL121
 3947 0421 28060000 		.4byte	.LVL122
 3948 0425 0100     		.2byte	0x1
 3949 0427 51       		.byte	0x51
 3950 0428 00000000 		.4byte	0
 3951 042c 00000000 		.4byte	0
 3952              	.LLST16:
 3953 0430 38020000 		.4byte	.LVL42
 3954 0434 40020000 		.4byte	.LVL43
 3955 0438 0200     		.2byte	0x2
 3956 043a 30       		.byte	0x30
 3957 043b 9F       		.byte	0x9f
 3958 043c 4A020000 		.4byte	.LVL44
 3959 0440 4E020000 		.4byte	.LVL45
 3960 0444 0100     		.2byte	0x1
 3961 0446 56       		.byte	0x56
 3962 0447 4E020000 		.4byte	.LVL45
 3963 044b 76020000 		.4byte	.LVL46
 3964 044f 0200     		.2byte	0x2
 3965 0451 30       		.byte	0x30
 3966 0452 9F       		.byte	0x9f
 3967 0453 DC020000 		.4byte	.LVL48
 3968 0457 04030000 		.4byte	.LVL49
 3969 045b 0200     		.2byte	0x2
 3970 045d 30       		.byte	0x30
 3971 045e 9F       		.byte	0x9f
 3972 045f 22060000 		.4byte	.LVL121
 3973 0463 70060000 		.4byte	.LFE122
 3974 0467 0200     		.2byte	0x2
 3975 0469 30       		.byte	0x30
 3976 046a 9F       		.byte	0x9f
 3977 046b 00000000 		.4byte	0
 3978 046f 00000000 		.4byte	0
 3979              	.LLST17:
 3980 0473 00040000 		.4byte	.LVL57
 3981 0477 74040000 		.4byte	.LVL71
 3982 047b 0100     		.2byte	0x1
ARM GAS  /tmp/ccOuzkN6.s 			page 72


 3983 047d 52       		.byte	0x52
 3984 047e 7A040000 		.4byte	.LVL72
 3985 0482 87040000 		.4byte	.LVL73-1
 3986 0486 0100     		.2byte	0x1
 3987 0488 53       		.byte	0x53
 3988 0489 C8050000 		.4byte	.LVL92
 3989 048d CA050000 		.4byte	.LVL93
 3990 0491 0100     		.2byte	0x1
 3991 0493 53       		.byte	0x53
 3992 0494 CA050000 		.4byte	.LVL93
 3993 0498 E2050000 		.4byte	.LVL101
 3994 049c 0100     		.2byte	0x1
 3995 049e 52       		.byte	0x52
 3996 049f E6050000 		.4byte	.LVL102
 3997 04a3 E8050000 		.4byte	.LVL103
 3998 04a7 0100     		.2byte	0x1
 3999 04a9 52       		.byte	0x52
 4000 04aa 10060000 		.4byte	.LVL116
 4001 04ae 12060000 		.4byte	.LVL117
 4002 04b2 0100     		.2byte	0x1
 4003 04b4 53       		.byte	0x53
 4004 04b5 00000000 		.4byte	0
 4005 04b9 00000000 		.4byte	0
 4006              	.LLST18:
 4007 04bd F0030000 		.4byte	.LVL56
 4008 04c1 0A040000 		.4byte	.LVL59
 4009 04c5 0200     		.2byte	0x2
 4010 04c7 30       		.byte	0x30
 4011 04c8 9F       		.byte	0x9f
 4012 04c9 0A040000 		.4byte	.LVL59
 4013 04cd 74040000 		.4byte	.LVL71
 4014 04d1 0100     		.2byte	0x1
 4015 04d3 51       		.byte	0x51
 4016 04d4 74040000 		.4byte	.LVL71
 4017 04d8 7A040000 		.4byte	.LVL72
 4018 04dc 0100     		.2byte	0x1
 4019 04de 52       		.byte	0x52
 4020 04df 7A040000 		.4byte	.LVL72
 4021 04e3 87040000 		.4byte	.LVL73-1
 4022 04e7 0600     		.2byte	0x6
 4023 04e9 73       		.byte	0x73
 4024 04ea 00       		.sleb128 0
 4025 04eb 72       		.byte	0x72
 4026 04ec 00       		.sleb128 0
 4027 04ed 21       		.byte	0x21
 4028 04ee 9F       		.byte	0x9f
 4029 04ef C2050000 		.4byte	.LVL91
 4030 04f3 CA050000 		.4byte	.LVL93
 4031 04f7 0100     		.2byte	0x1
 4032 04f9 52       		.byte	0x52
 4033 04fa CA050000 		.4byte	.LVL93
 4034 04fe E2050000 		.4byte	.LVL101
 4035 0502 0100     		.2byte	0x1
 4036 0504 51       		.byte	0x51
 4037 0505 E2050000 		.4byte	.LVL101
 4038 0509 E8050000 		.4byte	.LVL103
 4039 050d 0200     		.2byte	0x2
ARM GAS  /tmp/ccOuzkN6.s 			page 73


 4040 050f 30       		.byte	0x30
 4041 0510 9F       		.byte	0x9f
 4042 0511 0E060000 		.4byte	.LVL115
 4043 0515 12060000 		.4byte	.LVL117
 4044 0519 0100     		.2byte	0x1
 4045 051b 52       		.byte	0x52
 4046 051c 00000000 		.4byte	0
 4047 0520 00000000 		.4byte	0
 4048              	.LLST19:
 4049 0524 F0030000 		.4byte	.LVL56
 4050 0528 0A040000 		.4byte	.LVL59
 4051 052c 0200     		.2byte	0x2
 4052 052e 30       		.byte	0x30
 4053 052f 9F       		.byte	0x9f
 4054 0530 0A040000 		.4byte	.LVL59
 4055 0534 26040000 		.4byte	.LVL62
 4056 0538 0200     		.2byte	0x2
 4057 053a 31       		.byte	0x31
 4058 053b 9F       		.byte	0x9f
 4059 053c 26040000 		.4byte	.LVL62
 4060 0540 40040000 		.4byte	.LVL65
 4061 0544 0200     		.2byte	0x2
 4062 0546 32       		.byte	0x32
 4063 0547 9F       		.byte	0x9f
 4064 0548 40040000 		.4byte	.LVL65
 4065 054c 5A040000 		.4byte	.LVL68
 4066 0550 0200     		.2byte	0x2
 4067 0552 33       		.byte	0x33
 4068 0553 9F       		.byte	0x9f
 4069 0554 5A040000 		.4byte	.LVL68
 4070 0558 74040000 		.4byte	.LVL71
 4071 055c 0200     		.2byte	0x2
 4072 055e 34       		.byte	0x34
 4073 055f 9F       		.byte	0x9f
 4074 0560 74040000 		.4byte	.LVL71
 4075 0564 7A040000 		.4byte	.LVL72
 4076 0568 0200     		.2byte	0x2
 4077 056a 35       		.byte	0x35
 4078 056b 9F       		.byte	0x9f
 4079 056c 7A040000 		.4byte	.LVL72
 4080 0570 90040000 		.4byte	.LVL75
 4081 0574 0200     		.2byte	0x2
 4082 0576 36       		.byte	0x36
 4083 0577 9F       		.byte	0x9f
 4084 0578 C2050000 		.4byte	.LVL91
 4085 057c CA050000 		.4byte	.LVL93
 4086 0580 0200     		.2byte	0x2
 4087 0582 35       		.byte	0x35
 4088 0583 9F       		.byte	0x9f
 4089 0584 CA050000 		.4byte	.LVL93
 4090 0588 D0050000 		.4byte	.LVL95
 4091 058c 0200     		.2byte	0x2
 4092 058e 34       		.byte	0x34
 4093 058f 9F       		.byte	0x9f
 4094 0590 D0050000 		.4byte	.LVL95
 4095 0594 D6050000 		.4byte	.LVL97
 4096 0598 0200     		.2byte	0x2
ARM GAS  /tmp/ccOuzkN6.s 			page 74


 4097 059a 33       		.byte	0x33
 4098 059b 9F       		.byte	0x9f
 4099 059c D6050000 		.4byte	.LVL97
 4100 05a0 DC050000 		.4byte	.LVL99
 4101 05a4 0200     		.2byte	0x2
 4102 05a6 32       		.byte	0x32
 4103 05a7 9F       		.byte	0x9f
 4104 05a8 DC050000 		.4byte	.LVL99
 4105 05ac E2050000 		.4byte	.LVL101
 4106 05b0 0200     		.2byte	0x2
 4107 05b2 31       		.byte	0x31
 4108 05b3 9F       		.byte	0x9f
 4109 05b4 E2050000 		.4byte	.LVL101
 4110 05b8 E8050000 		.4byte	.LVL103
 4111 05bc 0200     		.2byte	0x2
 4112 05be 30       		.byte	0x30
 4113 05bf 9F       		.byte	0x9f
 4114 05c0 0E060000 		.4byte	.LVL115
 4115 05c4 12060000 		.4byte	.LVL117
 4116 05c8 0200     		.2byte	0x2
 4117 05ca 35       		.byte	0x35
 4118 05cb 9F       		.byte	0x9f
 4119 05cc 00000000 		.4byte	0
 4120 05d0 00000000 		.4byte	0
 4121              		.section	.debug_aranges,"",%progbits
 4122 0000 24000000 		.4byte	0x24
 4123 0004 0200     		.2byte	0x2
 4124 0006 00000000 		.4byte	.Ldebug_info0
 4125 000a 04       		.byte	0x4
 4126 000b 00       		.byte	0
 4127 000c 0000     		.2byte	0
 4128 000e 0000     		.2byte	0
 4129 0010 00000000 		.4byte	.LFB117
 4130 0014 60000000 		.4byte	.LFE117-.LFB117
 4131 0018 00000000 		.4byte	.LFB122
 4132 001c 70060000 		.4byte	.LFE122-.LFB122
 4133 0020 00000000 		.4byte	0
 4134 0024 00000000 		.4byte	0
 4135              		.section	.debug_ranges,"",%progbits
 4136              	.Ldebug_ranges0:
 4137 0000 16000000 		.4byte	.LBB15
 4138 0004 1A000000 		.4byte	.LBE15
 4139 0008 1C000000 		.4byte	.LBB16
 4140 000c 20000000 		.4byte	.LBE16
 4141 0010 E0040000 		.4byte	.LBB31
 4142 0014 A8050000 		.4byte	.LBE31
 4143 0018 16060000 		.4byte	.LBB37
 4144 001c 22060000 		.4byte	.LBE37
 4145 0020 00000000 		.4byte	0
 4146 0024 00000000 		.4byte	0
 4147 0028 04010000 		.4byte	.LBB17
 4148 002c 28010000 		.4byte	.LBE17
 4149 0030 94030000 		.4byte	.LBB28
 4150 0034 C4030000 		.4byte	.LBE28
 4151 0038 90040000 		.4byte	.LBB30
 4152 003c E0040000 		.4byte	.LBE30
 4153 0040 A8050000 		.4byte	.LBB32
ARM GAS  /tmp/ccOuzkN6.s 			page 75


 4154 0044 C2050000 		.4byte	.LBE32
 4155 0048 00000000 		.4byte	0
 4156 004c 00000000 		.4byte	0
 4157 0050 3C010000 		.4byte	.LBB26
 4158 0054 28020000 		.4byte	.LBE26
 4159 0058 E8050000 		.4byte	.LBB34
 4160 005c 0E060000 		.4byte	.LBE34
 4161 0060 12060000 		.4byte	.LBB36
 4162 0064 16060000 		.4byte	.LBE36
 4163 0068 00000000 		.4byte	0
 4164 006c 00000000 		.4byte	0
 4165 0070 38020000 		.4byte	.LBB27
 4166 0074 94030000 		.4byte	.LBE27
 4167 0078 22060000 		.4byte	.LBB38
 4168 007c 70060000 		.4byte	.LBE38
 4169 0080 00000000 		.4byte	0
 4170 0084 00000000 		.4byte	0
 4171 0088 C4030000 		.4byte	.LBB29
 4172 008c 90040000 		.4byte	.LBE29
 4173 0090 C2050000 		.4byte	.LBB33
 4174 0094 E8050000 		.4byte	.LBE33
 4175 0098 0E060000 		.4byte	.LBB35
 4176 009c 12060000 		.4byte	.LBE35
 4177 00a0 00000000 		.4byte	0
 4178 00a4 00000000 		.4byte	0
 4179 00a8 00000000 		.4byte	.LFB117
 4180 00ac 60000000 		.4byte	.LFE117
 4181 00b0 00000000 		.4byte	.LFB122
 4182 00b4 70060000 		.4byte	.LFE122
 4183 00b8 00000000 		.4byte	0
 4184 00bc 00000000 		.4byte	0
 4185              		.section	.debug_line,"",%progbits
 4186              	.Ldebug_line0:
 4187 0000 11050000 		.section	.debug_str,"MS",%progbits,1
 4187      02002C02 
 4187      00000201 
 4187      FB0E0D00 
 4187      01010101 
 4188              	.LASF2:
 4189 0000 73697A65 		.ascii	"size_t\000"
 4189      5F7400
 4190              	.LASF57:
 4191 0007 7264796D 		.ascii	"rdymsg\000"
 4191      736700
 4192              	.LASF72:
 4193 000e 4F757470 		.ascii	"OutputQueue\000"
 4193      75745175 
 4193      65756500 
 4194              	.LASF93:
 4195 001a 4F545950 		.ascii	"OTYPER\000"
 4195      455200
 4196              	.LASF116:
 4197 0021 73686F77 		.ascii	"showReadBytePrompt\000"
 4197      52656164 
 4197      42797465 
 4197      50726F6D 
 4197      707400
ARM GAS  /tmp/ccOuzkN6.s 			page 76


 4198              	.LASF92:
 4199 0034 4D4F4445 		.ascii	"MODER\000"
 4199      5200
 4200              	.LASF14:
 4201 003a 75696E74 		.ascii	"uint_fast16_t\000"
 4201      5F666173 
 4201      7431365F 
 4201      7400
 4202              	.LASF13:
 4203 0048 6C6F6E67 		.ascii	"long long unsigned int\000"
 4203      206C6F6E 
 4203      6720756E 
 4203      7369676E 
 4203      65642069 
 4204              	.LASF73:
 4205 005f 42617365 		.ascii	"BaseChannelVMT\000"
 4205      4368616E 
 4205      6E656C56 
 4205      4D5400
 4206              	.LASF95:
 4207 006e 50555044 		.ascii	"PUPDR\000"
 4207      5200
 4208              	.LASF58:
 4209 0074 65786974 		.ascii	"exitcode\000"
 4209      636F6465 
 4209      00
 4210              	.LASF130:
 4211 007d 49544D5F 		.ascii	"ITM_RxBuffer\000"
 4211      52784275 
 4211      66666572 
 4211      00
 4212              	.LASF132:
 4213 008a 434D445F 		.ascii	"CMD_TELEMETRY\000"
 4213      54454C45 
 4213      4D455452 
 4213      5900
 4214              	.LASF135:
 4215 0098 52455350 		.ascii	"RESP_RX_ERR\000"
 4215      5F52585F 
 4215      45525200 
 4216              	.LASF26:
 4217 00a4 705F7072 		.ascii	"p_prio\000"
 4217      696F00
 4218              	.LASF79:
 4219 00ab 72656164 		.ascii	"readt\000"
 4219      7400
 4220              	.LASF141:
 4221 00b1 55415254 		.ascii	"UART_Thread\000"
 4221      5F546872 
 4221      65616400 
 4222              	.LASF63:
 4223 00bd 715F7761 		.ascii	"q_waiting\000"
 4223      6974696E 
 4223      6700
 4224              	.LASF12:
 4225 00c7 6C6F6E67 		.ascii	"long long int\000"
 4225      206C6F6E 
ARM GAS  /tmp/ccOuzkN6.s 			page 77


 4225      6720696E 
 4225      7400
 4226              	.LASF1:
 4227 00d5 7369676E 		.ascii	"signed char\000"
 4227      65642063 
 4227      68617200 
 4228              	.LASF96:
 4229 00e1 42535252 		.ascii	"BSRR\000"
 4229      00
 4230              	.LASF88:
 4231 00e6 47545052 		.ascii	"GTPR\000"
 4231      00
 4232              	.LASF41:
 4233 00eb 705F6D70 		.ascii	"p_mpool\000"
 4233      6F6F6C00 
 4234              	.LASF15:
 4235 00f3 626F6F6C 		.ascii	"bool_t\000"
 4235      5F7400
 4236              	.LASF48:
 4237 00fa 6D5F7175 		.ascii	"m_queue\000"
 4237      65756500 
 4238              	.LASF120:
 4239 0102 6D795541 		.ascii	"myUART_events\000"
 4239      52545F65 
 4239      76656E74 
 4239      7300
 4240              	.LASF109:
 4241 0110 73746174 		.ascii	"state\000"
 4241      6500
 4242              	.LASF9:
 4243 0116 6C6F6E67 		.ascii	"long int\000"
 4243      20696E74 
 4243      00
 4244              	.LASF137:
 4245 011f 474E5520 		.ascii	"GNU C 4.6.2 20120613 (release) [ARM/embedded-4_6-br"
 4245      4320342E 
 4245      362E3220 
 4245      32303132 
 4245      30363133 
 4246 0152 616E6368 		.ascii	"anch revision 188521]\000"
 4246      20726576 
 4246      6973696F 
 4246      6E203138 
 4246      38353231 
 4247              	.LASF17:
 4248 0168 74737461 		.ascii	"tstate_t\000"
 4248      74655F74 
 4248      00
 4249              	.LASF33:
 4250 0171 705F7265 		.ascii	"p_refs\000"
 4250      667300
 4251              	.LASF65:
 4252 0178 715F6275 		.ascii	"q_buffer\000"
 4252      66666572 
 4252      00
 4253              	.LASF67:
 4254 0181 715F7772 		.ascii	"q_wrptr\000"
ARM GAS  /tmp/ccOuzkN6.s 			page 78


 4254      70747200 
 4255              	.LASF34:
 4256 0189 705F7469 		.ascii	"p_time\000"
 4256      6D6500
 4257              	.LASF139:
 4258 0190 2F686F6D 		.ascii	"/home/pacifist/fox1/amsat-fox1/amsat-fox/stm32f4-de"
 4258      652F7061 
 4258      63696669 
 4258      73742F66 
 4258      6F78312F 
 4259 01c3 76656C00 		.ascii	"vel\000"
 4260              	.LASF28:
 4261 01c7 705F6E65 		.ascii	"p_newer\000"
 4261      77657200 
 4262              	.LASF76:
 4263 01cf 70757477 		.ascii	"putwouldblock\000"
 4263      6F756C64 
 4263      626C6F63 
 4263      6B00
 4264              	.LASF94:
 4265 01dd 4F535045 		.ascii	"OSPEEDR\000"
 4265      45445200 
 4266              	.LASF44:
 4267 01e5 72656761 		.ascii	"regarm_t\000"
 4267      726D5F74 
 4267      00
 4268              	.LASF55:
 4269 01ee 4576656E 		.ascii	"EventSource\000"
 4269      74536F75 
 4269      72636500 
 4270              	.LASF129:
 4271 01fa 64657374 		.ascii	"dest32\000"
 4271      333200
 4272              	.LASF134:
 4273 0201 52455350 		.ascii	"RESP_OK\000"
 4273      5F4F4B00 
 4274              	.LASF112:
 4275 0209 75736172 		.ascii	"usart\000"
 4275      7400
 4276              	.LASF0:
 4277 020f 756E7369 		.ascii	"unsigned int\000"
 4277      676E6564 
 4277      20696E74 
 4277      00
 4278              	.LASF6:
 4279 021c 75696E74 		.ascii	"uint16_t\000"
 4279      31365F74 
 4279      00
 4280              	.LASF113:
 4281 0225 53657269 		.ascii	"SerialDriverVMT\000"
 4281      616C4472 
 4281      69766572 
 4281      564D5400 
 4282              	.LASF110:
 4283 0235 69717565 		.ascii	"iqueue\000"
 4283      756500
 4284              	.LASF36:
ARM GAS  /tmp/ccOuzkN6.s 			page 79


 4285 023c 705F6D73 		.ascii	"p_msgqueue\000"
 4285      67717565 
 4285      756500
 4286              	.LASF100:
 4287 0247 4750494F 		.ascii	"GPIO_TypeDef\000"
 4287      5F547970 
 4287      65446566 
 4287      00
 4288              	.LASF117:
 4289 0254 73686F77 		.ascii	"showWriteBytesPrompt\000"
 4289      57726974 
 4289      65427974 
 4289      65735072 
 4289      6F6D7074 
 4290              	.LASF97:
 4291 0269 4C434B52 		.ascii	"LCKR\000"
 4291      00
 4292              	.LASF107:
 4293 026e 6576656E 		.ascii	"event\000"
 4293      7400
 4294              	.LASF7:
 4295 0274 73686F72 		.ascii	"short unsigned int\000"
 4295      7420756E 
 4295      7369676E 
 4295      65642069 
 4295      6E7400
 4296              	.LASF20:
 4297 0287 6D73675F 		.ascii	"msg_t\000"
 4297      7400
 4298              	.LASF111:
 4299 028d 6F717565 		.ascii	"oqueue\000"
 4299      756500
 4300              	.LASF131:
 4301 0294 434D445F 		.ascii	"CMD_TAKE_PIC\000"
 4301      54414B45 
 4301      5F504943 
 4301      00
 4302              	.LASF90:
 4303 02a1 55534152 		.ascii	"USART_TypeDef\000"
 4303      545F5479 
 4303      70654465 
 4303      6600
 4304              	.LASF78:
 4305 02af 77726974 		.ascii	"writet\000"
 4305      657400
 4306              	.LASF16:
 4307 02b6 746D6F64 		.ascii	"tmode_t\000"
 4307      655F7400 
 4308              	.LASF43:
 4309 02be 54687265 		.ascii	"ThreadsList\000"
 4309      6164734C 
 4309      69737400 
 4310              	.LASF21:
 4311 02ca 6576656E 		.ascii	"eventmask_t\000"
 4311      746D6173 
 4311      6B5F7400 
 4312              	.LASF71:
ARM GAS  /tmp/ccOuzkN6.s 			page 80


 4313 02d6 496E7075 		.ascii	"InputQueue\000"
 4313      74517565 
 4313      756500
 4314              	.LASF70:
 4315 02e1 716E6F74 		.ascii	"qnotify_t\000"
 4315      6966795F 
 4315      7400
 4316              	.LASF62:
 4317 02eb 47656E65 		.ascii	"GenericQueue\000"
 4317      72696351 
 4317      75657565 
 4317      00
 4318              	.LASF124:
 4319 02f8 696E7075 		.ascii	"input_pos\000"
 4319      745F706F 
 4319      7300
 4320              	.LASF74:
 4321 0302 77726974 		.ascii	"write\000"
 4321      6500
 4322              	.LASF118:
 4323 0308 73686F77 		.ascii	"showReadBytesPrompt\000"
 4323      52656164 
 4323      42797465 
 4323      7350726F 
 4323      6D707400 
 4324              	.LASF91:
 4325 031c 636C6561 		.ascii	"clear\000"
 4325      7200
 4326              	.LASF47:
 4327 0322 4D757465 		.ascii	"Mutex\000"
 4327      7800
 4328              	.LASF122:
 4329 0328 6D795541 		.ascii	"myUART_state\000"
 4329      52545F73 
 4329      74617465 
 4329      00
 4330              	.LASF38:
 4331 0335 705F6570 		.ascii	"p_epending\000"
 4331      656E6469 
 4331      6E6700
 4332              	.LASF101:
 4333 0340 696F706F 		.ascii	"ioportmask_t\000"
 4333      72746D61 
 4333      736B5F74 
 4333      00
 4334              	.LASF29:
 4335 034d 705F6F6C 		.ascii	"p_older\000"
 4335      64657200 
 4336              	.LASF81:
 4337 0355 696F666C 		.ascii	"ioflags_t\000"
 4337      6167735F 
 4337      7400
 4338              	.LASF42:
 4339 035f 54687265 		.ascii	"ThreadsQueue\000"
 4339      61647351 
 4339      75657565 
 4339      00
ARM GAS  /tmp/ccOuzkN6.s 			page 81


 4340              	.LASF128:
 4341 036c 64657374 		.ascii	"dest\000"
 4341      00
 4342              	.LASF54:
 4343 0371 656C5F6D 		.ascii	"el_mask\000"
 4343      61736B00 
 4344              	.LASF99:
 4345 0379 41465248 		.ascii	"AFRH\000"
 4345      00
 4346              	.LASF98:
 4347 037e 4146524C 		.ascii	"AFRL\000"
 4347      00
 4348              	.LASF121:
 4349 0383 72656164 		.ascii	"read_buffer\000"
 4349      5F627566 
 4349      66657200 
 4350              	.LASF18:
 4351 038f 74726566 		.ascii	"trefs_t\000"
 4351      735F7400 
 4352              	.LASF82:
 4353 0397 52455345 		.ascii	"RESERVED0\000"
 4353      52564544 
 4353      3000
 4354              	.LASF83:
 4355 03a1 52455345 		.ascii	"RESERVED1\000"
 4355      52564544 
 4355      3100
 4356              	.LASF84:
 4357 03ab 52455345 		.ascii	"RESERVED2\000"
 4357      52564544 
 4357      3200
 4358              	.LASF85:
 4359 03b5 52455345 		.ascii	"RESERVED3\000"
 4359      52564544 
 4359      3300
 4360              	.LASF86:
 4361 03bf 52455345 		.ascii	"RESERVED4\000"
 4361      52564544 
 4361      3400
 4362              	.LASF25:
 4363 03c9 705F7072 		.ascii	"p_prev\000"
 4363      657600
 4364              	.LASF89:
 4365 03d0 52455345 		.ascii	"RESERVED6\000"
 4365      52564544 
 4365      3600
 4366              	.LASF19:
 4367 03da 74707269 		.ascii	"tprio_t\000"
 4367      6F5F7400 
 4368              	.LASF68:
 4369 03e2 715F7264 		.ascii	"q_rdptr\000"
 4369      70747200 
 4370              	.LASF8:
 4371 03ea 696E7433 		.ascii	"int32_t\000"
 4371      325F7400 
 4372              	.LASF4:
 4373 03f2 756E7369 		.ascii	"unsigned char\000"
ARM GAS  /tmp/ccOuzkN6.s 			page 82


 4373      676E6564 
 4373      20636861 
 4373      7200
 4374              	.LASF53:
 4375 0400 656C5F6C 		.ascii	"el_listener\000"
 4375      69737465 
 4375      6E657200 
 4376              	.LASF31:
 4377 040c 705F7374 		.ascii	"p_state\000"
 4377      61746500 
 4378              	.LASF39:
 4379 0414 705F6D74 		.ascii	"p_mtxlist\000"
 4379      786C6973 
 4379      7400
 4380              	.LASF5:
 4381 041e 73686F72 		.ascii	"short int\000"
 4381      7420696E 
 4381      7400
 4382              	.LASF115:
 4383 0428 73686F77 		.ascii	"showWriteBytePrompt\000"
 4383      57726974 
 4383      65427974 
 4383      6550726F 
 4383      6D707400 
 4384              	.LASF127:
 4385 043c 6F707469 		.ascii	"option\000"
 4385      6F6E00
 4386              	.LASF60:
 4387 0443 65776D61 		.ascii	"ewmask\000"
 4387      736B00
 4388              	.LASF24:
 4389 044a 705F6E65 		.ascii	"p_next\000"
 4389      787400
 4390              	.LASF32:
 4391 0451 705F666C 		.ascii	"p_flags\000"
 4391      61677300 
 4392              	.LASF52:
 4393 0459 656C5F6E 		.ascii	"el_next\000"
 4393      65787400 
 4394              	.LASF103:
 4395 0461 53445F53 		.ascii	"SD_STOP\000"
 4395      544F5000 
 4396              	.LASF23:
 4397 0469 54687265 		.ascii	"Thread\000"
 4397      616400
 4398              	.LASF119:
 4399 0470 73657269 		.ascii	"serial_events\000"
 4399      616C5F65 
 4399      76656E74 
 4399      7300
 4400              	.LASF102:
 4401 047e 53445F55 		.ascii	"SD_UNINIT\000"
 4401      4E494E49 
 4401      5400
 4402              	.LASF87:
 4403 0488 52455345 		.ascii	"RESERVED5\000"
 4403      52564544 
ARM GAS  /tmp/ccOuzkN6.s 			page 83


 4403      3500
 4404              	.LASF140:
 4405 0492 73686F77 		.ascii	"showMenu\000"
 4405      4D656E75 
 4405      00
 4406              	.LASF123:
 4407 049b 6576656E 		.ascii	"events\000"
 4407      747300
 4408              	.LASF64:
 4409 04a2 715F636F 		.ascii	"q_counter\000"
 4409      756E7465 
 4409      7200
 4410              	.LASF133:
 4411 04ac 434D445F 		.ascii	"CMD_ABORT\000"
 4411      41424F52 
 4411      5400
 4412              	.LASF105:
 4413 04b6 73647374 		.ascii	"sdstate_t\000"
 4413      6174655F 
 4413      7400
 4414              	.LASF106:
 4415 04c0 53657269 		.ascii	"SerialDriver\000"
 4415      616C4472 
 4415      69766572 
 4415      00
 4416              	.LASF11:
 4417 04cd 6C6F6E67 		.ascii	"long unsigned int\000"
 4417      20756E73 
 4417      69676E65 
 4417      6420696E 
 4417      7400
 4418              	.LASF75:
 4419 04df 72656164 		.ascii	"read\000"
 4419      00
 4420              	.LASF61:
 4421 04e4 63686172 		.ascii	"char\000"
 4421      00
 4422              	.LASF126:
 4423 04e9 6D756C74 		.ascii	"mult\000"
 4423      00
 4424              	.LASF138:
 4425 04ee 2E2F7561 		.ascii	"./uart_iface/uart_iface.c\000"
 4425      72745F69 
 4425      66616365 
 4425      2F756172 
 4425      745F6966 
 4426              	.LASF50:
 4427 0508 6D5F6E65 		.ascii	"m_next\000"
 4427      787400
 4428              	.LASF22:
 4429 050f 73797374 		.ascii	"systime_t\000"
 4429      696D655F 
 4429      7400
 4430              	.LASF40:
 4431 0519 705F7265 		.ascii	"p_realprio\000"
 4431      616C7072 
 4431      696F00
ARM GAS  /tmp/ccOuzkN6.s 			page 84


 4432              	.LASF114:
 4433 0524 67657466 		.ascii	"getflags\000"
 4433      6C616773 
 4433      00
 4434              	.LASF46:
 4435 052d 636F6E74 		.ascii	"context\000"
 4435      65787400 
 4436              	.LASF37:
 4437 0535 705F6D73 		.ascii	"p_msg\000"
 4437      6700
 4438              	.LASF45:
 4439 053b 696E7463 		.ascii	"intctx\000"
 4439      747800
 4440              	.LASF104:
 4441 0542 53445F52 		.ascii	"SD_READY\000"
 4441      45414459 
 4441      00
 4442              	.LASF10:
 4443 054b 75696E74 		.ascii	"uint32_t\000"
 4443      33325F74 
 4443      00
 4444              	.LASF66:
 4445 0554 715F746F 		.ascii	"q_top\000"
 4445      7000
 4446              	.LASF30:
 4447 055a 705F6E61 		.ascii	"p_name\000"
 4447      6D6500
 4448              	.LASF56:
 4449 0561 65735F6E 		.ascii	"es_next\000"
 4449      65787400 
 4450              	.LASF69:
 4451 0569 715F6E6F 		.ascii	"q_notify\000"
 4451      74696679 
 4451      00
 4452              	.LASF125:
 4453 0572 62797465 		.ascii	"bytes\000"
 4453      7300
 4454              	.LASF3:
 4455 0578 75696E74 		.ascii	"uint8_t\000"
 4455      385F7400 
 4456              	.LASF80:
 4457 0580 42617365 		.ascii	"BaseChannel\000"
 4457      4368616E 
 4457      6E656C00 
 4458              	.LASF108:
 4459 058c 666C6167 		.ascii	"flags\000"
 4459      7300
 4460              	.LASF51:
 4461 0592 4576656E 		.ascii	"EventListener\000"
 4461      744C6973 
 4461      74656E65 
 4461      7200
 4462              	.LASF59:
 4463 05a0 77746F62 		.ascii	"wtobjp\000"
 4463      6A7000
 4464              	.LASF136:
 4465 05a7 696E7075 		.ascii	"input_buffer\000"
ARM GAS  /tmp/ccOuzkN6.s 			page 85


 4465      745F6275 
 4465      66666572 
 4465      00
 4466              	.LASF77:
 4467 05b4 67657477 		.ascii	"getwouldblock\000"
 4467      6F756C64 
 4467      626C6F63 
 4467      6B00
 4468              	.LASF49:
 4469 05c2 6D5F6F77 		.ascii	"m_owner\000"
 4469      6E657200 
 4470              	.LASF27:
 4471 05ca 705F6374 		.ascii	"p_ctx\000"
 4471      7800
 4472              	.LASF35:
 4473 05d0 705F7761 		.ascii	"p_waiting\000"
 4473      6974696E 
 4473      6700
 4474              		.ident	"GCC: (GNU Tools for ARM Embedded Processors) 4.6.2 20120613 (release) [ARM/embedded-4_6-br
ARM GAS  /tmp/ccOuzkN6.s 			page 86


DEFINED SYMBOLS
                            *ABS*:00000000 uart_iface.c
     /tmp/ccOuzkN6.s:19     .text.showMenu:00000000 $t
     /tmp/ccOuzkN6.s:24     .text.showMenu:00000000 showMenu
     /tmp/ccOuzkN6.s:86     .text.showMenu:00000044 $d
     /tmp/ccOuzkN6.s:97     .text.UART_Thread:00000000 $t
     /tmp/ccOuzkN6.s:103    .text.UART_Thread:00000000 UART_Thread
     /tmp/ccOuzkN6.s:472    .text.UART_Thread:0000020c $d
     /tmp/ccOuzkN6.s:483    .text.UART_Thread:00000228 $t
     /tmp/ccOuzkN6.s:895    .text.UART_Thread:000004a8 $d
     /tmp/ccOuzkN6.s:916    .text.UART_Thread:000004e0 $t
     /tmp/ccOuzkN6.s:1207   .text.UART_Thread:0000064c $d
     /tmp/ccOuzkN6.s:1221   .bss.input_buffer:00000000 $d
     /tmp/ccOuzkN6.s:1225   .bss.input_buffer:00000000 input_buffer
     /tmp/ccOuzkN6.s:1228   .rodata.str1.4:00000000 $d
                     .debug_frame:00000010 $d

UNDEFINED SYMBOLS
chprintf
SD3
chEvtRegisterMask
chEvtWaitOne
chEvtClearFlags
chIQReadTimeout
chOQWriteTimeout
flashReadByte
flashErase
flashWriteBytes
flashWriteByte
flashReadBytes
