ARM GAS  /tmp/ccOuzkN6.s 			page 1


   1              		.syntax unified
   2              		.cpu cortex-m4
   3              		.fpu softvfp
   4              		.eabi_attribute 20, 1
   5              		.eabi_attribute 21, 1
   6              		.eabi_attribute 23, 3
   7              		.eabi_attribute 24, 1
   8              		.eabi_attribute 25, 1
   9              		.eabi_attribute 26, 1
  10              		.eabi_attribute 30, 2
  11              		.eabi_attribute 34, 1
  12              		.eabi_attribute 18, 4
  13              		.thumb
  14              		.file	"uart_iface.c"
  15              		.text
  16              	.Ltext0:
  17              		.cfi_sections	.debug_frame
  18              		.section	.text.showMenu,"ax",%progbits
  19              		.align	2
  20              		.p2align 4,,15
  21              		.thumb
  22              		.thumb_func
  23              		.type	showMenu, %function
  24              	showMenu:
  25              	.LFB117:
  26              		.file 1 "./uart_iface/uart_iface.c"
  27              		.loc 1 14 0
  28              		.cfi_startproc
  29              		@ args = 0, pretend = 0, frame = 0
  30              		@ frame_needed = 0, uses_anonymous_args = 0
  31              	.LVL0:
  32 0000 10B5     		push	{r4, lr}
  33              	.LCFI0:
  34              		.cfi_def_cfa_offset 8
  35              		.cfi_offset 14, -4
  36              		.cfi_offset 4, -8
  37              		.loc 1 15 0
  38 0002 0023     		movs	r3, #0
  39 0004 0F48     		ldr	r0, .L6
  40              		.loc 1 17 0
  41 0006 1946     		mov	r1, r3
  42              	.LVL1:
  43              	.L2:
  44              		.loc 1 16 0 discriminator 2
  45 0008 5C1C     		adds	r4, r3, #1
  46 000a E2B2     		uxtb	r2, r4
  47 000c 541C     		adds	r4, r2, #1
  48              		.loc 1 17 0 discriminator 2
  49 000e C154     		strb	r1, [r0, r3]
  50              	.LVL2:
  51              		.loc 1 16 0 discriminator 2
  52 0010 E3B2     		uxtb	r3, r4
  53              	.LVL3:
  54 0012 802B     		cmp	r3, #128
  55              		.loc 1 17 0 discriminator 2
  56 0014 8154     		strb	r1, [r0, r2]
  57              		.loc 1 16 0 discriminator 2
ARM GAS  /tmp/ccOuzkN6.s 			page 2


  58 0016 F7D1     		bne	.L2
  59              		.loc 1 18 0
  60 0018 0B48     		ldr	r0, .L6+4
  61 001a 0C49     		ldr	r1, .L6+8
  62 001c FFF7FEFF 		bl	chprintf
  63              	.LVL4:
  64              		.loc 1 19 0
  65 0020 0948     		ldr	r0, .L6+4
  66 0022 0B49     		ldr	r1, .L6+12
  67 0024 FFF7FEFF 		bl	chprintf
  68              		.loc 1 20 0
  69 0028 0748     		ldr	r0, .L6+4
  70 002a 0A49     		ldr	r1, .L6+16
  71 002c FFF7FEFF 		bl	chprintf
  72              		.loc 1 21 0
  73 0030 0548     		ldr	r0, .L6+4
  74 0032 0949     		ldr	r1, .L6+20
  75 0034 FFF7FEFF 		bl	chprintf
  76              		.loc 1 22 0
  77 0038 0348     		ldr	r0, .L6+4
  78 003a 0849     		ldr	r1, .L6+24
  79              		.loc 1 24 0
  80 003c BDE81040 		pop	{r4, lr}
  81              		.loc 1 22 0
  82 0040 FFF7FEBF 		b	chprintf
  83              	.L7:
  84              		.align	2
  85              	.L6:
  86 0044 00000000 		.word	.LANCHOR0
  87 0048 00000000 		.word	SD3
  88 004c 00000000 		.word	.LC0
  89 0050 18000000 		.word	.LC1
  90 0054 38000000 		.word	.LC2
  91 0058 58000000 		.word	.LC3
  92 005c 78000000 		.word	.LC4
  93              		.cfi_endproc
  94              	.LFE117:
  95              		.size	showMenu, .-showMenu
  96              		.section	.text.UART_Thread,"ax",%progbits
  97              		.align	2
  98              		.p2align 4,,15
  99              		.global	UART_Thread
 100              		.thumb
 101              		.thumb_func
 102              		.type	UART_Thread, %function
 103              	UART_Thread:
 104              	.LFB122:
 105              		.loc 1 86 0
 106              		.cfi_startproc
 107              		@ args = 0, pretend = 0, frame = 16
 108              		@ frame_needed = 0, uses_anonymous_args = 0
 109              	.LVL5:
 110 0000 2DE9F04F 		push	{r4, r5, r6, r7, r8, r9, sl, fp, lr}
 111              	.LCFI1:
 112              		.cfi_def_cfa_offset 36
 113              		.cfi_offset 14, -4
 114              		.cfi_offset 11, -8
ARM GAS  /tmp/ccOuzkN6.s 			page 3


 115              		.cfi_offset 10, -12
 116              		.cfi_offset 9, -16
 117              		.cfi_offset 8, -20
 118              		.cfi_offset 7, -24
 119              		.cfi_offset 6, -28
 120              		.cfi_offset 5, -32
 121              		.cfi_offset 4, -36
 122 0004 85B0     		sub	sp, sp, #20
 123              	.LCFI2:
 124              		.cfi_def_cfa_offset 56
 125              		.loc 1 95 0
 126 0006 8148     		ldr	r0, .L126
 127              	.LVL6:
 128 0008 DFF80CA2 		ldr	sl, .L126+12
 129 000c 6946     		mov	r1, sp
 130 000e 8C22     		movs	r2, #140
 131 0010 FFF7FEFF 		bl	chEvtRegisterMask
 132              	.LVL7:
 133              		.loc 1 162 0
 134 0014 0025     		movs	r5, #0
 135              	.LBB15:
 136              		.loc 1 332 0
 137 0016 4CF6CD48 		movw	r8, #52429
 138              	.LBE15:
 139              		.loc 1 163 0
 140 001a A946     		mov	r9, r5
 141              	.LBB16:
 142              		.loc 1 332 0
 143 001c CCF6CC48 		movt	r8, 52428
 144              	.LVL8:
 145              	.L108:
 146              	.LBE16:
 147              		.loc 1 166 0
 148 0020 8C20     		movs	r0, #140
 149 0022 FFF7FEFF 		bl	chEvtWaitOne
 150              		.loc 1 168 0
 151 0026 4207     		lsls	r2, r0, #29
 152              		.loc 1 166 0
 153 0028 0446     		mov	r4, r0
 154              	.LVL9:
 155              		.loc 1 168 0
 156 002a 0AD4     		bmi	.L113
 157              	.LVL10:
 158              	.L10:
 159              		.loc 1 352 0
 160 002c 2307     		lsls	r3, r4, #28
 161 002e F7D5     		bpl	.L108
 162              		.loc 1 353 0
 163 0030 0820     		movs	r0, #8
 164 0032 FFF7FEFF 		bl	chEvtClearFlags
 165              		.loc 1 166 0
 166 0036 8C20     		movs	r0, #140
 167 0038 FFF7FEFF 		bl	chEvtWaitOne
 168              		.loc 1 168 0
 169 003c 4207     		lsls	r2, r0, #29
 170              		.loc 1 166 0
 171 003e 0446     		mov	r4, r0
ARM GAS  /tmp/ccOuzkN6.s 			page 4


 172              	.LVL11:
 173              		.loc 1 168 0
 174 0040 F4D5     		bpl	.L10
 175              	.LVL12:
 176              	.L113:
 177              		.loc 1 170 0
 178 0042 0122     		movs	r2, #1
 179 0044 4FF0FF33 		mov	r3, #-1
 180 0048 03A9     		add	r1, sp, #12
 181 004a 7148     		ldr	r0, .L126+4
 182              	.LVL13:
 183 004c FFF7FEFF 		bl	chIQReadTimeout
 184              		.loc 1 171 0
 185 0050 0420     		movs	r0, #4
 186 0052 FFF7FEFF 		bl	chEvtClearFlags
 187              		.loc 1 172 0
 188 0056 9DF80C30 		ldrb	r3, [sp, #12]	@ zero_extendqisi2
 189 005a 082B     		cmp	r3, #8
 190 005c 22D0     		beq	.L114
 191              		.loc 1 181 0
 192 005e 14F08006 		ands	r6, r4, #128
 193 0062 0BD0     		beq	.L12
 194              		.loc 1 184 0
 195 0064 4FF44060 		mov	r0, #3072
 196 0068 C4F20200 		movt	r0, 16386
 197 006c 4169     		ldr	r1, [r0, #20]
 198 006e 81F48042 		eor	r2, r1, #16384
 199 0072 4261     		str	r2, [r0, #20]
 200              		.loc 1 185 0
 201 0074 8020     		movs	r0, #128
 202 0076 FFF7FEFF 		bl	chEvtClearFlags
 203 007a D7E7     		b	.L10
 204              	.L12:
 205              		.loc 1 188 0
 206 007c 6548     		ldr	r0, .L126+8
 207 007e 03A9     		add	r1, sp, #12
 208 0080 0122     		movs	r2, #1
 209 0082 3346     		mov	r3, r6
 210 0084 FFF7FEFF 		bl	chOQWriteTimeout
 211              		.loc 1 195 0
 212 0088 B9F1000F 		cmp	r9, #0
 213 008c 15D1     		bne	.L13
 214              		.loc 1 196 0
 215 008e 9DF80C60 		ldrb	r6, [sp, #12]	@ zero_extendqisi2
 216              		.loc 1 197 0
 217 0092 0D2E     		cmp	r6, #13
 218              		.loc 1 196 0
 219 0094 0AF80560 		strb	r6, [sl, r5]
 220              		.loc 1 197 0
 221 0098 34D0     		beq	.L115
 222              		.loc 1 217 0
 223 009a 7F2D     		cmp	r5, #127
 224 009c 44D0     		beq	.L75
 225              	.L110:
 226              		.loc 1 346 0
 227 009e 0135     		adds	r5, r5, #1
 228 00a0 EDB2     		uxtb	r5, r5
ARM GAS  /tmp/ccOuzkN6.s 			page 5


 229              	.LVL14:
 230 00a2 C3E7     		b	.L10
 231              	.LVL15:
 232              	.L114:
 233              		.loc 1 173 0
 234 00a4 013D     		subs	r5, r5, #1
 235 00a6 EDB2     		uxtb	r5, r5
 236              	.LVL16:
 237              		.loc 1 174 0
 238 00a8 FF2D     		cmp	r5, #255
 239 00aa 1CD0     		beq	.L83
 240              		.loc 1 178 0
 241 00ac 03A9     		add	r1, sp, #12
 242 00ae 0122     		movs	r2, #1
 243 00b0 0023     		movs	r3, #0
 244 00b2 5848     		ldr	r0, .L126+8
 245 00b4 FFF7FEFF 		bl	chOQWriteTimeout
 246 00b8 B8E7     		b	.L10
 247              	.LVL17:
 248              	.L13:
 249              		.loc 1 223 0
 250 00ba B9F1060F 		cmp	r9, #6
 251 00be 14D0     		beq	.L116
 252              		.loc 1 255 0
 253 00c0 B9F1070F 		cmp	r9, #7
 254 00c4 32D0     		beq	.L117
 255              		.loc 1 287 0
 256 00c6 B9F1040F 		cmp	r9, #4
 257 00ca 00F0AD80 		beq	.L118
 258              		.loc 1 321 0
 259 00ce B9F1050F 		cmp	r9, #5
 260 00d2 ABD1     		bne	.L10
 261              		.loc 1 322 0
 262 00d4 9DF80C00 		ldrb	r0, [sp, #12]	@ zero_extendqisi2
 263              		.loc 1 323 0
 264 00d8 0D28     		cmp	r0, #13
 265              		.loc 1 322 0
 266 00da 0AF80500 		strb	r0, [sl, r5]
 267              		.loc 1 323 0
 268 00de 00F0FF81 		beq	.L119
 269              		.loc 1 342 0
 270 00e2 7F2D     		cmp	r5, #127
 271 00e4 DBD1     		bne	.L110
 272              	.L83:
 273              		.loc 1 343 0
 274 00e6 0025     		movs	r5, #0
 275 00e8 A0E7     		b	.L10
 276              	.L116:
 277              		.loc 1 224 0
 278 00ea 9DF80CB0 		ldrb	fp, [sp, #12]	@ zero_extendqisi2
 279 00ee 4A4F     		ldr	r7, .L126+12
 280 00f0 0AF805B0 		strb	fp, [sl, r5]
 281              		.loc 1 225 0
 282 00f4 BBF10D0F 		cmp	fp, #13
 283 00f8 00F06481 		beq	.L120
 284              	.L60:
 285              		.loc 1 314 0
ARM GAS  /tmp/ccOuzkN6.s 			page 6


 286 00fc 7F2D     		cmp	r5, #127
 287 00fe CED1     		bne	.L110
 288              		.loc 1 315 0
 289 0100 3546     		mov	r5, r6
 290 0102 93E7     		b	.L10
 291              	.L115:
 292              	.LBB17:
 293              		.loc 1 198 0
 294 0104 444F     		ldr	r7, .L126+12
 295 0106 3B78     		ldrb	r3, [r7, #0]	@ zero_extendqisi2
 296              	.LVL18:
 297              		.loc 1 202 0
 298 0108 312B     		cmp	r3, #49
 299 010a 00F04F81 		beq	.L121
 300              		.loc 1 205 0
 301 010e 322B     		cmp	r3, #50
 302 0110 00F0BE81 		beq	.L122
 303              		.loc 1 208 0
 304 0114 332B     		cmp	r3, #51
 305 0116 00F04782 		beq	.L123
 306              		.loc 1 211 0
 307 011a 342B     		cmp	r3, #52
 308 011c 00F03A81 		beq	.L124
 309              		.loc 1 215 0
 310 0120 FFF7FEFF 		bl	showMenu
 311              	.LVL19:
 312              		.loc 1 201 0
 313 0124 4D46     		mov	r5, r9
 314 0126 81E7     		b	.L10
 315              	.LVL20:
 316              	.L75:
 317              	.LBE17:
 318              		.loc 1 218 0
 319 0128 4D46     		mov	r5, r9
 320 012a 7FE7     		b	.L10
 321              	.L117:
 322              		.loc 1 256 0
 323 012c 9DF80CC0 		ldrb	ip, [sp, #12]	@ zero_extendqisi2
 324 0130 394F     		ldr	r7, .L126+12
 325 0132 0AF805C0 		strb	ip, [sl, r5]
 326              		.loc 1 257 0
 327 0136 BCF10D0F 		cmp	ip, #13
 328 013a DFD1     		bne	.L60
 329              	.LBB26:
 330              		.loc 1 258 0
 331 013c 3748     		ldr	r0, .L126+16
 332 013e 3849     		ldr	r1, .L126+20
 333 0140 FFF7FEFF 		bl	chprintf
 334              		.loc 1 259 0
 335 0144 0622     		movs	r2, #6
 336 0146 4FF0FF33 		mov	r3, #-1
 337 014a 3248     		ldr	r0, .L126+8
 338 014c 3946     		mov	r1, r7
 339 014e FFF7FEFF 		bl	chOQWriteTimeout
 340              	.LVL21:
 341              		.loc 1 265 0
 342 0152 3B78     		ldrb	r3, [r7, #0]	@ zero_extendqisi2
ARM GAS  /tmp/ccOuzkN6.s 			page 7


 343 0154 602B     		cmp	r3, #96
 344 0156 00F25782 		bhi	.L41
 345              		.loc 1 267 0
 346 015a 402B     		cmp	r3, #64
 347              		.loc 1 270 0
 348 015c 94BF     		ite	ls
 349 015e A3F13002 		subls	r2, r3, #48
 350              	.LVL22:
 351              		.loc 1 268 0
 352 0162 A3F13102 		subhi	r2, r3, #49
 353              	.LVL23:
 354              	.L43:
 355              		.loc 1 265 0
 356 0166 9AF80130 		ldrb	r3, [sl, #1]	@ zero_extendqisi2
 357              		.loc 1 271 0
 358 016a 1105     		lsls	r1, r2, #20
 359              	.LVL24:
 360              		.loc 1 265 0
 361 016c 602B     		cmp	r3, #96
 362 016e 00F24882 		bhi	.L44
 363              		.loc 1 267 0
 364 0172 402B     		cmp	r3, #64
 365              		.loc 1 270 0
 366 0174 94BF     		ite	ls
 367 0176 A3F13002 		subls	r2, r3, #48
 368              	.LVL25:
 369              		.loc 1 268 0
 370 017a A3F13102 		subhi	r2, r3, #49
 371              	.LVL26:
 372              	.L46:
 373              		.loc 1 265 0
 374 017e 9AF80230 		ldrb	r3, [sl, #2]	@ zero_extendqisi2
 375 0182 602B     		cmp	r3, #96
 376              		.loc 1 271 0
 377 0184 41EA0241 		orr	r1, r1, r2, lsl #16
 378              	.LVL27:
 379              		.loc 1 265 0
 380 0188 00F23882 		bhi	.L47
 381              		.loc 1 267 0
 382 018c 402B     		cmp	r3, #64
 383              		.loc 1 270 0
 384 018e 94BF     		ite	ls
 385 0190 A3F13002 		subls	r2, r3, #48
 386              	.LVL28:
 387              		.loc 1 268 0
 388 0194 A3F13102 		subhi	r2, r3, #49
 389              	.LVL29:
 390              	.L49:
 391              		.loc 1 265 0
 392 0198 9AF80330 		ldrb	r3, [sl, #3]	@ zero_extendqisi2
 393 019c 602B     		cmp	r3, #96
 394              		.loc 1 271 0
 395 019e 41EA0231 		orr	r1, r1, r2, lsl #12
 396              	.LVL30:
 397              		.loc 1 265 0
 398 01a2 00F22882 		bhi	.L50
 399              		.loc 1 267 0
ARM GAS  /tmp/ccOuzkN6.s 			page 8


 400 01a6 402B     		cmp	r3, #64
 401              		.loc 1 270 0
 402 01a8 94BF     		ite	ls
 403 01aa A3F13002 		subls	r2, r3, #48
 404              	.LVL31:
 405              		.loc 1 268 0
 406 01ae A3F13102 		subhi	r2, r3, #49
 407              	.LVL32:
 408              	.L52:
 409              		.loc 1 265 0
 410 01b2 9AF80430 		ldrb	r3, [sl, #4]	@ zero_extendqisi2
 411 01b6 602B     		cmp	r3, #96
 412              		.loc 1 271 0
 413 01b8 41EA0221 		orr	r1, r1, r2, lsl #8
 414              	.LVL33:
 415              		.loc 1 265 0
 416 01bc 00F21882 		bhi	.L53
 417              		.loc 1 267 0
 418 01c0 402B     		cmp	r3, #64
 419              		.loc 1 270 0
 420 01c2 94BF     		ite	ls
 421 01c4 A3F13002 		subls	r2, r3, #48
 422              	.LVL34:
 423              		.loc 1 268 0
 424 01c8 A3F13102 		subhi	r2, r3, #49
 425              	.LVL35:
 426              	.L55:
 427              		.loc 1 265 0
 428 01cc 9AF80530 		ldrb	r3, [sl, #5]	@ zero_extendqisi2
 429 01d0 602B     		cmp	r3, #96
 430              		.loc 1 271 0
 431 01d2 41EA0212 		orr	r2, r1, r2, lsl #4
 432              	.LVL36:
 433              		.loc 1 265 0
 434 01d6 40F20782 		bls	.L56
 435              		.loc 1 266 0
 436 01da 513B     		subs	r3, r3, #81
 437              	.LVL37:
 438              	.L57:
 439              		.loc 1 271 0
 440 01dc 43EA0200 		orr	r0, r3, r2
 441              		.loc 1 274 0
 442 01e0 FFF7FEFF 		bl	flashReadByte
 443              	.LVL38:
 444              		.loc 1 275 0
 445 01e4 0F49     		ldr	r1, .L126+24
 446              		.loc 1 274 0
 447 01e6 8146     		mov	r9, r0
 448              		.loc 1 275 0
 449 01e8 0C48     		ldr	r0, .L126+16
 450              		.loc 1 274 0
 451 01ea 8DF80F90 		strb	r9, [sp, #15]
 452              		.loc 1 279 0
 453 01ee 0025     		movs	r5, #0
 454              		.loc 1 275 0
 455 01f0 FFF7FEFF 		bl	chprintf
 456              		.loc 1 276 0
ARM GAS  /tmp/ccOuzkN6.s 			page 9


 457 01f4 0DF10F01 		add	r1, sp, #15
 458 01f8 0122     		movs	r2, #1
 459 01fa 4FF0FF33 		mov	r3, #-1
 460 01fe 0548     		ldr	r0, .L126+8
 461 0200 FFF7FEFF 		bl	chOQWriteTimeout
 462              	.LVL39:
 463              		.loc 1 277 0
 464 0204 A946     		mov	r9, r5
 465              		.loc 1 278 0
 466 0206 FFF7FEFF 		bl	showMenu
 467              	.LVL40:
 468 020a 0FE7     		b	.L10
 469              	.L127:
 470              		.align	2
 471              	.L126:
 472 020c 04000000 		.word	SD3+4
 473 0210 10000000 		.word	SD3+16
 474 0214 30000000 		.word	SD3+48
 475 0218 00000000 		.word	.LANCHOR0
 476 021c 00000000 		.word	SD3
 477 0220 6C010000 		.word	.LC12
 478 0224 60010000 		.word	.LC11
 479              	.LVL41:
 480              	.L118:
 481              	.LBE26:
 482              		.loc 1 288 0
 483 0228 9DF80CE0 		ldrb	lr, [sp, #12]	@ zero_extendqisi2
 484              		.loc 1 289 0
 485 022c BEF10D0F 		cmp	lr, #13
 486              		.loc 1 288 0
 487 0230 0AF805E0 		strb	lr, [sl, r5]
 488              		.loc 1 289 0
 489 0234 7FF462AF 		bne	.L60
 490              	.LVL42:
 491              	.LBB27:
 492              		.loc 1 293 0 discriminator 1
 493 0238 6F1E     		subs	r7, r5, #1
 494 023a 0121     		movs	r1, #1
 495 023c 002F     		cmp	r7, #0
 496 023e 06DD     		ble	.L61
 497              	.LVL43:
 498              	.L62:
 499              		.loc 1 293 0 is_stmt 0 discriminator 2
 500 0240 721C     		adds	r2, r6, #1
 501              		.loc 1 294 0 is_stmt 1 discriminator 2
 502 0242 01EB8103 		add	r3, r1, r1, lsl #2
 503              		.loc 1 293 0 discriminator 2
 504 0246 D6B2     		uxtb	r6, r2
 505              		.loc 1 294 0 discriminator 2
 506 0248 5900     		lsls	r1, r3, #1
 507              	.LVL44:
 508              		.loc 1 293 0 discriminator 2
 509 024a BE42     		cmp	r6, r7
 510 024c F8DB     		blt	.L62
 511              	.LVL45:
 512              	.L61:
 513              		.loc 1 296 0 discriminator 1
ARM GAS  /tmp/ccOuzkN6.s 			page 10


 514 024e 002D     		cmp	r5, #0
 515 0250 00F0E781 		beq	.L63
 516              		.loc 1 86 0
 517 0254 944B     		ldr	r3, .L128
 518 0256 581E     		subs	r0, r3, #1
 519              		.loc 1 297 0
 520 0258 1E78     		ldrb	r6, [r3, #0]	@ zero_extendqisi2
 521 025a C243     		mvns	r2, r0
 522              		.loc 1 86 0
 523 025c 5AFA87F7 		uxtab	r7, sl, r7
 524 0260 D019     		adds	r0, r2, r7
 525              		.loc 1 297 0
 526 0262 A6F1300B 		sub	fp, r6, #48
 527              		.loc 1 298 0
 528 0266 A8FB0162 		umull	r6, r2, r8, r1
 529 026a D208     		lsrs	r2, r2, #3
 530              		.loc 1 296 0
 531 026c BB42     		cmp	r3, r7
 532 026e 00F00100 		and	r0, r0, #1
 533              		.loc 1 297 0
 534 0272 01FB0BF9 		mul	r9, r1, fp
 535              	.LVL46:
 536              		.loc 1 296 0
 537 0276 1ED0     		beq	.L109
 538 0278 48B1     		cbz	r0, .L64
 539              		.loc 1 297 0
 540 027a 13F8010F 		ldrb	r0, [r3, #1]!	@ zero_extendqisi2
 541              		.loc 1 298 0
 542 027e A8FB0261 		umull	r6, r1, r8, r2
 543              	.LVL47:
 544              		.loc 1 297 0
 545 0282 3038     		subs	r0, r0, #48
 546 0284 02FB0099 		mla	r9, r2, r0, r9
 547              		.loc 1 298 0
 548 0288 CA08     		lsrs	r2, r1, #3
 549              		.loc 1 296 0
 550 028a BB42     		cmp	r3, r7
 551 028c 13D0     		beq	.L109
 552              	.L64:
 553              		.loc 1 297 0 discriminator 2
 554 028e 5E78     		ldrb	r6, [r3, #1]	@ zero_extendqisi2
 555 0290 93F802E0 		ldrb	lr, [r3, #2]	@ zero_extendqisi2
 556              		.loc 1 86 0 discriminator 2
 557 0294 581C     		adds	r0, r3, #1
 558              		.loc 1 298 0 discriminator 2
 559 0296 A8FB02C3 		umull	ip, r3, r8, r2
 560 029a D908     		lsrs	r1, r3, #3
 561              		.loc 1 297 0 discriminator 2
 562 029c 303E     		subs	r6, r6, #48
 563 029e 02FB0699 		mla	r9, r2, r6, r9
 564 02a2 AEF1300C 		sub	ip, lr, #48
 565              		.loc 1 86 0 discriminator 2
 566 02a6 431C     		adds	r3, r0, #1
 567              		.loc 1 298 0 discriminator 2
 568 02a8 A8FB01E6 		umull	lr, r6, r8, r1
 569 02ac F208     		lsrs	r2, r6, #3
 570              		.loc 1 296 0 discriminator 2
ARM GAS  /tmp/ccOuzkN6.s 			page 11


 571 02ae BB42     		cmp	r3, r7
 572              		.loc 1 297 0 discriminator 2
 573 02b0 01FB0C99 		mla	r9, r1, ip, r9
 574              		.loc 1 296 0 discriminator 2
 575 02b4 EBD1     		bne	.L64
 576              	.L109:
 577              		.loc 1 300 0
 578 02b6 4A46     		mov	r2, r9
 579 02b8 7C48     		ldr	r0, .L128+4
 580 02ba 7D49     		ldr	r1, .L128+8
 581 02bc FFF7FEFF 		bl	chprintf
 582              		.loc 1 301 0
 583 02c0 7A48     		ldr	r0, .L128+4
 584 02c2 7C49     		ldr	r1, .L128+12
 585 02c4 FFF7FEFF 		bl	chprintf
 586              		.loc 1 302 0
 587 02c8 0020     		movs	r0, #0
 588 02ca 2021     		movs	r1, #32
 589 02cc 0122     		movs	r2, #1
 590 02ce FFF7FEFF 		bl	flashErase
 591              		.loc 1 303 0
 592 02d2 7648     		ldr	r0, .L128+4
 593 02d4 7849     		ldr	r1, .L128+16
 594 02d6 4A46     		mov	r2, r9
 595 02d8 FFF7FEFF 		bl	chprintf
 596              	.LVL48:
 597              		.loc 1 304 0
 598 02dc B9F1000F 		cmp	r9, #0
 599 02e0 4ED0     		beq	.L65
 600              		.loc 1 305 0
 601 02e2 4FF0010B 		mov	fp, #1
 602 02e6 4FF0FF33 		mov	r3, #-1
 603 02ea 6F49     		ldr	r1, .L128
 604 02ec 7348     		ldr	r0, .L128+20
 605 02ee 5A46     		mov	r2, fp
 606 02f0 09EB0307 		add	r7, r9, r3
 607 02f4 FFF7FEFF 		bl	chIQReadTimeout
 608              		.loc 1 307 0
 609 02f8 0023     		movs	r3, #0
 610 02fa 7148     		ldr	r0, .L128+24
 611 02fc 6A49     		ldr	r1, .L128
 612 02fe 5A46     		mov	r2, fp
 613 0300 FFF7FEFF 		bl	chOQWriteTimeout
 614              	.LVL49:
 615              		.loc 1 304 0
 616 0304 CB45     		cmp	fp, r9
 617 0306 07EA0B06 		and	r6, r7, fp
 618 030a 5B46     		mov	r3, fp
 619 030c 5F46     		mov	r7, fp
 620 030e 37D2     		bcs	.L65
 621 0310 8EB1     		cbz	r6, .L66
 622              		.loc 1 305 0
 623 0312 6C4E     		ldr	r6, .L128+28
 624 0314 6948     		ldr	r0, .L128+20
 625 0316 5A46     		mov	r2, fp
 626 0318 3146     		mov	r1, r6
 627 031a 4FF0FF33 		mov	r3, #-1
ARM GAS  /tmp/ccOuzkN6.s 			page 12


 628 031e FFF7FEFF 		bl	chIQReadTimeout
 629              		.loc 1 304 0
 630 0322 0227     		movs	r7, #2
 631              		.loc 1 307 0
 632 0324 0023     		movs	r3, #0
 633 0326 5A46     		mov	r2, fp
 634 0328 6548     		ldr	r0, .L128+24
 635 032a 3146     		mov	r1, r6
 636 032c FFF7FEFF 		bl	chOQWriteTimeout
 637              		.loc 1 304 0
 638 0330 4F45     		cmp	r7, r9
 639 0332 3B46     		mov	r3, r7
 640 0334 24D2     		bcs	.L65
 641              	.L66:
 642              		.loc 1 305 0 discriminator 2
 643 0336 0AEB0306 		add	r6, sl, r3
 644 033a 3146     		mov	r1, r6
 645 033c 0122     		movs	r2, #1
 646 033e 4FF0FF33 		mov	r3, #-1
 647 0342 5E48     		ldr	r0, .L128+20
 648 0344 FFF7FEFF 		bl	chIQReadTimeout
 649              		.loc 1 307 0 discriminator 2
 650 0348 3146     		mov	r1, r6
 651 034a 0122     		movs	r2, #1
 652 034c 0023     		movs	r3, #0
 653 034e 5C48     		ldr	r0, .L128+24
 654 0350 FFF7FEFF 		bl	chOQWriteTimeout
 655              		.loc 1 304 0 discriminator 2
 656 0354 791C     		adds	r1, r7, #1
 657 0356 CEB2     		uxtb	r6, r1
 658              		.loc 1 305 0 discriminator 2
 659 0358 0AEB060B 		add	fp, sl, r6
 660 035c 0122     		movs	r2, #1
 661 035e 5946     		mov	r1, fp
 662 0360 4FF0FF33 		mov	r3, #-1
 663 0364 5548     		ldr	r0, .L128+20
 664 0366 FFF7FEFF 		bl	chIQReadTimeout
 665              		.loc 1 307 0 discriminator 2
 666 036a 0122     		movs	r2, #1
 667 036c 0023     		movs	r3, #0
 668 036e 5448     		ldr	r0, .L128+24
 669 0370 5946     		mov	r1, fp
 670 0372 FFF7FEFF 		bl	chOQWriteTimeout
 671              		.loc 1 304 0 discriminator 2
 672 0376 721C     		adds	r2, r6, #1
 673 0378 D7B2     		uxtb	r7, r2
 674 037a 4F45     		cmp	r7, r9
 675 037c 3B46     		mov	r3, r7
 676 037e DAD3     		bcc	.L66
 677              	.L65:
 678              		.loc 1 310 0
 679 0380 4A46     		mov	r2, r9
 680 0382 0020     		movs	r0, #0
 681 0384 4849     		ldr	r1, .L128
 682 0386 FFF7FEFF 		bl	flashWriteBytes
 683              	.LVL50:
 684              		.loc 1 311 0
ARM GAS  /tmp/ccOuzkN6.s 			page 13


 685 038a 4FF00009 		mov	r9, #0
 686              		.loc 1 312 0
 687 038e FFF7FEFF 		bl	showMenu
 688 0392 4BE6     		b	.L10
 689              	.LVL51:
 690              	.L124:
 691              	.LBE27:
 692              	.LBB28:
 693              	.LBB18:
 694              	.LBB19:
 695              		.loc 1 38 0
 696 0394 4548     		ldr	r0, .L128+4
 697 0396 4C49     		ldr	r1, .L128+32
 698 0398 FFF7FEFF 		bl	chprintf
 699              	.LVL52:
 700              		.loc 1 39 0
 701 039c 4348     		ldr	r0, .L128+4
 702 039e 4B49     		ldr	r1, .L128+36
 703              		.loc 1 201 0
 704 03a0 4D46     		mov	r5, r9
 705              		.loc 1 39 0
 706 03a2 FFF7FEFF 		bl	chprintf
 707              		.loc 1 212 0
 708 03a6 4FF00509 		mov	r9, #5
 709 03aa 3FE6     		b	.L10
 710              	.LVL53:
 711              	.L121:
 712              	.LBE19:
 713              	.LBE18:
 714              	.LBB20:
 715              	.LBB21:
 716              		.loc 1 26 0
 717 03ac 3F48     		ldr	r0, .L128+4
 718 03ae 4849     		ldr	r1, .L128+40
 719 03b0 FFF7FEFF 		bl	chprintf
 720              	.LVL54:
 721              		.loc 1 27 0
 722 03b4 3D48     		ldr	r0, .L128+4
 723 03b6 4549     		ldr	r1, .L128+36
 724              		.loc 1 201 0
 725 03b8 4D46     		mov	r5, r9
 726              		.loc 1 27 0
 727 03ba FFF7FEFF 		bl	chprintf
 728              		.loc 1 203 0
 729 03be 4FF00609 		mov	r9, #6
 730 03c2 33E6     		b	.L10
 731              	.LVL55:
 732              	.L120:
 733              	.LBE21:
 734              	.LBE20:
 735              	.LBE28:
 736              	.LBB29:
 737              		.loc 1 226 0
 738 03c4 3948     		ldr	r0, .L128+4
 739 03c6 4349     		ldr	r1, .L128+44
 740 03c8 FFF7FEFF 		bl	chprintf
 741              		.loc 1 227 0
ARM GAS  /tmp/ccOuzkN6.s 			page 14


 742 03cc 4A46     		mov	r2, r9
 743 03ce 4FF0FF33 		mov	r3, #-1
 744 03d2 3946     		mov	r1, r7
 745 03d4 3A48     		ldr	r0, .L128+24
 746 03d6 FFF7FEFF 		bl	chOQWriteTimeout
 747              		.loc 1 228 0
 748 03da 3448     		ldr	r0, .L128+4
 749 03dc 3E49     		ldr	r1, .L128+48
 750 03de FFF7FEFF 		bl	chprintf
 751              		.loc 1 229 0
 752 03e2 F91D     		adds	r1, r7, #7
 753 03e4 0122     		movs	r2, #1
 754 03e6 4FF0FF33 		mov	r3, #-1
 755 03ea 3548     		ldr	r0, .L128+24
 756 03ec FFF7FEFF 		bl	chOQWriteTimeout
 757              	.LVL56:
 758              		.loc 1 235 0
 759 03f0 3B78     		ldrb	r3, [r7, #0]	@ zero_extendqisi2
 760 03f2 602B     		cmp	r3, #96
 761 03f4 00F2F580 		bhi	.L21
 762              		.loc 1 237 0
 763 03f8 402B     		cmp	r3, #64
 764              		.loc 1 240 0
 765 03fa 94BF     		ite	ls
 766 03fc A3F13002 		subls	r2, r3, #48
 767              	.LVL57:
 768              		.loc 1 238 0
 769 0400 A3F13102 		subhi	r2, r3, #49
 770              	.LVL58:
 771              	.L23:
 772              		.loc 1 235 0
 773 0404 9AF80130 		ldrb	r3, [sl, #1]	@ zero_extendqisi2
 774              		.loc 1 241 0
 775 0408 1105     		lsls	r1, r2, #20
 776              	.LVL59:
 777              		.loc 1 235 0
 778 040a 602B     		cmp	r3, #96
 779 040c 00F2E680 		bhi	.L24
 780              		.loc 1 237 0
 781 0410 402B     		cmp	r3, #64
 782              		.loc 1 240 0
 783 0412 94BF     		ite	ls
 784 0414 A3F13002 		subls	r2, r3, #48
 785              	.LVL60:
 786              		.loc 1 238 0
 787 0418 A3F13102 		subhi	r2, r3, #49
 788              	.LVL61:
 789              	.L26:
 790              		.loc 1 235 0
 791 041c 9AF80230 		ldrb	r3, [sl, #2]	@ zero_extendqisi2
 792 0420 602B     		cmp	r3, #96
 793              		.loc 1 241 0
 794 0422 41EA0241 		orr	r1, r1, r2, lsl #16
 795              	.LVL62:
 796              		.loc 1 235 0
 797 0426 00F2D680 		bhi	.L27
 798              		.loc 1 237 0
ARM GAS  /tmp/ccOuzkN6.s 			page 15


 799 042a 402B     		cmp	r3, #64
 800              		.loc 1 240 0
 801 042c 94BF     		ite	ls
 802 042e A3F13002 		subls	r2, r3, #48
 803              	.LVL63:
 804              		.loc 1 238 0
 805 0432 A3F13102 		subhi	r2, r3, #49
 806              	.LVL64:
 807              	.L29:
 808              		.loc 1 235 0
 809 0436 9AF80330 		ldrb	r3, [sl, #3]	@ zero_extendqisi2
 810 043a 602B     		cmp	r3, #96
 811              		.loc 1 241 0
 812 043c 41EA0231 		orr	r1, r1, r2, lsl #12
 813              	.LVL65:
 814              		.loc 1 235 0
 815 0440 00F2C680 		bhi	.L30
 816              		.loc 1 237 0
 817 0444 402B     		cmp	r3, #64
 818              		.loc 1 240 0
 819 0446 94BF     		ite	ls
 820 0448 A3F13002 		subls	r2, r3, #48
 821              	.LVL66:
 822              		.loc 1 238 0
 823 044c A3F13102 		subhi	r2, r3, #49
 824              	.LVL67:
 825              	.L32:
 826              		.loc 1 235 0
 827 0450 9AF80430 		ldrb	r3, [sl, #4]	@ zero_extendqisi2
 828 0454 602B     		cmp	r3, #96
 829              		.loc 1 241 0
 830 0456 41EA0221 		orr	r1, r1, r2, lsl #8
 831              	.LVL68:
 832              		.loc 1 235 0
 833 045a 00F2B680 		bhi	.L33
 834              		.loc 1 237 0
 835 045e 402B     		cmp	r3, #64
 836              		.loc 1 240 0
 837 0460 94BF     		ite	ls
 838 0462 A3F13002 		subls	r2, r3, #48
 839              	.LVL69:
 840              		.loc 1 238 0
 841 0466 A3F13102 		subhi	r2, r3, #49
 842              	.LVL70:
 843              	.L35:
 844              		.loc 1 235 0
 845 046a 9AF80530 		ldrb	r3, [sl, #5]	@ zero_extendqisi2
 846 046e 602B     		cmp	r3, #96
 847              		.loc 1 241 0
 848 0470 41EA0212 		orr	r2, r1, r2, lsl #4
 849              	.LVL71:
 850              		.loc 1 235 0
 851 0474 40F2A580 		bls	.L36
 852              		.loc 1 236 0
 853 0478 513B     		subs	r3, r3, #81
 854              	.LVL72:
 855              	.L37:
ARM GAS  /tmp/ccOuzkN6.s 			page 16


 856              		.loc 1 244 0
 857 047a 9AF80710 		ldrb	r1, [sl, #7]	@ zero_extendqisi2
 858              		.loc 1 241 0
 859 047e 43EA0200 		orr	r0, r3, r2
 860              		.loc 1 247 0
 861 0482 0025     		movs	r5, #0
 862              		.loc 1 244 0
 863 0484 FFF7FEFF 		bl	flashWriteByte
 864              	.LVL73:
 865              		.loc 1 245 0
 866 0488 A946     		mov	r9, r5
 867              		.loc 1 246 0
 868 048a FFF7FEFF 		bl	showMenu
 869              	.LVL74:
 870 048e CDE5     		b	.L10
 871              	.LVL75:
 872              	.L122:
 873              	.LBE29:
 874              	.LBB30:
 875              	.LBB22:
 876              	.LBB23:
 877              		.loc 1 30 0
 878 0490 0648     		ldr	r0, .L128+4
 879 0492 1249     		ldr	r1, .L128+52
 880 0494 FFF7FEFF 		bl	chprintf
 881              	.LVL76:
 882              		.loc 1 31 0
 883 0498 0448     		ldr	r0, .L128+4
 884 049a 0C49     		ldr	r1, .L128+36
 885              		.loc 1 201 0
 886 049c 4D46     		mov	r5, r9
 887              		.loc 1 31 0
 888 049e FFF7FEFF 		bl	chprintf
 889              		.loc 1 206 0
 890 04a2 4FF00709 		mov	r9, #7
 891 04a6 C1E5     		b	.L10
 892              	.L129:
 893              		.align	2
 894              	.L128:
 895 04a8 00000000 		.word	.LANCHOR0
 896 04ac 00000000 		.word	SD3
 897 04b0 78010000 		.word	.LC13
 898 04b4 88010000 		.word	.LC14
 899 04b8 9C010000 		.word	.LC15
 900 04bc 10000000 		.word	SD3+16
 901 04c0 30000000 		.word	SD3+48
 902 04c4 01000000 		.word	.LANCHOR0+1
 903 04c8 1C010000 		.word	.LC9
 904 04cc C0000000 		.word	.LC6
 905 04d0 98000000 		.word	.LC5
 906 04d4 50010000 		.word	.LC10
 907 04d8 60010000 		.word	.LC11
 908 04dc C4000000 		.word	.LC7
 909              	.LVL77:
 910              	.L119:
 911              	.LBE23:
 912              	.LBE22:
ARM GAS  /tmp/ccOuzkN6.s 			page 17


 913              	.LBE30:
 914              	.LBB31:
 915              		.loc 1 327 0 discriminator 1
 916 04e0 05F1FF3E 		add	lr, r5, #-1
 917 04e4 BEF1000F 		cmp	lr, #0
 918 04e8 40F39580 		ble	.L81
 919              		.loc 1 327 0 is_stmt 0
 920 04ec 0023     		movs	r3, #0
 921 04ee 0121     		movs	r1, #1
 922              	.LVL78:
 923              	.L69:
 924              		.loc 1 327 0 discriminator 2
 925 04f0 0133     		adds	r3, r3, #1
 926              		.loc 1 328 0 is_stmt 1 discriminator 2
 927 04f2 01EB8107 		add	r7, r1, r1, lsl #2
 928              		.loc 1 327 0 discriminator 2
 929 04f6 DBB2     		uxtb	r3, r3
 930              		.loc 1 328 0 discriminator 2
 931 04f8 7900     		lsls	r1, r7, #1
 932              	.LVL79:
 933              		.loc 1 327 0 discriminator 2
 934 04fa 7345     		cmp	r3, lr
 935 04fc F8DB     		blt	.L69
 936              	.LVL80:
 937              		.loc 1 330 0 discriminator 1
 938 04fe 002D     		cmp	r5, #0
 939 0500 00F08D80 		beq	.L82
 940              	.L125:
 941              		.loc 1 86 0
 942 0504 514B     		ldr	r3, .L130
 943 0506 5F1E     		subs	r7, r3, #1
 944              		.loc 1 331 0
 945 0508 1E78     		ldrb	r6, [r3, #0]	@ zero_extendqisi2
 946 050a F843     		mvns	r0, r7
 947              		.loc 1 86 0
 948 050c 5AFA8EFE 		uxtab	lr, sl, lr
 949              		.loc 1 332 0
 950 0510 A8FB0172 		umull	r7, r2, r8, r1
 951              		.loc 1 331 0
 952 0514 303E     		subs	r6, r6, #48
 953 0516 00EB0E0C 		add	ip, r0, lr
 954              		.loc 1 332 0
 955 051a D208     		lsrs	r2, r2, #3
 956              		.loc 1 330 0
 957 051c 7345     		cmp	r3, lr
 958 051e 0CF00100 		and	r0, ip, #1
 959              		.loc 1 331 0
 960 0522 01FB06F6 		mul	r6, r1, r6
 961              	.LVL81:
 962              		.loc 1 330 0
 963 0526 1DD0     		beq	.L70
 964 0528 48B1     		cbz	r0, .L71
 965              		.loc 1 331 0
 966 052a 13F8010F 		ldrb	r0, [r3, #1]!	@ zero_extendqisi2
 967              		.loc 1 332 0
 968 052e A8FB0271 		umull	r7, r1, r8, r2
 969              	.LVL82:
ARM GAS  /tmp/ccOuzkN6.s 			page 18


 970              		.loc 1 331 0
 971 0532 3038     		subs	r0, r0, #48
 972 0534 02FB0066 		mla	r6, r2, r0, r6
 973              		.loc 1 332 0
 974 0538 CA08     		lsrs	r2, r1, #3
 975              		.loc 1 330 0
 976 053a 7345     		cmp	r3, lr
 977 053c 12D0     		beq	.L70
 978              	.L71:
 979              		.loc 1 331 0 discriminator 2
 980 053e 5F78     		ldrb	r7, [r3, #1]	@ zero_extendqisi2
 981              		.loc 1 86 0 discriminator 2
 982 0540 581C     		adds	r0, r3, #1
 983              		.loc 1 332 0 discriminator 2
 984 0542 A8FB02C1 		umull	ip, r1, r8, r2
 985              		.loc 1 331 0 discriminator 2
 986 0546 9B78     		ldrb	r3, [r3, #2]	@ zero_extendqisi2
 987              		.loc 1 332 0 discriminator 2
 988 0548 C908     		lsrs	r1, r1, #3
 989              		.loc 1 331 0 discriminator 2
 990 054a 303F     		subs	r7, r7, #48
 991 054c 02FB076B 		mla	fp, r2, r7, r6
 992 0550 A3F13009 		sub	r9, r3, #48
 993              		.loc 1 332 0 discriminator 2
 994 0554 A8FB0137 		umull	r3, r7, r8, r1
 995              		.loc 1 86 0 discriminator 2
 996 0558 431C     		adds	r3, r0, #1
 997              		.loc 1 332 0 discriminator 2
 998 055a FA08     		lsrs	r2, r7, #3
 999              		.loc 1 330 0 discriminator 2
 1000 055c 7345     		cmp	r3, lr
 1001              		.loc 1 331 0 discriminator 2
 1002 055e 01FB09B6 		mla	r6, r1, r9, fp
 1003              		.loc 1 330 0 discriminator 2
 1004 0562 ECD1     		bne	.L71
 1005              	.L70:
 1006              	.LVL83:
 1007              		.loc 1 330 0 is_stmt 0 discriminator 1
 1008 0564 0023     		movs	r3, #0
 1009              		.loc 1 335 0 is_stmt 1 discriminator 1
 1010 0566 1946     		mov	r1, r3
 1011              	.LVL84:
 1012              	.L72:
 1013              		.loc 1 334 0 discriminator 2
 1014 0568 5F1C     		adds	r7, r3, #1
 1015 056a FAB2     		uxtb	r2, r7
 1016 056c 501C     		adds	r0, r2, #1
 1017              		.loc 1 335 0 discriminator 2
 1018 056e 0AF80310 		strb	r1, [sl, r3]
 1019              	.LVL85:
 1020              		.loc 1 334 0 discriminator 2
 1021 0572 C3B2     		uxtb	r3, r0
 1022              	.LVL86:
 1023 0574 802B     		cmp	r3, #128
 1024              		.loc 1 335 0 discriminator 2
 1025 0576 0AF80210 		strb	r1, [sl, r2]
 1026              		.loc 1 334 0 discriminator 2
ARM GAS  /tmp/ccOuzkN6.s 			page 19


 1027 057a F5D1     		bne	.L72
 1028              		.loc 1 336 0
 1029 057c 3246     		mov	r2, r6
 1030 057e 3448     		ldr	r0, .L130+4
 1031 0580 3449     		ldr	r1, .L130+8
 1032 0582 FFF7FEFF 		bl	chprintf
 1033              	.LVL87:
 1034              		.loc 1 337 0
 1035 0586 0020     		movs	r0, #0
 1036 0588 3246     		mov	r2, r6
 1037 058a 3049     		ldr	r1, .L130
 1038 058c FFF7FEFF 		bl	flashReadBytes
 1039              		.loc 1 338 0
 1040 0590 2E49     		ldr	r1, .L130
 1041 0592 3148     		ldr	r0, .L130+12
 1042 0594 3246     		mov	r2, r6
 1043 0596 4FF0FF33 		mov	r3, #-1
 1044 059a FFF7FEFF 		bl	chOQWriteTimeout
 1045              	.LVL88:
 1046              		.loc 1 339 0
 1047 059e 4FF00009 		mov	r9, #0
 1048              		.loc 1 340 0
 1049 05a2 FFF7FEFF 		bl	showMenu
 1050 05a6 41E5     		b	.L10
 1051              	.LVL89:
 1052              	.L123:
 1053              	.LBE31:
 1054              	.LBB32:
 1055              	.LBB24:
 1056              	.LBB25:
 1057              		.loc 1 34 0
 1058 05a8 2948     		ldr	r0, .L130+4
 1059 05aa 2C49     		ldr	r1, .L130+16
 1060 05ac 8022     		movs	r2, #128
 1061 05ae FFF7FEFF 		bl	chprintf
 1062              	.LVL90:
 1063              		.loc 1 35 0
 1064 05b2 2748     		ldr	r0, .L130+4
 1065 05b4 2A49     		ldr	r1, .L130+20
 1066              		.loc 1 201 0
 1067 05b6 4D46     		mov	r5, r9
 1068              		.loc 1 35 0
 1069 05b8 FFF7FEFF 		bl	chprintf
 1070              		.loc 1 209 0
 1071 05bc 4FF00409 		mov	r9, #4
 1072 05c0 34E5     		b	.L10
 1073              	.LVL91:
 1074              	.L36:
 1075              	.LBE25:
 1076              	.LBE24:
 1077              	.LBE32:
 1078              	.LBB33:
 1079              		.loc 1 237 0
 1080 05c2 402B     		cmp	r3, #64
 1081 05c4 23D9     		bls	.L38
 1082              		.loc 1 238 0
 1083 05c6 313B     		subs	r3, r3, #49
ARM GAS  /tmp/ccOuzkN6.s 			page 20


 1084              	.LVL92:
 1085 05c8 57E7     		b	.L37
 1086              	.LVL93:
 1087              	.L33:
 1088              		.loc 1 236 0
 1089 05ca A3F15102 		sub	r2, r3, #81
 1090              	.LVL94:
 1091 05ce 4CE7     		b	.L35
 1092              	.LVL95:
 1093              	.L30:
 1094 05d0 A3F15102 		sub	r2, r3, #81
 1095              	.LVL96:
 1096 05d4 3CE7     		b	.L32
 1097              	.LVL97:
 1098              	.L27:
 1099 05d6 A3F15102 		sub	r2, r3, #81
 1100              	.LVL98:
 1101 05da 2CE7     		b	.L29
 1102              	.LVL99:
 1103              	.L24:
 1104 05dc A3F15102 		sub	r2, r3, #81
 1105              	.LVL100:
 1106 05e0 1CE7     		b	.L26
 1107              	.LVL101:
 1108              	.L21:
 1109 05e2 A3F15102 		sub	r2, r3, #81
 1110              	.LVL102:
 1111 05e6 0DE7     		b	.L23
 1112              	.LVL103:
 1113              	.L56:
 1114              	.LBE33:
 1115              	.LBB34:
 1116              		.loc 1 267 0
 1117 05e8 402B     		cmp	r3, #64
 1118 05ea 12D9     		bls	.L58
 1119              		.loc 1 268 0
 1120 05ec 313B     		subs	r3, r3, #49
 1121              	.LVL104:
 1122 05ee F5E5     		b	.L57
 1123              	.LVL105:
 1124              	.L53:
 1125              		.loc 1 266 0
 1126 05f0 A3F15102 		sub	r2, r3, #81
 1127              	.LVL106:
 1128 05f4 EAE5     		b	.L55
 1129              	.LVL107:
 1130              	.L50:
 1131 05f6 A3F15102 		sub	r2, r3, #81
 1132              	.LVL108:
 1133 05fa DAE5     		b	.L52
 1134              	.LVL109:
 1135              	.L47:
 1136 05fc A3F15102 		sub	r2, r3, #81
 1137              	.LVL110:
 1138 0600 CAE5     		b	.L49
 1139              	.LVL111:
 1140              	.L44:
ARM GAS  /tmp/ccOuzkN6.s 			page 21


 1141 0602 A3F15102 		sub	r2, r3, #81
 1142              	.LVL112:
 1143 0606 BAE5     		b	.L46
 1144              	.LVL113:
 1145              	.L41:
 1146 0608 A3F15102 		sub	r2, r3, #81
 1147              	.LVL114:
 1148 060c ABE5     		b	.L43
 1149              	.LVL115:
 1150              	.L38:
 1151              	.LBE34:
 1152              	.LBB35:
 1153              		.loc 1 240 0
 1154 060e 303B     		subs	r3, r3, #48
 1155              	.LVL116:
 1156 0610 33E7     		b	.L37
 1157              	.LVL117:
 1158              	.L58:
 1159              	.LBE35:
 1160              	.LBB36:
 1161              		.loc 1 270 0
 1162 0612 303B     		subs	r3, r3, #48
 1163              	.LVL118:
 1164 0614 E2E5     		b	.L57
 1165              	.LVL119:
 1166              	.L81:
 1167              	.LBE36:
 1168              	.LBB37:
 1169              		.loc 1 327 0
 1170 0616 0121     		movs	r1, #1
 1171              	.LVL120:
 1172              		.loc 1 330 0
 1173 0618 002D     		cmp	r5, #0
 1174 061a 7FF473AF 		bne	.L125
 1175              	.L82:
 1176 061e 2E46     		mov	r6, r5
 1177 0620 A0E7     		b	.L70
 1178              	.LVL121:
 1179              	.L63:
 1180              	.LBE37:
 1181              	.LBB38:
 1182              		.loc 1 300 0
 1183 0622 2A46     		mov	r2, r5
 1184 0624 0A48     		ldr	r0, .L130+4
 1185 0626 0F49     		ldr	r1, .L130+24
 1186              	.LVL122:
 1187 0628 FFF7FEFF 		bl	chprintf
 1188              		.loc 1 301 0
 1189 062c 0E49     		ldr	r1, .L130+28
 1190 062e 0848     		ldr	r0, .L130+4
 1191 0630 FFF7FEFF 		bl	chprintf
 1192              		.loc 1 302 0
 1193 0634 2846     		mov	r0, r5
 1194 0636 2021     		movs	r1, #32
 1195 0638 0122     		movs	r2, #1
 1196 063a FFF7FEFF 		bl	flashErase
 1197              		.loc 1 303 0
ARM GAS  /tmp/ccOuzkN6.s 			page 22


 1198 063e 0448     		ldr	r0, .L130+4
 1199 0640 0A49     		ldr	r1, .L130+32
 1200 0642 2A46     		mov	r2, r5
 1201 0644 FFF7FEFF 		bl	chprintf
 1202 0648 A946     		mov	r9, r5
 1203 064a 99E6     		b	.L65
 1204              	.L131:
 1205              		.align	2
 1206              	.L130:
 1207 064c 00000000 		.word	.LANCHOR0
 1208 0650 00000000 		.word	SD3
 1209 0654 C0010000 		.word	.LC16
 1210 0658 30000000 		.word	SD3+48
 1211 065c E0000000 		.word	.LC8
 1212 0660 C0000000 		.word	.LC6
 1213 0664 78010000 		.word	.LC13
 1214 0668 88010000 		.word	.LC14
 1215 066c 9C010000 		.word	.LC15
 1216              	.LBE38:
 1217              		.cfi_endproc
 1218              	.LFE122:
 1219              		.size	UART_Thread, .-UART_Thread
 1220              		.section	.bss.input_buffer,"aw",%nobits
 1221              		.align	2
 1222              		.set	.LANCHOR0,. + 0
 1223              		.type	input_buffer, %object
 1224              		.size	input_buffer, 128
 1225              	input_buffer:
 1226 0000 00000000 		.space	128
 1226      00000000 
 1226      00000000 
 1226      00000000 
 1226      00000000 
 1227              		.section	.rodata.str1.4,"aMS",%progbits,1
 1228              		.align	2
 1229              	.LC0:
 1230 0000 0D0A4465 		.ascii	"\015\012Development Menu\015\012\000"
 1230      76656C6F 
 1230      706D656E 
 1230      74204D65 
 1230      6E750D0A 
 1231 0015 000000   		.space	3
 1232              	.LC1:
 1233 0018 28312920 		.ascii	"(1) Write Byte to SPI Flash\015\012\000"
 1233      57726974 
 1233      65204279 
 1233      74652074 
 1233      6F205350 
 1234 0036 0000     		.space	2
 1235              	.LC2:
 1236 0038 28322920 		.ascii	"(2) Read Byte from SPI Flash\015\012\000"
 1236      52656164 
 1236      20427974 
 1236      65206672 
 1236      6F6D2053 
 1237 0057 00       		.space	1
 1238              	.LC3:
ARM GAS  /tmp/ccOuzkN6.s 			page 23


 1239 0058 28332920 		.ascii	"(3) Write Bytes to SPI Flash\015\012\000"
 1239      57726974 
 1239      65204279 
 1239      74657320 
 1239      746F2053 
 1240 0077 00       		.space	1
 1241              	.LC4:
 1242 0078 28342920 		.ascii	"(4) Read Bytes from SPI Flash\015\012\000"
 1242      52656164 
 1242      20427974 
 1242      65732066 
 1242      726F6D20 
 1243              	.LC5:
 1244 0098 0D0A3C48 		.ascii	"\015\012<Hex Address> <Hex Byte>: 00100F Z\015\012\000"
 1244      65782041 
 1244      64647265 
 1244      73733E20 
 1244      3C486578 
 1245 00bf 00       		.space	1
 1246              	.LC6:
 1247 00c0 203A3E00 		.ascii	" :>\000"
 1248              	.LC7:
 1249 00c4 0D0A3C48 		.ascii	"\015\012<Hex Address>: 00100F\015\012\000"
 1249      65782041 
 1249      64647265 
 1249      73733E3A 
 1249      20303031 
 1250 00de 0000     		.space	2
 1251              	.LC8:
 1252 00e0 0D0A5374 		.ascii	"\015\012Startng at 0x000000, enter number of bytes "
 1252      6172746E 
 1252      67206174 
 1252      20307830 
 1252      30303030 
 1253 010d 286D6178 		.ascii	"(max %d):\015\012\000"
 1253      20256429 
 1253      3A0D0A00 
 1254 0119 000000   		.space	3
 1255              	.LC9:
 1256 011c 0D0A5265 		.ascii	"\015\012Reading from 0x000000, enter number of byte"
 1256      6164696E 
 1256      67206672 
 1256      6F6D2030 
 1256      78303030 
 1257 0149 733A0D0A 		.ascii	"s:\015\012\000"
 1257      00
 1258 014e 0000     		.space	2
 1259              	.LC10:
 1260 0150 0D0A4465 		.ascii	"\015\012Destination: \000"
 1260      7374696E 
 1260      6174696F 
 1260      6E3A2000 
 1261              	.LC11:
 1262 0160 0D0A4461 		.ascii	"\015\012Data: \000"
 1262      74613A20 
 1262      00
 1263 0169 000000   		.space	3
ARM GAS  /tmp/ccOuzkN6.s 			page 24


 1264              	.LC12:
 1265 016c 0D0A5461 		.ascii	"\015\012Target: \000"
 1265      72676574 
 1265      3A2000
 1266 0177 00       		.space	1
 1267              	.LC13:
 1268 0178 0D0A4E75 		.ascii	"\015\012Num Bytes: %d\000"
 1268      6D204279 
 1268      7465733A 
 1268      20256400 
 1269              	.LC14:
 1270 0188 0D0A4572 		.ascii	"\015\012Erasing Flash\015\012\000"
 1270      6173696E 
 1270      6720466C 
 1270      6173680D 
 1270      0A00
 1271 019a 0000     		.space	2
 1272              	.LC15:
 1273 019c 0D0A4572 		.ascii	"\015\012Erasing Done, Transfer %d bytes\015\012\000"
 1273      6173696E 
 1273      6720446F 
 1273      6E652C20 
 1273      5472616E 
 1274              	.LC16:
 1275 01c0 0D0A4E75 		.ascii	"\015\012Num Bytes: %d\015\012\000"
 1275      6D204279 
 1275      7465733A 
 1275      2025640D 
 1275      0A00
 1276 01d2 0000     		.text
 1277              	.Letext0:
 1278              		.file 2 "/usr/bin/../lib/gcc/arm-none-eabi/4.6.2/include/stddef.h"
 1279              		.file 3 "/usr/bin/../lib/gcc/arm-none-eabi/4.6.2/../../../../arm-none-eabi/include/stdint.h"
 1280              		.file 4 "./os/ports/GCC/ARMCMx/chtypes.h"
 1281              		.file 5 "./os/kernel/include/chlists.h"
 1282              		.file 6 "./os/kernel/include/chthreads.h"
 1283              		.file 7 "./os/ports/GCC/ARMCMx/chcore_v7m.h"
 1284              		.file 8 "./os/kernel/include/chmtx.h"
 1285              		.file 9 "./os/kernel/include/chevents.h"
 1286              		.file 10 "./os/kernel/include/chqueues.h"
 1287              		.file 11 "./os/kernel/include/chioch.h"
 1288              		.file 12 "./os/hal/platforms/STM32F4xx/stm32f4xx.h"
 1289              		.file 13 "./os/hal/platforms/STM32/GPIOv2/pal_lld.h"
 1290              		.file 14 "./os/hal/include/serial.h"
 1291              		.file 15 "./os/ports/common/ARMCMx/CMSIS/include/core_cm4.h"
 1292              		.file 16 "./os/hal/platforms/STM32/serial_lld.h"